00000000  EB55              jmp short 0x57
00000002  90                nop
00000003  42                inc dx
00000004  41                inc cx
00000005  4E                dec si
00000006  41                inc cx
00000007  4E                dec si
00000008  41                inc cx
00000009  2020              and [bx+si],ah
0000000B  0002              add [bp+si],al
0000000D  017E18            add [bp+0x18],di
00000010  0200              add al,[bx+si]
00000012  0000              add [bx+si],al
00000014  00F8              add al,bh
00000016  0000              add [bx+si],al
00000018  3F                aas
00000019  0020              add [bx+si],ah
0000001B  0001              add [bx+di],al
0000001D  0000              add [bx+si],al
0000001F  0000              add [bx+si],al
00000021  0002              add [bp+si],al
00000023  00C1              add cl,al
00000025  0300              add ax,[bx+si]
00000027  0000              add [bx+si],al
00000029  0000              add [bx+si],al
0000002B  0002              add [bp+si],al
0000002D  0000              add [bx+si],al
0000002F  0001              add [bx+di],al
00000031  00060046          add [0x4600],al
00000035  49                dec cx
00000036  52                push dx
00000037  4D                dec bp
00000038  57                push di
00000039  41                inc cx
0000003A  52                push dx
0000003B  45                inc bp
0000003C  4C                dec sp
0000003D  49                dec cx
0000003E  42                inc dx
0000003F  20800028          and [bx+si+0x2800],al
00000043  011B              add [bp+di],bx
00000045  77B3              ja 0xfffa
00000047  1000              adc [bx+si],al
00000049  0100              add [bx+si],ax
0000004B  0005              add [di],al
0000004D  0000              add [bx+si],al
0000004F  0000              add [bx+si],al
00000051  0000              add [bx+si],al
00000053  0000              add [bx+si],al
00000055  0000              add [bx+si],al
00000057  FA                cli
00000058  FC                cld
00000059  EA5E7C0000        jmp 0x0:0x7c5e
0000005E  31C0              xor ax,ax
00000060  8ED8              mov ds,ax
00000062  8EC0              mov es,ax
00000064  89C4              mov sp,ax
00000066  8ED0              mov ss,ax
00000068  66C7060A7C202020  mov dword [0x7c0a],0x20202020
         -20
00000071  8816417C          mov [0x7c41],dl
00000075  50                push ax
00000076  52                push dx
00000077  CD10              int 0x10
00000079  31ED              xor bp,bp
0000007B  E80A01            call 0x188
0000007E  E8A300            call 0x124
00000081  BF0005            mov di,0x500
00000084  BE037C            mov si,0x7c03
00000087  01EE              add si,bp
00000089  B90B00            mov cx,0xb
0000008C  57                push di
0000008D  F3A6              repe cmpsb
0000008F  5F                pop di
00000090  740F              jz 0xa1
00000092  81C72000          add di,0x20
00000096  81FF0007          cmp di,0x700
0000009A  75E8              jnz 0x84
0000009C  E80501            call 0x1a4
0000009F  EBDD              jmp short 0x7e
000000A1  C706097C4254      mov word [0x7c09],0x5442
000000A7  803EFA7C00        cmp byte [0x7cfa],0x0
000000AC  7503              jnz 0xb1
000000AE  BD3100            mov bp,0x31
000000B1  8B4514            mov ax,[di+0x14]
000000B4  66C1E010          shl eax,byte 0x10
000000B8  8B451A            mov ax,[di+0x1a]
000000BB  6650              push eax
000000BD  E8C800            call 0x188
000000C0  665B              pop ebx
000000C2  6601D8            add eax,ebx
000000C5  6648              dec eax
000000C7  6648              dec eax
000000C9  4C                dec sp
000000CA  7BB2              jpo 0x7e
000000CC  5B                pop bx
000000CD  668B5D1C          mov ebx,[di+0x1c]
000000D1  66C1EB09          shr ebx,byte 0x9
000000D5  8B0E027D          mov cx,[0x7d02]
000000D9  870E4B7C          xchg cx,[0x7c4b]
000000DD  51                push cx
000000DE  E84300            call 0x124
000000E1  8F064B7C          pop word [0x7c4b]
000000E5  6685DB            test ebx,ebx
000000E8  7422              jz 0x10c
000000EA  6653              push ebx
000000EC  E8B500            call 0x1a4
000000EF  665B              pop ebx
000000F1  664B              dec ebx
000000F3  8006037D02        add byte [0x7d03],0x2
000000F8  EBDB              jmp short 0xd5
000000FA  FF4E6F            dec word [bp+0x6f]
000000FD  206669            and [bp+0x69],ah
00000100  6C                insb
00000101  65007E44          add [gs:bp+0x44],bh
00000105  69736B2065        imul si,[bp+di+0x6b],word 0x6520
0000010A  7272              jc 0x17e
0000010C  BB00C0            mov bx,0xc000
0000010F  891E027D          mov [0x7d02],bx
00000113  C706097C2020      mov word [0x7c09],0x2020
00000119  FE06FA7C          inc byte [0x7cfa]
0000011D  0F845AFF          jz near 0x7b
00000121  5A                pop dx
00000122  53                push bx
00000123  CB                retf
00000124  6660              pushad
00000126  66A34F7C          mov [0x7c4f],eax
0000012A  8A16417C          mov dl,[0x7c41]
0000012E  52                push dx
0000012F  B442              mov ah,0x42
00000131  BE477C            mov si,0x7c47
00000134  CD13              int 0x13
00000136  5A                pop dx
00000137  733E              jnc 0x177
00000139  B408              mov ah,0x8
0000013B  31FF              xor di,di
0000013D  52                push dx
0000013E  CD13              int 0x13
00000140  7238              jc 0x17a
00000142  FEC6              inc dh
00000144  81E13F00          and cx,0x3f
00000148  88F3              mov bl,dh
0000014A  30FF              xor bh,bh
0000014C  0FB5064F7C        lgs ax,[0x7c4f]
00000151  8CEA              mov dx,gs
00000153  F7F1              div cx
00000155  FEC2              inc dl
00000157  88D1              mov cl,dl
00000159  31D2              xor dx,dx
0000015B  F7F3              div bx
0000015D  80E403            and ah,0x3
00000160  C0E406            shl ah,byte 0x6
00000163  08E1              or cl,ah
00000165  88C5              mov ch,al
00000167  B80102            mov ax,0x201
0000016A  88D6              mov dh,dl
0000016C  5B                pop bx
0000016D  88DA              mov dl,bl
0000016F  8B1E4B7C          mov bx,[0x7c4b]
00000173  CD13              int 0x13
00000175  7203              jc 0x17a
00000177  6661              popad
00000179  C3                ret
0000017A  BE047D            mov si,0x7d04
0000017D  B40E              mov ah,0xe
0000017F  AC                lodsb
00000180  3C00              cmp al,0x0
00000182  74FE              jz 0x182
00000184  CD10              int 0x10
00000186  EBF5              jmp short 0x17d
00000188  66A1247C          mov eax,[0x7c24]
0000018C  8A0E107C          mov cl,[0x7c10]
00000190  FEC9              dec cl
00000192  66D3E0            shl eax,cl
00000195  660FB71E0E7C      movzx ebx,word [0x7c0e]
0000019B  66031E1C7C        add ebx,[0x7c1c]
000001A0  6601D8            add eax,ebx
000001A3  C3                ret
000001A4  6689C2            mov edx,eax
000001A7  E8DEFF            call 0x188
000001AA  6629C2            sub edx,eax
000001AD  6642              inc edx
000001AF  6642              inc edx
000001B1  6689D0            mov eax,edx
000001B4  66C1EA07          shr edx,byte 0x7
000001B8  6601DA            add edx,ebx
000001BB  89C3              mov bx,ax
000001BD  D1E3              shl bx,1
000001BF  30FF              xor bh,bh
000001C1  D1E3              shl bx,1
000001C3  6689D0            mov eax,edx
000001C6  E85BFF            call 0x124
000001C9  80C705            add bh,0x5
000001CC  66FF37            push dword [bx]
000001CF  E8B6FF            call 0x188
000001D2  665B              pop ebx
000001D4  6681E3FFFFFF0F    and ebx,0xfffffff
000001DB  BEFB7C            mov si,0x7cfb
000001DE  6681FBF8FFFF0F    cmp ebx,0xffffff8
000001E5  7D96              jnl 0x17d
000001E7  6601D8            add eax,ebx
000001EA  6648              dec eax
000001EC  6648              dec eax
000001EE  C3                ret
000001EF  0101              add [bx+di],ax
000001F1  0101              add [bx+di],ax
000001F3  0101              add [bx+di],ax
000001F5  0101              add [bx+di],ax
000001F7  0101              add [bx+di],ax
000001F9  0101              add [bx+di],ax
000001FB  0101              add [bx+di],ax
000001FD  0155AA            add [di-0x56],dx
00000000  EB55              jmp short 0x57
00000002  90                nop
00000003  42                inc dx
00000004  41                inc cx
00000005  4E                dec si
00000006  41                inc cx
00000007  4E                dec si
00000008  41                inc cx
00000009  2020              and [bx+si],ah
0000000B  0002              add [bp+si],al
0000000D  017E18            add [bp+0x18],di
00000010  0200              add al,[bx+si]
00000012  0000              add [bx+si],al
00000014  00F8              add al,bh
00000016  0000              add [bx+si],al
00000018  3F                aas
00000019  0020              add [bx+si],ah
0000001B  0001              add [bx+di],al
0000001D  0000              add [bx+si],al
0000001F  0000              add [bx+si],al
00000021  0002              add [bp+si],al
00000023  00C1              add cl,al
00000025  0300              add ax,[bx+si]
00000027  0000              add [bx+si],al
00000029  0000              add [bx+si],al
0000002B  0002              add [bp+si],al
0000002D  0000              add [bx+si],al
0000002F  0001              add [bx+di],al
00000031  00060046          add [0x4600],al
00000035  49                dec cx
00000036  52                push dx
00000037  4D                dec bp
00000038  57                push di
00000039  41                inc cx
0000003A  52                push dx
0000003B  45                inc bp
0000003C  4C                dec sp
0000003D  49                dec cx
0000003E  42                inc dx
0000003F  20800028          and [bx+si+0x2800],al
00000043  011B              add [bp+di],bx
00000045  77B3              ja 0xfffa
00000047  1000              adc [bx+si],al
00000049  0100              add [bx+si],ax
0000004B  0005              add [di],al
0000004D  0000              add [bx+si],al
0000004F  0000              add [bx+si],al
00000051  0000              add [bx+si],al
00000053  0000              add [bx+si],al
00000055  0000              add [bx+si],al
00000057  FA                cli
00000058  FC                cld
00000059  EA5E7C0000        jmp 0x0:0x7c5e
0000005E  31C0              xor ax,ax
00000060  8ED8              mov ds,ax
00000062  8EC0              mov es,ax
00000064  89C4              mov sp,ax
00000066  8ED0              mov ss,ax
00000068  66C7060A7C202020  mov dword [0x7c0a],0x20202020
         -20
00000071  8816417C          mov [0x7c41],dl
00000075  50                push ax
00000076  52                push dx
00000077  CD10              int 0x10
00000079  31ED              xor bp,bp
0000007B  E80A01            call 0x188
0000007E  E8A300            call 0x124
00000081  BF0005            mov di,0x500
00000084  BE037C            mov si,0x7c03
00000087  01EE              add si,bp
00000089  B90B00            mov cx,0xb
0000008C  57                push di
0000008D  F3A6              repe cmpsb
0000008F  5F                pop di
00000090  740F              jz 0xa1
00000092  81C72000          add di,0x20
00000096  81FF0007          cmp di,0x700
0000009A  75E8              jnz 0x84
0000009C  E80501            call 0x1a4
0000009F  EBDD              jmp short 0x7e
000000A1  C706097C4254      mov word [0x7c09],0x5442
000000A7  803EFA7C00        cmp byte [0x7cfa],0x0
000000AC  7503              jnz 0xb1
000000AE  BD3100            mov bp,0x31
000000B1  8B4514            mov ax,[di+0x14]
000000B4  66C1E010          shl eax,byte 0x10
000000B8  8B451A            mov ax,[di+0x1a]
000000BB  6650              push eax
000000BD  E8C800            call 0x188
000000C0  665B              pop ebx
000000C2  6601D8            add eax,ebx
000000C5  6648              dec eax
000000C7  6648              dec eax
000000C9  4C                dec sp
000000CA  7BB2              jpo 0x7e
000000CC  5B                pop bx
000000CD  668B5D1C          mov ebx,[di+0x1c]
000000D1  66C1EB09          shr ebx,byte 0x9
000000D5  8B0E027D          mov cx,[0x7d02]
000000D9  870E4B7C          xchg cx,[0x7c4b]
000000DD  51                push cx
000000DE  E84300            call 0x124
000000E1  8F064B7C          pop word [0x7c4b]
000000E5  6685DB            test ebx,ebx
000000E8  7422              jz 0x10c
000000EA  6653              push ebx
000000EC  E8B500            call 0x1a4
000000EF  665B              pop ebx
000000F1  664B              dec ebx
000000F3  8006037D02        add byte [0x7d03],0x2
000000F8  EBDB              jmp short 0xd5
000000FA  FF4E6F            dec word [bp+0x6f]
000000FD  206669            and [bp+0x69],ah
00000100  6C                insb
00000101  65007E44          add [gs:bp+0x44],bh
00000105  69736B2065        imul si,[bp+di+0x6b],word 0x6520
0000010A  7272              jc 0x17e
0000010C  BB00C0            mov bx,0xc000
0000010F  891E027D          mov [0x7d02],bx
00000113  C706097C2020      mov word [0x7c09],0x2020
00000119  FE06FA7C          inc byte [0x7cfa]
0000011D  0F845AFF          jz near 0x7b
00000121  5A                pop dx
00000122  53                push bx
00000123  CB                retf
00000124  6660              pushad
00000126  66A34F7C          mov [0x7c4f],eax
0000012A  8A16417C          mov dl,[0x7c41]
0000012E  52                push dx
0000012F  B442              mov ah,0x42
00000131  BE477C            mov si,0x7c47
00000134  CD13              int 0x13
00000136  5A                pop dx
00000137  733E              jnc 0x177
00000139  B408              mov ah,0x8
0000013B  31FF              xor di,di
0000013D  52                push dx
0000013E  CD13              int 0x13
00000140  7238              jc 0x17a
00000142  FEC6              inc dh
00000144  81E13F00          and cx,0x3f
00000148  88F3              mov bl,dh
0000014A  30FF              xor bh,bh
0000014C  0FB5064F7C        lgs ax,[0x7c4f]
00000151  8CEA              mov dx,gs
00000153  F7F1              div cx
00000155  FEC2              inc dl
00000157  88D1              mov cl,dl
00000159  31D2              xor dx,dx
0000015B  F7F3              div bx
0000015D  80E403            and ah,0x3
00000160  C0E406            shl ah,byte 0x6
00000163  08E1              or cl,ah
00000165  88C5              mov ch,al
00000167  B80102            mov ax,0x201
0000016A  88D6              mov dh,dl
0000016C  5B                pop bx
0000016D  88DA              mov dl,bl
0000016F  8B1E4B7C          mov bx,[0x7c4b]
00000173  CD13              int 0x13
00000175  7203              jc 0x17a
00000177  6661              popad
00000179  C3                ret
0000017A  BE047D            mov si,0x7d04
0000017D  B40E              mov ah,0xe
0000017F  AC                lodsb
00000180  3C00              cmp al,0x0
00000182  74FE              jz 0x182
00000184  CD10              int 0x10
00000186  EBF5              jmp short 0x17d
00000188  66A1247C          mov eax,[0x7c24]
0000018C  8A0E107C          mov cl,[0x7c10]
00000190  FEC9              dec cl
00000192  66D3E0            shl eax,cl
00000195  660FB71E0E7C      movzx ebx,word [0x7c0e]
0000019B  66031E1C7C        add ebx,[0x7c1c]
000001A0  6601D8            add eax,ebx
000001A3  C3                ret
000001A4  6689C2            mov edx,eax
000001A7  E8DEFF            call 0x188
000001AA  6629C2            sub edx,eax
000001AD  6642              inc edx
000001AF  6642              inc edx
000001B1  6689D0            mov eax,edx
000001B4  66C1EA07          shr edx,byte 0x7
000001B8  6601DA            add edx,ebx
000001BB  89C3              mov bx,ax
000001BD  D1E3              shl bx,1
000001BF  30FF              xor bh,bh
000001C1  D1E3              shl bx,1
000001C3  6689D0            mov eax,edx
000001C6  E85BFF            call 0x124
000001C9  80C705            add bh,0x5
000001CC  66FF37            push dword [bx]
000001CF  E8B6FF            call 0x188
000001D2  665B              pop ebx
000001D4  6681E3FFFFFF0F    and ebx,0xfffffff
000001DB  BEFB7C            mov si,0x7cfb
000001DE  6681FBF8FFFF0F    cmp ebx,0xffffff8
000001E5  7D96              jnl 0x17d
000001E7  6601D8            add eax,ebx
000001EA  6648              dec eax
000001EC  6648              dec eax
000001EE  C3                ret
000001EF  0101              add [bx+di],ax
000001F1  0101              add [bx+di],ax
000001F3  0101              add [bx+di],ax
000001F5  0101              add [bx+di],ax
000001F7  0101              add [bx+di],ax
000001F9  0101              add [bx+di],ax
000001FB  0101              add [bx+di],ax
000001FD  0155AA            add [di-0x56],dx
00000000  EB55              jmp short 0x57
00000002  90                nop
00000003  42                inc dx
00000004  41                inc cx
00000005  4E                dec si
00000006  41                inc cx
00000007  4E                dec si
00000008  41                inc cx
00000009  2020              and [bx+si],ah
0000000B  0002              add [bp+si],al
0000000D  017E18            add [bp+0x18],di
00000010  0200              add al,[bx+si]
00000012  0000              add [bx+si],al
00000014  00F8              add al,bh
00000016  0000              add [bx+si],al
00000018  3F                aas
00000019  0020              add [bx+si],ah
0000001B  0001              add [bx+di],al
0000001D  0000              add [bx+si],al
0000001F  0000              add [bx+si],al
00000021  0002              add [bp+si],al
00000023  00C1              add cl,al
00000025  0300              add ax,[bx+si]
00000027  0000              add [bx+si],al
00000029  0000              add [bx+si],al
0000002B  0002              add [bp+si],al
0000002D  0000              add [bx+si],al
0000002F  0001              add [bx+di],al
00000031  00060046          add [0x4600],al
00000035  49                dec cx
00000036  52                push dx
00000037  4D                dec bp
00000038  57                push di
00000039  41                inc cx
0000003A  52                push dx
0000003B  45                inc bp
0000003C  4C                dec sp
0000003D  49                dec cx
0000003E  42                inc dx
0000003F  20800028          and [bx+si+0x2800],al
00000043  011B              add [bp+di],bx
00000045  77B3              ja 0xfffa
00000047  1000              adc [bx+si],al
00000049  0100              add [bx+si],ax
0000004B  0005              add [di],al
0000004D  0000              add [bx+si],al
0000004F  0000              add [bx+si],al
00000051  0000              add [bx+si],al
00000053  0000              add [bx+si],al
00000055  0000              add [bx+si],al
00000057  FA                cli
00000058  FC                cld
00000059  EA5E7C0000        jmp 0x0:0x7c5e
0000005E  31C0              xor ax,ax
00000060  8ED8              mov ds,ax
00000062  8EC0              mov es,ax
00000064  89C4              mov sp,ax
00000066  8ED0              mov ss,ax
00000068  66C7060A7C202020  mov dword [0x7c0a],0x20202020
         -20
00000071  8816417C          mov [0x7c41],dl
00000075  50                push ax
00000076  52                push dx
00000077  CD10              int 0x10
00000079  31ED              xor bp,bp
0000007B  E80A01            call 0x188
0000007E  E8A300            call 0x124
00000081  BF0005            mov di,0x500
00000084  BE037C            mov si,0x7c03
00000087  01EE              add si,bp
00000089  B90B00            mov cx,0xb
0000008C  57                push di
0000008D  F3A6              repe cmpsb
0000008F  5F                pop di
00000090  740F              jz 0xa1
00000092  81C72000          add di,0x20
00000096  81FF0007          cmp di,0x700
0000009A  75E8              jnz 0x84
0000009C  E80501            call 0x1a4
0000009F  EBDD              jmp short 0x7e
000000A1  C706097C4254      mov word [0x7c09],0x5442
000000A7  803EFA7C00        cmp byte [0x7cfa],0x0
000000AC  7503              jnz 0xb1
000000AE  BD3100            mov bp,0x31
000000B1  8B4514            mov ax,[di+0x14]
000000B4  66C1E010          shl eax,byte 0x10
000000B8  8B451A            mov ax,[di+0x1a]
000000BB  6650              push eax
000000BD  E8C800            call 0x188
000000C0  665B              pop ebx
000000C2  6601D8            add eax,ebx
000000C5  6648              dec eax
000000C7  6648              dec eax
000000C9  4C                dec sp
000000CA  7BB2              jpo 0x7e
000000CC  5B                pop bx
000000CD  668B5D1C          mov ebx,[di+0x1c]
000000D1  66C1EB09          shr ebx,byte 0x9
000000D5  8B0E027D          mov cx,[0x7d02]
000000D9  870E4B7C          xchg cx,[0x7c4b]
000000DD  51                push cx
000000DE  E84300            call 0x124
000000E1  8F064B7C          pop word [0x7c4b]
000000E5  6685DB            test ebx,ebx
000000E8  7422              jz 0x10c
000000EA  6653              push ebx
000000EC  E8B500            call 0x1a4
000000EF  665B              pop ebx
000000F1  664B              dec ebx
000000F3  8006037D02        add byte [0x7d03],0x2
000000F8  EBDB              jmp short 0xd5
000000FA  FF4E6F            dec word [bp+0x6f]
000000FD  206669            and [bp+0x69],ah
00000100  6C                insb
00000101  65007E44          add [gs:bp+0x44],bh
00000105  69736B2065        imul si,[bp+di+0x6b],word 0x6520
0000010A  7272              jc 0x17e
0000010C  BB00C0            mov bx,0xc000
0000010F  891E027D          mov [0x7d02],bx
00000113  C706097C2020      mov word [0x7c09],0x2020
00000119  FE06FA7C          inc byte [0x7cfa]
0000011D  0F845AFF          jz near 0x7b
00000121  5A                pop dx
00000122  53                push bx
00000123  CB                retf
00000124  6660              pushad
00000126  66A34F7C          mov [0x7c4f],eax
0000012A  8A16417C          mov dl,[0x7c41]
0000012E  52                push dx
0000012F  B442              mov ah,0x42
00000131  BE477C            mov si,0x7c47
00000134  CD13              int 0x13
00000136  5A                pop dx
00000137  733E              jnc 0x177
00000139  B408              mov ah,0x8
0000013B  31FF              xor di,di
0000013D  52                push dx
0000013E  CD13              int 0x13
00000140  7238              jc 0x17a
00000142  FEC6              inc dh
00000144  81E13F00          and cx,0x3f
00000148  88F3              mov bl,dh
0000014A  30FF              xor bh,bh
0000014C  0FB5064F7C        lgs ax,[0x7c4f]
00000151  8CEA              mov dx,gs
00000153  F7F1              div cx
00000155  FEC2              inc dl
00000157  88D1              mov cl,dl
00000159  31D2              xor dx,dx
0000015B  F7F3              div bx
0000015D  80E403            and ah,0x3
00000160  C0E406            shl ah,byte 0x6
00000163  08E1              or cl,ah
00000165  88C5              mov ch,al
00000167  B80102            mov ax,0x201
0000016A  88D6              mov dh,dl
0000016C  5B                pop bx
0000016D  88DA              mov dl,bl
0000016F  8B1E4B7C          mov bx,[0x7c4b]
00000173  CD13              int 0x13
00000175  7203              jc 0x17a
00000177  6661              popad
00000179  C3                ret
0000017A  BE047D            mov si,0x7d04
0000017D  B40E              mov ah,0xe
0000017F  AC                lodsb
00000180  3C00              cmp al,0x0
00000182  74FE              jz 0x182
00000184  CD10              int 0x10
00000186  EBF5              jmp short 0x17d
00000188  66A1247C          mov eax,[0x7c24]
0000018C  8A0E107C          mov cl,[0x7c10]
00000190  FEC9              dec cl
00000192  66D3E0            shl eax,cl
00000195  660FB71E0E7C      movzx ebx,word [0x7c0e]
0000019B  66031E1C7C        add ebx,[0x7c1c]
000001A0  6601D8            add eax,ebx
000001A3  C3                ret
000001A4  6689C2            mov edx,eax
000001A7  E8DEFF            call 0x188
000001AA  6629C2            sub edx,eax
000001AD  6642              inc edx
000001AF  6642              inc edx
000001B1  6689D0            mov eax,edx
000001B4  66C1EA07          shr edx,byte 0x7
000001B8  6601DA            add edx,ebx
000001BB  89C3              mov bx,ax
000001BD  D1E3              shl bx,1
000001BF  30FF              xor bh,bh
000001C1  D1E3              shl bx,1
000001C3  6689D0            mov eax,edx
000001C6  E85BFF            call 0x124
000001C9  80C705            add bh,0x5
000001CC  66FF37            push dword [bx]
000001CF  E8B6FF            call 0x188
000001D2  665B              pop ebx
000001D4  6681E3FFFFFF0F    and ebx,0xfffffff
000001DB  BEFB7C            mov si,0x7cfb
000001DE  6681FBF8FFFF0F    cmp ebx,0xffffff8
000001E5  7D96              jnl 0x17d
000001E7  6601D8            add eax,ebx
000001EA  6648              dec eax
000001EC  6648              dec eax
000001EE  C3                ret
000001EF  0101              add [bx+di],ax
000001F1  0101              add [bx+di],ax
000001F3  0101              add [bx+di],ax
000001F5  0101              add [bx+di],ax
000001F7  0101              add [bx+di],ax
000001F9  0101              add [bx+di],ax
000001FB  0101              add [bx+di],ax
000001FD  0155AA            add [di-0x56],dx
00000000  EB55              jmp short 0x57
00000002  90                nop
00000003  42                inc dx
00000004  41                inc cx
00000005  4E                dec si
00000006  41                inc cx
00000007  4E                dec si
00000008  41                inc cx
00000009  2020              and [bx+si],ah
0000000B  0002              add [bp+si],al
0000000D  017E18            add [bp+0x18],di
00000010  0200              add al,[bx+si]
00000012  0000              add [bx+si],al
00000014  00F8              add al,bh
00000016  0000              add [bx+si],al
00000018  3F                aas
00000019  0020              add [bx+si],ah
0000001B  0001              add [bx+di],al
0000001D  0000              add [bx+si],al
0000001F  0000              add [bx+si],al
00000021  0002              add [bp+si],al
00000023  00C1              add cl,al
00000025  0300              add ax,[bx+si]
00000027  0000              add [bx+si],al
00000029  0000              add [bx+si],al
0000002B  0002              add [bp+si],al
0000002D  0000              add [bx+si],al
0000002F  0001              add [bx+di],al
00000031  00060046          add [0x4600],al
00000035  49                dec cx
00000036  52                push dx
00000037  4D                dec bp
00000038  57                push di
00000039  41                inc cx
0000003A  52                push dx
0000003B  45                inc bp
0000003C  4C                dec sp
0000003D  49                dec cx
0000003E  42                inc dx
0000003F  20800028          and [bx+si+0x2800],al
00000043  011B              add [bp+di],bx
00000045  77B3              ja 0xfffa
00000047  1000              adc [bx+si],al
00000049  0100              add [bx+si],ax
0000004B  0005              add [di],al
0000004D  0000              add [bx+si],al
0000004F  0000              add [bx+si],al
00000051  0000              add [bx+si],al
00000053  0000              add [bx+si],al
00000055  0000              add [bx+si],al
00000057  FA                cli
00000058  FC                cld
00000059  EA5E7C0000        jmp 0x0:0x7c5e
0000005E  31C0              xor ax,ax
00000060  8ED8              mov ds,ax
00000062  8EC0              mov es,ax
00000064  89C4              mov sp,ax
00000066  8ED0              mov ss,ax
00000068  66C7060A7C202020  mov dword [0x7c0a],0x20202020
         -20
00000071  8816417C          mov [0x7c41],dl
00000075  50                push ax
00000076  52                push dx
00000077  CD10              int 0x10
00000079  31ED              xor bp,bp
0000007B  E80A01            call 0x188
0000007E  E8A300            call 0x124
00000081  BF0005            mov di,0x500
00000084  BE037C            mov si,0x7c03
00000087  01EE              add si,bp
00000089  B90B00            mov cx,0xb
0000008C  57                push di
0000008D  F3A6              repe cmpsb
0000008F  5F                pop di
00000090  740F              jz 0xa1
00000092  81C72000          add di,0x20
00000096  81FF0007          cmp di,0x700
0000009A  75E8              jnz 0x84
0000009C  E80501            call 0x1a4
0000009F  EBDD              jmp short 0x7e
000000A1  C706097C4254      mov word [0x7c09],0x5442
000000A7  803EFA7C00        cmp byte [0x7cfa],0x0
000000AC  7503              jnz 0xb1
000000AE  BD3100            mov bp,0x31
000000B1  8B4514            mov ax,[di+0x14]
000000B4  66C1E010          shl eax,byte 0x10
000000B8  8B451A            mov ax,[di+0x1a]
000000BB  6650              push eax
000000BD  E8C800            call 0x188
000000C0  665B              pop ebx
000000C2  6601D8            add eax,ebx
000000C5  6648              dec eax
000000C7  6648              dec eax
000000C9  4C                dec sp
000000CA  7BB2              jpo 0x7e
000000CC  5B                pop bx
000000CD  668B5D1C          mov ebx,[di+0x1c]
000000D1  66C1EB09          shr ebx,byte 0x9
000000D5  8B0E027D          mov cx,[0x7d02]
000000D9  870E4B7C          xchg cx,[0x7c4b]
000000DD  51                push cx
000000DE  E84300            call 0x124
000000E1  8F064B7C          pop word [0x7c4b]
000000E5  6685DB            test ebx,ebx
000000E8  7422              jz 0x10c
000000EA  6653              push ebx
000000EC  E8B500            call 0x1a4
000000EF  665B              pop ebx
000000F1  664B              dec ebx
000000F3  8006037D02        add byte [0x7d03],0x2
000000F8  EBDB              jmp short 0xd5
000000FA  FF4E6F            dec word [bp+0x6f]
000000FD  206669            and [bp+0x69],ah
00000100  6C                insb
00000101  65007E44          add [gs:bp+0x44],bh
00000105  69736B2065        imul si,[bp+di+0x6b],word 0x6520
0000010A  7272              jc 0x17e
0000010C  BB00C0            mov bx,0xc000
0000010F  891E027D          mov [0x7d02],bx
00000113  C706097C2020      mov word [0x7c09],0x2020
00000119  FE06FA7C          inc byte [0x7cfa]
0000011D  0F845AFF          jz near 0x7b
00000121  5A                pop dx
00000122  53                push bx
00000123  CB                retf
00000124  6660              pushad
00000126  66A34F7C          mov [0x7c4f],eax
0000012A  8A16417C          mov dl,[0x7c41]
0000012E  52                push dx
0000012F  B442              mov ah,0x42
00000131  BE477C            mov si,0x7c47
00000134  CD13              int 0x13
00000136  5A                pop dx
00000137  733E              jnc 0x177
00000139  B408              mov ah,0x8
0000013B  31FF              xor di,di
0000013D  52                push dx
0000013E  CD13              int 0x13
00000140  7238              jc 0x17a
00000142  FEC6              inc dh
00000144  81E13F00          and cx,0x3f
00000148  88F3              mov bl,dh
0000014A  30FF              xor bh,bh
0000014C  0FB5064F7C        lgs ax,[0x7c4f]
00000151  8CEA              mov dx,gs
00000153  F7F1              div cx
00000155  FEC2              inc dl
00000157  88D1              mov cl,dl
00000159  31D2              xor dx,dx
0000015B  F7F3              div bx
0000015D  80E403            and ah,0x3
00000160  C0E406            shl ah,byte 0x6
00000163  08E1              or cl,ah
00000165  88C5              mov ch,al
00000167  B80102            mov ax,0x201
0000016A  88D6              mov dh,dl
0000016C  5B                pop bx
0000016D  88DA              mov dl,bl
0000016F  8B1E4B7C          mov bx,[0x7c4b]
00000173  CD13              int 0x13
00000175  7203              jc 0x17a
00000177  6661              popad
00000179  C3                ret
0000017A  BE047D            mov si,0x7d04
0000017D  B40E              mov ah,0xe
0000017F  AC                lodsb
00000180  3C00              cmp al,0x0
00000182  74FE              jz 0x182
00000184  CD10              int 0x10
00000186  EBF5              jmp short 0x17d
00000188  66A1247C          mov eax,[0x7c24]
0000018C  8A0E107C          mov cl,[0x7c10]
00000190  FEC9              dec cl
00000192  66D3E0            shl eax,cl
00000195  660FB71E0E7C      movzx ebx,word [0x7c0e]
0000019B  66031E1C7C        add ebx,[0x7c1c]
000001A0  6601D8            add eax,ebx
000001A3  C3                ret
000001A4  6689C2            mov edx,eax
000001A7  E8DEFF            call 0x188
000001AA  6629C2            sub edx,eax
000001AD  6642              inc edx
000001AF  6642              inc edx
000001B1  6689D0            mov eax,edx
000001B4  66C1EA07          shr edx,byte 0x7
000001B8  6601DA            add edx,ebx
000001BB  89C3              mov bx,ax
000001BD  D1E3              shl bx,1
000001BF  30FF              xor bh,bh
000001C1  D1E3              shl bx,1
000001C3  6689D0            mov eax,edx
000001C6  E85BFF            call 0x124
000001C9  80C705            add bh,0x5
000001CC  66FF37            push dword [bx]
000001CF  E8B6FF            call 0x188
000001D2  665B              pop ebx
000001D4  6681E3FFFFFF0F    and ebx,0xfffffff
000001DB  BEFB7C            mov si,0x7cfb
000001DE  6681FBF8FFFF0F    cmp ebx,0xffffff8
000001E5  7D96              jnl 0x17d
000001E7  6601D8            add eax,ebx
000001EA  6648              dec eax
000001EC  6648              dec eax
000001EE  C3                ret
000001EF  0101              add [bx+di],ax
000001F1  0101              add [bx+di],ax
000001F3  0101              add [bx+di],ax
000001F5  0101              add [bx+di],ax
000001F7  0101              add [bx+di],ax
000001F9  0101              add [bx+di],ax
000001FB  0101              add [bx+di],ax
000001FD  0155AA            add [di-0x56],dx
00000000  EB55              jmp short 0x57
00000002  90                nop
00000003  42                inc dx
00000004  41                inc cx
00000005  4E                dec si
00000006  41                inc cx
00000007  4E                dec si
00000008  41                inc cx
00000009  2020              and [bx+si],ah
0000000B  0002              add [bp+si],al
0000000D  017E18            add [bp+0x18],di
00000010  0200              add al,[bx+si]
00000012  0000              add [bx+si],al
00000014  00F8              add al,bh
00000016  0000              add [bx+si],al
00000018  3F                aas
00000019  0020              add [bx+si],ah
0000001B  0001              add [bx+di],al
0000001D  0000              add [bx+si],al
0000001F  0000              add [bx+si],al
00000021  0002              add [bp+si],al
00000023  00C1              add cl,al
00000025  0300              add ax,[bx+si]
00000027  0000              add [bx+si],al
00000029  0000              add [bx+si],al
0000002B  0002              add [bp+si],al
0000002D  0000              add [bx+si],al
0000002F  0001              add [bx+di],al
00000031  00060046          add [0x4600],al
00000035  49                dec cx
00000036  52                push dx
00000037  4D                dec bp
00000038  57                push di
00000039  41                inc cx
0000003A  52                push dx
0000003B  45                inc bp
0000003C  4C                dec sp
0000003D  49                dec cx
0000003E  42                inc dx
0000003F  20800028          and [bx+si+0x2800],al
00000043  011B              add [bp+di],bx
00000045  77B3              ja 0xfffa
00000047  1000              adc [bx+si],al
00000049  0100              add [bx+si],ax
0000004B  0005              add [di],al
0000004D  0000              add [bx+si],al
0000004F  0000              add [bx+si],al
00000051  0000              add [bx+si],al
00000053  0000              add [bx+si],al
00000055  0000              add [bx+si],al
00000057  FA                cli
00000058  FC                cld
00000059  EA5E7C0000        jmp 0x0:0x7c5e
0000005E  31C0              xor ax,ax
00000060  8ED8              mov ds,ax
00000062  8EC0              mov es,ax
00000064  89C4              mov sp,ax
00000066  8ED0              mov ss,ax
00000068  66C7060A7C202020  mov dword [0x7c0a],0x20202020
         -20
00000071  8816417C          mov [0x7c41],dl
00000075  50                push ax
00000076  52                push dx
00000077  CD10              int 0x10
00000079  31ED              xor bp,bp
0000007B  E80A01            call 0x188
0000007E  E8A300            call 0x124
00000081  BF0005            mov di,0x500
00000084  BE037C            mov si,0x7c03
00000087  01EE              add si,bp
00000089  B90B00            mov cx,0xb
0000008C  57                push di
0000008D  F3A6              repe cmpsb
0000008F  5F                pop di
00000090  740F              jz 0xa1
00000092  81C72000          add di,0x20
00000096  81FF0007          cmp di,0x700
0000009A  75E8              jnz 0x84
0000009C  E80501            call 0x1a4
0000009F  EBDD              jmp short 0x7e
000000A1  C706097C4254      mov word [0x7c09],0x5442
000000A7  803EFA7C00        cmp byte [0x7cfa],0x0
000000AC  7503              jnz 0xb1
000000AE  BD3100            mov bp,0x31
000000B1  8B4514            mov ax,[di+0x14]
000000B4  66C1E010          shl eax,byte 0x10
000000B8  8B451A            mov ax,[di+0x1a]
000000BB  6650              push eax
000000BD  E8C800            call 0x188
000000C0  665B              pop ebx
000000C2  6601D8            add eax,ebx
000000C5  6648              dec eax
000000C7  6648              dec eax
000000C9  4C                dec sp
000000CA  7BB2              jpo 0x7e
000000CC  5B                pop bx
000000CD  668B5D1C          mov ebx,[di+0x1c]
000000D1  66C1EB09          shr ebx,byte 0x9
000000D5  8B0E027D          mov cx,[0x7d02]
000000D9  870E4B7C          xchg cx,[0x7c4b]
000000DD  51                push cx
000000DE  E84300            call 0x124
000000E1  8F064B7C          pop word [0x7c4b]
000000E5  6685DB            test ebx,ebx
000000E8  7422              jz 0x10c
000000EA  6653              push ebx
000000EC  E8B500            call 0x1a4
000000EF  665B              pop ebx
000000F1  664B              dec ebx
000000F3  8006037D02        add byte [0x7d03],0x2
000000F8  EBDB              jmp short 0xd5
000000FA  FF4E6F            dec word [bp+0x6f]
000000FD  206669            and [bp+0x69],ah
00000100  6C                insb
00000101  65007E44          add [gs:bp+0x44],bh
00000105  69736B2065        imul si,[bp+di+0x6b],word 0x6520
0000010A  7272              jc 0x17e
0000010C  BB00C0            mov bx,0xc000
0000010F  891E027D          mov [0x7d02],bx
00000113  C706097C2020      mov word [0x7c09],0x2020
00000119  FE06FA7C          inc byte [0x7cfa]
0000011D  0F845AFF          jz near 0x7b
00000121  5A                pop dx
00000122  53                push bx
00000123  CB                retf
00000124  6660              pushad
00000126  66A34F7C          mov [0x7c4f],eax
0000012A  8A16417C          mov dl,[0x7c41]
0000012E  52                push dx
0000012F  B442              mov ah,0x42
00000131  BE477C            mov si,0x7c47
00000134  CD13              int 0x13
00000136  5A                pop dx
00000137  733E              jnc 0x177
00000139  B408              mov ah,0x8
0000013B  31FF              xor di,di
0000013D  52                push dx
0000013E  CD13              int 0x13
00000140  7238              jc 0x17a
00000142  FEC6              inc dh
00000144  81E13F00          and cx,0x3f
00000148  88F3              mov bl,dh
0000014A  30FF              xor bh,bh
0000014C  0FB5064F7C        lgs ax,[0x7c4f]
00000151  8CEA              mov dx,gs
00000153  F7F1              div cx
00000155  FEC2              inc dl
00000157  88D1              mov cl,dl
00000159  31D2              xor dx,dx
0000015B  F7F3              div bx
0000015D  80E403            and ah,0x3
00000160  C0E406            shl ah,byte 0x6
00000163  08E1              or cl,ah
00000165  88C5              mov ch,al
00000167  B80102            mov ax,0x201
0000016A  88D6              mov dh,dl
0000016C  5B                pop bx
0000016D  88DA              mov dl,bl
0000016F  8B1E4B7C          mov bx,[0x7c4b]
00000173  CD13              int 0x13
00000175  7203              jc 0x17a
00000177  6661              popad
00000179  C3                ret
0000017A  BE047D            mov si,0x7d04
0000017D  B40E              mov ah,0xe
0000017F  AC                lodsb
00000180  3C00              cmp al,0x0
00000182  74FE              jz 0x182
00000184  CD10              int 0x10
00000186  EBF5              jmp short 0x17d
00000188  66A1247C          mov eax,[0x7c24]
0000018C  8A0E107C          mov cl,[0x7c10]
00000190  FEC9              dec cl
00000192  66D3E0            shl eax,cl
00000195  660FB71E0E7C      movzx ebx,word [0x7c0e]
0000019B  66031E1C7C        add ebx,[0x7c1c]
000001A0  6601D8            add eax,ebx
000001A3  C3                ret
000001A4  6689C2            mov edx,eax
000001A7  E8DEFF            call 0x188
000001AA  6629C2            sub edx,eax
000001AD  6642              inc edx
000001AF  6642              inc edx
000001B1  6689D0            mov eax,edx
000001B4  66C1EA07          shr edx,byte 0x7
000001B8  6601DA            add edx,ebx
000001BB  89C3              mov bx,ax
000001BD  D1E3              shl bx,1
000001BF  30FF              xor bh,bh
000001C1  D1E3              shl bx,1
000001C3  6689D0            mov eax,edx
000001C6  E85BFF            call 0x124
000001C9  80C705            add bh,0x5
000001CC  66FF37            push dword [bx]
000001CF  E8B6FF            call 0x188
000001D2  665B              pop ebx
000001D4  6681E3FFFFFF0F    and ebx,0xfffffff
000001DB  BEFB7C            mov si,0x7cfb
000001DE  6681FBF8FFFF0F    cmp ebx,0xffffff8
000001E5  7D96              jnl 0x17d
000001E7  6601D8            add eax,ebx
000001EA  6648              dec eax
000001EC  6648              dec eax
000001EE  C3                ret
000001EF  0101              add [bx+di],ax
000001F1  0101              add [bx+di],ax
000001F3  0101              add [bx+di],ax
000001F5  0101              add [bx+di],ax
000001F7  0101              add [bx+di],ax
000001F9  0101              add [bx+di],ax
000001FB  0101              add [bx+di],ax
000001FD  0155AA            add [di-0x56],dx
00000000  EB55              jmp short 0x57
00000002  90                nop
00000003  42                inc dx
00000004  41                inc cx
00000005  4E                dec si
00000006  41                inc cx
00000007  4E                dec si
00000008  41                inc cx
00000009  2020              and [bx+si],ah
0000000B  0002              add [bp+si],al
0000000D  017E18            add [bp+0x18],di
00000010  0200              add al,[bx+si]
00000012  0000              add [bx+si],al
00000014  00F8              add al,bh
00000016  0000              add [bx+si],al
00000018  3F                aas
00000019  0020              add [bx+si],ah
0000001B  0001              add [bx+di],al
0000001D  0000              add [bx+si],al
0000001F  0000              add [bx+si],al
00000021  0002              add [bp+si],al
00000023  00C1              add cl,al
00000025  0300              add ax,[bx+si]
00000027  0000              add [bx+si],al
00000029  0000              add [bx+si],al
0000002B  0002              add [bp+si],al
0000002D  0000              add [bx+si],al
0000002F  0001              add [bx+di],al
00000031  00060046          add [0x4600],al
00000035  49                dec cx
00000036  52                push dx
00000037  4D                dec bp
00000038  57                push di
00000039  41                inc cx
0000003A  52                push dx
0000003B  45                inc bp
0000003C  4C                dec sp
0000003D  49                dec cx
0000003E  42                inc dx
0000003F  20800028          and [bx+si+0x2800],al
00000043  011B              add [bp+di],bx
00000045  77B3              ja 0xfffa
00000047  1000              adc [bx+si],al
00000049  0100              add [bx+si],ax
0000004B  0005              add [di],al
0000004D  0000              add [bx+si],al
0000004F  0000              add [bx+si],al
00000051  0000              add [bx+si],al
00000053  0000              add [bx+si],al
00000055  0000              add [bx+si],al
00000057  FA                cli
00000058  FC                cld
00000059  EA5E7C0000        jmp 0x0:0x7c5e
0000005E  31C0              xor ax,ax
00000060  8ED8              mov ds,ax
00000062  8EC0              mov es,ax
00000064  89C4              mov sp,ax
00000066  8ED0              mov ss,ax
00000068  66C7060A7C202020  mov dword [0x7c0a],0x20202020
         -20
00000071  8816417C          mov [0x7c41],dl
00000075  50                push ax
00000076  52                push dx
00000077  CD10              int 0x10
00000079  31ED              xor bp,bp
0000007B  E80A01            call 0x188
0000007E  E8A300            call 0x124
00000081  BF0005            mov di,0x500
00000084  BE037C            mov si,0x7c03
00000087  01EE              add si,bp
00000089  B90B00            mov cx,0xb
0000008C  57                push di
0000008D  F3A6              repe cmpsb
0000008F  5F                pop di
00000090  740F              jz 0xa1
00000092  81C72000          add di,0x20
00000096  81FF0007          cmp di,0x700
0000009A  75E8              jnz 0x84
0000009C  E80501            call 0x1a4
0000009F  EBDD              jmp short 0x7e
000000A1  C706097C4254      mov word [0x7c09],0x5442
000000A7  803EFA7C00        cmp byte [0x7cfa],0x0
000000AC  7503              jnz 0xb1
000000AE  BD3100            mov bp,0x31
000000B1  8B4514            mov ax,[di+0x14]
000000B4  66C1E010          shl eax,byte 0x10
000000B8  8B451A            mov ax,[di+0x1a]
000000BB  6650              push eax
000000BD  E8C800            call 0x188
000000C0  665B              pop ebx
000000C2  6601D8            add eax,ebx
000000C5  6648              dec eax
000000C7  6648              dec eax
000000C9  4C                dec sp
000000CA  7BB2              jpo 0x7e
000000CC  5B                pop bx
000000CD  668B5D1C          mov ebx,[di+0x1c]
000000D1  66C1EB09          shr ebx,byte 0x9
000000D5  8B0E027D          mov cx,[0x7d02]
000000D9  870E4B7C          xchg cx,[0x7c4b]
000000DD  51                push cx
000000DE  E84300            call 0x124
000000E1  8F064B7C          pop word [0x7c4b]
000000E5  6685DB            test ebx,ebx
000000E8  7422              jz 0x10c
000000EA  6653              push ebx
000000EC  E8B500            call 0x1a4
000000EF  665B              pop ebx
000000F1  664B              dec ebx
000000F3  8006037D02        add byte [0x7d03],0x2
000000F8  EBDB              jmp short 0xd5
000000FA  FF4E6F            dec word [bp+0x6f]
000000FD  206669            and [bp+0x69],ah
00000100  6C                insb
00000101  65007E44          add [gs:bp+0x44],bh
00000105  69736B2065        imul si,[bp+di+0x6b],word 0x6520
0000010A  7272              jc 0x17e
0000010C  BB00C0            mov bx,0xc000
0000010F  891E027D          mov [0x7d02],bx
00000113  C706097C2020      mov word [0x7c09],0x2020
00000119  FE06FA7C          inc byte [0x7cfa]
0000011D  0F845AFF          jz near 0x7b
00000121  5A                pop dx
00000122  53                push bx
00000123  CB                retf
00000124  6660              pushad
00000126  66A34F7C          mov [0x7c4f],eax
0000012A  8A16417C          mov dl,[0x7c41]
0000012E  52                push dx
0000012F  B442              mov ah,0x42
00000131  BE477C            mov si,0x7c47
00000134  CD13              int 0x13
00000136  5A                pop dx
00000137  733E              jnc 0x177
00000139  B408              mov ah,0x8
0000013B  31FF              xor di,di
0000013D  52                push dx
0000013E  CD13              int 0x13
00000140  7238              jc 0x17a
00000142  FEC6              inc dh
00000144  81E13F00          and cx,0x3f
00000148  88F3              mov bl,dh
0000014A  30FF              xor bh,bh
0000014C  0FB5064F7C        lgs ax,[0x7c4f]
00000151  8CEA              mov dx,gs
00000153  F7F1              div cx
00000155  FEC2              inc dl
00000157  88D1              mov cl,dl
00000159  31D2              xor dx,dx
0000015B  F7F3              div bx
0000015D  80E403            and ah,0x3
00000160  C0E406            shl ah,byte 0x6
00000163  08E1              or cl,ah
00000165  88C5              mov ch,al
00000167  B80102            mov ax,0x201
0000016A  88D6              mov dh,dl
0000016C  5B                pop bx
0000016D  88DA              mov dl,bl
0000016F  8B1E4B7C          mov bx,[0x7c4b]
00000173  CD13              int 0x13
00000175  7203              jc 0x17a
00000177  6661              popad
00000179  C3                ret
0000017A  BE047D            mov si,0x7d04
0000017D  B40E              mov ah,0xe
0000017F  AC                lodsb
00000180  3C00              cmp al,0x0
00000182  74FE              jz 0x182
00000184  CD10              int 0x10
00000186  EBF5              jmp short 0x17d
00000188  66A1247C          mov eax,[0x7c24]
0000018C  8A0E107C          mov cl,[0x7c10]
00000190  FEC9              dec cl
00000192  66D3E0            shl eax,cl
00000195  660FB71E0E7C      movzx ebx,word [0x7c0e]
0000019B  66031E1C7C        add ebx,[0x7c1c]
000001A0  6601D8            add eax,ebx
000001A3  C3                ret
000001A4  6689C2            mov edx,eax
000001A7  E8DEFF            call 0x188
000001AA  6629C2            sub edx,eax
000001AD  6642              inc edx
000001AF  6642              inc edx
000001B1  6689D0            mov eax,edx
000001B4  66C1EA07          shr edx,byte 0x7
000001B8  6601DA            add edx,ebx
000001BB  89C3              mov bx,ax
000001BD  D1E3              shl bx,1
000001BF  30FF              xor bh,bh
000001C1  D1E3              shl bx,1
000001C3  6689D0            mov eax,edx
000001C6  E85BFF            call 0x124
000001C9  80C705            add bh,0x5
000001CC  66FF37            push dword [bx]
000001CF  E8B6FF            call 0x188
000001D2  665B              pop ebx
000001D4  6681E3FFFFFF0F    and ebx,0xfffffff
000001DB  BEFB7C            mov si,0x7cfb
000001DE  6681FBF8FFFF0F    cmp ebx,0xffffff8
000001E5  7D96              jnl 0x17d
000001E7  6601D8            add eax,ebx
000001EA  6648              dec eax
000001EC  6648              dec eax
000001EE  C3                ret
000001EF  0101              add [bx+di],ax
000001F1  0101              add [bx+di],ax
000001F3  0101              add [bx+di],ax
000001F5  0101              add [bx+di],ax
000001F7  0101              add [bx+di],ax
000001F9  0101              add [bx+di],ax
000001FB  0101              add [bx+di],ax
000001FD  0155AA            add [di-0x56],dx
00000000  EB55              jmp short 0x57
00000002  90                nop
00000003  42                inc dx
00000004  41                inc cx
00000005  4E                dec si
00000006  41                inc cx
00000007  4E                dec si
00000008  41                inc cx
00000009  2020              and [bx+si],ah
0000000B  0002              add [bp+si],al
0000000D  017E18            add [bp+0x18],di
00000010  0200              add al,[bx+si]
00000012  0000              add [bx+si],al
00000014  00F8              add al,bh
00000016  0000              add [bx+si],al
00000018  3F                aas
00000019  0020              add [bx+si],ah
0000001B  0001              add [bx+di],al
0000001D  0000              add [bx+si],al
0000001F  0000              add [bx+si],al
00000021  0002              add [bp+si],al
00000023  00C1              add cl,al
00000025  0300              add ax,[bx+si]
00000027  0000              add [bx+si],al
00000029  0000              add [bx+si],al
0000002B  0002              add [bp+si],al
0000002D  0000              add [bx+si],al
0000002F  0001              add [bx+di],al
00000031  00060046          add [0x4600],al
00000035  49                dec cx
00000036  52                push dx
00000037  4D                dec bp
00000038  57                push di
00000039  41                inc cx
0000003A  52                push dx
0000003B  45                inc bp
0000003C  4C                dec sp
0000003D  49                dec cx
0000003E  42                inc dx
0000003F  20800028          and [bx+si+0x2800],al
00000043  011B              add [bp+di],bx
00000045  77B3              ja 0xfffa
00000047  1000              adc [bx+si],al
00000049  0100              add [bx+si],ax
0000004B  0005              add [di],al
0000004D  0000              add [bx+si],al
0000004F  0000              add [bx+si],al
00000051  0000              add [bx+si],al
00000053  0000              add [bx+si],al
00000055  0000              add [bx+si],al
00000057  FA                cli
00000058  FC                cld
00000059  EA5E7C0000        jmp 0x0:0x7c5e
0000005E  31C0              xor ax,ax
00000060  8ED8              mov ds,ax
00000062  8EC0              mov es,ax
00000064  89C4              mov sp,ax
00000066  8ED0              mov ss,ax
00000068  66C7060A7C202020  mov dword [0x7c0a],0x20202020
         -20
00000071  8816417C          mov [0x7c41],dl
00000075  50                push ax
00000076  52                push dx
00000077  CD10              int 0x10
00000079  31ED              xor bp,bp
0000007B  E80A01            call 0x188
0000007E  E8A300            call 0x124
00000081  BF0005            mov di,0x500
00000084  BE037C            mov si,0x7c03
00000087  01EE              add si,bp
00000089  B90B00            mov cx,0xb
0000008C  57                push di
0000008D  F3A6              repe cmpsb
0000008F  5F                pop di
00000090  740F              jz 0xa1
00000092  81C72000          add di,0x20
00000096  81FF0007          cmp di,0x700
0000009A  75E8              jnz 0x84
0000009C  E80501            call 0x1a4
0000009F  EBDD              jmp short 0x7e
000000A1  C706097C4254      mov word [0x7c09],0x5442
000000A7  803EFA7C00        cmp byte [0x7cfa],0x0
000000AC  7503              jnz 0xb1
000000AE  BD3100            mov bp,0x31
000000B1  8B4514            mov ax,[di+0x14]
000000B4  66C1E010          shl eax,byte 0x10
000000B8  8B451A            mov ax,[di+0x1a]
000000BB  6650              push eax
000000BD  E8C800            call 0x188
000000C0  665B              pop ebx
000000C2  6601D8            add eax,ebx
000000C5  6648              dec eax
000000C7  6648              dec eax
000000C9  4C                dec sp
000000CA  7BB2              jpo 0x7e
000000CC  5B                pop bx
000000CD  668B5D1C          mov ebx,[di+0x1c]
000000D1  66C1EB09          shr ebx,byte 0x9
000000D5  8B0E027D          mov cx,[0x7d02]
000000D9  870E4B7C          xchg cx,[0x7c4b]
000000DD  51                push cx
000000DE  E84300            call 0x124
000000E1  8F064B7C          pop word [0x7c4b]
000000E5  6685DB            test ebx,ebx
000000E8  7422              jz 0x10c
000000EA  6653              push ebx
000000EC  E8B500            call 0x1a4
000000EF  665B              pop ebx
000000F1  664B              dec ebx
000000F3  8006037D02        add byte [0x7d03],0x2
000000F8  EBDB              jmp short 0xd5
000000FA  FF4E6F            dec word [bp+0x6f]
000000FD  206669            and [bp+0x69],ah
00000100  6C                insb
00000101  65007E44          add [gs:bp+0x44],bh
00000105  69736B2065        imul si,[bp+di+0x6b],word 0x6520
0000010A  7272              jc 0x17e
0000010C  BB00C0            mov bx,0xc000
0000010F  891E027D          mov [0x7d02],bx
00000113  C706097C2020      mov word [0x7c09],0x2020
00000119  FE06FA7C          inc byte [0x7cfa]
0000011D  0F845AFF          jz near 0x7b
00000121  5A                pop dx
00000122  53                push bx
00000123  CB                retf
00000124  6660              pushad
00000126  66A34F7C          mov [0x7c4f],eax
0000012A  8A16417C          mov dl,[0x7c41]
0000012E  52                push dx
0000012F  B442              mov ah,0x42
00000131  BE477C            mov si,0x7c47
00000134  CD13              int 0x13
00000136  5A                pop dx
00000137  733E              jnc 0x177
00000139  B408              mov ah,0x8
0000013B  31FF              xor di,di
0000013D  52                push dx
0000013E  CD13              int 0x13
00000140  7238              jc 0x17a
00000142  FEC6              inc dh
00000144  81E13F00          and cx,0x3f
00000148  88F3              mov bl,dh
0000014A  30FF              xor bh,bh
0000014C  0FB5064F7C        lgs ax,[0x7c4f]
00000151  8CEA              mov dx,gs
00000153  F7F1              div cx
00000155  FEC2              inc dl
00000157  88D1              mov cl,dl
00000159  31D2              xor dx,dx
0000015B  F7F3              div bx
0000015D  80E403            and ah,0x3
00000160  C0E406            shl ah,byte 0x6
00000163  08E1              or cl,ah
00000165  88C5              mov ch,al
00000167  B80102            mov ax,0x201
0000016A  88D6              mov dh,dl
0000016C  5B                pop bx
0000016D  88DA              mov dl,bl
0000016F  8B1E4B7C          mov bx,[0x7c4b]
00000173  CD13              int 0x13
00000175  7203              jc 0x17a
00000177  6661              popad
00000179  C3                ret
0000017A  BE047D            mov si,0x7d04
0000017D  B40E              mov ah,0xe
0000017F  AC                lodsb
00000180  3C00              cmp al,0x0
00000182  74FE              jz 0x182
00000184  CD10              int 0x10
00000186  EBF5              jmp short 0x17d
00000188  66A1247C          mov eax,[0x7c24]
0000018C  8A0E107C          mov cl,[0x7c10]
00000190  FEC9              dec cl
00000192  66D3E0            shl eax,cl
00000195  660FB71E0E7C      movzx ebx,word [0x7c0e]
0000019B  66031E1C7C        add ebx,[0x7c1c]
000001A0  6601D8            add eax,ebx
000001A3  C3                ret
000001A4  6689C2            mov edx,eax
000001A7  E8DEFF            call 0x188
000001AA  6629C2            sub edx,eax
000001AD  6642              inc edx
000001AF  6642              inc edx
000001B1  6689D0            mov eax,edx
000001B4  66C1EA07          shr edx,byte 0x7
000001B8  6601DA            add edx,ebx
000001BB  89C3              mov bx,ax
000001BD  D1E3              shl bx,1
000001BF  30FF              xor bh,bh
000001C1  D1E3              shl bx,1
000001C3  6689D0            mov eax,edx
000001C6  E85BFF            call 0x124
000001C9  80C705            add bh,0x5
000001CC  66FF37            push dword [bx]
000001CF  E8B6FF            call 0x188
000001D2  665B              pop ebx
000001D4  6681E3FFFFFF0F    and ebx,0xfffffff
000001DB  BEFB7C            mov si,0x7cfb
000001DE  6681FBF8FFFF0F    cmp ebx,0xffffff8
000001E5  7D96              jnl 0x17d
000001E7  6601D8            add eax,ebx
000001EA  6648              dec eax
000001EC  6648              dec eax
000001EE  C3                ret
000001EF  0101              add [bx+di],ax
000001F1  0101              add [bx+di],ax
000001F3  0101              add [bx+di],ax
000001F5  0101              add [bx+di],ax
000001F7  0101              add [bx+di],ax
000001F9  0101              add [bx+di],ax
000001FB  0101              add [bx+di],ax
000001FD  0155AA            add [di-0x56],dx
00000000  EB55              jmp short 0x57
00000002  90                nop
00000003  42                inc dx
00000004  41                inc cx
00000005  4E                dec si
00000006  41                inc cx
00000007  4E                dec si
00000008  41                inc cx
00000009  2020              and [bx+si],ah
0000000B  0002              add [bp+si],al
0000000D  017E18            add [bp+0x18],di
00000010  0200              add al,[bx+si]
00000012  0000              add [bx+si],al
00000014  00F8              add al,bh
00000016  0000              add [bx+si],al
00000018  3F                aas
00000019  0020              add [bx+si],ah
0000001B  0001              add [bx+di],al
0000001D  0000              add [bx+si],al
0000001F  0000              add [bx+si],al
00000021  0002              add [bp+si],al
00000023  00C1              add cl,al
00000025  0300              add ax,[bx+si]
00000027  0000              add [bx+si],al
00000029  0000              add [bx+si],al
0000002B  0002              add [bp+si],al
0000002D  0000              add [bx+si],al
0000002F  0001              add [bx+di],al
00000031  00060046          add [0x4600],al
00000035  49                dec cx
00000036  52                push dx
00000037  4D                dec bp
00000038  57                push di
00000039  41                inc cx
0000003A  52                push dx
0000003B  45                inc bp
0000003C  4C                dec sp
0000003D  49                dec cx
0000003E  42                inc dx
0000003F  20800028          and [bx+si+0x2800],al
00000043  011B              add [bp+di],bx
00000045  77B3              ja 0xfffa
00000047  1000              adc [bx+si],al
00000049  0100              add [bx+si],ax
0000004B  0005              add [di],al
0000004D  0000              add [bx+si],al
0000004F  0000              add [bx+si],al
00000051  0000              add [bx+si],al
00000053  0000              add [bx+si],al
00000055  0000              add [bx+si],al
00000057  FA                cli
00000058  FC                cld
00000059  EA5E7C0000        jmp 0x0:0x7c5e
0000005E  31C0              xor ax,ax
00000060  8ED8              mov ds,ax
00000062  8EC0              mov es,ax
00000064  89C4              mov sp,ax
00000066  8ED0              mov ss,ax
00000068  66C7060A7C202020  mov dword [0x7c0a],0x20202020
         -20
00000071  8816417C          mov [0x7c41],dl
00000075  50                push ax
00000076  52                push dx
00000077  CD10              int 0x10
00000079  31ED              xor bp,bp
0000007B  E80A01            call 0x188
0000007E  E8A300            call 0x124
00000081  BF0005            mov di,0x500
00000084  BE037C            mov si,0x7c03
00000087  01EE              add si,bp
00000089  B90B00            mov cx,0xb
0000008C  57                push di
0000008D  F3A6              repe cmpsb
0000008F  5F                pop di
00000090  740F              jz 0xa1
00000092  81C72000          add di,0x20
00000096  81FF0007          cmp di,0x700
0000009A  75E8              jnz 0x84
0000009C  E80501            call 0x1a4
0000009F  EBDD              jmp short 0x7e
000000A1  C706097C4254      mov word [0x7c09],0x5442
000000A7  803EFA7C00        cmp byte [0x7cfa],0x0
000000AC  7503              jnz 0xb1
000000AE  BD3100            mov bp,0x31
000000B1  8B4514            mov ax,[di+0x14]
000000B4  66C1E010          shl eax,byte 0x10
000000B8  8B451A            mov ax,[di+0x1a]
000000BB  6650              push eax
000000BD  E8C800            call 0x188
000000C0  665B              pop ebx
000000C2  6601D8            add eax,ebx
000000C5  6648              dec eax
000000C7  6648              dec eax
000000C9  4C                dec sp
000000CA  7BB2              jpo 0x7e
000000CC  5B                pop bx
000000CD  668B5D1C          mov ebx,[di+0x1c]
000000D1  66C1EB09          shr ebx,byte 0x9
000000D5  8B0E027D          mov cx,[0x7d02]
000000D9  870E4B7C          xchg cx,[0x7c4b]
000000DD  51                push cx
000000DE  E84300            call 0x124
000000E1  8F064B7C          pop word [0x7c4b]
000000E5  6685DB            test ebx,ebx
000000E8  7422              jz 0x10c
000000EA  6653              push ebx
000000EC  E8B500            call 0x1a4
000000EF  665B              pop ebx
000000F1  664B              dec ebx
000000F3  8006037D02        add byte [0x7d03],0x2
000000F8  EBDB              jmp short 0xd5
000000FA  FF4E6F            dec word [bp+0x6f]
000000FD  206669            and [bp+0x69],ah
00000100  6C                insb
00000101  65007E44          add [gs:bp+0x44],bh
00000105  69736B2065        imul si,[bp+di+0x6b],word 0x6520
0000010A  7272              jc 0x17e
0000010C  BB00C0            mov bx,0xc000
0000010F  891E027D          mov [0x7d02],bx
00000113  C706097C2020      mov word [0x7c09],0x2020
00000119  FE06FA7C          inc byte [0x7cfa]
0000011D  0F845AFF          jz near 0x7b
00000121  5A                pop dx
00000122  53                push bx
00000123  CB                retf
00000124  6660              pushad
00000126  66A34F7C          mov [0x7c4f],eax
0000012A  8A16417C          mov dl,[0x7c41]
0000012E  52                push dx
0000012F  B442              mov ah,0x42
00000131  BE477C            mov si,0x7c47
00000134  CD13              int 0x13
00000136  5A                pop dx
00000137  733E              jnc 0x177
00000139  B408              mov ah,0x8
0000013B  31FF              xor di,di
0000013D  52                push dx
0000013E  CD13              int 0x13
00000140  7238              jc 0x17a
00000142  FEC6              inc dh
00000144  81E13F00          and cx,0x3f
00000148  88F3              mov bl,dh
0000014A  30FF              xor bh,bh
0000014C  0FB5064F7C        lgs ax,[0x7c4f]
00000151  8CEA              mov dx,gs
00000153  F7F1              div cx
00000155  FEC2              inc dl
00000157  88D1              mov cl,dl
00000159  31D2              xor dx,dx
0000015B  F7F3              div bx
0000015D  80E403            and ah,0x3
00000160  C0E406            shl ah,byte 0x6
00000163  08E1              or cl,ah
00000165  88C5              mov ch,al
00000167  B80102            mov ax,0x201
0000016A  88D6              mov dh,dl
0000016C  5B                pop bx
0000016D  88DA              mov dl,bl
0000016F  8B1E4B7C          mov bx,[0x7c4b]
00000173  CD13              int 0x13
00000175  7203              jc 0x17a
00000177  6661              popad
00000179  C3                ret
0000017A  BE047D            mov si,0x7d04
0000017D  B40E              mov ah,0xe
0000017F  AC                lodsb
00000180  3C00              cmp al,0x0
00000182  74FE              jz 0x182
00000184  CD10              int 0x10
00000186  EBF5              jmp short 0x17d
00000188  66A1247C          mov eax,[0x7c24]
0000018C  8A0E107C          mov cl,[0x7c10]
00000190  FEC9              dec cl
00000192  66D3E0            shl eax,cl
00000195  660FB71E0E7C      movzx ebx,word [0x7c0e]
0000019B  66031E1C7C        add ebx,[0x7c1c]
000001A0  6601D8            add eax,ebx
000001A3  C3                ret
000001A4  6689C2            mov edx,eax
000001A7  E8DEFF            call 0x188
000001AA  6629C2            sub edx,eax
000001AD  6642              inc edx
000001AF  6642              inc edx
000001B1  6689D0            mov eax,edx
000001B4  66C1EA07          shr edx,byte 0x7
000001B8  6601DA            add edx,ebx
000001BB  89C3              mov bx,ax
000001BD  D1E3              shl bx,1
000001BF  30FF              xor bh,bh
000001C1  D1E3              shl bx,1
000001C3  6689D0            mov eax,edx
000001C6  E85BFF            call 0x124
000001C9  80C705            add bh,0x5
000001CC  66FF37            push dword [bx]
000001CF  E8B6FF            call 0x188
000001D2  665B              pop ebx
000001D4  6681E3FFFFFF0F    and ebx,0xfffffff
000001DB  BEFB7C            mov si,0x7cfb
000001DE  6681FBF8FFFF0F    cmp ebx,0xffffff8
000001E5  7D96              jnl 0x17d
000001E7  6601D8            add eax,ebx
000001EA  6648              dec eax
000001EC  6648              dec eax
000001EE  C3                ret
000001EF  0101              add [bx+di],ax
000001F1  0101              add [bx+di],ax
000001F3  0101              add [bx+di],ax
000001F5  0101              add [bx+di],ax
000001F7  0101              add [bx+di],ax
000001F9  0101              add [bx+di],ax
000001FB  0101              add [bx+di],ax
000001FD  0155AA            add [di-0x56],dx
