
packages/banana/32/0001/clipdraw.dll:     file format elf32-i386


Disassembly of section .text:

10000000 <begin(void*)>:
10000000:	55                   	push   ebp
10000001:	89 e5                	mov    ebp,esp
10000003:	83 ec 08             	sub    esp,0x8
10000006:	83 ec 0c             	sub    esp,0xc
10000009:	ff 75 08             	push   DWORD PTR [ebp+0x8]
1000000c:	e8 fc ff ff ff       	call   1000000d <begin(void*)+0xd>	1000000d: R_386_PC32	start(void*)

10000011 <start(void*)>:
10000011:	57                   	push   edi
10000012:	56                   	push   esi
10000013:	53                   	push   ebx
10000014:	83 ec 1c             	sub    esp,0x1c
10000017:	ff 35 00 00 00 00    	push   DWORD PTR ds:0x0	10000019: R_386_32	screen
1000001d:	e8 fc ff ff ff       	call   1000001e <start(void*)+0xd>	1000001e: R_386_PC32	Video::getWidth()
10000022:	89 c3                	mov    ebx,eax
10000024:	58                   	pop    eax
10000025:	ff 35 00 00 00 00    	push   DWORD PTR ds:0x0	10000027: R_386_32	screen
1000002b:	e8 fc ff ff ff       	call   1000002c <start(void*)+0x1b>	1000002c: R_386_PC32	Video::getHeight()
10000030:	5a                   	pop    edx
10000031:	89 c7                	mov    edi,eax
10000033:	ff 35 00 00 00 00    	push   DWORD PTR ds:0x0	10000035: R_386_32	screen
10000039:	e8 fc ff ff ff       	call   1000003a <start(void*)+0x29>	1000003a: R_386_PC32	Video::getWidth()
1000003e:	c7 04 24 1c 04 00 00 	mov    DWORD PTR [esp],0x41c
10000045:	89 44 24 18          	mov    DWORD PTR [esp+0x18],eax
10000049:	e8 fc ff ff ff       	call   1000004a <start(void*)+0x39>	1000004a: R_386_PC32	malloc
1000004e:	59                   	pop    ecx
1000004f:	89 c6                	mov    esi,eax
10000051:	58                   	pop    eax
10000052:	6a 20                	push   0x20
10000054:	8b 54 24 14          	mov    edx,DWORD PTR [esp+0x14]
10000058:	52                   	push   edx
10000059:	57                   	push   edi
1000005a:	53                   	push   ebx
1000005b:	ff 35 00 00 00 00    	push   DWORD PTR ds:0x0	1000005d: R_386_32	screen
10000061:	56                   	push   esi
10000062:	e8 fc ff ff ff       	call   10000063 <start(void*)+0x52>	10000063: R_386_PC32	NIContext::NIContext(Video*, int, int, int, int)
10000067:	83 c4 14             	add    esp,0x14
1000006a:	6a 14                	push   0x14
1000006c:	e8 fc ff ff ff       	call   1000006d <start(void*)+0x5c>	1000006d: R_386_PC32	malloc
10000071:	89 c3                	mov    ebx,eax
10000073:	58                   	pop    eax
10000074:	5a                   	pop    edx
10000075:	56                   	push   esi
10000076:	53                   	push   ebx
10000077:	e8 fc ff ff ff       	call   10000078 <start(void*)+0x67>	10000078: R_386_PC32	NIDesktop::NIDesktop(NIContext*)
1000007c:	c7 04 24 24 00 00 00 	mov    DWORD PTR [esp],0x24
10000083:	e8 fc ff ff ff       	call   10000084 <start(void*)+0x73>	10000084: R_386_PC32	malloc
10000088:	5f                   	pop    edi
10000089:	89 c1                	mov    ecx,eax
1000008b:	58                   	pop    eax
1000008c:	68 40 01 00 00       	push   0x140
10000091:	68 90 01 00 00       	push   0x190
10000096:	6a 32                	push   0x32
10000098:	6a 32                	push   0x32
1000009a:	56                   	push   esi
1000009b:	51                   	push   ecx
1000009c:	89 4c 24 2c          	mov    DWORD PTR [esp+0x2c],ecx
100000a0:	e8 fc ff ff ff       	call   100000a1 <start(void*)+0x90>	100000a1: R_386_PC32	NIWindow::NIWindow(NIContext*, int, int, int, int)
100000a5:	83 c4 14             	add    esp,0x14
100000a8:	6a 24                	push   0x24
100000aa:	e8 fc ff ff ff       	call   100000ab <start(void*)+0x9a>	100000ab: R_386_PC32	malloc
100000af:	89 c2                	mov    edx,eax
100000b1:	58                   	pop    eax
100000b2:	59                   	pop    ecx
100000b3:	68 7c 01 00 00       	push   0x17c
100000b8:	68 f4 01 00 00       	push   0x1f4
100000bd:	68 96 00 00 00       	push   0x96
100000c2:	68 c8 00 00 00       	push   0xc8
100000c7:	56                   	push   esi
100000c8:	52                   	push   edx
100000c9:	89 54 24 28          	mov    DWORD PTR [esp+0x28],edx
100000cd:	e8 fc ff ff ff       	call   100000ce <start(void*)+0xbd>	100000ce: R_386_PC32	NIWindow::NIWindow(NIContext*, int, int, int, int)
100000d2:	83 c4 14             	add    esp,0x14
100000d5:	6a 24                	push   0x24
100000d7:	e8 fc ff ff ff       	call   100000d8 <start(void*)+0xc7>	100000d8: R_386_PC32	malloc
100000dc:	89 c7                	mov    edi,eax
100000de:	58                   	pop    eax
100000df:	5a                   	pop    edx
100000e0:	68 af 00 00 00       	push   0xaf
100000e5:	68 0e 01 00 00       	push   0x10e
100000ea:	68 90 01 00 00       	push   0x190
100000ef:	6a 7d                	push   0x7d
100000f1:	56                   	push   esi
100000f2:	57                   	push   edi
100000f3:	e8 fc ff ff ff       	call   100000f4 <start(void*)+0xe3>	100000f4: R_386_PC32	NIWindow::NIWindow(NIContext*, int, int, int, int)
100000f8:	83 c4 18             	add    esp,0x18
100000fb:	8b 4c 24 14          	mov    ecx,DWORD PTR [esp+0x14]
100000ff:	51                   	push   ecx
10000100:	53                   	push   ebx
10000101:	e8 fc ff ff ff       	call   10000102 <start(void*)+0xf1>	10000102: R_386_PC32	NIDesktop::addWindow(NIWindow*)
10000106:	59                   	pop    ecx
10000107:	5e                   	pop    esi
10000108:	8b 54 24 10          	mov    edx,DWORD PTR [esp+0x10]
1000010c:	52                   	push   edx
1000010d:	53                   	push   ebx
1000010e:	e8 fc ff ff ff       	call   1000010f <start(void*)+0xfe>	1000010f: R_386_PC32	NIDesktop::addWindow(NIWindow*)
10000113:	58                   	pop    eax
10000114:	5a                   	pop    edx
10000115:	57                   	push   edi
10000116:	53                   	push   ebx
10000117:	e8 fc ff ff ff       	call   10000118 <start(void*)+0x107>	10000118: R_386_PC32	NIDesktop::addWindow(NIWindow*)
1000011c:	89 1c 24             	mov    DWORD PTR [esp],ebx
1000011f:	e8 fc ff ff ff       	call   10000120 <start(void*)+0x10f>	10000120: R_386_PC32	NIDesktop::completeRefresh()
10000124:	83 c4 10             	add    esp,0x10
10000127:	83 ec 0c             	sub    esp,0xc
1000012a:	53                   	push   ebx
1000012b:	e8 fc ff ff ff       	call   1000012c <start(void*)+0x11b>	1000012c: R_386_PC32	NIDesktop::completeRefresh()
10000130:	c7 04 24 02 00 00 00 	mov    DWORD PTR [esp],0x2
10000137:	e8 fc ff ff ff       	call   10000138 <start(void*)+0x127>	10000138: R_386_PC32	blockTask(TaskState)
1000013c:	eb e6                	jmp    10000124 <start(void*)+0x113>

1000013e <ssfn_utf8>:
1000013e:	55                   	push   ebp
1000013f:	89 e5                	mov    ebp,esp
10000141:	83 ec 10             	sub    esp,0x10
10000144:	8b 45 08             	mov    eax,DWORD PTR [ebp+0x8]
10000147:	8b 00                	mov    eax,DWORD PTR [eax]
10000149:	8a 00                	mov    al,BYTE PTR [eax]
1000014b:	0f be c0             	movsx  eax,al
1000014e:	89 45 fc             	mov    DWORD PTR [ebp-0x4],eax
10000151:	8b 45 08             	mov    eax,DWORD PTR [ebp+0x8]
10000154:	8b 00                	mov    eax,DWORD PTR [eax]
10000156:	8a 00                	mov    al,BYTE PTR [eax]
10000158:	84 c0                	test   al,al
1000015a:	0f 89 20 01 00 00    	jns    10000280 <ssfn_utf8+0x142>
10000160:	8b 45 08             	mov    eax,DWORD PTR [ebp+0x8]
10000163:	8b 00                	mov    eax,DWORD PTR [eax]
10000165:	8a 00                	mov    al,BYTE PTR [eax]
10000167:	0f be c0             	movsx  eax,al
1000016a:	83 e0 20             	and    eax,0x20
1000016d:	85 c0                	test   eax,eax
1000016f:	75 39                	jne    100001aa <ssfn_utf8+0x6c>
10000171:	8b 45 08             	mov    eax,DWORD PTR [ebp+0x8]
10000174:	8b 00                	mov    eax,DWORD PTR [eax]
10000176:	8a 00                	mov    al,BYTE PTR [eax]
10000178:	0f be c0             	movsx  eax,al
1000017b:	c1 e0 06             	shl    eax,0x6
1000017e:	25 c0 07 00 00       	and    eax,0x7c0
10000183:	89 c2                	mov    edx,eax
10000185:	8b 45 08             	mov    eax,DWORD PTR [ebp+0x8]
10000188:	8b 00                	mov    eax,DWORD PTR [eax]
1000018a:	40                   	inc    eax
1000018b:	8a 00                	mov    al,BYTE PTR [eax]
1000018d:	0f be c0             	movsx  eax,al
10000190:	83 e0 3f             	and    eax,0x3f
10000193:	09 d0                	or     eax,edx
10000195:	89 45 fc             	mov    DWORD PTR [ebp-0x4],eax
10000198:	8b 45 08             	mov    eax,DWORD PTR [ebp+0x8]
1000019b:	8b 00                	mov    eax,DWORD PTR [eax]
1000019d:	8d 50 01             	lea    edx,[eax+0x1]
100001a0:	8b 45 08             	mov    eax,DWORD PTR [ebp+0x8]
100001a3:	89 10                	mov    DWORD PTR [eax],edx
100001a5:	e9 d6 00 00 00       	jmp    10000280 <ssfn_utf8+0x142>
100001aa:	8b 45 08             	mov    eax,DWORD PTR [ebp+0x8]
100001ad:	8b 00                	mov    eax,DWORD PTR [eax]
100001af:	8a 00                	mov    al,BYTE PTR [eax]
100001b1:	0f be c0             	movsx  eax,al
100001b4:	83 e0 10             	and    eax,0x10
100001b7:	85 c0                	test   eax,eax
100001b9:	75 49                	jne    10000204 <ssfn_utf8+0xc6>
100001bb:	8b 45 08             	mov    eax,DWORD PTR [ebp+0x8]
100001be:	8b 00                	mov    eax,DWORD PTR [eax]
100001c0:	8a 00                	mov    al,BYTE PTR [eax]
100001c2:	0f be c0             	movsx  eax,al
100001c5:	c1 e0 0c             	shl    eax,0xc
100001c8:	0f b7 d0             	movzx  edx,ax
100001cb:	8b 45 08             	mov    eax,DWORD PTR [ebp+0x8]
100001ce:	8b 00                	mov    eax,DWORD PTR [eax]
100001d0:	40                   	inc    eax
100001d1:	8a 00                	mov    al,BYTE PTR [eax]
100001d3:	0f be c0             	movsx  eax,al
100001d6:	c1 e0 06             	shl    eax,0x6
100001d9:	25 c0 0f 00 00       	and    eax,0xfc0
100001de:	09 c2                	or     edx,eax
100001e0:	8b 45 08             	mov    eax,DWORD PTR [ebp+0x8]
100001e3:	8b 00                	mov    eax,DWORD PTR [eax]
100001e5:	83 c0 02             	add    eax,0x2
100001e8:	8a 00                	mov    al,BYTE PTR [eax]
100001ea:	0f be c0             	movsx  eax,al
100001ed:	83 e0 3f             	and    eax,0x3f
100001f0:	09 d0                	or     eax,edx
100001f2:	89 45 fc             	mov    DWORD PTR [ebp-0x4],eax
100001f5:	8b 45 08             	mov    eax,DWORD PTR [ebp+0x8]
100001f8:	8b 00                	mov    eax,DWORD PTR [eax]
100001fa:	8d 50 02             	lea    edx,[eax+0x2]
100001fd:	8b 45 08             	mov    eax,DWORD PTR [ebp+0x8]
10000200:	89 10                	mov    DWORD PTR [eax],edx
10000202:	eb 7c                	jmp    10000280 <ssfn_utf8+0x142>
10000204:	8b 45 08             	mov    eax,DWORD PTR [ebp+0x8]
10000207:	8b 00                	mov    eax,DWORD PTR [eax]
10000209:	8a 00                	mov    al,BYTE PTR [eax]
1000020b:	0f be c0             	movsx  eax,al
1000020e:	83 e0 08             	and    eax,0x8
10000211:	85 c0                	test   eax,eax
10000213:	75 64                	jne    10000279 <ssfn_utf8+0x13b>
10000215:	8b 45 08             	mov    eax,DWORD PTR [ebp+0x8]
10000218:	8b 00                	mov    eax,DWORD PTR [eax]
1000021a:	8a 00                	mov    al,BYTE PTR [eax]
1000021c:	0f be c0             	movsx  eax,al
1000021f:	c1 e0 12             	shl    eax,0x12
10000222:	25 00 00 1c 00       	and    eax,0x1c0000
10000227:	89 c2                	mov    edx,eax
10000229:	8b 45 08             	mov    eax,DWORD PTR [ebp+0x8]
1000022c:	8b 00                	mov    eax,DWORD PTR [eax]
1000022e:	40                   	inc    eax
1000022f:	8a 00                	mov    al,BYTE PTR [eax]
10000231:	0f be c0             	movsx  eax,al
10000234:	c1 e0 0c             	shl    eax,0xc
10000237:	25 00 f0 03 00       	and    eax,0x3f000
1000023c:	09 c2                	or     edx,eax
1000023e:	8b 45 08             	mov    eax,DWORD PTR [ebp+0x8]
10000241:	8b 00                	mov    eax,DWORD PTR [eax]
10000243:	83 c0 02             	add    eax,0x2
10000246:	8a 00                	mov    al,BYTE PTR [eax]
10000248:	0f be c0             	movsx  eax,al
1000024b:	c1 e0 06             	shl    eax,0x6
1000024e:	25 c0 0f 00 00       	and    eax,0xfc0
10000253:	09 c2                	or     edx,eax
10000255:	8b 45 08             	mov    eax,DWORD PTR [ebp+0x8]
10000258:	8b 00                	mov    eax,DWORD PTR [eax]
1000025a:	83 c0 03             	add    eax,0x3
1000025d:	8a 00                	mov    al,BYTE PTR [eax]
1000025f:	0f be c0             	movsx  eax,al
10000262:	83 e0 3f             	and    eax,0x3f
10000265:	09 d0                	or     eax,edx
10000267:	89 45 fc             	mov    DWORD PTR [ebp-0x4],eax
1000026a:	8b 45 08             	mov    eax,DWORD PTR [ebp+0x8]
1000026d:	8b 00                	mov    eax,DWORD PTR [eax]
1000026f:	8d 50 03             	lea    edx,[eax+0x3]
10000272:	8b 45 08             	mov    eax,DWORD PTR [ebp+0x8]
10000275:	89 10                	mov    DWORD PTR [eax],edx
10000277:	eb 07                	jmp    10000280 <ssfn_utf8+0x142>
10000279:	c7 45 fc 00 00 00 00 	mov    DWORD PTR [ebp-0x4],0x0
10000280:	8b 45 08             	mov    eax,DWORD PTR [ebp+0x8]
10000283:	8b 00                	mov    eax,DWORD PTR [eax]
10000285:	8d 50 01             	lea    edx,[eax+0x1]
10000288:	8b 45 08             	mov    eax,DWORD PTR [ebp+0x8]
1000028b:	89 10                	mov    DWORD PTR [eax],edx
1000028d:	8b 45 fc             	mov    eax,DWORD PTR [ebp-0x4]
10000290:	c9                   	leave  
10000291:	c3                   	ret    

10000292 <_ssfn_c>:
10000292:	55                   	push   ebp
10000293:	89 e5                	mov    ebp,esp
10000295:	83 ec 20             	sub    esp,0x20
10000298:	c7 45 f8 ff ff ff ff 	mov    DWORD PTR [ebp-0x8],0xffffffff
1000029f:	8b 45 10             	mov    eax,DWORD PTR [ebp+0x10]
100002a2:	c7 00 00 00 00 00    	mov    DWORD PTR [eax],0x0
100002a8:	8b 45 14             	mov    eax,DWORD PTR [ebp+0x14]
100002ab:	c7 00 00 00 00 00    	mov    DWORD PTR [eax],0x0
100002b1:	83 7d 08 00          	cmp    DWORD PTR [ebp+0x8],0x0
100002b5:	74 19                	je     100002d0 <_ssfn_c+0x3e>
100002b7:	8b 45 08             	mov    eax,DWORD PTR [ebp+0x8]
100002ba:	8b 40 10             	mov    eax,DWORD PTR [eax+0x10]
100002bd:	85 c0                	test   eax,eax
100002bf:	74 0f                	je     100002d0 <_ssfn_c+0x3e>
100002c1:	83 7d 0c 00          	cmp    DWORD PTR [ebp+0xc],0x0
100002c5:	74 09                	je     100002d0 <_ssfn_c+0x3e>
100002c7:	8b 45 0c             	mov    eax,DWORD PTR [ebp+0xc]
100002ca:	8a 00                	mov    al,BYTE PTR [eax]
100002cc:	84 c0                	test   al,al
100002ce:	75 0a                	jne    100002da <_ssfn_c+0x48>
100002d0:	b8 00 00 00 00       	mov    eax,0x0
100002d5:	e9 c9 01 00 00       	jmp    100004a3 <_ssfn_c+0x211>
100002da:	8b 45 08             	mov    eax,DWORD PTR [ebp+0x8]
100002dd:	8b 40 14             	mov    eax,DWORD PTR [eax+0x14]
100002e0:	85 c0                	test   eax,eax
100002e2:	0f 84 9d 00 00 00    	je     10000385 <_ssfn_c+0xf3>
100002e8:	8b 45 08             	mov    eax,DWORD PTR [ebp+0x8]
100002eb:	8b 50 14             	mov    edx,DWORD PTR [eax+0x14]
100002ee:	8b 45 08             	mov    eax,DWORD PTR [ebp+0x8]
100002f1:	01 d0                	add    eax,edx
100002f3:	89 45 f0             	mov    DWORD PTR [ebp-0x10],eax
100002f6:	c7 45 fc 00 00 00 00 	mov    DWORD PTR [ebp-0x4],0x0
100002fd:	8b 45 fc             	mov    eax,DWORD PTR [ebp-0x4]
10000300:	01 c0                	add    eax,eax
10000302:	89 c2                	mov    edx,eax
10000304:	8b 45 f0             	mov    eax,DWORD PTR [ebp-0x10]
10000307:	01 d0                	add    eax,edx
10000309:	66 8b 00             	mov    ax,WORD PTR [eax]
1000030c:	66 85 c0             	test   ax,ax
1000030f:	74 74                	je     10000385 <_ssfn_c+0xf3>
10000311:	83 7d f8 ff          	cmp    DWORD PTR [ebp-0x8],0xffffffff
10000315:	75 6e                	jne    10000385 <_ssfn_c+0xf3>
10000317:	8b 45 fc             	mov    eax,DWORD PTR [ebp-0x4]
1000031a:	01 c0                	add    eax,eax
1000031c:	89 c2                	mov    edx,eax
1000031e:	8b 45 f0             	mov    eax,DWORD PTR [ebp-0x10]
10000321:	01 d0                	add    eax,edx
10000323:	66 8b 00             	mov    ax,WORD PTR [eax]
10000326:	0f b7 d0             	movzx  edx,ax
10000329:	8b 45 08             	mov    eax,DWORD PTR [ebp+0x8]
1000032c:	01 d0                	add    eax,edx
1000032e:	89 45 f4             	mov    DWORD PTR [ebp-0xc],eax
10000331:	8b 45 0c             	mov    eax,DWORD PTR [ebp+0xc]
10000334:	89 45 e8             	mov    DWORD PTR [ebp-0x18],eax
10000337:	8b 45 f4             	mov    eax,DWORD PTR [ebp-0xc]
1000033a:	8a 00                	mov    al,BYTE PTR [eax]
1000033c:	84 c0                	test   al,al
1000033e:	74 1a                	je     1000035a <_ssfn_c+0xc8>
10000340:	8b 45 f4             	mov    eax,DWORD PTR [ebp-0xc]
10000343:	8a 10                	mov    dl,BYTE PTR [eax]
10000345:	8b 45 e8             	mov    eax,DWORD PTR [ebp-0x18]
10000348:	8a 00                	mov    al,BYTE PTR [eax]
1000034a:	38 c2                	cmp    dl,al
1000034c:	75 0c                	jne    1000035a <_ssfn_c+0xc8>
1000034e:	ff 45 f4             	inc    DWORD PTR [ebp-0xc]
10000351:	8b 45 e8             	mov    eax,DWORD PTR [ebp-0x18]
10000354:	40                   	inc    eax
10000355:	89 45 e8             	mov    DWORD PTR [ebp-0x18],eax
10000358:	eb dd                	jmp    10000337 <_ssfn_c+0xa5>
1000035a:	8b 45 f4             	mov    eax,DWORD PTR [ebp-0xc]
1000035d:	8a 00                	mov    al,BYTE PTR [eax]
1000035f:	84 c0                	test   al,al
10000361:	75 1a                	jne    1000037d <_ssfn_c+0xeb>
10000363:	8b 45 fc             	mov    eax,DWORD PTR [ebp-0x4]
10000366:	05 00 f0 00 00       	add    eax,0xf000
1000036b:	89 45 f8             	mov    DWORD PTR [ebp-0x8],eax
1000036e:	8b 45 e8             	mov    eax,DWORD PTR [ebp-0x18]
10000371:	2b 45 0c             	sub    eax,DWORD PTR [ebp+0xc]
10000374:	89 c2                	mov    edx,eax
10000376:	8b 45 10             	mov    eax,DWORD PTR [ebp+0x10]
10000379:	89 10                	mov    DWORD PTR [eax],edx
1000037b:	eb 08                	jmp    10000385 <_ssfn_c+0xf3>
1000037d:	ff 45 fc             	inc    DWORD PTR [ebp-0x4]
10000380:	e9 78 ff ff ff       	jmp    100002fd <_ssfn_c+0x6b>
10000385:	83 7d f8 ff          	cmp    DWORD PTR [ebp-0x8],0xffffffff
10000389:	75 22                	jne    100003ad <_ssfn_c+0x11b>
1000038b:	8b 45 0c             	mov    eax,DWORD PTR [ebp+0xc]
1000038e:	89 45 e8             	mov    DWORD PTR [ebp-0x18],eax
10000391:	8d 45 e8             	lea    eax,[ebp-0x18]
10000394:	50                   	push   eax
10000395:	e8 fc ff ff ff       	call   10000396 <_ssfn_c+0x104>	10000396: R_386_PC32	ssfn_utf8
1000039a:	83 c4 04             	add    esp,0x4
1000039d:	89 45 f8             	mov    DWORD PTR [ebp-0x8],eax
100003a0:	8b 45 e8             	mov    eax,DWORD PTR [ebp-0x18]
100003a3:	2b 45 0c             	sub    eax,DWORD PTR [ebp+0xc]
100003a6:	89 c2                	mov    edx,eax
100003a8:	8b 45 10             	mov    eax,DWORD PTR [ebp+0x10]
100003ab:	89 10                	mov    DWORD PTR [eax],edx
100003ad:	8b 45 14             	mov    eax,DWORD PTR [ebp+0x14]
100003b0:	8b 55 f8             	mov    edx,DWORD PTR [ebp-0x8]
100003b3:	89 10                	mov    DWORD PTR [eax],edx
100003b5:	8b 45 08             	mov    eax,DWORD PTR [ebp+0x8]
100003b8:	8b 50 10             	mov    edx,DWORD PTR [eax+0x10]
100003bb:	8b 45 08             	mov    eax,DWORD PTR [ebp+0x8]
100003be:	01 d0                	add    eax,edx
100003c0:	89 45 f4             	mov    DWORD PTR [ebp-0xc],eax
100003c3:	c7 45 fc 00 00 00 00 	mov    DWORD PTR [ebp-0x4],0x0
100003ca:	81 7d fc ff ff 10 00 	cmp    DWORD PTR [ebp-0x4],0x10ffff
100003d1:	0f 87 c7 00 00 00    	ja     1000049e <_ssfn_c+0x20c>
100003d7:	8b 45 f4             	mov    eax,DWORD PTR [ebp-0xc]
100003da:	8a 00                	mov    al,BYTE PTR [eax]
100003dc:	3c ff                	cmp    al,0xff
100003de:	75 0f                	jne    100003ef <_ssfn_c+0x15d>
100003e0:	81 45 fc ff ff 00 00 	add    DWORD PTR [ebp-0x4],0xffff
100003e7:	ff 45 f4             	inc    DWORD PTR [ebp-0xc]
100003ea:	e9 a7 00 00 00       	jmp    10000496 <_ssfn_c+0x204>
100003ef:	8b 45 f4             	mov    eax,DWORD PTR [ebp-0xc]
100003f2:	8a 00                	mov    al,BYTE PTR [eax]
100003f4:	0f b6 c0             	movzx  eax,al
100003f7:	25 c0 00 00 00       	and    eax,0xc0
100003fc:	3d c0 00 00 00       	cmp    eax,0xc0
10000401:	75 2c                	jne    1000042f <_ssfn_c+0x19d>
10000403:	8b 45 f4             	mov    eax,DWORD PTR [ebp-0xc]
10000406:	8a 00                	mov    al,BYTE PTR [eax]
10000408:	0f b6 c0             	movzx  eax,al
1000040b:	c1 e0 08             	shl    eax,0x8
1000040e:	25 00 3f 00 00       	and    eax,0x3f00
10000413:	89 c2                	mov    edx,eax
10000415:	8b 45 f4             	mov    eax,DWORD PTR [ebp-0xc]
10000418:	40                   	inc    eax
10000419:	8a 00                	mov    al,BYTE PTR [eax]
1000041b:	0f b6 c0             	movzx  eax,al
1000041e:	09 d0                	or     eax,edx
10000420:	89 45 ec             	mov    DWORD PTR [ebp-0x14],eax
10000423:	8b 45 ec             	mov    eax,DWORD PTR [ebp-0x14]
10000426:	01 45 fc             	add    DWORD PTR [ebp-0x4],eax
10000429:	83 45 f4 02          	add    DWORD PTR [ebp-0xc],0x2
1000042d:	eb 67                	jmp    10000496 <_ssfn_c+0x204>
1000042f:	8b 45 f4             	mov    eax,DWORD PTR [ebp-0xc]
10000432:	8a 00                	mov    al,BYTE PTR [eax]
10000434:	0f b6 c0             	movzx  eax,al
10000437:	25 c0 00 00 00       	and    eax,0xc0
1000043c:	3d 80 00 00 00       	cmp    eax,0x80
10000441:	75 19                	jne    1000045c <_ssfn_c+0x1ca>
10000443:	8b 45 f4             	mov    eax,DWORD PTR [ebp-0xc]
10000446:	8a 00                	mov    al,BYTE PTR [eax]
10000448:	0f b6 c0             	movzx  eax,al
1000044b:	83 e0 3f             	and    eax,0x3f
1000044e:	89 45 ec             	mov    DWORD PTR [ebp-0x14],eax
10000451:	8b 45 ec             	mov    eax,DWORD PTR [ebp-0x14]
10000454:	01 45 fc             	add    DWORD PTR [ebp-0x4],eax
10000457:	ff 45 f4             	inc    DWORD PTR [ebp-0xc]
1000045a:	eb 3a                	jmp    10000496 <_ssfn_c+0x204>
1000045c:	8b 45 fc             	mov    eax,DWORD PTR [ebp-0x4]
1000045f:	3b 45 f8             	cmp    eax,DWORD PTR [ebp-0x8]
10000462:	75 05                	jne    10000469 <_ssfn_c+0x1d7>
10000464:	8b 45 f4             	mov    eax,DWORD PTR [ebp-0xc]
10000467:	eb 3a                	jmp    100004a3 <_ssfn_c+0x211>
10000469:	8b 45 f4             	mov    eax,DWORD PTR [ebp-0xc]
1000046c:	40                   	inc    eax
1000046d:	8a 00                	mov    al,BYTE PTR [eax]
1000046f:	0f b6 d0             	movzx  edx,al
10000472:	8b 45 f4             	mov    eax,DWORD PTR [ebp-0xc]
10000475:	8a 00                	mov    al,BYTE PTR [eax]
10000477:	0f b6 c0             	movzx  eax,al
1000047a:	83 e0 40             	and    eax,0x40
1000047d:	85 c0                	test   eax,eax
1000047f:	74 07                	je     10000488 <_ssfn_c+0x1f6>
10000481:	b8 06 00 00 00       	mov    eax,0x6
10000486:	eb 05                	jmp    1000048d <_ssfn_c+0x1fb>
10000488:	b8 05 00 00 00       	mov    eax,0x5
1000048d:	0f af c2             	imul   eax,edx
10000490:	83 c0 06             	add    eax,0x6
10000493:	01 45 f4             	add    DWORD PTR [ebp-0xc],eax
10000496:	ff 45 fc             	inc    DWORD PTR [ebp-0x4]
10000499:	e9 2c ff ff ff       	jmp    100003ca <_ssfn_c+0x138>
1000049e:	b8 00 00 00 00       	mov    eax,0x0
100004a3:	c9                   	leave  
100004a4:	c3                   	ret    

100004a5 <_ssfn_l>:
100004a5:	55                   	push   ebp
100004a6:	89 e5                	mov    ebp,esp
100004a8:	83 ec 08             	sub    esp,0x8
100004ab:	83 7d 14 00          	cmp    DWORD PTR [ebp+0x14],0x0
100004af:	0f 88 a6 01 00 00    	js     1000065b <_ssfn_l+0x1b6>
100004b5:	83 7d 18 00          	cmp    DWORD PTR [ebp+0x18],0x0
100004b9:	0f 88 9c 01 00 00    	js     1000065b <_ssfn_l+0x1b6>
100004bf:	8b 45 14             	mov    eax,DWORD PTR [ebp+0x14]
100004c2:	3b 45 0c             	cmp    eax,DWORD PTR [ebp+0xc]
100004c5:	0f 8d 90 01 00 00    	jge    1000065b <_ssfn_l+0x1b6>
100004cb:	8b 45 18             	mov    eax,DWORD PTR [ebp+0x18]
100004ce:	3b 45 10             	cmp    eax,DWORD PTR [ebp+0x10]
100004d1:	0f 8d 84 01 00 00    	jge    1000065b <_ssfn_l+0x1b6>
100004d7:	8b 45 08             	mov    eax,DWORD PTR [ebp+0x8]
100004da:	8b 80 9c f5 00 00    	mov    eax,DWORD PTR [eax+0xf59c]
100004e0:	83 c0 08             	add    eax,0x8
100004e3:	c1 f8 04             	sar    eax,0x4
100004e6:	89 c2                	mov    edx,eax
100004e8:	8b 45 14             	mov    eax,DWORD PTR [ebp+0x14]
100004eb:	83 c0 08             	add    eax,0x8
100004ee:	c1 f8 04             	sar    eax,0x4
100004f1:	39 c2                	cmp    edx,eax
100004f3:	75 22                	jne    10000517 <_ssfn_l+0x72>
100004f5:	8b 45 08             	mov    eax,DWORD PTR [ebp+0x8]
100004f8:	8b 80 a0 f5 00 00    	mov    eax,DWORD PTR [eax+0xf5a0]
100004fe:	83 c0 08             	add    eax,0x8
10000501:	c1 f8 04             	sar    eax,0x4
10000504:	89 c2                	mov    edx,eax
10000506:	8b 45 18             	mov    eax,DWORD PTR [ebp+0x18]
10000509:	83 c0 08             	add    eax,0x8
1000050c:	c1 f8 04             	sar    eax,0x4
1000050f:	39 c2                	cmp    edx,eax
10000511:	0f 84 44 01 00 00    	je     1000065b <_ssfn_l+0x1b6>
10000517:	8b 45 08             	mov    eax,DWORD PTR [ebp+0x8]
1000051a:	8b 90 84 f5 00 00    	mov    edx,DWORD PTR [eax+0xf584]
10000520:	8b 45 08             	mov    eax,DWORD PTR [ebp+0x8]
10000523:	8b 80 80 f5 00 00    	mov    eax,DWORD PTR [eax+0xf580]
10000529:	39 c2                	cmp    edx,eax
1000052b:	7f 77                	jg     100005a4 <_ssfn_l+0xff>
1000052d:	8b 45 08             	mov    eax,DWORD PTR [ebp+0x8]
10000530:	8b 80 80 f5 00 00    	mov    eax,DWORD PTR [eax+0xf580]
10000536:	8d 90 00 02 00 00    	lea    edx,[eax+0x200]
1000053c:	8b 45 08             	mov    eax,DWORD PTR [ebp+0x8]
1000053f:	89 90 84 f5 00 00    	mov    DWORD PTR [eax+0xf584],edx
10000545:	8b 45 08             	mov    eax,DWORD PTR [ebp+0x8]
10000548:	8b 80 84 f5 00 00    	mov    eax,DWORD PTR [eax+0xf584]
1000054e:	01 c0                	add    eax,eax
10000550:	89 c2                	mov    edx,eax
10000552:	8b 45 08             	mov    eax,DWORD PTR [ebp+0x8]
10000555:	8b 80 6c f5 00 00    	mov    eax,DWORD PTR [eax+0xf56c]
1000055b:	83 ec 08             	sub    esp,0x8
1000055e:	52                   	push   edx
1000055f:	50                   	push   eax
10000560:	e8 fc ff ff ff       	call   10000561 <_ssfn_l+0xbc>	10000561: R_386_PC32	realloc
10000565:	83 c4 10             	add    esp,0x10
10000568:	89 c2                	mov    edx,eax
1000056a:	8b 45 08             	mov    eax,DWORD PTR [ebp+0x8]
1000056d:	89 90 6c f5 00 00    	mov    DWORD PTR [eax+0xf56c],edx
10000573:	8b 45 08             	mov    eax,DWORD PTR [ebp+0x8]
10000576:	8b 80 6c f5 00 00    	mov    eax,DWORD PTR [eax+0xf56c]
1000057c:	85 c0                	test   eax,eax
1000057e:	75 24                	jne    100005a4 <_ssfn_l+0xff>
10000580:	8b 45 08             	mov    eax,DWORD PTR [ebp+0x8]
10000583:	c7 80 80 f5 00 00 00 00 00 00 	mov    DWORD PTR [eax+0xf580],0x0
1000058d:	8b 45 08             	mov    eax,DWORD PTR [ebp+0x8]
10000590:	8b 90 80 f5 00 00    	mov    edx,DWORD PTR [eax+0xf580]
10000596:	8b 45 08             	mov    eax,DWORD PTR [ebp+0x8]
10000599:	89 90 84 f5 00 00    	mov    DWORD PTR [eax+0xf584],edx
1000059f:	e9 b8 00 00 00       	jmp    1000065c <_ssfn_l+0x1b7>
100005a4:	8b 45 08             	mov    eax,DWORD PTR [ebp+0x8]
100005a7:	8b 80 80 f5 00 00    	mov    eax,DWORD PTR [eax+0xf580]
100005ad:	85 c0                	test   eax,eax
100005af:	75 42                	jne    100005f3 <_ssfn_l+0x14e>
100005b1:	8b 45 08             	mov    eax,DWORD PTR [ebp+0x8]
100005b4:	8b 90 94 f5 00 00    	mov    edx,DWORD PTR [eax+0xf594]
100005ba:	8b 45 08             	mov    eax,DWORD PTR [ebp+0x8]
100005bd:	8b 80 6c f5 00 00    	mov    eax,DWORD PTR [eax+0xf56c]
100005c3:	66 89 10             	mov    WORD PTR [eax],dx
100005c6:	8b 45 08             	mov    eax,DWORD PTR [ebp+0x8]
100005c9:	8b 90 98 f5 00 00    	mov    edx,DWORD PTR [eax+0xf598]
100005cf:	8b 45 08             	mov    eax,DWORD PTR [ebp+0x8]
100005d2:	8b 80 6c f5 00 00    	mov    eax,DWORD PTR [eax+0xf56c]
100005d8:	83 c0 02             	add    eax,0x2
100005db:	66 89 10             	mov    WORD PTR [eax],dx
100005de:	8b 45 08             	mov    eax,DWORD PTR [ebp+0x8]
100005e1:	8b 80 80 f5 00 00    	mov    eax,DWORD PTR [eax+0xf580]
100005e7:	8d 50 02             	lea    edx,[eax+0x2]
100005ea:	8b 45 08             	mov    eax,DWORD PTR [ebp+0x8]
100005ed:	89 90 80 f5 00 00    	mov    DWORD PTR [eax+0xf580],edx
100005f3:	8b 45 08             	mov    eax,DWORD PTR [ebp+0x8]
100005f6:	8b 90 6c f5 00 00    	mov    edx,DWORD PTR [eax+0xf56c]
100005fc:	8b 45 08             	mov    eax,DWORD PTR [ebp+0x8]
100005ff:	8b 80 80 f5 00 00    	mov    eax,DWORD PTR [eax+0xf580]
10000605:	01 c0                	add    eax,eax
10000607:	01 d0                	add    eax,edx
10000609:	8b 55 14             	mov    edx,DWORD PTR [ebp+0x14]
1000060c:	66 89 10             	mov    WORD PTR [eax],dx
1000060f:	8b 45 08             	mov    eax,DWORD PTR [ebp+0x8]
10000612:	8b 90 6c f5 00 00    	mov    edx,DWORD PTR [eax+0xf56c]
10000618:	8b 45 08             	mov    eax,DWORD PTR [ebp+0x8]
1000061b:	8b 80 80 f5 00 00    	mov    eax,DWORD PTR [eax+0xf580]
10000621:	40                   	inc    eax
10000622:	01 c0                	add    eax,eax
10000624:	01 d0                	add    eax,edx
10000626:	8b 55 18             	mov    edx,DWORD PTR [ebp+0x18]
10000629:	66 89 10             	mov    WORD PTR [eax],dx
1000062c:	8b 45 08             	mov    eax,DWORD PTR [ebp+0x8]
1000062f:	8b 80 80 f5 00 00    	mov    eax,DWORD PTR [eax+0xf580]
10000635:	8d 50 02             	lea    edx,[eax+0x2]
10000638:	8b 45 08             	mov    eax,DWORD PTR [ebp+0x8]
1000063b:	89 90 80 f5 00 00    	mov    DWORD PTR [eax+0xf580],edx
10000641:	8b 45 08             	mov    eax,DWORD PTR [ebp+0x8]
10000644:	8b 55 14             	mov    edx,DWORD PTR [ebp+0x14]
10000647:	89 90 9c f5 00 00    	mov    DWORD PTR [eax+0xf59c],edx
1000064d:	8b 45 08             	mov    eax,DWORD PTR [ebp+0x8]
10000650:	8b 55 18             	mov    edx,DWORD PTR [ebp+0x18]
10000653:	89 90 a0 f5 00 00    	mov    DWORD PTR [eax+0xf5a0],edx
10000659:	eb 01                	jmp    1000065c <_ssfn_l+0x1b7>
1000065b:	90                   	nop
1000065c:	c9                   	leave  
1000065d:	c3                   	ret    

1000065e <_ssfn_b>:
1000065e:	55                   	push   ebp
1000065f:	89 e5                	mov    ebp,esp
10000661:	83 ec 38             	sub    esp,0x38
10000664:	83 7d 34 03          	cmp    DWORD PTR [ebp+0x34],0x3
10000668:	0f 8f 90 01 00 00    	jg     100007fe <_ssfn_b+0x1a0>
1000066e:	8b 45 14             	mov    eax,DWORD PTR [ebp+0x14]
10000671:	3b 45 2c             	cmp    eax,DWORD PTR [ebp+0x2c]
10000674:	75 0c                	jne    10000682 <_ssfn_b+0x24>
10000676:	8b 45 18             	mov    eax,DWORD PTR [ebp+0x18]
10000679:	3b 45 30             	cmp    eax,DWORD PTR [ebp+0x30]
1000067c:	0f 84 7c 01 00 00    	je     100007fe <_ssfn_b+0x1a0>
10000682:	8b 45 1c             	mov    eax,DWORD PTR [ebp+0x1c]
10000685:	2b 45 14             	sub    eax,DWORD PTR [ebp+0x14]
10000688:	b9 02 00 00 00       	mov    ecx,0x2
1000068d:	99                   	cdq    
1000068e:	f7 f9                	idiv   ecx
10000690:	89 c2                	mov    edx,eax
10000692:	8b 45 14             	mov    eax,DWORD PTR [ebp+0x14]
10000695:	01 d0                	add    eax,edx
10000697:	89 45 f4             	mov    DWORD PTR [ebp-0xc],eax
1000069a:	8b 45 20             	mov    eax,DWORD PTR [ebp+0x20]
1000069d:	2b 45 18             	sub    eax,DWORD PTR [ebp+0x18]
100006a0:	b9 02 00 00 00       	mov    ecx,0x2
100006a5:	99                   	cdq    
100006a6:	f7 f9                	idiv   ecx
100006a8:	89 c2                	mov    edx,eax
100006aa:	8b 45 18             	mov    eax,DWORD PTR [ebp+0x18]
100006ad:	01 d0                	add    eax,edx
100006af:	89 45 f0             	mov    DWORD PTR [ebp-0x10],eax
100006b2:	8b 45 24             	mov    eax,DWORD PTR [ebp+0x24]
100006b5:	2b 45 1c             	sub    eax,DWORD PTR [ebp+0x1c]
100006b8:	b9 02 00 00 00       	mov    ecx,0x2
100006bd:	99                   	cdq    
100006be:	f7 f9                	idiv   ecx
100006c0:	89 c2                	mov    edx,eax
100006c2:	8b 45 1c             	mov    eax,DWORD PTR [ebp+0x1c]
100006c5:	01 d0                	add    eax,edx
100006c7:	89 45 ec             	mov    DWORD PTR [ebp-0x14],eax
100006ca:	8b 45 28             	mov    eax,DWORD PTR [ebp+0x28]
100006cd:	2b 45 20             	sub    eax,DWORD PTR [ebp+0x20]
100006d0:	b9 02 00 00 00       	mov    ecx,0x2
100006d5:	99                   	cdq    
100006d6:	f7 f9                	idiv   ecx
100006d8:	89 c2                	mov    edx,eax
100006da:	8b 45 20             	mov    eax,DWORD PTR [ebp+0x20]
100006dd:	01 d0                	add    eax,edx
100006df:	89 45 e8             	mov    DWORD PTR [ebp-0x18],eax
100006e2:	8b 45 2c             	mov    eax,DWORD PTR [ebp+0x2c]
100006e5:	2b 45 24             	sub    eax,DWORD PTR [ebp+0x24]
100006e8:	b9 02 00 00 00       	mov    ecx,0x2
100006ed:	99                   	cdq    
100006ee:	f7 f9                	idiv   ecx
100006f0:	89 c2                	mov    edx,eax
100006f2:	8b 45 24             	mov    eax,DWORD PTR [ebp+0x24]
100006f5:	01 d0                	add    eax,edx
100006f7:	89 45 e4             	mov    DWORD PTR [ebp-0x1c],eax
100006fa:	8b 45 30             	mov    eax,DWORD PTR [ebp+0x30]
100006fd:	2b 45 28             	sub    eax,DWORD PTR [ebp+0x28]
10000700:	b9 02 00 00 00       	mov    ecx,0x2
10000705:	99                   	cdq    
10000706:	f7 f9                	idiv   ecx
10000708:	89 c2                	mov    edx,eax
1000070a:	8b 45 28             	mov    eax,DWORD PTR [ebp+0x28]
1000070d:	01 d0                	add    eax,edx
1000070f:	89 45 e0             	mov    DWORD PTR [ebp-0x20],eax
10000712:	8b 45 ec             	mov    eax,DWORD PTR [ebp-0x14]
10000715:	2b 45 f4             	sub    eax,DWORD PTR [ebp-0xc]
10000718:	b9 02 00 00 00       	mov    ecx,0x2
1000071d:	99                   	cdq    
1000071e:	f7 f9                	idiv   ecx
10000720:	89 c2                	mov    edx,eax
10000722:	8b 45 f4             	mov    eax,DWORD PTR [ebp-0xc]
10000725:	01 d0                	add    eax,edx
10000727:	89 45 dc             	mov    DWORD PTR [ebp-0x24],eax
1000072a:	8b 45 e8             	mov    eax,DWORD PTR [ebp-0x18]
1000072d:	2b 45 f0             	sub    eax,DWORD PTR [ebp-0x10]
10000730:	b9 02 00 00 00       	mov    ecx,0x2
10000735:	99                   	cdq    
10000736:	f7 f9                	idiv   ecx
10000738:	89 c2                	mov    edx,eax
1000073a:	8b 45 f0             	mov    eax,DWORD PTR [ebp-0x10]
1000073d:	01 d0                	add    eax,edx
1000073f:	89 45 d8             	mov    DWORD PTR [ebp-0x28],eax
10000742:	8b 45 e4             	mov    eax,DWORD PTR [ebp-0x1c]
10000745:	2b 45 ec             	sub    eax,DWORD PTR [ebp-0x14]
10000748:	b9 02 00 00 00       	mov    ecx,0x2
1000074d:	99                   	cdq    
1000074e:	f7 f9                	idiv   ecx
10000750:	89 c2                	mov    edx,eax
10000752:	8b 45 ec             	mov    eax,DWORD PTR [ebp-0x14]
10000755:	01 d0                	add    eax,edx
10000757:	89 45 d4             	mov    DWORD PTR [ebp-0x2c],eax
1000075a:	8b 45 e0             	mov    eax,DWORD PTR [ebp-0x20]
1000075d:	2b 45 e8             	sub    eax,DWORD PTR [ebp-0x18]
10000760:	b9 02 00 00 00       	mov    ecx,0x2
10000765:	99                   	cdq    
10000766:	f7 f9                	idiv   ecx
10000768:	89 c2                	mov    edx,eax
1000076a:	8b 45 e8             	mov    eax,DWORD PTR [ebp-0x18]
1000076d:	01 d0                	add    eax,edx
1000076f:	89 45 d0             	mov    DWORD PTR [ebp-0x30],eax
10000772:	8b 45 d4             	mov    eax,DWORD PTR [ebp-0x2c]
10000775:	2b 45 dc             	sub    eax,DWORD PTR [ebp-0x24]
10000778:	b9 02 00 00 00       	mov    ecx,0x2
1000077d:	99                   	cdq    
1000077e:	f7 f9                	idiv   ecx
10000780:	89 c2                	mov    edx,eax
10000782:	8b 45 dc             	mov    eax,DWORD PTR [ebp-0x24]
10000785:	01 d0                	add    eax,edx
10000787:	89 45 cc             	mov    DWORD PTR [ebp-0x34],eax
1000078a:	8b 45 d0             	mov    eax,DWORD PTR [ebp-0x30]
1000078d:	2b 45 d8             	sub    eax,DWORD PTR [ebp-0x28]
10000790:	b9 02 00 00 00       	mov    ecx,0x2
10000795:	99                   	cdq    
10000796:	f7 f9                	idiv   ecx
10000798:	89 c2                	mov    edx,eax
1000079a:	8b 45 d8             	mov    eax,DWORD PTR [ebp-0x28]
1000079d:	01 d0                	add    eax,edx
1000079f:	89 45 c8             	mov    DWORD PTR [ebp-0x38],eax
100007a2:	8b 45 34             	mov    eax,DWORD PTR [ebp+0x34]
100007a5:	40                   	inc    eax
100007a6:	50                   	push   eax
100007a7:	ff 75 c8             	push   DWORD PTR [ebp-0x38]
100007aa:	ff 75 cc             	push   DWORD PTR [ebp-0x34]
100007ad:	ff 75 d8             	push   DWORD PTR [ebp-0x28]
100007b0:	ff 75 dc             	push   DWORD PTR [ebp-0x24]
100007b3:	ff 75 f0             	push   DWORD PTR [ebp-0x10]
100007b6:	ff 75 f4             	push   DWORD PTR [ebp-0xc]
100007b9:	ff 75 18             	push   DWORD PTR [ebp+0x18]
100007bc:	ff 75 14             	push   DWORD PTR [ebp+0x14]
100007bf:	ff 75 10             	push   DWORD PTR [ebp+0x10]
100007c2:	ff 75 0c             	push   DWORD PTR [ebp+0xc]
100007c5:	ff 75 08             	push   DWORD PTR [ebp+0x8]
100007c8:	e8 91 fe ff ff       	call   1000065e <_ssfn_b>
100007cd:	83 c4 30             	add    esp,0x30
100007d0:	8b 45 34             	mov    eax,DWORD PTR [ebp+0x34]
100007d3:	40                   	inc    eax
100007d4:	50                   	push   eax
100007d5:	ff 75 30             	push   DWORD PTR [ebp+0x30]
100007d8:	ff 75 2c             	push   DWORD PTR [ebp+0x2c]
100007db:	ff 75 e0             	push   DWORD PTR [ebp-0x20]
100007de:	ff 75 e4             	push   DWORD PTR [ebp-0x1c]
100007e1:	ff 75 d0             	push   DWORD PTR [ebp-0x30]
100007e4:	ff 75 d4             	push   DWORD PTR [ebp-0x2c]
100007e7:	ff 75 c8             	push   DWORD PTR [ebp-0x38]
100007ea:	ff 75 cc             	push   DWORD PTR [ebp-0x34]
100007ed:	ff 75 10             	push   DWORD PTR [ebp+0x10]
100007f0:	ff 75 0c             	push   DWORD PTR [ebp+0xc]
100007f3:	ff 75 08             	push   DWORD PTR [ebp+0x8]
100007f6:	e8 63 fe ff ff       	call   1000065e <_ssfn_b>
100007fb:	83 c4 30             	add    esp,0x30
100007fe:	83 7d 34 00          	cmp    DWORD PTR [ebp+0x34],0x0
10000802:	74 1a                	je     1000081e <_ssfn_b+0x1c0>
10000804:	83 ec 0c             	sub    esp,0xc
10000807:	ff 75 30             	push   DWORD PTR [ebp+0x30]
1000080a:	ff 75 2c             	push   DWORD PTR [ebp+0x2c]
1000080d:	ff 75 10             	push   DWORD PTR [ebp+0x10]
10000810:	ff 75 0c             	push   DWORD PTR [ebp+0xc]
10000813:	ff 75 08             	push   DWORD PTR [ebp+0x8]
10000816:	e8 8a fc ff ff       	call   100004a5 <_ssfn_l>
1000081b:	83 c4 20             	add    esp,0x20
1000081e:	90                   	nop
1000081f:	c9                   	leave  
10000820:	c3                   	ret    

10000821 <_ssfn_fc>:
10000821:	55                   	push   ebp
10000822:	89 e5                	mov    ebp,esp
10000824:	83 ec 18             	sub    esp,0x18
10000827:	83 7d 08 00          	cmp    DWORD PTR [ebp+0x8],0x0
1000082b:	0f 84 32 01 00 00    	je     10000963 <_ssfn_fc+0x142>
10000831:	c7 45 ec 00 00 00 00 	mov    DWORD PTR [ebp-0x14],0x0
10000838:	83 7d ec 10          	cmp    DWORD PTR [ebp-0x14],0x10
1000083c:	0f 8f 22 01 00 00    	jg     10000964 <_ssfn_fc+0x143>
10000842:	8b 45 08             	mov    eax,DWORD PTR [ebp+0x8]
10000845:	8b 55 ec             	mov    edx,DWORD PTR [ebp-0x14]
10000848:	81 c2 48 3d 00 00    	add    edx,0x3d48
1000084e:	8b 44 90 08          	mov    eax,DWORD PTR [eax+edx*4+0x8]
10000852:	85 c0                	test   eax,eax
10000854:	0f 84 01 01 00 00    	je     1000095b <_ssfn_fc+0x13a>
1000085a:	c7 45 f0 00 00 00 00 	mov    DWORD PTR [ebp-0x10],0x0
10000861:	81 7d f0 ff 00 00 00 	cmp    DWORD PTR [ebp-0x10],0xff
10000868:	0f 8f bd 00 00 00    	jg     1000092b <_ssfn_fc+0x10a>
1000086e:	8b 45 08             	mov    eax,DWORD PTR [ebp+0x8]
10000871:	8b 55 ec             	mov    edx,DWORD PTR [ebp-0x14]
10000874:	81 c2 48 3d 00 00    	add    edx,0x3d48
1000087a:	8b 44 90 08          	mov    eax,DWORD PTR [eax+edx*4+0x8]
1000087e:	8b 55 f0             	mov    edx,DWORD PTR [ebp-0x10]
10000881:	c1 e2 02             	shl    edx,0x2
10000884:	01 d0                	add    eax,edx
10000886:	8b 00                	mov    eax,DWORD PTR [eax]
10000888:	85 c0                	test   eax,eax
1000088a:	0f 84 93 00 00 00    	je     10000923 <_ssfn_fc+0x102>
10000890:	c7 45 f4 00 00 00 00 	mov    DWORD PTR [ebp-0xc],0x0
10000897:	81 7d f4 ff 00 00 00 	cmp    DWORD PTR [ebp-0xc],0xff
1000089e:	7f 5d                	jg     100008fd <_ssfn_fc+0xdc>
100008a0:	8b 45 08             	mov    eax,DWORD PTR [ebp+0x8]
100008a3:	8b 55 ec             	mov    edx,DWORD PTR [ebp-0x14]
100008a6:	81 c2 48 3d 00 00    	add    edx,0x3d48
100008ac:	8b 44 90 08          	mov    eax,DWORD PTR [eax+edx*4+0x8]
100008b0:	8b 55 f0             	mov    edx,DWORD PTR [ebp-0x10]
100008b3:	c1 e2 02             	shl    edx,0x2
100008b6:	01 d0                	add    eax,edx
100008b8:	8b 00                	mov    eax,DWORD PTR [eax]
100008ba:	8b 55 f4             	mov    edx,DWORD PTR [ebp-0xc]
100008bd:	c1 e2 02             	shl    edx,0x2
100008c0:	01 d0                	add    eax,edx
100008c2:	8b 00                	mov    eax,DWORD PTR [eax]
100008c4:	85 c0                	test   eax,eax
100008c6:	74 30                	je     100008f8 <_ssfn_fc+0xd7>
100008c8:	8b 45 08             	mov    eax,DWORD PTR [ebp+0x8]
100008cb:	8b 55 ec             	mov    edx,DWORD PTR [ebp-0x14]
100008ce:	81 c2 48 3d 00 00    	add    edx,0x3d48
100008d4:	8b 44 90 08          	mov    eax,DWORD PTR [eax+edx*4+0x8]
100008d8:	8b 55 f0             	mov    edx,DWORD PTR [ebp-0x10]
100008db:	c1 e2 02             	shl    edx,0x2
100008de:	01 d0                	add    eax,edx
100008e0:	8b 00                	mov    eax,DWORD PTR [eax]
100008e2:	8b 55 f4             	mov    edx,DWORD PTR [ebp-0xc]
100008e5:	c1 e2 02             	shl    edx,0x2
100008e8:	01 d0                	add    eax,edx
100008ea:	8b 00                	mov    eax,DWORD PTR [eax]
100008ec:	83 ec 0c             	sub    esp,0xc
100008ef:	50                   	push   eax
100008f0:	e8 fc ff ff ff       	call   100008f1 <_ssfn_fc+0xd0>	100008f1: R_386_PC32	free
100008f5:	83 c4 10             	add    esp,0x10
100008f8:	ff 45 f4             	inc    DWORD PTR [ebp-0xc]
100008fb:	eb 9a                	jmp    10000897 <_ssfn_fc+0x76>
100008fd:	8b 45 08             	mov    eax,DWORD PTR [ebp+0x8]
10000900:	8b 55 ec             	mov    edx,DWORD PTR [ebp-0x14]
10000903:	81 c2 48 3d 00 00    	add    edx,0x3d48
10000909:	8b 44 90 08          	mov    eax,DWORD PTR [eax+edx*4+0x8]
1000090d:	8b 55 f0             	mov    edx,DWORD PTR [ebp-0x10]
10000910:	c1 e2 02             	shl    edx,0x2
10000913:	01 d0                	add    eax,edx
10000915:	8b 00                	mov    eax,DWORD PTR [eax]
10000917:	83 ec 0c             	sub    esp,0xc
1000091a:	50                   	push   eax
1000091b:	e8 fc ff ff ff       	call   1000091c <_ssfn_fc+0xfb>	1000091c: R_386_PC32	free
10000920:	83 c4 10             	add    esp,0x10
10000923:	ff 45 f0             	inc    DWORD PTR [ebp-0x10]
10000926:	e9 36 ff ff ff       	jmp    10000861 <_ssfn_fc+0x40>
1000092b:	8b 45 08             	mov    eax,DWORD PTR [ebp+0x8]
1000092e:	8b 55 ec             	mov    edx,DWORD PTR [ebp-0x14]
10000931:	81 c2 48 3d 00 00    	add    edx,0x3d48
10000937:	8b 44 90 08          	mov    eax,DWORD PTR [eax+edx*4+0x8]
1000093b:	83 ec 0c             	sub    esp,0xc
1000093e:	50                   	push   eax
1000093f:	e8 fc ff ff ff       	call   10000940 <_ssfn_fc+0x11f>	10000940: R_386_PC32	free
10000944:	83 c4 10             	add    esp,0x10
10000947:	8b 45 08             	mov    eax,DWORD PTR [ebp+0x8]
1000094a:	8b 55 ec             	mov    edx,DWORD PTR [ebp-0x14]
1000094d:	81 c2 48 3d 00 00    	add    edx,0x3d48
10000953:	c7 44 90 08 00 00 00 00 	mov    DWORD PTR [eax+edx*4+0x8],0x0
1000095b:	ff 45 ec             	inc    DWORD PTR [ebp-0x14]
1000095e:	e9 d5 fe ff ff       	jmp    10000838 <_ssfn_fc+0x17>
10000963:	90                   	nop
10000964:	c9                   	leave  
10000965:	c3                   	ret    

10000966 <_ssfn__bitreverse16>:
10000966:	55                   	push   ebp
10000967:	89 e5                	mov    ebp,esp
10000969:	8b 45 08             	mov    eax,DWORD PTR [ebp+0x8]
1000096c:	d1 f8                	sar    eax,1
1000096e:	25 55 55 00 00       	and    eax,0x5555
10000973:	89 c2                	mov    edx,eax
10000975:	8b 45 08             	mov    eax,DWORD PTR [ebp+0x8]
10000978:	01 c0                	add    eax,eax
1000097a:	25 aa aa 00 00       	and    eax,0xaaaa
1000097f:	09 d0                	or     eax,edx
10000981:	89 45 08             	mov    DWORD PTR [ebp+0x8],eax
10000984:	8b 45 08             	mov    eax,DWORD PTR [ebp+0x8]
10000987:	c1 f8 02             	sar    eax,0x2
1000098a:	25 33 33 00 00       	and    eax,0x3333
1000098f:	89 c2                	mov    edx,eax
10000991:	8b 45 08             	mov    eax,DWORD PTR [ebp+0x8]
10000994:	c1 e0 02             	shl    eax,0x2
10000997:	25 cc cc 00 00       	and    eax,0xcccc
1000099c:	09 d0                	or     eax,edx
1000099e:	89 45 08             	mov    DWORD PTR [ebp+0x8],eax
100009a1:	8b 45 08             	mov    eax,DWORD PTR [ebp+0x8]
100009a4:	c1 f8 04             	sar    eax,0x4
100009a7:	25 0f 0f 00 00       	and    eax,0xf0f
100009ac:	89 c2                	mov    edx,eax
100009ae:	8b 45 08             	mov    eax,DWORD PTR [ebp+0x8]
100009b1:	c1 e0 04             	shl    eax,0x4
100009b4:	25 f0 f0 00 00       	and    eax,0xf0f0
100009b9:	09 d0                	or     eax,edx
100009bb:	89 45 08             	mov    DWORD PTR [ebp+0x8],eax
100009be:	8b 45 08             	mov    eax,DWORD PTR [ebp+0x8]
100009c1:	c1 f8 08             	sar    eax,0x8
100009c4:	0f b6 d0             	movzx  edx,al
100009c7:	8b 45 08             	mov    eax,DWORD PTR [ebp+0x8]
100009ca:	c1 e0 08             	shl    eax,0x8
100009cd:	0f b7 c0             	movzx  eax,ax
100009d0:	09 d0                	or     eax,edx
100009d2:	89 45 08             	mov    DWORD PTR [ebp+0x8],eax
100009d5:	8b 45 08             	mov    eax,DWORD PTR [ebp+0x8]
100009d8:	5d                   	pop    ebp
100009d9:	c3                   	ret    

100009da <_ssfn__bit_reverse>:
100009da:	55                   	push   ebp
100009db:	89 e5                	mov    ebp,esp
100009dd:	83 ec 08             	sub    esp,0x8
100009e0:	83 ec 0c             	sub    esp,0xc
100009e3:	ff 75 08             	push   DWORD PTR [ebp+0x8]
100009e6:	e8 7b ff ff ff       	call   10000966 <_ssfn__bitreverse16>
100009eb:	83 c4 10             	add    esp,0x10
100009ee:	89 c2                	mov    edx,eax
100009f0:	b8 10 00 00 00       	mov    eax,0x10
100009f5:	2b 45 0c             	sub    eax,DWORD PTR [ebp+0xc]
100009f8:	88 c1                	mov    cl,al
100009fa:	d3 fa                	sar    edx,cl
100009fc:	89 d0                	mov    eax,edx
100009fe:	c9                   	leave  
100009ff:	c3                   	ret    

10000a00 <_ssfn__zbuild_huffman>:
10000a00:	55                   	push   ebp
10000a01:	89 e5                	mov    ebp,esp
10000a03:	53                   	push   ebx
10000a04:	81 ec a4 00 00 00    	sub    esp,0xa4
10000a0a:	c7 45 f0 00 00 00 00 	mov    DWORD PTR [ebp-0x10],0x0
10000a11:	83 ec 04             	sub    esp,0x4
10000a14:	6a 44                	push   0x44
10000a16:	6a 00                	push   0x0
10000a18:	8d 85 58 ff ff ff    	lea    eax,[ebp-0xa8]
10000a1e:	50                   	push   eax
10000a1f:	e8 fc ff ff ff       	call   10000a20 <_ssfn__zbuild_huffman+0x20>	10000a20: R_386_PC32	memset
10000a24:	83 c4 10             	add    esp,0x10
10000a27:	8b 45 08             	mov    eax,DWORD PTR [ebp+0x8]
10000a2a:	83 ec 04             	sub    esp,0x4
10000a2d:	68 00 04 00 00       	push   0x400
10000a32:	6a 00                	push   0x0
10000a34:	50                   	push   eax
10000a35:	e8 fc ff ff ff       	call   10000a36 <_ssfn__zbuild_huffman+0x36>	10000a36: R_386_PC32	memset
10000a3a:	83 c4 10             	add    esp,0x10
10000a3d:	c7 45 f4 00 00 00 00 	mov    DWORD PTR [ebp-0xc],0x0
10000a44:	8b 45 f4             	mov    eax,DWORD PTR [ebp-0xc]
10000a47:	3b 45 10             	cmp    eax,DWORD PTR [ebp+0x10]
10000a4a:	7d 21                	jge    10000a6d <_ssfn__zbuild_huffman+0x6d>
10000a4c:	8b 55 f4             	mov    edx,DWORD PTR [ebp-0xc]
10000a4f:	8b 45 0c             	mov    eax,DWORD PTR [ebp+0xc]
10000a52:	01 d0                	add    eax,edx
10000a54:	8a 00                	mov    al,BYTE PTR [eax]
10000a56:	0f b6 c0             	movzx  eax,al
10000a59:	8b 94 85 58 ff ff ff 	mov    edx,DWORD PTR [ebp+eax*4-0xa8]
10000a60:	42                   	inc    edx
10000a61:	89 94 85 58 ff ff ff 	mov    DWORD PTR [ebp+eax*4-0xa8],edx
10000a68:	ff 45 f4             	inc    DWORD PTR [ebp-0xc]
10000a6b:	eb d7                	jmp    10000a44 <_ssfn__zbuild_huffman+0x44>
10000a6d:	c7 85 58 ff ff ff 00 00 00 00 	mov    DWORD PTR [ebp-0xa8],0x0
10000a77:	c7 45 f4 01 00 00 00 	mov    DWORD PTR [ebp-0xc],0x1
10000a7e:	83 7d f4 0f          	cmp    DWORD PTR [ebp-0xc],0xf
10000a82:	7f 2b                	jg     10000aaf <_ssfn__zbuild_huffman+0xaf>
10000a84:	8b 45 f4             	mov    eax,DWORD PTR [ebp-0xc]
10000a87:	8b 94 85 58 ff ff ff 	mov    edx,DWORD PTR [ebp+eax*4-0xa8]
10000a8e:	8b 45 f4             	mov    eax,DWORD PTR [ebp-0xc]
10000a91:	bb 01 00 00 00       	mov    ebx,0x1
10000a96:	88 c1                	mov    cl,al
10000a98:	d3 e3                	shl    ebx,cl
10000a9a:	89 d8                	mov    eax,ebx
10000a9c:	39 c2                	cmp    edx,eax
10000a9e:	7e 0a                	jle    10000aaa <_ssfn__zbuild_huffman+0xaa>
10000aa0:	b8 00 00 00 00       	mov    eax,0x0
10000aa5:	e9 da 01 00 00       	jmp    10000c84 <_ssfn__zbuild_huffman+0x284>
10000aaa:	ff 45 f4             	inc    DWORD PTR [ebp-0xc]
10000aad:	eb cf                	jmp    10000a7e <_ssfn__zbuild_huffman+0x7e>
10000aaf:	c7 45 ec 00 00 00 00 	mov    DWORD PTR [ebp-0x14],0x0
10000ab6:	c7 45 f4 01 00 00 00 	mov    DWORD PTR [ebp-0xc],0x1
10000abd:	83 7d f4 0f          	cmp    DWORD PTR [ebp-0xc],0xf
10000ac1:	0f 8f aa 00 00 00    	jg     10000b71 <_ssfn__zbuild_huffman+0x171>
10000ac7:	8b 45 f4             	mov    eax,DWORD PTR [ebp-0xc]
10000aca:	8b 55 ec             	mov    edx,DWORD PTR [ebp-0x14]
10000acd:	89 54 85 9c          	mov    DWORD PTR [ebp+eax*4-0x64],edx
10000ad1:	8b 45 ec             	mov    eax,DWORD PTR [ebp-0x14]
10000ad4:	89 c1                	mov    ecx,eax
10000ad6:	8b 45 08             	mov    eax,DWORD PTR [ebp+0x8]
10000ad9:	8b 55 f4             	mov    edx,DWORD PTR [ebp-0xc]
10000adc:	81 c2 00 02 00 00    	add    edx,0x200
10000ae2:	66 89 0c 50          	mov    WORD PTR [eax+edx*2],cx
10000ae6:	8b 45 f0             	mov    eax,DWORD PTR [ebp-0x10]
10000ae9:	89 c1                	mov    ecx,eax
10000aeb:	8b 45 08             	mov    eax,DWORD PTR [ebp+0x8]
10000aee:	8b 55 f4             	mov    edx,DWORD PTR [ebp-0xc]
10000af1:	81 c2 30 02 00 00    	add    edx,0x230
10000af7:	66 89 4c 50 04       	mov    WORD PTR [eax+edx*2+0x4],cx
10000afc:	8b 45 f4             	mov    eax,DWORD PTR [ebp-0xc]
10000aff:	8b 84 85 58 ff ff ff 	mov    eax,DWORD PTR [ebp+eax*4-0xa8]
10000b06:	01 45 ec             	add    DWORD PTR [ebp-0x14],eax
10000b09:	8b 45 f4             	mov    eax,DWORD PTR [ebp-0xc]
10000b0c:	8b 84 85 58 ff ff ff 	mov    eax,DWORD PTR [ebp+eax*4-0xa8]
10000b13:	85 c0                	test   eax,eax
10000b15:	74 1d                	je     10000b34 <_ssfn__zbuild_huffman+0x134>
10000b17:	8b 45 f4             	mov    eax,DWORD PTR [ebp-0xc]
10000b1a:	ba 01 00 00 00       	mov    edx,0x1
10000b1f:	88 c1                	mov    cl,al
10000b21:	d3 e2                	shl    edx,cl
10000b23:	89 d0                	mov    eax,edx
10000b25:	39 45 ec             	cmp    DWORD PTR [ebp-0x14],eax
10000b28:	7e 0a                	jle    10000b34 <_ssfn__zbuild_huffman+0x134>
10000b2a:	b8 00 00 00 00       	mov    eax,0x0
10000b2f:	e9 50 01 00 00       	jmp    10000c84 <_ssfn__zbuild_huffman+0x284>
10000b34:	b8 10 00 00 00       	mov    eax,0x10
10000b39:	2b 45 f4             	sub    eax,DWORD PTR [ebp-0xc]
10000b3c:	8b 55 ec             	mov    edx,DWORD PTR [ebp-0x14]
10000b3f:	88 c1                	mov    cl,al
10000b41:	d3 e2                	shl    edx,cl
10000b43:	89 d1                	mov    ecx,edx
10000b45:	8b 45 08             	mov    eax,DWORD PTR [ebp+0x8]
10000b48:	8b 55 f4             	mov    edx,DWORD PTR [ebp-0xc]
10000b4b:	81 c2 08 01 00 00    	add    edx,0x108
10000b51:	89 0c 90             	mov    DWORD PTR [eax+edx*4],ecx
10000b54:	8b 45 ec             	mov    eax,DWORD PTR [ebp-0x14]
10000b57:	01 c0                	add    eax,eax
10000b59:	89 45 ec             	mov    DWORD PTR [ebp-0x14],eax
10000b5c:	8b 45 f4             	mov    eax,DWORD PTR [ebp-0xc]
10000b5f:	8b 84 85 58 ff ff ff 	mov    eax,DWORD PTR [ebp+eax*4-0xa8]
10000b66:	01 45 f0             	add    DWORD PTR [ebp-0x10],eax
10000b69:	ff 45 f4             	inc    DWORD PTR [ebp-0xc]
10000b6c:	e9 4c ff ff ff       	jmp    10000abd <_ssfn__zbuild_huffman+0xbd>
10000b71:	8b 45 08             	mov    eax,DWORD PTR [ebp+0x8]
10000b74:	c7 80 60 04 00 00 00 00 01 00 	mov    DWORD PTR [eax+0x460],0x10000
10000b7e:	c7 45 f4 00 00 00 00 	mov    DWORD PTR [ebp-0xc],0x0
10000b85:	8b 45 f4             	mov    eax,DWORD PTR [ebp-0xc]
10000b88:	3b 45 10             	cmp    eax,DWORD PTR [ebp+0x10]
10000b8b:	0f 8d ee 00 00 00    	jge    10000c7f <_ssfn__zbuild_huffman+0x27f>
10000b91:	8b 55 f4             	mov    edx,DWORD PTR [ebp-0xc]
10000b94:	8b 45 0c             	mov    eax,DWORD PTR [ebp+0xc]
10000b97:	01 d0                	add    eax,edx
10000b99:	8a 00                	mov    al,BYTE PTR [eax]
10000b9b:	0f b6 c0             	movzx  eax,al
10000b9e:	89 45 e4             	mov    DWORD PTR [ebp-0x1c],eax
10000ba1:	83 7d e4 00          	cmp    DWORD PTR [ebp-0x1c],0x0
10000ba5:	0f 84 cc 00 00 00    	je     10000c77 <_ssfn__zbuild_huffman+0x277>
10000bab:	8b 45 e4             	mov    eax,DWORD PTR [ebp-0x1c]
10000bae:	8b 54 85 9c          	mov    edx,DWORD PTR [ebp+eax*4-0x64]
10000bb2:	8b 45 08             	mov    eax,DWORD PTR [ebp+0x8]
10000bb5:	8b 4d e4             	mov    ecx,DWORD PTR [ebp-0x1c]
10000bb8:	81 c1 00 02 00 00    	add    ecx,0x200
10000bbe:	66 8b 04 48          	mov    ax,WORD PTR [eax+ecx*2]
10000bc2:	0f b7 c0             	movzx  eax,ax
10000bc5:	89 d1                	mov    ecx,edx
10000bc7:	29 c1                	sub    ecx,eax
10000bc9:	8b 45 08             	mov    eax,DWORD PTR [ebp+0x8]
10000bcc:	8b 55 e4             	mov    edx,DWORD PTR [ebp-0x1c]
10000bcf:	81 c2 30 02 00 00    	add    edx,0x230
10000bd5:	66 8b 44 50 04       	mov    ax,WORD PTR [eax+edx*2+0x4]
10000bda:	0f b7 c0             	movzx  eax,ax
10000bdd:	01 c8                	add    eax,ecx
10000bdf:	89 45 e0             	mov    DWORD PTR [ebp-0x20],eax
10000be2:	8b 45 e4             	mov    eax,DWORD PTR [ebp-0x1c]
10000be5:	c1 e0 09             	shl    eax,0x9
10000be8:	89 c2                	mov    edx,eax
10000bea:	8b 45 f4             	mov    eax,DWORD PTR [ebp-0xc]
10000bed:	09 d0                	or     eax,edx
10000bef:	66 89 45 de          	mov    WORD PTR [ebp-0x22],ax
10000bf3:	8b 45 e4             	mov    eax,DWORD PTR [ebp-0x1c]
10000bf6:	88 c2                	mov    dl,al
10000bf8:	8b 4d 08             	mov    ecx,DWORD PTR [ebp+0x8]
10000bfb:	8b 45 e0             	mov    eax,DWORD PTR [ebp-0x20]
10000bfe:	01 c8                	add    eax,ecx
10000c00:	05 84 04 00 00       	add    eax,0x484
10000c05:	88 10                	mov    BYTE PTR [eax],dl
10000c07:	8b 45 f4             	mov    eax,DWORD PTR [ebp-0xc]
10000c0a:	89 c1                	mov    ecx,eax
10000c0c:	8b 45 08             	mov    eax,DWORD PTR [ebp+0x8]
10000c0f:	8b 55 e0             	mov    edx,DWORD PTR [ebp-0x20]
10000c12:	81 c2 d0 02 00 00    	add    edx,0x2d0
10000c18:	66 89 4c 50 04       	mov    WORD PTR [eax+edx*2+0x4],cx
10000c1d:	83 7d e4 09          	cmp    DWORD PTR [ebp-0x1c],0x9
10000c21:	7f 43                	jg     10000c66 <_ssfn__zbuild_huffman+0x266>
10000c23:	8b 45 e4             	mov    eax,DWORD PTR [ebp-0x1c]
10000c26:	8b 44 85 9c          	mov    eax,DWORD PTR [ebp+eax*4-0x64]
10000c2a:	83 ec 08             	sub    esp,0x8
10000c2d:	ff 75 e4             	push   DWORD PTR [ebp-0x1c]
10000c30:	50                   	push   eax
10000c31:	e8 a4 fd ff ff       	call   100009da <_ssfn__bit_reverse>
10000c36:	83 c4 10             	add    esp,0x10
10000c39:	89 45 e8             	mov    DWORD PTR [ebp-0x18],eax
10000c3c:	81 7d e8 ff 01 00 00 	cmp    DWORD PTR [ebp-0x18],0x1ff
10000c43:	7f 21                	jg     10000c66 <_ssfn__zbuild_huffman+0x266>
10000c45:	8b 45 08             	mov    eax,DWORD PTR [ebp+0x8]
10000c48:	8b 55 e8             	mov    edx,DWORD PTR [ebp-0x18]
10000c4b:	66 8b 4d de          	mov    cx,WORD PTR [ebp-0x22]
10000c4f:	66 89 0c 50          	mov    WORD PTR [eax+edx*2],cx
10000c53:	8b 45 e4             	mov    eax,DWORD PTR [ebp-0x1c]
10000c56:	ba 01 00 00 00       	mov    edx,0x1
10000c5b:	88 c1                	mov    cl,al
10000c5d:	d3 e2                	shl    edx,cl
10000c5f:	89 d0                	mov    eax,edx
10000c61:	01 45 e8             	add    DWORD PTR [ebp-0x18],eax
10000c64:	eb d6                	jmp    10000c3c <_ssfn__zbuild_huffman+0x23c>
10000c66:	8b 45 e4             	mov    eax,DWORD PTR [ebp-0x1c]
10000c69:	8b 44 85 9c          	mov    eax,DWORD PTR [ebp+eax*4-0x64]
10000c6d:	8d 50 01             	lea    edx,[eax+0x1]
10000c70:	8b 45 e4             	mov    eax,DWORD PTR [ebp-0x1c]
10000c73:	89 54 85 9c          	mov    DWORD PTR [ebp+eax*4-0x64],edx
10000c77:	ff 45 f4             	inc    DWORD PTR [ebp-0xc]
10000c7a:	e9 06 ff ff ff       	jmp    10000b85 <_ssfn__zbuild_huffman+0x185>
10000c7f:	b8 01 00 00 00       	mov    eax,0x1
10000c84:	8b 5d fc             	mov    ebx,DWORD PTR [ebp-0x4]
10000c87:	c9                   	leave  
10000c88:	c3                   	ret    

10000c89 <_ssfn__zget8>:
10000c89:	55                   	push   ebp
10000c8a:	89 e5                	mov    ebp,esp
10000c8c:	8b 45 08             	mov    eax,DWORD PTR [ebp+0x8]
10000c8f:	8b 00                	mov    eax,DWORD PTR [eax]
10000c91:	8d 48 01             	lea    ecx,[eax+0x1]
10000c94:	8b 55 08             	mov    edx,DWORD PTR [ebp+0x8]
10000c97:	89 0a                	mov    DWORD PTR [edx],ecx
10000c99:	8a 00                	mov    al,BYTE PTR [eax]
10000c9b:	5d                   	pop    ebp
10000c9c:	c3                   	ret    

10000c9d <_ssfn__fill_bits>:
10000c9d:	55                   	push   ebp
10000c9e:	89 e5                	mov    ebp,esp
10000ca0:	83 ec 08             	sub    esp,0x8
10000ca3:	83 ec 0c             	sub    esp,0xc
10000ca6:	ff 75 08             	push   DWORD PTR [ebp+0x8]
10000ca9:	e8 db ff ff ff       	call   10000c89 <_ssfn__zget8>
10000cae:	83 c4 10             	add    esp,0x10
10000cb1:	0f b6 d0             	movzx  edx,al
10000cb4:	8b 45 08             	mov    eax,DWORD PTR [ebp+0x8]
10000cb7:	8b 40 04             	mov    eax,DWORD PTR [eax+0x4]
10000cba:	88 c1                	mov    cl,al
10000cbc:	d3 e2                	shl    edx,cl
10000cbe:	8b 45 08             	mov    eax,DWORD PTR [ebp+0x8]
10000cc1:	8b 40 08             	mov    eax,DWORD PTR [eax+0x8]
10000cc4:	09 c2                	or     edx,eax
10000cc6:	8b 45 08             	mov    eax,DWORD PTR [ebp+0x8]
10000cc9:	89 50 08             	mov    DWORD PTR [eax+0x8],edx
10000ccc:	8b 45 08             	mov    eax,DWORD PTR [ebp+0x8]
10000ccf:	8b 40 04             	mov    eax,DWORD PTR [eax+0x4]
10000cd2:	8d 50 08             	lea    edx,[eax+0x8]
10000cd5:	8b 45 08             	mov    eax,DWORD PTR [ebp+0x8]
10000cd8:	89 50 04             	mov    DWORD PTR [eax+0x4],edx
10000cdb:	8b 45 08             	mov    eax,DWORD PTR [ebp+0x8]
10000cde:	8b 40 04             	mov    eax,DWORD PTR [eax+0x4]
10000ce1:	83 f8 18             	cmp    eax,0x18
10000ce4:	7f 02                	jg     10000ce8 <_ssfn__fill_bits+0x4b>
10000ce6:	eb bb                	jmp    10000ca3 <_ssfn__fill_bits+0x6>
10000ce8:	90                   	nop
10000ce9:	c9                   	leave  
10000cea:	c3                   	ret    

10000ceb <_ssfn__zreceive>:
10000ceb:	55                   	push   ebp
10000cec:	89 e5                	mov    ebp,esp
10000cee:	53                   	push   ebx
10000cef:	83 ec 14             	sub    esp,0x14
10000cf2:	8b 45 08             	mov    eax,DWORD PTR [ebp+0x8]
10000cf5:	8b 40 04             	mov    eax,DWORD PTR [eax+0x4]
10000cf8:	39 45 0c             	cmp    DWORD PTR [ebp+0xc],eax
10000cfb:	7e 0e                	jle    10000d0b <_ssfn__zreceive+0x20>
10000cfd:	83 ec 0c             	sub    esp,0xc
10000d00:	ff 75 08             	push   DWORD PTR [ebp+0x8]
10000d03:	e8 95 ff ff ff       	call   10000c9d <_ssfn__fill_bits>
10000d08:	83 c4 10             	add    esp,0x10
10000d0b:	8b 45 08             	mov    eax,DWORD PTR [ebp+0x8]
10000d0e:	8b 50 08             	mov    edx,DWORD PTR [eax+0x8]
10000d11:	8b 45 0c             	mov    eax,DWORD PTR [ebp+0xc]
10000d14:	bb 01 00 00 00       	mov    ebx,0x1
10000d19:	88 c1                	mov    cl,al
10000d1b:	d3 e3                	shl    ebx,cl
10000d1d:	89 d8                	mov    eax,ebx
10000d1f:	48                   	dec    eax
10000d20:	21 d0                	and    eax,edx
10000d22:	89 45 f4             	mov    DWORD PTR [ebp-0xc],eax
10000d25:	8b 45 08             	mov    eax,DWORD PTR [ebp+0x8]
10000d28:	8b 50 08             	mov    edx,DWORD PTR [eax+0x8]
10000d2b:	8b 45 0c             	mov    eax,DWORD PTR [ebp+0xc]
10000d2e:	88 c1                	mov    cl,al
10000d30:	d3 ea                	shr    edx,cl
10000d32:	8b 45 08             	mov    eax,DWORD PTR [ebp+0x8]
10000d35:	89 50 08             	mov    DWORD PTR [eax+0x8],edx
10000d38:	8b 45 08             	mov    eax,DWORD PTR [ebp+0x8]
10000d3b:	8b 40 04             	mov    eax,DWORD PTR [eax+0x4]
10000d3e:	2b 45 0c             	sub    eax,DWORD PTR [ebp+0xc]
10000d41:	89 c2                	mov    edx,eax
10000d43:	8b 45 08             	mov    eax,DWORD PTR [ebp+0x8]
10000d46:	89 50 04             	mov    DWORD PTR [eax+0x4],edx
10000d49:	8b 45 f4             	mov    eax,DWORD PTR [ebp-0xc]
10000d4c:	8b 5d fc             	mov    ebx,DWORD PTR [ebp-0x4]
10000d4f:	c9                   	leave  
10000d50:	c3                   	ret    

10000d51 <_ssfn__zhuffman_decode_slowpath>:
10000d51:	55                   	push   ebp
10000d52:	89 e5                	mov    ebp,esp
10000d54:	83 ec 18             	sub    esp,0x18
10000d57:	8b 45 08             	mov    eax,DWORD PTR [ebp+0x8]
10000d5a:	8b 40 08             	mov    eax,DWORD PTR [eax+0x8]
10000d5d:	83 ec 08             	sub    esp,0x8
10000d60:	6a 10                	push   0x10
10000d62:	50                   	push   eax
10000d63:	e8 72 fc ff ff       	call   100009da <_ssfn__bit_reverse>
10000d68:	83 c4 10             	add    esp,0x10
10000d6b:	89 45 f0             	mov    DWORD PTR [ebp-0x10],eax
10000d6e:	c7 45 f4 0a 00 00 00 	mov    DWORD PTR [ebp-0xc],0xa
10000d75:	8b 45 0c             	mov    eax,DWORD PTR [ebp+0xc]
10000d78:	8b 55 f4             	mov    edx,DWORD PTR [ebp-0xc]
10000d7b:	81 c2 08 01 00 00    	add    edx,0x108
10000d81:	8b 04 90             	mov    eax,DWORD PTR [eax+edx*4]
10000d84:	39 45 f0             	cmp    DWORD PTR [ebp-0x10],eax
10000d87:	7c 05                	jl     10000d8e <_ssfn__zhuffman_decode_slowpath+0x3d>
10000d89:	ff 45 f4             	inc    DWORD PTR [ebp-0xc]
10000d8c:	eb e7                	jmp    10000d75 <_ssfn__zhuffman_decode_slowpath+0x24>
10000d8e:	90                   	nop
10000d8f:	83 7d f4 10          	cmp    DWORD PTR [ebp-0xc],0x10
10000d93:	75 07                	jne    10000d9c <_ssfn__zhuffman_decode_slowpath+0x4b>
10000d95:	b8 ff ff ff ff       	mov    eax,0xffffffff
10000d9a:	eb 77                	jmp    10000e13 <_ssfn__zhuffman_decode_slowpath+0xc2>
10000d9c:	b8 10 00 00 00       	mov    eax,0x10
10000da1:	2b 45 f4             	sub    eax,DWORD PTR [ebp-0xc]
10000da4:	8b 55 f0             	mov    edx,DWORD PTR [ebp-0x10]
10000da7:	88 c1                	mov    cl,al
10000da9:	d3 fa                	sar    edx,cl
10000dab:	89 d1                	mov    ecx,edx
10000dad:	8b 45 0c             	mov    eax,DWORD PTR [ebp+0xc]
10000db0:	8b 55 f4             	mov    edx,DWORD PTR [ebp-0xc]
10000db3:	81 c2 00 02 00 00    	add    edx,0x200
10000db9:	66 8b 04 50          	mov    ax,WORD PTR [eax+edx*2]
10000dbd:	0f b7 c0             	movzx  eax,ax
10000dc0:	29 c1                	sub    ecx,eax
10000dc2:	8b 45 0c             	mov    eax,DWORD PTR [ebp+0xc]
10000dc5:	8b 55 f4             	mov    edx,DWORD PTR [ebp-0xc]
10000dc8:	81 c2 30 02 00 00    	add    edx,0x230
10000dce:	66 8b 44 50 04       	mov    ax,WORD PTR [eax+edx*2+0x4]
10000dd3:	0f b7 c0             	movzx  eax,ax
10000dd6:	01 c8                	add    eax,ecx
10000dd8:	89 45 ec             	mov    DWORD PTR [ebp-0x14],eax
10000ddb:	8b 45 08             	mov    eax,DWORD PTR [ebp+0x8]
10000dde:	8b 50 08             	mov    edx,DWORD PTR [eax+0x8]
10000de1:	8b 45 f4             	mov    eax,DWORD PTR [ebp-0xc]
10000de4:	88 c1                	mov    cl,al
10000de6:	d3 ea                	shr    edx,cl
10000de8:	8b 45 08             	mov    eax,DWORD PTR [ebp+0x8]
10000deb:	89 50 08             	mov    DWORD PTR [eax+0x8],edx
10000dee:	8b 45 08             	mov    eax,DWORD PTR [ebp+0x8]
10000df1:	8b 40 04             	mov    eax,DWORD PTR [eax+0x4]
10000df4:	2b 45 f4             	sub    eax,DWORD PTR [ebp-0xc]
10000df7:	89 c2                	mov    edx,eax
10000df9:	8b 45 08             	mov    eax,DWORD PTR [ebp+0x8]
10000dfc:	89 50 04             	mov    DWORD PTR [eax+0x4],edx
10000dff:	8b 45 0c             	mov    eax,DWORD PTR [ebp+0xc]
10000e02:	8b 55 ec             	mov    edx,DWORD PTR [ebp-0x14]
10000e05:	81 c2 d0 02 00 00    	add    edx,0x2d0
10000e0b:	66 8b 44 50 04       	mov    ax,WORD PTR [eax+edx*2+0x4]
10000e10:	0f b7 c0             	movzx  eax,ax
10000e13:	c9                   	leave  
10000e14:	c3                   	ret    

10000e15 <_ssfn__zhuffman_decode>:
10000e15:	55                   	push   ebp
10000e16:	89 e5                	mov    ebp,esp
10000e18:	83 ec 18             	sub    esp,0x18
10000e1b:	8b 45 08             	mov    eax,DWORD PTR [ebp+0x8]
10000e1e:	8b 40 04             	mov    eax,DWORD PTR [eax+0x4]
10000e21:	83 f8 0f             	cmp    eax,0xf
10000e24:	7f 0e                	jg     10000e34 <_ssfn__zhuffman_decode+0x1f>
10000e26:	83 ec 0c             	sub    esp,0xc
10000e29:	ff 75 08             	push   DWORD PTR [ebp+0x8]
10000e2c:	e8 6c fe ff ff       	call   10000c9d <_ssfn__fill_bits>
10000e31:	83 c4 10             	add    esp,0x10
10000e34:	8b 45 08             	mov    eax,DWORD PTR [ebp+0x8]
10000e37:	8b 40 08             	mov    eax,DWORD PTR [eax+0x8]
10000e3a:	25 ff 01 00 00       	and    eax,0x1ff
10000e3f:	89 c2                	mov    edx,eax
10000e41:	8b 45 0c             	mov    eax,DWORD PTR [ebp+0xc]
10000e44:	66 8b 04 50          	mov    ax,WORD PTR [eax+edx*2]
10000e48:	0f b7 c0             	movzx  eax,ax
10000e4b:	89 45 f4             	mov    DWORD PTR [ebp-0xc],eax
10000e4e:	83 7d f4 00          	cmp    DWORD PTR [ebp-0xc],0x0
10000e52:	74 37                	je     10000e8b <_ssfn__zhuffman_decode+0x76>
10000e54:	8b 45 f4             	mov    eax,DWORD PTR [ebp-0xc]
10000e57:	c1 f8 09             	sar    eax,0x9
10000e5a:	89 45 f0             	mov    DWORD PTR [ebp-0x10],eax
10000e5d:	8b 45 08             	mov    eax,DWORD PTR [ebp+0x8]
10000e60:	8b 50 08             	mov    edx,DWORD PTR [eax+0x8]
10000e63:	8b 45 f0             	mov    eax,DWORD PTR [ebp-0x10]
10000e66:	88 c1                	mov    cl,al
10000e68:	d3 ea                	shr    edx,cl
10000e6a:	8b 45 08             	mov    eax,DWORD PTR [ebp+0x8]
10000e6d:	89 50 08             	mov    DWORD PTR [eax+0x8],edx
10000e70:	8b 45 08             	mov    eax,DWORD PTR [ebp+0x8]
10000e73:	8b 40 04             	mov    eax,DWORD PTR [eax+0x4]
10000e76:	2b 45 f0             	sub    eax,DWORD PTR [ebp-0x10]
10000e79:	89 c2                	mov    edx,eax
10000e7b:	8b 45 08             	mov    eax,DWORD PTR [ebp+0x8]
10000e7e:	89 50 04             	mov    DWORD PTR [eax+0x4],edx
10000e81:	8b 45 f4             	mov    eax,DWORD PTR [ebp-0xc]
10000e84:	25 ff 01 00 00       	and    eax,0x1ff
10000e89:	eb 12                	jmp    10000e9d <_ssfn__zhuffman_decode+0x88>
10000e8b:	83 ec 08             	sub    esp,0x8
10000e8e:	ff 75 0c             	push   DWORD PTR [ebp+0xc]
10000e91:	ff 75 08             	push   DWORD PTR [ebp+0x8]
10000e94:	e8 b8 fe ff ff       	call   10000d51 <_ssfn__zhuffman_decode_slowpath>
10000e99:	83 c4 10             	add    esp,0x10
10000e9c:	90                   	nop
10000e9d:	c9                   	leave  
10000e9e:	c3                   	ret    

10000e9f <_ssfn__zexpand>:
10000e9f:	55                   	push   ebp
10000ea0:	89 e5                	mov    ebp,esp
10000ea2:	83 ec 18             	sub    esp,0x18
10000ea5:	8b 45 08             	mov    eax,DWORD PTR [ebp+0x8]
10000ea8:	8b 55 0c             	mov    edx,DWORD PTR [ebp+0xc]
10000eab:	89 50 0c             	mov    DWORD PTR [eax+0xc],edx
10000eae:	8b 45 08             	mov    eax,DWORD PTR [ebp+0x8]
10000eb1:	8b 50 0c             	mov    edx,DWORD PTR [eax+0xc]
10000eb4:	8b 45 08             	mov    eax,DWORD PTR [ebp+0x8]
10000eb7:	8b 40 10             	mov    eax,DWORD PTR [eax+0x10]
10000eba:	29 c2                	sub    edx,eax
10000ebc:	89 d0                	mov    eax,edx
10000ebe:	89 45 f4             	mov    DWORD PTR [ebp-0xc],eax
10000ec1:	8b 45 08             	mov    eax,DWORD PTR [ebp+0x8]
10000ec4:	8b 50 14             	mov    edx,DWORD PTR [eax+0x14]
10000ec7:	8b 45 08             	mov    eax,DWORD PTR [ebp+0x8]
10000eca:	8b 40 10             	mov    eax,DWORD PTR [eax+0x10]
10000ecd:	29 c2                	sub    edx,eax
10000ecf:	89 d0                	mov    eax,edx
10000ed1:	89 45 f0             	mov    DWORD PTR [ebp-0x10],eax
10000ed4:	83 7d f0 08          	cmp    DWORD PTR [ebp-0x10],0x8
10000ed8:	75 5e                	jne    10000f38 <_ssfn__zexpand+0x99>
10000eda:	8b 45 08             	mov    eax,DWORD PTR [ebp+0x8]
10000edd:	8b 40 10             	mov    eax,DWORD PTR [eax+0x10]
10000ee0:	8a 00                	mov    al,BYTE PTR [eax]
10000ee2:	3c 53                	cmp    al,0x53
10000ee4:	75 1c                	jne    10000f02 <_ssfn__zexpand+0x63>
10000ee6:	8b 45 08             	mov    eax,DWORD PTR [ebp+0x8]
10000ee9:	8b 40 10             	mov    eax,DWORD PTR [eax+0x10]
10000eec:	40                   	inc    eax
10000eed:	8a 00                	mov    al,BYTE PTR [eax]
10000eef:	3c 46                	cmp    al,0x46
10000ef1:	75 0f                	jne    10000f02 <_ssfn__zexpand+0x63>
10000ef3:	8b 45 08             	mov    eax,DWORD PTR [ebp+0x8]
10000ef6:	8b 40 10             	mov    eax,DWORD PTR [eax+0x10]
10000ef9:	83 c0 02             	add    eax,0x2
10000efc:	8a 00                	mov    al,BYTE PTR [eax]
10000efe:	3c 4e                	cmp    al,0x4e
10000f00:	74 07                	je     10000f09 <_ssfn__zexpand+0x6a>
10000f02:	b8 00 00 00 00       	mov    eax,0x0
10000f07:	eb 67                	jmp    10000f70 <_ssfn__zexpand+0xd1>
10000f09:	8b 45 08             	mov    eax,DWORD PTR [ebp+0x8]
10000f0c:	8b 40 10             	mov    eax,DWORD PTR [eax+0x10]
10000f0f:	83 c0 04             	add    eax,0x4
10000f12:	8b 00                	mov    eax,DWORD PTR [eax]
10000f14:	89 45 f0             	mov    DWORD PTR [ebp-0x10],eax
10000f17:	8b 55 f0             	mov    edx,DWORD PTR [ebp-0x10]
10000f1a:	8b 45 08             	mov    eax,DWORD PTR [ebp+0x8]
10000f1d:	8b 40 10             	mov    eax,DWORD PTR [eax+0x10]
10000f20:	83 ec 08             	sub    esp,0x8
10000f23:	52                   	push   edx
10000f24:	50                   	push   eax
10000f25:	e8 fc ff ff ff       	call   10000f26 <_ssfn__zexpand+0x87>	10000f26: R_386_PC32	realloc
10000f2a:	83 c4 10             	add    esp,0x10
10000f2d:	89 45 ec             	mov    DWORD PTR [ebp-0x14],eax
10000f30:	83 7d ec 00          	cmp    DWORD PTR [ebp-0x14],0x0
10000f34:	75 10                	jne    10000f46 <_ssfn__zexpand+0xa7>
10000f36:	eb 07                	jmp    10000f3f <_ssfn__zexpand+0xa0>
10000f38:	b8 00 00 00 00       	mov    eax,0x0
10000f3d:	eb 31                	jmp    10000f70 <_ssfn__zexpand+0xd1>
10000f3f:	b8 00 00 00 00       	mov    eax,0x0
10000f44:	eb 2a                	jmp    10000f70 <_ssfn__zexpand+0xd1>
10000f46:	8b 45 08             	mov    eax,DWORD PTR [ebp+0x8]
10000f49:	8b 55 ec             	mov    edx,DWORD PTR [ebp-0x14]
10000f4c:	89 50 10             	mov    DWORD PTR [eax+0x10],edx
10000f4f:	8b 55 f4             	mov    edx,DWORD PTR [ebp-0xc]
10000f52:	8b 45 ec             	mov    eax,DWORD PTR [ebp-0x14]
10000f55:	01 c2                	add    edx,eax
10000f57:	8b 45 08             	mov    eax,DWORD PTR [ebp+0x8]
10000f5a:	89 50 0c             	mov    DWORD PTR [eax+0xc],edx
10000f5d:	8b 55 f0             	mov    edx,DWORD PTR [ebp-0x10]
10000f60:	8b 45 ec             	mov    eax,DWORD PTR [ebp-0x14]
10000f63:	01 c2                	add    edx,eax
10000f65:	8b 45 08             	mov    eax,DWORD PTR [ebp+0x8]
10000f68:	89 50 14             	mov    DWORD PTR [eax+0x14],edx
10000f6b:	b8 01 00 00 00       	mov    eax,0x1
10000f70:	c9                   	leave  
10000f71:	c3                   	ret    

10000f72 <_ssfn__parse_huffman_block>:
10000f72:	55                   	push   ebp
10000f73:	89 e5                	mov    ebp,esp
10000f75:	83 ec 28             	sub    esp,0x28
10000f78:	8b 45 08             	mov    eax,DWORD PTR [ebp+0x8]
10000f7b:	8b 40 0c             	mov    eax,DWORD PTR [eax+0xc]
10000f7e:	89 45 f4             	mov    DWORD PTR [ebp-0xc],eax
10000f81:	8b 45 08             	mov    eax,DWORD PTR [ebp+0x8]
10000f84:	83 c0 18             	add    eax,0x18
10000f87:	83 ec 08             	sub    esp,0x8
10000f8a:	50                   	push   eax
10000f8b:	ff 75 08             	push   DWORD PTR [ebp+0x8]
10000f8e:	e8 82 fe ff ff       	call   10000e15 <_ssfn__zhuffman_decode>
10000f93:	83 c4 10             	add    esp,0x10
10000f96:	89 45 e4             	mov    DWORD PTR [ebp-0x1c],eax
10000f99:	81 7d e4 ff 00 00 00 	cmp    DWORD PTR [ebp-0x1c],0xff
10000fa0:	7f 58                	jg     10000ffa <_ssfn__parse_huffman_block+0x88>
10000fa2:	83 7d e4 00          	cmp    DWORD PTR [ebp-0x1c],0x0
10000fa6:	79 0a                	jns    10000fb2 <_ssfn__parse_huffman_block+0x40>
10000fa8:	b8 00 00 00 00       	mov    eax,0x0
10000fad:	e9 eb 01 00 00       	jmp    1000119d <_ssfn__parse_huffman_block+0x22b>
10000fb2:	8b 45 08             	mov    eax,DWORD PTR [ebp+0x8]
10000fb5:	8b 40 14             	mov    eax,DWORD PTR [eax+0x14]
10000fb8:	39 45 f4             	cmp    DWORD PTR [ebp-0xc],eax
10000fbb:	72 2d                	jb     10000fea <_ssfn__parse_huffman_block+0x78>
10000fbd:	83 ec 08             	sub    esp,0x8
10000fc0:	ff 75 f4             	push   DWORD PTR [ebp-0xc]
10000fc3:	ff 75 08             	push   DWORD PTR [ebp+0x8]
10000fc6:	e8 d4 fe ff ff       	call   10000e9f <_ssfn__zexpand>
10000fcb:	83 c4 10             	add    esp,0x10
10000fce:	85 c0                	test   eax,eax
10000fd0:	0f 94 c0             	sete   al
10000fd3:	84 c0                	test   al,al
10000fd5:	74 0a                	je     10000fe1 <_ssfn__parse_huffman_block+0x6f>
10000fd7:	b8 00 00 00 00       	mov    eax,0x0
10000fdc:	e9 bc 01 00 00       	jmp    1000119d <_ssfn__parse_huffman_block+0x22b>
10000fe1:	8b 45 08             	mov    eax,DWORD PTR [ebp+0x8]
10000fe4:	8b 40 0c             	mov    eax,DWORD PTR [eax+0xc]
10000fe7:	89 45 f4             	mov    DWORD PTR [ebp-0xc],eax
10000fea:	8b 45 f4             	mov    eax,DWORD PTR [ebp-0xc]
10000fed:	8d 50 01             	lea    edx,[eax+0x1]
10000ff0:	89 55 f4             	mov    DWORD PTR [ebp-0xc],edx
10000ff3:	8b 55 e4             	mov    edx,DWORD PTR [ebp-0x1c]
10000ff6:	88 10                	mov    BYTE PTR [eax],dl
10000ff8:	eb 87                	jmp    10000f81 <_ssfn__parse_huffman_block+0xf>
10000ffa:	81 7d e4 00 01 00 00 	cmp    DWORD PTR [ebp-0x1c],0x100
10001001:	75 13                	jne    10001016 <_ssfn__parse_huffman_block+0xa4>
10001003:	8b 45 08             	mov    eax,DWORD PTR [ebp+0x8]
10001006:	8b 55 f4             	mov    edx,DWORD PTR [ebp-0xc]
10001009:	89 50 0c             	mov    DWORD PTR [eax+0xc],edx
1000100c:	b8 01 00 00 00       	mov    eax,0x1
10001011:	e9 87 01 00 00       	jmp    1000119d <_ssfn__parse_huffman_block+0x22b>
10001016:	81 6d e4 01 01 00 00 	sub    DWORD PTR [ebp-0x1c],0x101
1000101d:	8b 45 e4             	mov    eax,DWORD PTR [ebp-0x1c]
10001020:	8b 04 85 60 68 00 10 	mov    eax,DWORD PTR [eax*4+0x10006860]	10001023: R_386_32	.data
10001027:	89 45 ec             	mov    DWORD PTR [ebp-0x14],eax
1000102a:	8b 45 e4             	mov    eax,DWORD PTR [ebp-0x1c]
1000102d:	8b 04 85 e0 68 00 10 	mov    eax,DWORD PTR [eax*4+0x100068e0]	10001030: R_386_32	.data
10001034:	85 c0                	test   eax,eax
10001036:	74 23                	je     1000105b <_ssfn__parse_huffman_block+0xe9>
10001038:	8b 45 e4             	mov    eax,DWORD PTR [ebp-0x1c]
1000103b:	8b 04 85 e0 68 00 10 	mov    eax,DWORD PTR [eax*4+0x100068e0]	1000103e: R_386_32	.data
10001042:	83 ec 08             	sub    esp,0x8
10001045:	50                   	push   eax
10001046:	ff 75 08             	push   DWORD PTR [ebp+0x8]
10001049:	e8 9d fc ff ff       	call   10000ceb <_ssfn__zreceive>
1000104e:	83 c4 10             	add    esp,0x10
10001051:	89 c2                	mov    edx,eax
10001053:	8b 45 ec             	mov    eax,DWORD PTR [ebp-0x14]
10001056:	01 d0                	add    eax,edx
10001058:	89 45 ec             	mov    DWORD PTR [ebp-0x14],eax
1000105b:	8b 45 08             	mov    eax,DWORD PTR [ebp+0x8]
1000105e:	05 fc 07 00 00       	add    eax,0x7fc
10001063:	83 ec 08             	sub    esp,0x8
10001066:	50                   	push   eax
10001067:	ff 75 08             	push   DWORD PTR [ebp+0x8]
1000106a:	e8 a6 fd ff ff       	call   10000e15 <_ssfn__zhuffman_decode>
1000106f:	83 c4 10             	add    esp,0x10
10001072:	89 45 e4             	mov    DWORD PTR [ebp-0x1c],eax
10001075:	83 7d e4 00          	cmp    DWORD PTR [ebp-0x1c],0x0
10001079:	79 0a                	jns    10001085 <_ssfn__parse_huffman_block+0x113>
1000107b:	b8 00 00 00 00       	mov    eax,0x0
10001080:	e9 18 01 00 00       	jmp    1000119d <_ssfn__parse_huffman_block+0x22b>
10001085:	8b 45 e4             	mov    eax,DWORD PTR [ebp-0x1c]
10001088:	8b 04 85 60 69 00 10 	mov    eax,DWORD PTR [eax*4+0x10006960]	1000108b: R_386_32	.data
1000108f:	89 45 e8             	mov    DWORD PTR [ebp-0x18],eax
10001092:	8b 45 e4             	mov    eax,DWORD PTR [ebp-0x1c]
10001095:	8b 04 85 e0 69 00 10 	mov    eax,DWORD PTR [eax*4+0x100069e0]	10001098: R_386_32	.data
1000109c:	85 c0                	test   eax,eax
1000109e:	74 23                	je     100010c3 <_ssfn__parse_huffman_block+0x151>
100010a0:	8b 45 e4             	mov    eax,DWORD PTR [ebp-0x1c]
100010a3:	8b 04 85 e0 69 00 10 	mov    eax,DWORD PTR [eax*4+0x100069e0]	100010a6: R_386_32	.data
100010aa:	83 ec 08             	sub    esp,0x8
100010ad:	50                   	push   eax
100010ae:	ff 75 08             	push   DWORD PTR [ebp+0x8]
100010b1:	e8 35 fc ff ff       	call   10000ceb <_ssfn__zreceive>
100010b6:	83 c4 10             	add    esp,0x10
100010b9:	89 c2                	mov    edx,eax
100010bb:	8b 45 e8             	mov    eax,DWORD PTR [ebp-0x18]
100010be:	01 d0                	add    eax,edx
100010c0:	89 45 e8             	mov    DWORD PTR [ebp-0x18],eax
100010c3:	8b 45 08             	mov    eax,DWORD PTR [ebp+0x8]
100010c6:	8b 40 10             	mov    eax,DWORD PTR [eax+0x10]
100010c9:	8b 55 f4             	mov    edx,DWORD PTR [ebp-0xc]
100010cc:	29 c2                	sub    edx,eax
100010ce:	89 d0                	mov    eax,edx
100010d0:	39 45 e8             	cmp    DWORD PTR [ebp-0x18],eax
100010d3:	7e 0a                	jle    100010df <_ssfn__parse_huffman_block+0x16d>
100010d5:	b8 00 00 00 00       	mov    eax,0x0
100010da:	e9 be 00 00 00       	jmp    1000119d <_ssfn__parse_huffman_block+0x22b>
100010df:	8b 55 ec             	mov    edx,DWORD PTR [ebp-0x14]
100010e2:	8b 45 f4             	mov    eax,DWORD PTR [ebp-0xc]
100010e5:	01 c2                	add    edx,eax
100010e7:	8b 45 08             	mov    eax,DWORD PTR [ebp+0x8]
100010ea:	8b 40 14             	mov    eax,DWORD PTR [eax+0x14]
100010ed:	39 c2                	cmp    edx,eax
100010ef:	76 2d                	jbe    1000111e <_ssfn__parse_huffman_block+0x1ac>
100010f1:	83 ec 08             	sub    esp,0x8
100010f4:	ff 75 f4             	push   DWORD PTR [ebp-0xc]
100010f7:	ff 75 08             	push   DWORD PTR [ebp+0x8]
100010fa:	e8 a0 fd ff ff       	call   10000e9f <_ssfn__zexpand>
100010ff:	83 c4 10             	add    esp,0x10
10001102:	85 c0                	test   eax,eax
10001104:	0f 94 c0             	sete   al
10001107:	84 c0                	test   al,al
10001109:	74 0a                	je     10001115 <_ssfn__parse_huffman_block+0x1a3>
1000110b:	b8 00 00 00 00       	mov    eax,0x0
10001110:	e9 88 00 00 00       	jmp    1000119d <_ssfn__parse_huffman_block+0x22b>
10001115:	8b 45 08             	mov    eax,DWORD PTR [ebp+0x8]
10001118:	8b 40 0c             	mov    eax,DWORD PTR [eax+0xc]
1000111b:	89 45 f4             	mov    DWORD PTR [ebp-0xc],eax
1000111e:	8b 45 e8             	mov    eax,DWORD PTR [ebp-0x18]
10001121:	f7 d8                	neg    eax
10001123:	89 c2                	mov    edx,eax
10001125:	8b 45 f4             	mov    eax,DWORD PTR [ebp-0xc]
10001128:	01 d0                	add    eax,edx
1000112a:	89 45 f0             	mov    DWORD PTR [ebp-0x10],eax
1000112d:	83 7d e8 01          	cmp    DWORD PTR [ebp-0x18],0x1
10001131:	75 34                	jne    10001167 <_ssfn__parse_huffman_block+0x1f5>
10001133:	8b 45 f0             	mov    eax,DWORD PTR [ebp-0x10]
10001136:	8a 00                	mov    al,BYTE PTR [eax]
10001138:	88 45 e3             	mov    BYTE PTR [ebp-0x1d],al
1000113b:	83 7d ec 00          	cmp    DWORD PTR [ebp-0x14],0x0
1000113f:	0f 84 3c fe ff ff    	je     10000f81 <_ssfn__parse_huffman_block+0xf>
10001145:	8b 45 f4             	mov    eax,DWORD PTR [ebp-0xc]
10001148:	8d 50 01             	lea    edx,[eax+0x1]
1000114b:	89 55 f4             	mov    DWORD PTR [ebp-0xc],edx
1000114e:	8a 55 e3             	mov    dl,BYTE PTR [ebp-0x1d]
10001151:	88 10                	mov    BYTE PTR [eax],dl
10001153:	ff 4d ec             	dec    DWORD PTR [ebp-0x14]
10001156:	83 7d ec 00          	cmp    DWORD PTR [ebp-0x14],0x0
1000115a:	0f 95 c0             	setne  al
1000115d:	84 c0                	test   al,al
1000115f:	0f 84 1c fe ff ff    	je     10000f81 <_ssfn__parse_huffman_block+0xf>
10001165:	eb de                	jmp    10001145 <_ssfn__parse_huffman_block+0x1d3>
10001167:	83 7d ec 00          	cmp    DWORD PTR [ebp-0x14],0x0
1000116b:	0f 84 10 fe ff ff    	je     10000f81 <_ssfn__parse_huffman_block+0xf>
10001171:	8b 45 f0             	mov    eax,DWORD PTR [ebp-0x10]
10001174:	8d 50 01             	lea    edx,[eax+0x1]
10001177:	89 55 f0             	mov    DWORD PTR [ebp-0x10],edx
1000117a:	8a 08                	mov    cl,BYTE PTR [eax]
1000117c:	8b 45 f4             	mov    eax,DWORD PTR [ebp-0xc]
1000117f:	8d 50 01             	lea    edx,[eax+0x1]
10001182:	89 55 f4             	mov    DWORD PTR [ebp-0xc],edx
10001185:	88 ca                	mov    dl,cl
10001187:	88 10                	mov    BYTE PTR [eax],dl
10001189:	ff 4d ec             	dec    DWORD PTR [ebp-0x14]
1000118c:	83 7d ec 00          	cmp    DWORD PTR [ebp-0x14],0x0
10001190:	0f 95 c0             	setne  al
10001193:	84 c0                	test   al,al
10001195:	0f 84 e6 fd ff ff    	je     10000f81 <_ssfn__parse_huffman_block+0xf>
1000119b:	eb d4                	jmp    10001171 <_ssfn__parse_huffman_block+0x1ff>
1000119d:	c9                   	leave  
1000119e:	c3                   	ret    

1000119f <_ssfn__compute_huffman_codes>:
1000119f:	55                   	push   ebp
100011a0:	89 e5                	mov    ebp,esp
100011a2:	53                   	push   ebx
100011a3:	81 ec f4 09 00 00    	sub    esp,0x9f4
100011a9:	83 ec 08             	sub    esp,0x8
100011ac:	6a 05                	push   0x5
100011ae:	ff 75 08             	push   DWORD PTR [ebp+0x8]
100011b1:	e8 35 fb ff ff       	call   10000ceb <_ssfn__zreceive>
100011b6:	83 c4 10             	add    esp,0x10
100011b9:	05 01 01 00 00       	add    eax,0x101
100011be:	89 45 e4             	mov    DWORD PTR [ebp-0x1c],eax
100011c1:	83 ec 08             	sub    esp,0x8
100011c4:	6a 05                	push   0x5
100011c6:	ff 75 08             	push   DWORD PTR [ebp+0x8]
100011c9:	e8 1d fb ff ff       	call   10000ceb <_ssfn__zreceive>
100011ce:	83 c4 10             	add    esp,0x10
100011d1:	40                   	inc    eax
100011d2:	89 45 e0             	mov    DWORD PTR [ebp-0x20],eax
100011d5:	83 ec 08             	sub    esp,0x8
100011d8:	6a 04                	push   0x4
100011da:	ff 75 08             	push   DWORD PTR [ebp+0x8]
100011dd:	e8 09 fb ff ff       	call   10000ceb <_ssfn__zreceive>
100011e2:	83 c4 10             	add    esp,0x10
100011e5:	83 c0 04             	add    eax,0x4
100011e8:	89 45 dc             	mov    DWORD PTR [ebp-0x24],eax
100011eb:	8b 55 e4             	mov    edx,DWORD PTR [ebp-0x1c]
100011ee:	8b 45 e0             	mov    eax,DWORD PTR [ebp-0x20]
100011f1:	01 d0                	add    eax,edx
100011f3:	89 45 d8             	mov    DWORD PTR [ebp-0x28],eax
100011f6:	83 ec 04             	sub    esp,0x4
100011f9:	6a 13                	push   0x13
100011fb:	6a 00                	push   0x0
100011fd:	8d 85 16 f6 ff ff    	lea    eax,[ebp-0x9ea]
10001203:	50                   	push   eax
10001204:	e8 fc ff ff ff       	call   10001205 <_ssfn__compute_huffman_codes+0x66>	10001205: R_386_PC32	memset
10001209:	83 c4 10             	add    esp,0x10
1000120c:	c7 45 f4 00 00 00 00 	mov    DWORD PTR [ebp-0xc],0x0
10001213:	8b 45 f4             	mov    eax,DWORD PTR [ebp-0xc]
10001216:	3b 45 dc             	cmp    eax,DWORD PTR [ebp-0x24]
10001219:	7d 2f                	jge    1000124a <_ssfn__compute_huffman_codes+0xab>
1000121b:	83 ec 08             	sub    esp,0x8
1000121e:	6a 03                	push   0x3
10001220:	ff 75 08             	push   DWORD PTR [ebp+0x8]
10001223:	e8 c3 fa ff ff       	call   10000ceb <_ssfn__zreceive>
10001228:	83 c4 10             	add    esp,0x10
1000122b:	89 45 d4             	mov    DWORD PTR [ebp-0x2c],eax
1000122e:	8b 45 f4             	mov    eax,DWORD PTR [ebp-0xc]
10001231:	05 60 6a 00 10       	add    eax,0x10006a60	10001232: R_386_32	.data
10001236:	8a 00                	mov    al,BYTE PTR [eax]
10001238:	0f b6 c0             	movzx  eax,al
1000123b:	8b 55 d4             	mov    edx,DWORD PTR [ebp-0x2c]
1000123e:	88 94 05 16 f6 ff ff 	mov    BYTE PTR [ebp+eax*1-0x9ea],dl
10001245:	ff 45 f4             	inc    DWORD PTR [ebp-0xc]
10001248:	eb c9                	jmp    10001213 <_ssfn__compute_huffman_codes+0x74>
1000124a:	83 ec 04             	sub    esp,0x4
1000124d:	6a 13                	push   0x13
1000124f:	8d 85 16 f6 ff ff    	lea    eax,[ebp-0x9ea]
10001255:	50                   	push   eax
10001256:	8d 85 f0 f7 ff ff    	lea    eax,[ebp-0x810]
1000125c:	50                   	push   eax
1000125d:	e8 9e f7 ff ff       	call   10000a00 <_ssfn__zbuild_huffman>
10001262:	83 c4 10             	add    esp,0x10
10001265:	85 c0                	test   eax,eax
10001267:	0f 94 c0             	sete   al
1000126a:	84 c0                	test   al,al
1000126c:	74 0a                	je     10001278 <_ssfn__compute_huffman_codes+0xd9>
1000126e:	b8 00 00 00 00       	mov    eax,0x0
10001273:	e9 83 01 00 00       	jmp    100013fb <_ssfn__compute_huffman_codes+0x25c>
10001278:	c7 45 f0 00 00 00 00 	mov    DWORD PTR [ebp-0x10],0x0
1000127f:	8b 45 f0             	mov    eax,DWORD PTR [ebp-0x10]
10001282:	3b 45 d8             	cmp    eax,DWORD PTR [ebp-0x28]
10001285:	0f 8d fd 00 00 00    	jge    10001388 <_ssfn__compute_huffman_codes+0x1e9>
1000128b:	83 ec 08             	sub    esp,0x8
1000128e:	8d 85 f0 f7 ff ff    	lea    eax,[ebp-0x810]
10001294:	50                   	push   eax
10001295:	ff 75 08             	push   DWORD PTR [ebp+0x8]
10001298:	e8 78 fb ff ff       	call   10000e15 <_ssfn__zhuffman_decode>
1000129d:	83 c4 10             	add    esp,0x10
100012a0:	89 45 ec             	mov    DWORD PTR [ebp-0x14],eax
100012a3:	83 7d ec 00          	cmp    DWORD PTR [ebp-0x14],0x0
100012a7:	78 06                	js     100012af <_ssfn__compute_huffman_codes+0x110>
100012a9:	83 7d ec 12          	cmp    DWORD PTR [ebp-0x14],0x12
100012ad:	7e 0a                	jle    100012b9 <_ssfn__compute_huffman_codes+0x11a>
100012af:	b8 00 00 00 00       	mov    eax,0x0
100012b4:	e9 42 01 00 00       	jmp    100013fb <_ssfn__compute_huffman_codes+0x25c>
100012b9:	83 7d ec 0f          	cmp    DWORD PTR [ebp-0x14],0xf
100012bd:	7f 15                	jg     100012d4 <_ssfn__compute_huffman_codes+0x135>
100012bf:	8b 45 f0             	mov    eax,DWORD PTR [ebp-0x10]
100012c2:	8d 50 01             	lea    edx,[eax+0x1]
100012c5:	89 55 f0             	mov    DWORD PTR [ebp-0x10],edx
100012c8:	8b 55 ec             	mov    edx,DWORD PTR [ebp-0x14]
100012cb:	88 94 05 29 f6 ff ff 	mov    BYTE PTR [ebp+eax*1-0x9d7],dl
100012d2:	eb ab                	jmp    1000127f <_ssfn__compute_huffman_codes+0xe0>
100012d4:	c6 45 eb 00          	mov    BYTE PTR [ebp-0x15],0x0
100012d8:	83 7d ec 10          	cmp    DWORD PTR [ebp-0x14],0x10
100012dc:	75 36                	jne    10001314 <_ssfn__compute_huffman_codes+0x175>
100012de:	83 ec 08             	sub    esp,0x8
100012e1:	6a 02                	push   0x2
100012e3:	ff 75 08             	push   DWORD PTR [ebp+0x8]
100012e6:	e8 00 fa ff ff       	call   10000ceb <_ssfn__zreceive>
100012eb:	83 c4 10             	add    esp,0x10
100012ee:	83 c0 03             	add    eax,0x3
100012f1:	89 45 ec             	mov    DWORD PTR [ebp-0x14],eax
100012f4:	83 7d f0 00          	cmp    DWORD PTR [ebp-0x10],0x0
100012f8:	75 0a                	jne    10001304 <_ssfn__compute_huffman_codes+0x165>
100012fa:	b8 00 00 00 00       	mov    eax,0x0
100012ff:	e9 f7 00 00 00       	jmp    100013fb <_ssfn__compute_huffman_codes+0x25c>
10001304:	8b 45 f0             	mov    eax,DWORD PTR [ebp-0x10]
10001307:	48                   	dec    eax
10001308:	8a 84 05 29 f6 ff ff 	mov    al,BYTE PTR [ebp+eax*1-0x9d7]
1000130f:	88 45 eb             	mov    BYTE PTR [ebp-0x15],al
10001312:	eb 34                	jmp    10001348 <_ssfn__compute_huffman_codes+0x1a9>
10001314:	83 7d ec 11          	cmp    DWORD PTR [ebp-0x14],0x11
10001318:	75 18                	jne    10001332 <_ssfn__compute_huffman_codes+0x193>
1000131a:	83 ec 08             	sub    esp,0x8
1000131d:	6a 03                	push   0x3
1000131f:	ff 75 08             	push   DWORD PTR [ebp+0x8]
10001322:	e8 c4 f9 ff ff       	call   10000ceb <_ssfn__zreceive>
10001327:	83 c4 10             	add    esp,0x10
1000132a:	83 c0 03             	add    eax,0x3
1000132d:	89 45 ec             	mov    DWORD PTR [ebp-0x14],eax
10001330:	eb 16                	jmp    10001348 <_ssfn__compute_huffman_codes+0x1a9>
10001332:	83 ec 08             	sub    esp,0x8
10001335:	6a 07                	push   0x7
10001337:	ff 75 08             	push   DWORD PTR [ebp+0x8]
1000133a:	e8 ac f9 ff ff       	call   10000ceb <_ssfn__zreceive>
1000133f:	83 c4 10             	add    esp,0x10
10001342:	83 c0 0b             	add    eax,0xb
10001345:	89 45 ec             	mov    DWORD PTR [ebp-0x14],eax
10001348:	8b 45 d8             	mov    eax,DWORD PTR [ebp-0x28]
1000134b:	2b 45 f0             	sub    eax,DWORD PTR [ebp-0x10]
1000134e:	39 45 ec             	cmp    DWORD PTR [ebp-0x14],eax
10001351:	7e 0a                	jle    1000135d <_ssfn__compute_huffman_codes+0x1be>
10001353:	b8 00 00 00 00       	mov    eax,0x0
10001358:	e9 9e 00 00 00       	jmp    100013fb <_ssfn__compute_huffman_codes+0x25c>
1000135d:	8b 55 ec             	mov    edx,DWORD PTR [ebp-0x14]
10001360:	0f b6 45 eb          	movzx  eax,BYTE PTR [ebp-0x15]
10001364:	8b 4d f0             	mov    ecx,DWORD PTR [ebp-0x10]
10001367:	8d 9d 29 f6 ff ff    	lea    ebx,[ebp-0x9d7]
1000136d:	01 d9                	add    ecx,ebx
1000136f:	83 ec 04             	sub    esp,0x4
10001372:	52                   	push   edx
10001373:	50                   	push   eax
10001374:	51                   	push   ecx
10001375:	e8 fc ff ff ff       	call   10001376 <_ssfn__compute_huffman_codes+0x1d7>	10001376: R_386_PC32	memset
1000137a:	83 c4 10             	add    esp,0x10
1000137d:	8b 45 ec             	mov    eax,DWORD PTR [ebp-0x14]
10001380:	01 45 f0             	add    DWORD PTR [ebp-0x10],eax
10001383:	e9 f7 fe ff ff       	jmp    1000127f <_ssfn__compute_huffman_codes+0xe0>
10001388:	8b 45 f0             	mov    eax,DWORD PTR [ebp-0x10]
1000138b:	3b 45 d8             	cmp    eax,DWORD PTR [ebp-0x28]
1000138e:	74 07                	je     10001397 <_ssfn__compute_huffman_codes+0x1f8>
10001390:	b8 00 00 00 00       	mov    eax,0x0
10001395:	eb 64                	jmp    100013fb <_ssfn__compute_huffman_codes+0x25c>
10001397:	8b 45 08             	mov    eax,DWORD PTR [ebp+0x8]
1000139a:	8d 50 18             	lea    edx,[eax+0x18]
1000139d:	83 ec 04             	sub    esp,0x4
100013a0:	ff 75 e4             	push   DWORD PTR [ebp-0x1c]
100013a3:	8d 85 29 f6 ff ff    	lea    eax,[ebp-0x9d7]
100013a9:	50                   	push   eax
100013aa:	52                   	push   edx
100013ab:	e8 50 f6 ff ff       	call   10000a00 <_ssfn__zbuild_huffman>
100013b0:	83 c4 10             	add    esp,0x10
100013b3:	85 c0                	test   eax,eax
100013b5:	0f 94 c0             	sete   al
100013b8:	84 c0                	test   al,al
100013ba:	74 07                	je     100013c3 <_ssfn__compute_huffman_codes+0x224>
100013bc:	b8 00 00 00 00       	mov    eax,0x0
100013c1:	eb 38                	jmp    100013fb <_ssfn__compute_huffman_codes+0x25c>
100013c3:	8b 45 e4             	mov    eax,DWORD PTR [ebp-0x1c]
100013c6:	8d 95 29 f6 ff ff    	lea    edx,[ebp-0x9d7]
100013cc:	01 c2                	add    edx,eax
100013ce:	8b 45 08             	mov    eax,DWORD PTR [ebp+0x8]
100013d1:	05 fc 07 00 00       	add    eax,0x7fc
100013d6:	83 ec 04             	sub    esp,0x4
100013d9:	ff 75 e0             	push   DWORD PTR [ebp-0x20]
100013dc:	52                   	push   edx
100013dd:	50                   	push   eax
100013de:	e8 1d f6 ff ff       	call   10000a00 <_ssfn__zbuild_huffman>
100013e3:	83 c4 10             	add    esp,0x10
100013e6:	85 c0                	test   eax,eax
100013e8:	0f 94 c0             	sete   al
100013eb:	84 c0                	test   al,al
100013ed:	74 07                	je     100013f6 <_ssfn__compute_huffman_codes+0x257>
100013ef:	b8 00 00 00 00       	mov    eax,0x0
100013f4:	eb 05                	jmp    100013fb <_ssfn__compute_huffman_codes+0x25c>
100013f6:	b8 01 00 00 00       	mov    eax,0x1
100013fb:	8b 5d fc             	mov    ebx,DWORD PTR [ebp-0x4]
100013fe:	c9                   	leave  
100013ff:	c3                   	ret    

10001400 <_ssfn__parse_uncompressed_block>:
10001400:	55                   	push   ebp
10001401:	89 e5                	mov    ebp,esp
10001403:	53                   	push   ebx
10001404:	83 ec 14             	sub    esp,0x14
10001407:	8b 45 08             	mov    eax,DWORD PTR [ebp+0x8]
1000140a:	8b 40 04             	mov    eax,DWORD PTR [eax+0x4]
1000140d:	83 e0 07             	and    eax,0x7
10001410:	85 c0                	test   eax,eax
10001412:	74 18                	je     1000142c <_ssfn__parse_uncompressed_block+0x2c>
10001414:	8b 45 08             	mov    eax,DWORD PTR [ebp+0x8]
10001417:	8b 40 04             	mov    eax,DWORD PTR [eax+0x4]
1000141a:	83 e0 07             	and    eax,0x7
1000141d:	83 ec 08             	sub    esp,0x8
10001420:	50                   	push   eax
10001421:	ff 75 08             	push   DWORD PTR [ebp+0x8]
10001424:	e8 c2 f8 ff ff       	call   10000ceb <_ssfn__zreceive>
10001429:	83 c4 10             	add    esp,0x10
1000142c:	c7 45 f4 00 00 00 00 	mov    DWORD PTR [ebp-0xc],0x0
10001433:	8b 45 08             	mov    eax,DWORD PTR [ebp+0x8]
10001436:	8b 40 04             	mov    eax,DWORD PTR [eax+0x4]
10001439:	85 c0                	test   eax,eax
1000143b:	7e 37                	jle    10001474 <_ssfn__parse_uncompressed_block+0x74>
1000143d:	8b 45 08             	mov    eax,DWORD PTR [ebp+0x8]
10001440:	8b 48 08             	mov    ecx,DWORD PTR [eax+0x8]
10001443:	8b 45 f4             	mov    eax,DWORD PTR [ebp-0xc]
10001446:	8d 50 01             	lea    edx,[eax+0x1]
10001449:	89 55 f4             	mov    DWORD PTR [ebp-0xc],edx
1000144c:	88 ca                	mov    dl,cl
1000144e:	88 54 05 e8          	mov    BYTE PTR [ebp+eax*1-0x18],dl
10001452:	8b 45 08             	mov    eax,DWORD PTR [ebp+0x8]
10001455:	8b 40 08             	mov    eax,DWORD PTR [eax+0x8]
10001458:	c1 e8 08             	shr    eax,0x8
1000145b:	89 c2                	mov    edx,eax
1000145d:	8b 45 08             	mov    eax,DWORD PTR [ebp+0x8]
10001460:	89 50 08             	mov    DWORD PTR [eax+0x8],edx
10001463:	8b 45 08             	mov    eax,DWORD PTR [ebp+0x8]
10001466:	8b 40 04             	mov    eax,DWORD PTR [eax+0x4]
10001469:	8d 50 f8             	lea    edx,[eax-0x8]
1000146c:	8b 45 08             	mov    eax,DWORD PTR [ebp+0x8]
1000146f:	89 50 04             	mov    DWORD PTR [eax+0x4],edx
10001472:	eb bf                	jmp    10001433 <_ssfn__parse_uncompressed_block+0x33>
10001474:	83 7d f4 03          	cmp    DWORD PTR [ebp-0xc],0x3
10001478:	7f 1d                	jg     10001497 <_ssfn__parse_uncompressed_block+0x97>
1000147a:	8b 5d f4             	mov    ebx,DWORD PTR [ebp-0xc]
1000147d:	8d 43 01             	lea    eax,[ebx+0x1]
10001480:	89 45 f4             	mov    DWORD PTR [ebp-0xc],eax
10001483:	83 ec 0c             	sub    esp,0xc
10001486:	ff 75 08             	push   DWORD PTR [ebp+0x8]
10001489:	e8 fb f7 ff ff       	call   10000c89 <_ssfn__zget8>
1000148e:	83 c4 10             	add    esp,0x10
10001491:	88 44 1d e8          	mov    BYTE PTR [ebp+ebx*1-0x18],al
10001495:	eb dd                	jmp    10001474 <_ssfn__parse_uncompressed_block+0x74>
10001497:	8a 45 e9             	mov    al,BYTE PTR [ebp-0x17]
1000149a:	0f b6 c0             	movzx  eax,al
1000149d:	c1 e0 08             	shl    eax,0x8
100014a0:	89 c2                	mov    edx,eax
100014a2:	8a 45 e8             	mov    al,BYTE PTR [ebp-0x18]
100014a5:	0f b6 c0             	movzx  eax,al
100014a8:	01 d0                	add    eax,edx
100014aa:	89 45 f0             	mov    DWORD PTR [ebp-0x10],eax
100014ad:	8a 45 eb             	mov    al,BYTE PTR [ebp-0x15]
100014b0:	0f b6 c0             	movzx  eax,al
100014b3:	c1 e0 08             	shl    eax,0x8
100014b6:	89 c2                	mov    edx,eax
100014b8:	8a 45 ea             	mov    al,BYTE PTR [ebp-0x16]
100014bb:	0f b6 c0             	movzx  eax,al
100014be:	01 d0                	add    eax,edx
100014c0:	89 45 ec             	mov    DWORD PTR [ebp-0x14],eax
100014c3:	8b 45 f0             	mov    eax,DWORD PTR [ebp-0x10]
100014c6:	35 ff ff 00 00       	xor    eax,0xffff
100014cb:	39 45 ec             	cmp    DWORD PTR [ebp-0x14],eax
100014ce:	74 0a                	je     100014da <_ssfn__parse_uncompressed_block+0xda>
100014d0:	b8 00 00 00 00       	mov    eax,0x0
100014d5:	e9 8c 00 00 00       	jmp    10001566 <_ssfn__parse_uncompressed_block+0x166>
100014da:	8b 45 08             	mov    eax,DWORD PTR [ebp+0x8]
100014dd:	8b 50 0c             	mov    edx,DWORD PTR [eax+0xc]
100014e0:	8b 45 f0             	mov    eax,DWORD PTR [ebp-0x10]
100014e3:	01 c2                	add    edx,eax
100014e5:	8b 45 08             	mov    eax,DWORD PTR [ebp+0x8]
100014e8:	8b 40 14             	mov    eax,DWORD PTR [eax+0x14]
100014eb:	39 c2                	cmp    edx,eax
100014ed:	76 25                	jbe    10001514 <_ssfn__parse_uncompressed_block+0x114>
100014ef:	8b 45 08             	mov    eax,DWORD PTR [ebp+0x8]
100014f2:	8b 40 0c             	mov    eax,DWORD PTR [eax+0xc]
100014f5:	83 ec 08             	sub    esp,0x8
100014f8:	50                   	push   eax
100014f9:	ff 75 08             	push   DWORD PTR [ebp+0x8]
100014fc:	e8 9e f9 ff ff       	call   10000e9f <_ssfn__zexpand>
10001501:	83 c4 10             	add    esp,0x10
10001504:	85 c0                	test   eax,eax
10001506:	0f 94 c0             	sete   al
10001509:	84 c0                	test   al,al
1000150b:	74 07                	je     10001514 <_ssfn__parse_uncompressed_block+0x114>
1000150d:	b8 00 00 00 00       	mov    eax,0x0
10001512:	eb 52                	jmp    10001566 <_ssfn__parse_uncompressed_block+0x166>
10001514:	c7 45 f4 00 00 00 00 	mov    DWORD PTR [ebp-0xc],0x0
1000151b:	8b 45 f4             	mov    eax,DWORD PTR [ebp-0xc]
1000151e:	3b 45 f0             	cmp    eax,DWORD PTR [ebp-0x10]
10001521:	7d 1e                	jge    10001541 <_ssfn__parse_uncompressed_block+0x141>
10001523:	8b 45 08             	mov    eax,DWORD PTR [ebp+0x8]
10001526:	8b 10                	mov    edx,DWORD PTR [eax]
10001528:	8b 45 f4             	mov    eax,DWORD PTR [ebp-0xc]
1000152b:	01 d0                	add    eax,edx
1000152d:	8a 10                	mov    dl,BYTE PTR [eax]
1000152f:	8b 45 08             	mov    eax,DWORD PTR [ebp+0x8]
10001532:	8b 48 0c             	mov    ecx,DWORD PTR [eax+0xc]
10001535:	8b 45 f4             	mov    eax,DWORD PTR [ebp-0xc]
10001538:	01 c8                	add    eax,ecx
1000153a:	88 10                	mov    BYTE PTR [eax],dl
1000153c:	ff 45 f4             	inc    DWORD PTR [ebp-0xc]
1000153f:	eb da                	jmp    1000151b <_ssfn__parse_uncompressed_block+0x11b>
10001541:	8b 45 08             	mov    eax,DWORD PTR [ebp+0x8]
10001544:	8b 10                	mov    edx,DWORD PTR [eax]
10001546:	8b 45 f0             	mov    eax,DWORD PTR [ebp-0x10]
10001549:	01 c2                	add    edx,eax
1000154b:	8b 45 08             	mov    eax,DWORD PTR [ebp+0x8]
1000154e:	89 10                	mov    DWORD PTR [eax],edx
10001550:	8b 45 08             	mov    eax,DWORD PTR [ebp+0x8]
10001553:	8b 50 0c             	mov    edx,DWORD PTR [eax+0xc]
10001556:	8b 45 f0             	mov    eax,DWORD PTR [ebp-0x10]
10001559:	01 c2                	add    edx,eax
1000155b:	8b 45 08             	mov    eax,DWORD PTR [ebp+0x8]
1000155e:	89 50 0c             	mov    DWORD PTR [eax+0xc],edx
10001561:	b8 01 00 00 00       	mov    eax,0x1
10001566:	8b 5d fc             	mov    ebx,DWORD PTR [ebp-0x4]
10001569:	c9                   	leave  
1000156a:	c3                   	ret    

1000156b <_ssfn__init_zdefaults>:
1000156b:	55                   	push   ebp
1000156c:	89 e5                	mov    ebp,esp
1000156e:	83 ec 10             	sub    esp,0x10
10001571:	c7 45 fc 00 00 00 00 	mov    DWORD PTR [ebp-0x4],0x0
10001578:	81 7d fc 8f 00 00 00 	cmp    DWORD PTR [ebp-0x4],0x8f
1000157f:	7f 10                	jg     10001591 <_ssfn__init_zdefaults+0x26>
10001581:	8b 45 fc             	mov    eax,DWORD PTR [ebp-0x4]
10001584:	05 40 69 01 10       	add    eax,0x10016940	10001585: R_386_32	.bss
10001589:	c6 00 08             	mov    BYTE PTR [eax],0x8
1000158c:	ff 45 fc             	inc    DWORD PTR [ebp-0x4]
1000158f:	eb e7                	jmp    10001578 <_ssfn__init_zdefaults+0xd>
10001591:	81 7d fc ff 00 00 00 	cmp    DWORD PTR [ebp-0x4],0xff
10001598:	7f 10                	jg     100015aa <_ssfn__init_zdefaults+0x3f>
1000159a:	8b 45 fc             	mov    eax,DWORD PTR [ebp-0x4]
1000159d:	05 40 69 01 10       	add    eax,0x10016940	1000159e: R_386_32	.bss
100015a2:	c6 00 09             	mov    BYTE PTR [eax],0x9
100015a5:	ff 45 fc             	inc    DWORD PTR [ebp-0x4]
100015a8:	eb e7                	jmp    10001591 <_ssfn__init_zdefaults+0x26>
100015aa:	81 7d fc 17 01 00 00 	cmp    DWORD PTR [ebp-0x4],0x117
100015b1:	7f 10                	jg     100015c3 <_ssfn__init_zdefaults+0x58>
100015b3:	8b 45 fc             	mov    eax,DWORD PTR [ebp-0x4]
100015b6:	05 40 69 01 10       	add    eax,0x10016940	100015b7: R_386_32	.bss
100015bb:	c6 00 07             	mov    BYTE PTR [eax],0x7
100015be:	ff 45 fc             	inc    DWORD PTR [ebp-0x4]
100015c1:	eb e7                	jmp    100015aa <_ssfn__init_zdefaults+0x3f>
100015c3:	81 7d fc 1f 01 00 00 	cmp    DWORD PTR [ebp-0x4],0x11f
100015ca:	7f 10                	jg     100015dc <_ssfn__init_zdefaults+0x71>
100015cc:	8b 45 fc             	mov    eax,DWORD PTR [ebp-0x4]
100015cf:	05 40 69 01 10       	add    eax,0x10016940	100015d0: R_386_32	.bss
100015d4:	c6 00 08             	mov    BYTE PTR [eax],0x8
100015d7:	ff 45 fc             	inc    DWORD PTR [ebp-0x4]
100015da:	eb e7                	jmp    100015c3 <_ssfn__init_zdefaults+0x58>
100015dc:	c7 45 fc 00 00 00 00 	mov    DWORD PTR [ebp-0x4],0x0
100015e3:	83 7d fc 1f          	cmp    DWORD PTR [ebp-0x4],0x1f
100015e7:	7f 10                	jg     100015f9 <_ssfn__init_zdefaults+0x8e>
100015e9:	8b 45 fc             	mov    eax,DWORD PTR [ebp-0x4]
100015ec:	05 60 6a 01 10       	add    eax,0x10016a60	100015ed: R_386_32	.bss
100015f1:	c6 00 05             	mov    BYTE PTR [eax],0x5
100015f4:	ff 45 fc             	inc    DWORD PTR [ebp-0x4]
100015f7:	eb ea                	jmp    100015e3 <_ssfn__init_zdefaults+0x78>
100015f9:	90                   	nop
100015fa:	c9                   	leave  
100015fb:	c3                   	ret    

100015fc <_ssfn__parse_zlib>:
100015fc:	55                   	push   ebp
100015fd:	89 e5                	mov    ebp,esp
100015ff:	83 ec 18             	sub    esp,0x18
10001602:	8b 45 08             	mov    eax,DWORD PTR [ebp+0x8]
10001605:	c7 40 04 00 00 00 00 	mov    DWORD PTR [eax+0x4],0x0
1000160c:	8b 45 08             	mov    eax,DWORD PTR [ebp+0x8]
1000160f:	c7 40 08 00 00 00 00 	mov    DWORD PTR [eax+0x8],0x0
10001616:	83 ec 08             	sub    esp,0x8
10001619:	6a 01                	push   0x1
1000161b:	ff 75 08             	push   DWORD PTR [ebp+0x8]
1000161e:	e8 c8 f6 ff ff       	call   10000ceb <_ssfn__zreceive>
10001623:	83 c4 10             	add    esp,0x10
10001626:	89 45 f4             	mov    DWORD PTR [ebp-0xc],eax
10001629:	83 ec 08             	sub    esp,0x8
1000162c:	6a 02                	push   0x2
1000162e:	ff 75 08             	push   DWORD PTR [ebp+0x8]
10001631:	e8 b5 f6 ff ff       	call   10000ceb <_ssfn__zreceive>
10001636:	83 c4 10             	add    esp,0x10
10001639:	89 45 f0             	mov    DWORD PTR [ebp-0x10],eax
1000163c:	83 7d f0 00          	cmp    DWORD PTR [ebp-0x10],0x0
10001640:	75 25                	jne    10001667 <_ssfn__parse_zlib+0x6b>
10001642:	83 ec 0c             	sub    esp,0xc
10001645:	ff 75 08             	push   DWORD PTR [ebp+0x8]
10001648:	e8 b3 fd ff ff       	call   10001400 <_ssfn__parse_uncompressed_block>
1000164d:	83 c4 10             	add    esp,0x10
10001650:	85 c0                	test   eax,eax
10001652:	0f 94 c0             	sete   al
10001655:	84 c0                	test   al,al
10001657:	0f 84 b3 00 00 00    	je     10001710 <_ssfn__parse_zlib+0x114>
1000165d:	b8 00 00 00 00       	mov    eax,0x0
10001662:	e9 b9 00 00 00       	jmp    10001720 <_ssfn__parse_zlib+0x124>
10001667:	83 7d f0 03          	cmp    DWORD PTR [ebp-0x10],0x3
1000166b:	75 0a                	jne    10001677 <_ssfn__parse_zlib+0x7b>
1000166d:	b8 00 00 00 00       	mov    eax,0x0
10001672:	e9 a9 00 00 00       	jmp    10001720 <_ssfn__parse_zlib+0x124>
10001677:	83 7d f0 01          	cmp    DWORD PTR [ebp-0x10],0x1
1000167b:	75 57                	jne    100016d4 <_ssfn__parse_zlib+0xd8>
1000167d:	8b 45 08             	mov    eax,DWORD PTR [ebp+0x8]
10001680:	83 c0 18             	add    eax,0x18
10001683:	83 ec 04             	sub    esp,0x4
10001686:	68 20 01 00 00       	push   0x120
1000168b:	68 40 69 01 10       	push   0x10016940	1000168c: R_386_32	.bss
10001690:	50                   	push   eax
10001691:	e8 6a f3 ff ff       	call   10000a00 <_ssfn__zbuild_huffman>
10001696:	83 c4 10             	add    esp,0x10
10001699:	85 c0                	test   eax,eax
1000169b:	0f 94 c0             	sete   al
1000169e:	84 c0                	test   al,al
100016a0:	74 07                	je     100016a9 <_ssfn__parse_zlib+0xad>
100016a2:	b8 00 00 00 00       	mov    eax,0x0
100016a7:	eb 77                	jmp    10001720 <_ssfn__parse_zlib+0x124>
100016a9:	8b 45 08             	mov    eax,DWORD PTR [ebp+0x8]
100016ac:	05 fc 07 00 00       	add    eax,0x7fc
100016b1:	83 ec 04             	sub    esp,0x4
100016b4:	6a 20                	push   0x20
100016b6:	68 60 6a 01 10       	push   0x10016a60	100016b7: R_386_32	.bss
100016bb:	50                   	push   eax
100016bc:	e8 3f f3 ff ff       	call   10000a00 <_ssfn__zbuild_huffman>
100016c1:	83 c4 10             	add    esp,0x10
100016c4:	85 c0                	test   eax,eax
100016c6:	0f 94 c0             	sete   al
100016c9:	84 c0                	test   al,al
100016cb:	74 25                	je     100016f2 <_ssfn__parse_zlib+0xf6>
100016cd:	b8 00 00 00 00       	mov    eax,0x0
100016d2:	eb 4c                	jmp    10001720 <_ssfn__parse_zlib+0x124>
100016d4:	83 ec 0c             	sub    esp,0xc
100016d7:	ff 75 08             	push   DWORD PTR [ebp+0x8]
100016da:	e8 c0 fa ff ff       	call   1000119f <_ssfn__compute_huffman_codes>
100016df:	83 c4 10             	add    esp,0x10
100016e2:	85 c0                	test   eax,eax
100016e4:	0f 94 c0             	sete   al
100016e7:	84 c0                	test   al,al
100016e9:	74 07                	je     100016f2 <_ssfn__parse_zlib+0xf6>
100016eb:	b8 00 00 00 00       	mov    eax,0x0
100016f0:	eb 2e                	jmp    10001720 <_ssfn__parse_zlib+0x124>
100016f2:	83 ec 0c             	sub    esp,0xc
100016f5:	ff 75 08             	push   DWORD PTR [ebp+0x8]
100016f8:	e8 75 f8 ff ff       	call   10000f72 <_ssfn__parse_huffman_block>
100016fd:	83 c4 10             	add    esp,0x10
10001700:	85 c0                	test   eax,eax
10001702:	0f 94 c0             	sete   al
10001705:	84 c0                	test   al,al
10001707:	74 07                	je     10001710 <_ssfn__parse_zlib+0x114>
10001709:	b8 00 00 00 00       	mov    eax,0x0
1000170e:	eb 10                	jmp    10001720 <_ssfn__parse_zlib+0x124>
10001710:	83 7d f4 00          	cmp    DWORD PTR [ebp-0xc],0x0
10001714:	75 05                	jne    1000171b <_ssfn__parse_zlib+0x11f>
10001716:	e9 fb fe ff ff       	jmp    10001616 <_ssfn__parse_zlib+0x1a>
1000171b:	b8 01 00 00 00       	mov    eax,0x1
10001720:	c9                   	leave  
10001721:	c3                   	ret    

10001722 <_ssfn_zlib_decode>:
10001722:	55                   	push   ebp
10001723:	89 e5                	mov    ebp,esp
10001725:	81 ec f8 0f 00 00    	sub    esp,0xff8
1000172b:	83 ec 0c             	sub    esp,0xc
1000172e:	6a 08                	push   0x8
10001730:	e8 fc ff ff ff       	call   10001731 <_ssfn_zlib_decode+0xf>	10001731: R_386_PC32	malloc
10001735:	83 c4 10             	add    esp,0x10
10001738:	89 45 f4             	mov    DWORD PTR [ebp-0xc],eax
1000173b:	83 7d f4 00          	cmp    DWORD PTR [ebp-0xc],0x0
1000173f:	75 07                	jne    10001748 <_ssfn_zlib_decode+0x26>
10001741:	b8 00 00 00 00       	mov    eax,0x0
10001746:	eb 66                	jmp    100017ae <_ssfn_zlib_decode+0x8c>
10001748:	8b 45 08             	mov    eax,DWORD PTR [ebp+0x8]
1000174b:	89 85 14 f0 ff ff    	mov    DWORD PTR [ebp-0xfec],eax
10001751:	8b 45 f4             	mov    eax,DWORD PTR [ebp-0xc]
10001754:	89 85 24 f0 ff ff    	mov    DWORD PTR [ebp-0xfdc],eax
1000175a:	8b 45 f4             	mov    eax,DWORD PTR [ebp-0xc]
1000175d:	89 85 20 f0 ff ff    	mov    DWORD PTR [ebp-0xfe0],eax
10001763:	8b 45 f4             	mov    eax,DWORD PTR [ebp-0xc]
10001766:	83 c0 08             	add    eax,0x8
10001769:	89 85 28 f0 ff ff    	mov    DWORD PTR [ebp-0xfd8],eax
1000176f:	e8 f7 fd ff ff       	call   1000156b <_ssfn__init_zdefaults>
10001774:	83 ec 0c             	sub    esp,0xc
10001777:	8d 85 14 f0 ff ff    	lea    eax,[ebp-0xfec]
1000177d:	50                   	push   eax
1000177e:	e8 79 fe ff ff       	call   100015fc <_ssfn__parse_zlib>
10001783:	83 c4 10             	add    esp,0x10
10001786:	85 c0                	test   eax,eax
10001788:	0f 95 c0             	setne  al
1000178b:	84 c0                	test   al,al
1000178d:	74 08                	je     10001797 <_ssfn_zlib_decode+0x75>
1000178f:	8b 85 24 f0 ff ff    	mov    eax,DWORD PTR [ebp-0xfdc]
10001795:	eb 17                	jmp    100017ae <_ssfn_zlib_decode+0x8c>
10001797:	8b 85 24 f0 ff ff    	mov    eax,DWORD PTR [ebp-0xfdc]
1000179d:	83 ec 0c             	sub    esp,0xc
100017a0:	50                   	push   eax
100017a1:	e8 fc ff ff ff       	call   100017a2 <_ssfn_zlib_decode+0x80>	100017a2: R_386_PC32	free
100017a6:	83 c4 10             	add    esp,0x10
100017a9:	b8 00 00 00 00       	mov    eax,0x0
100017ae:	c9                   	leave  
100017af:	c3                   	ret    

100017b0 <ssfn_load>:
100017b0:	55                   	push   ebp
100017b1:	89 e5                	mov    ebp,esp
100017b3:	53                   	push   ebx
100017b4:	83 ec 24             	sub    esp,0x24
100017b7:	8b 45 0c             	mov    eax,DWORD PTR [ebp+0xc]
100017ba:	89 45 f4             	mov    DWORD PTR [ebp-0xc],eax
100017bd:	8b 45 f4             	mov    eax,DWORD PTR [ebp-0xc]
100017c0:	89 45 ec             	mov    DWORD PTR [ebp-0x14],eax
100017c3:	83 7d 08 00          	cmp    DWORD PTR [ebp+0x8],0x0
100017c7:	74 06                	je     100017cf <ssfn_load+0x1f>
100017c9:	83 7d f4 00          	cmp    DWORD PTR [ebp-0xc],0x0
100017cd:	75 0a                	jne    100017d9 <ssfn_load+0x29>
100017cf:	b8 fc ff ff ff       	mov    eax,0xfffffffc
100017d4:	e9 72 03 00 00       	jmp    10001b4b <ssfn_load+0x39b>
100017d9:	8b 45 f4             	mov    eax,DWORD PTR [ebp-0xc]
100017dc:	8a 00                	mov    al,BYTE PTR [eax]
100017de:	3c 1f                	cmp    al,0x1f
100017e0:	0f 85 76 01 00 00    	jne    1000195c <ssfn_load+0x1ac>
100017e6:	8b 45 f4             	mov    eax,DWORD PTR [ebp-0xc]
100017e9:	40                   	inc    eax
100017ea:	8a 00                	mov    al,BYTE PTR [eax]
100017ec:	3c 8b                	cmp    al,0x8b
100017ee:	0f 85 68 01 00 00    	jne    1000195c <ssfn_load+0x1ac>
100017f4:	83 45 ec 02          	add    DWORD PTR [ebp-0x14],0x2
100017f8:	8b 45 ec             	mov    eax,DWORD PTR [ebp-0x14]
100017fb:	8d 50 01             	lea    edx,[eax+0x1]
100017fe:	89 55 ec             	mov    DWORD PTR [ebp-0x14],edx
10001801:	8a 00                	mov    al,BYTE PTR [eax]
10001803:	3c 08                	cmp    al,0x8
10001805:	0f 95 c0             	setne  al
10001808:	84 c0                	test   al,al
1000180a:	74 0a                	je     10001816 <ssfn_load+0x66>
1000180c:	b8 fe ff ff ff       	mov    eax,0xfffffffe
10001811:	e9 35 03 00 00       	jmp    10001b4b <ssfn_load+0x39b>
10001816:	8b 45 ec             	mov    eax,DWORD PTR [ebp-0x14]
10001819:	8d 50 01             	lea    edx,[eax+0x1]
1000181c:	89 55 ec             	mov    DWORD PTR [ebp-0x14],edx
1000181f:	8a 00                	mov    al,BYTE PTR [eax]
10001821:	88 45 eb             	mov    BYTE PTR [ebp-0x15],al
10001824:	83 45 ec 06          	add    DWORD PTR [ebp-0x14],0x6
10001828:	0f b6 45 eb          	movzx  eax,BYTE PTR [ebp-0x15]
1000182c:	83 e0 04             	and    eax,0x4
1000182f:	85 c0                	test   eax,eax
10001831:	74 29                	je     1000185c <ssfn_load+0xac>
10001833:	8b 45 ec             	mov    eax,DWORD PTR [ebp-0x14]
10001836:	8d 50 01             	lea    edx,[eax+0x1]
10001839:	89 55 ec             	mov    DWORD PTR [ebp-0x14],edx
1000183c:	8a 00                	mov    al,BYTE PTR [eax]
1000183e:	88 45 ea             	mov    BYTE PTR [ebp-0x16],al
10001841:	8b 45 ec             	mov    eax,DWORD PTR [ebp-0x14]
10001844:	8d 50 01             	lea    edx,[eax+0x1]
10001847:	89 55 ec             	mov    DWORD PTR [ebp-0x14],edx
1000184a:	8a 00                	mov    al,BYTE PTR [eax]
1000184c:	0f b6 c0             	movzx  eax,al
1000184f:	c1 e0 08             	shl    eax,0x8
10001852:	00 45 ea             	add    BYTE PTR [ebp-0x16],al
10001855:	0f b6 45 ea          	movzx  eax,BYTE PTR [ebp-0x16]
10001859:	01 45 ec             	add    DWORD PTR [ebp-0x14],eax
1000185c:	0f b6 45 eb          	movzx  eax,BYTE PTR [ebp-0x15]
10001860:	83 e0 08             	and    eax,0x8
10001863:	85 c0                	test   eax,eax
10001865:	74 16                	je     1000187d <ssfn_load+0xcd>
10001867:	8b 45 ec             	mov    eax,DWORD PTR [ebp-0x14]
1000186a:	8d 50 01             	lea    edx,[eax+0x1]
1000186d:	89 55 ec             	mov    DWORD PTR [ebp-0x14],edx
10001870:	8a 00                	mov    al,BYTE PTR [eax]
10001872:	84 c0                	test   al,al
10001874:	0f 95 c0             	setne  al
10001877:	84 c0                	test   al,al
10001879:	74 02                	je     1000187d <ssfn_load+0xcd>
1000187b:	eb ea                	jmp    10001867 <ssfn_load+0xb7>
1000187d:	0f b6 45 eb          	movzx  eax,BYTE PTR [ebp-0x15]
10001881:	83 e0 10             	and    eax,0x10
10001884:	85 c0                	test   eax,eax
10001886:	74 16                	je     1000189e <ssfn_load+0xee>
10001888:	8b 45 ec             	mov    eax,DWORD PTR [ebp-0x14]
1000188b:	8d 50 01             	lea    edx,[eax+0x1]
1000188e:	89 55 ec             	mov    DWORD PTR [ebp-0x14],edx
10001891:	8a 00                	mov    al,BYTE PTR [eax]
10001893:	84 c0                	test   al,al
10001895:	0f 95 c0             	setne  al
10001898:	84 c0                	test   al,al
1000189a:	74 02                	je     1000189e <ssfn_load+0xee>
1000189c:	eb ea                	jmp    10001888 <ssfn_load+0xd8>
1000189e:	83 ec 0c             	sub    esp,0xc
100018a1:	ff 75 ec             	push   DWORD PTR [ebp-0x14]
100018a4:	e8 fc ff ff ff       	call   100018a5 <ssfn_load+0xf5>	100018a5: R_386_PC32	_ssfn_zlib_decode
100018a9:	83 c4 10             	add    esp,0x10
100018ac:	89 45 f4             	mov    DWORD PTR [ebp-0xc],eax
100018af:	83 7d f4 00          	cmp    DWORD PTR [ebp-0xc],0x0
100018b3:	75 0a                	jne    100018bf <ssfn_load+0x10f>
100018b5:	b8 fe ff ff ff       	mov    eax,0xfffffffe
100018ba:	e9 8c 02 00 00       	jmp    10001b4b <ssfn_load+0x39b>
100018bf:	8b 45 08             	mov    eax,DWORD PTR [ebp+0x8]
100018c2:	8b 80 78 f5 00 00    	mov    eax,DWORD PTR [eax+0xf578]
100018c8:	40                   	inc    eax
100018c9:	8d 14 85 00 00 00 00 	lea    edx,[eax*4+0x0]
100018d0:	8b 45 08             	mov    eax,DWORD PTR [ebp+0x8]
100018d3:	8b 80 70 f5 00 00    	mov    eax,DWORD PTR [eax+0xf570]
100018d9:	83 ec 08             	sub    esp,0x8
100018dc:	52                   	push   edx
100018dd:	50                   	push   eax
100018de:	e8 fc ff ff ff       	call   100018df <ssfn_load+0x12f>	100018df: R_386_PC32	realloc
100018e3:	83 c4 10             	add    esp,0x10
100018e6:	89 c2                	mov    edx,eax
100018e8:	8b 45 08             	mov    eax,DWORD PTR [ebp+0x8]
100018eb:	89 90 70 f5 00 00    	mov    DWORD PTR [eax+0xf570],edx
100018f1:	8b 45 08             	mov    eax,DWORD PTR [ebp+0x8]
100018f4:	8b 80 70 f5 00 00    	mov    eax,DWORD PTR [eax+0xf570]
100018fa:	85 c0                	test   eax,eax
100018fc:	75 17                	jne    10001915 <ssfn_load+0x165>
100018fe:	8b 45 08             	mov    eax,DWORD PTR [ebp+0x8]
10001901:	c7 80 78 f5 00 00 00 00 00 00 	mov    DWORD PTR [eax+0xf578],0x0
1000190b:	b8 ff ff ff ff       	mov    eax,0xffffffff
10001910:	e9 36 02 00 00       	jmp    10001b4b <ssfn_load+0x39b>
10001915:	8b 45 08             	mov    eax,DWORD PTR [ebp+0x8]
10001918:	8b 98 70 f5 00 00    	mov    ebx,DWORD PTR [eax+0xf570]
1000191e:	8b 45 08             	mov    eax,DWORD PTR [ebp+0x8]
10001921:	8b 80 78 f5 00 00    	mov    eax,DWORD PTR [eax+0xf578]
10001927:	8d 48 01             	lea    ecx,[eax+0x1]
1000192a:	8b 55 08             	mov    edx,DWORD PTR [ebp+0x8]
1000192d:	89 8a 78 f5 00 00    	mov    DWORD PTR [edx+0xf578],ecx
10001933:	c1 e0 02             	shl    eax,0x2
10001936:	8d 14 03             	lea    edx,[ebx+eax*1]
10001939:	8b 45 f4             	mov    eax,DWORD PTR [ebp-0xc]
1000193c:	89 02                	mov    DWORD PTR [edx],eax
1000193e:	8b 45 08             	mov    eax,DWORD PTR [ebp+0x8]
10001941:	8b 80 7c f5 00 00    	mov    eax,DWORD PTR [eax+0xf57c]
10001947:	89 c2                	mov    edx,eax
10001949:	8b 45 f4             	mov    eax,DWORD PTR [ebp-0xc]
1000194c:	8b 40 04             	mov    eax,DWORD PTR [eax+0x4]
1000194f:	01 d0                	add    eax,edx
10001951:	89 c2                	mov    edx,eax
10001953:	8b 45 08             	mov    eax,DWORD PTR [ebp+0x8]
10001956:	89 90 7c f5 00 00    	mov    DWORD PTR [eax+0xf57c],edx
1000195c:	8b 45 f4             	mov    eax,DWORD PTR [ebp-0xc]
1000195f:	83 ec 04             	sub    esp,0x4
10001962:	6a 04                	push   0x4
10001964:	68 87 67 00 10       	push   0x10006787	10001965: R_386_32	.text
10001969:	50                   	push   eax
1000196a:	e8 fc ff ff ff       	call   1000196b <ssfn_load+0x1bb>	1000196b: R_386_PC32	memcmp
1000196f:	83 c4 10             	add    esp,0x10
10001972:	85 c0                	test   eax,eax
10001974:	75 4d                	jne    100019c3 <ssfn_load+0x213>
10001976:	8b 45 f4             	mov    eax,DWORD PTR [ebp-0xc]
10001979:	8b 50 04             	mov    edx,DWORD PTR [eax+0x4]
1000197c:	8b 45 f4             	mov    eax,DWORD PTR [ebp-0xc]
1000197f:	01 d0                	add    eax,edx
10001981:	89 45 e4             	mov    DWORD PTR [ebp-0x1c],eax
10001984:	8b 45 f4             	mov    eax,DWORD PTR [ebp-0xc]
10001987:	83 c0 08             	add    eax,0x8
1000198a:	89 45 f0             	mov    DWORD PTR [ebp-0x10],eax
1000198d:	8b 45 f0             	mov    eax,DWORD PTR [ebp-0x10]
10001990:	3b 45 e4             	cmp    eax,DWORD PTR [ebp-0x1c]
10001993:	73 19                	jae    100019ae <ssfn_load+0x1fe>
10001995:	83 ec 08             	sub    esp,0x8
10001998:	ff 75 f0             	push   DWORD PTR [ebp-0x10]
1000199b:	ff 75 08             	push   DWORD PTR [ebp+0x8]
1000199e:	e8 fc ff ff ff       	call   1000199f <ssfn_load+0x1ef>	1000199f: R_386_PC32	ssfn_load
100019a3:	83 c4 10             	add    esp,0x10
100019a6:	85 c0                	test   eax,eax
100019a8:	75 04                	jne    100019ae <ssfn_load+0x1fe>
100019aa:	b0 01                	mov    al,0x1
100019ac:	eb 02                	jmp    100019b0 <ssfn_load+0x200>
100019ae:	b0 00                	mov    al,0x0
100019b0:	84 c0                	test   al,al
100019b2:	0f 84 8e 01 00 00    	je     10001b46 <ssfn_load+0x396>
100019b8:	8b 45 f0             	mov    eax,DWORD PTR [ebp-0x10]
100019bb:	8b 40 04             	mov    eax,DWORD PTR [eax+0x4]
100019be:	01 45 f0             	add    DWORD PTR [ebp-0x10],eax
100019c1:	eb ca                	jmp    1000198d <ssfn_load+0x1dd>
100019c3:	8b 45 f4             	mov    eax,DWORD PTR [ebp-0xc]
100019c6:	8a 40 08             	mov    al,BYTE PTR [eax+0x8]
100019c9:	0f b6 c0             	movzx  eax,al
100019cc:	83 e0 0f             	and    eax,0xf
100019cf:	89 45 e0             	mov    DWORD PTR [ebp-0x20],eax
100019d2:	8b 45 f4             	mov    eax,DWORD PTR [ebp-0xc]
100019d5:	83 ec 04             	sub    esp,0x4
100019d8:	6a 04                	push   0x4
100019da:	68 8c 67 00 10       	push   0x1000678c	100019db: R_386_32	.text
100019df:	50                   	push   eax
100019e0:	e8 fc ff ff ff       	call   100019e1 <ssfn_load+0x231>	100019e1: R_386_PC32	memcmp
100019e5:	83 c4 10             	add    esp,0x10
100019e8:	85 c0                	test   eax,eax
100019ea:	0f 85 93 00 00 00    	jne    10001a83 <ssfn_load+0x2d3>
100019f0:	8b 45 f4             	mov    eax,DWORD PTR [ebp-0xc]
100019f3:	8b 40 04             	mov    eax,DWORD PTR [eax+0x4]
100019f6:	8d 50 fc             	lea    edx,[eax-0x4]
100019f9:	8b 45 f4             	mov    eax,DWORD PTR [ebp-0xc]
100019fc:	01 d0                	add    eax,edx
100019fe:	83 ec 04             	sub    esp,0x4
10001a01:	6a 04                	push   0x4
10001a03:	68 91 67 00 10       	push   0x10006791	10001a04: R_386_32	.text
10001a08:	50                   	push   eax
10001a09:	e8 fc ff ff ff       	call   10001a0a <ssfn_load+0x25a>	10001a0a: R_386_PC32	memcmp
10001a0e:	83 c4 10             	add    esp,0x10
10001a11:	85 c0                	test   eax,eax
10001a13:	75 6e                	jne    10001a83 <ssfn_load+0x2d3>
10001a15:	83 7d e0 04          	cmp    DWORD PTR [ebp-0x20],0x4
10001a19:	7f 68                	jg     10001a83 <ssfn_load+0x2d3>
10001a1b:	8b 45 f4             	mov    eax,DWORD PTR [ebp-0xc]
10001a1e:	66 8b 40 0e          	mov    ax,WORD PTR [eax+0xe]
10001a22:	0f b7 d0             	movzx  edx,ax
10001a25:	8b 45 f4             	mov    eax,DWORD PTR [ebp-0xc]
10001a28:	8b 40 04             	mov    eax,DWORD PTR [eax+0x4]
10001a2b:	39 c2                	cmp    edx,eax
10001a2d:	73 54                	jae    10001a83 <ssfn_load+0x2d3>
10001a2f:	8b 45 f4             	mov    eax,DWORD PTR [ebp-0xc]
10001a32:	8b 50 10             	mov    edx,DWORD PTR [eax+0x10]
10001a35:	8b 45 f4             	mov    eax,DWORD PTR [ebp-0xc]
10001a38:	8b 40 04             	mov    eax,DWORD PTR [eax+0x4]
10001a3b:	39 c2                	cmp    edx,eax
10001a3d:	73 44                	jae    10001a83 <ssfn_load+0x2d3>
10001a3f:	8b 45 f4             	mov    eax,DWORD PTR [ebp-0xc]
10001a42:	8b 50 14             	mov    edx,DWORD PTR [eax+0x14]
10001a45:	8b 45 f4             	mov    eax,DWORD PTR [ebp-0xc]
10001a48:	8b 40 04             	mov    eax,DWORD PTR [eax+0x4]
10001a4b:	39 c2                	cmp    edx,eax
10001a4d:	73 34                	jae    10001a83 <ssfn_load+0x2d3>
10001a4f:	8b 45 f4             	mov    eax,DWORD PTR [ebp-0xc]
10001a52:	8b 50 18             	mov    edx,DWORD PTR [eax+0x18]
10001a55:	8b 45 f4             	mov    eax,DWORD PTR [ebp-0xc]
10001a58:	8b 40 04             	mov    eax,DWORD PTR [eax+0x4]
10001a5b:	39 c2                	cmp    edx,eax
10001a5d:	73 24                	jae    10001a83 <ssfn_load+0x2d3>
10001a5f:	8b 45 f4             	mov    eax,DWORD PTR [ebp-0xc]
10001a62:	8b 50 1c             	mov    edx,DWORD PTR [eax+0x1c]
10001a65:	8b 45 f4             	mov    eax,DWORD PTR [ebp-0xc]
10001a68:	8b 40 04             	mov    eax,DWORD PTR [eax+0x4]
10001a6b:	39 c2                	cmp    edx,eax
10001a6d:	73 14                	jae    10001a83 <ssfn_load+0x2d3>
10001a6f:	8b 45 f4             	mov    eax,DWORD PTR [ebp-0xc]
10001a72:	66 8b 40 0e          	mov    ax,WORD PTR [eax+0xe]
10001a76:	0f b7 d0             	movzx  edx,ax
10001a79:	8b 45 f4             	mov    eax,DWORD PTR [ebp-0xc]
10001a7c:	8b 40 10             	mov    eax,DWORD PTR [eax+0x10]
10001a7f:	39 c2                	cmp    edx,eax
10001a81:	72 0a                	jb     10001a8d <ssfn_load+0x2dd>
10001a83:	b8 fe ff ff ff       	mov    eax,0xfffffffe
10001a88:	e9 be 00 00 00       	jmp    10001b4b <ssfn_load+0x39b>
10001a8d:	8b 45 08             	mov    eax,DWORD PTR [ebp+0x8]
10001a90:	8b 55 e0             	mov    edx,DWORD PTR [ebp-0x20]
10001a93:	81 c2 68 3d 00 00    	add    edx,0x3d68
10001a99:	8b 44 90 04          	mov    eax,DWORD PTR [eax+edx*4+0x4]
10001a9d:	8d 48 01             	lea    ecx,[eax+0x1]
10001aa0:	8b 45 08             	mov    eax,DWORD PTR [ebp+0x8]
10001aa3:	8b 55 e0             	mov    edx,DWORD PTR [ebp-0x20]
10001aa6:	81 c2 68 3d 00 00    	add    edx,0x3d68
10001aac:	89 4c 90 04          	mov    DWORD PTR [eax+edx*4+0x4],ecx
10001ab0:	8b 45 08             	mov    eax,DWORD PTR [ebp+0x8]
10001ab3:	8b 55 e0             	mov    edx,DWORD PTR [ebp-0x20]
10001ab6:	81 c2 68 3d 00 00    	add    edx,0x3d68
10001abc:	8b 44 90 04          	mov    eax,DWORD PTR [eax+edx*4+0x4]
10001ac0:	8d 0c 85 00 00 00 00 	lea    ecx,[eax*4+0x0]
10001ac7:	8b 45 08             	mov    eax,DWORD PTR [ebp+0x8]
10001aca:	8b 55 e0             	mov    edx,DWORD PTR [ebp-0x20]
10001acd:	8b 04 90             	mov    eax,DWORD PTR [eax+edx*4]
10001ad0:	83 ec 08             	sub    esp,0x8
10001ad3:	51                   	push   ecx
10001ad4:	50                   	push   eax
10001ad5:	e8 fc ff ff ff       	call   10001ad6 <ssfn_load+0x326>	10001ad6: R_386_PC32	realloc
10001ada:	83 c4 10             	add    esp,0x10
10001add:	89 c1                	mov    ecx,eax
10001adf:	8b 45 08             	mov    eax,DWORD PTR [ebp+0x8]
10001ae2:	8b 55 e0             	mov    edx,DWORD PTR [ebp-0x20]
10001ae5:	89 0c 90             	mov    DWORD PTR [eax+edx*4],ecx
10001ae8:	8b 45 08             	mov    eax,DWORD PTR [ebp+0x8]
10001aeb:	8b 55 e0             	mov    edx,DWORD PTR [ebp-0x20]
10001aee:	8b 04 90             	mov    eax,DWORD PTR [eax+edx*4]
10001af1:	85 c0                	test   eax,eax
10001af3:	75 1b                	jne    10001b10 <ssfn_load+0x360>
10001af5:	8b 45 08             	mov    eax,DWORD PTR [ebp+0x8]
10001af8:	8b 55 e0             	mov    edx,DWORD PTR [ebp-0x20]
10001afb:	81 c2 68 3d 00 00    	add    edx,0x3d68
10001b01:	c7 44 90 04 00 00 00 00 	mov    DWORD PTR [eax+edx*4+0x4],0x0
10001b09:	b8 ff ff ff ff       	mov    eax,0xffffffff
10001b0e:	eb 3b                	jmp    10001b4b <ssfn_load+0x39b>
10001b10:	8b 45 08             	mov    eax,DWORD PTR [ebp+0x8]
10001b13:	8b 55 e0             	mov    edx,DWORD PTR [ebp-0x20]
10001b16:	8b 14 90             	mov    edx,DWORD PTR [eax+edx*4]
10001b19:	8b 45 08             	mov    eax,DWORD PTR [ebp+0x8]
10001b1c:	8b 4d e0             	mov    ecx,DWORD PTR [ebp-0x20]
10001b1f:	81 c1 68 3d 00 00    	add    ecx,0x3d68
10001b25:	8b 44 88 04          	mov    eax,DWORD PTR [eax+ecx*4+0x4]
10001b29:	05 ff ff ff 3f       	add    eax,0x3fffffff
10001b2e:	c1 e0 02             	shl    eax,0x2
10001b31:	01 c2                	add    edx,eax
10001b33:	8b 45 f4             	mov    eax,DWORD PTR [ebp-0xc]
10001b36:	89 02                	mov    DWORD PTR [edx],eax
10001b38:	83 ec 0c             	sub    esp,0xc
10001b3b:	ff 75 08             	push   DWORD PTR [ebp+0x8]
10001b3e:	e8 de ec ff ff       	call   10000821 <_ssfn_fc>
10001b43:	83 c4 10             	add    esp,0x10
10001b46:	b8 00 00 00 00       	mov    eax,0x0
10001b4b:	8b 5d fc             	mov    ebx,DWORD PTR [ebp-0x4]
10001b4e:	c9                   	leave  
10001b4f:	c3                   	ret    

10001b50 <ssfn_free>:
10001b50:	55                   	push   ebp
10001b51:	89 e5                	mov    ebp,esp
10001b53:	83 ec 18             	sub    esp,0x18
10001b56:	83 7d 08 00          	cmp    DWORD PTR [ebp+0x8],0x0
10001b5a:	0f 84 ed 00 00 00    	je     10001c4d <ssfn_free+0xfd>
10001b60:	83 ec 0c             	sub    esp,0xc
10001b63:	ff 75 08             	push   DWORD PTR [ebp+0x8]
10001b66:	e8 b6 ec ff ff       	call   10000821 <_ssfn_fc>
10001b6b:	83 c4 10             	add    esp,0x10
10001b6e:	8b 45 08             	mov    eax,DWORD PTR [ebp+0x8]
10001b71:	8b 80 70 f5 00 00    	mov    eax,DWORD PTR [eax+0xf570]
10001b77:	85 c0                	test   eax,eax
10001b79:	74 65                	je     10001be0 <ssfn_free+0x90>
10001b7b:	c7 45 f4 00 00 00 00 	mov    DWORD PTR [ebp-0xc],0x0
10001b82:	8b 45 08             	mov    eax,DWORD PTR [ebp+0x8]
10001b85:	8b 80 78 f5 00 00    	mov    eax,DWORD PTR [eax+0xf578]
10001b8b:	39 45 f4             	cmp    DWORD PTR [ebp-0xc],eax
10001b8e:	7d 3b                	jge    10001bcb <ssfn_free+0x7b>
10001b90:	8b 45 08             	mov    eax,DWORD PTR [ebp+0x8]
10001b93:	8b 80 70 f5 00 00    	mov    eax,DWORD PTR [eax+0xf570]
10001b99:	8b 55 f4             	mov    edx,DWORD PTR [ebp-0xc]
10001b9c:	c1 e2 02             	shl    edx,0x2
10001b9f:	01 d0                	add    eax,edx
10001ba1:	8b 00                	mov    eax,DWORD PTR [eax]
10001ba3:	85 c0                	test   eax,eax
10001ba5:	74 1f                	je     10001bc6 <ssfn_free+0x76>
10001ba7:	8b 45 08             	mov    eax,DWORD PTR [ebp+0x8]
10001baa:	8b 80 70 f5 00 00    	mov    eax,DWORD PTR [eax+0xf570]
10001bb0:	8b 55 f4             	mov    edx,DWORD PTR [ebp-0xc]
10001bb3:	c1 e2 02             	shl    edx,0x2
10001bb6:	01 d0                	add    eax,edx
10001bb8:	8b 00                	mov    eax,DWORD PTR [eax]
10001bba:	83 ec 0c             	sub    esp,0xc
10001bbd:	50                   	push   eax
10001bbe:	e8 fc ff ff ff       	call   10001bbf <ssfn_free+0x6f>	10001bbf: R_386_PC32	free
10001bc3:	83 c4 10             	add    esp,0x10
10001bc6:	ff 45 f4             	inc    DWORD PTR [ebp-0xc]
10001bc9:	eb b7                	jmp    10001b82 <ssfn_free+0x32>
10001bcb:	8b 45 08             	mov    eax,DWORD PTR [ebp+0x8]
10001bce:	8b 80 70 f5 00 00    	mov    eax,DWORD PTR [eax+0xf570]
10001bd4:	83 ec 0c             	sub    esp,0xc
10001bd7:	50                   	push   eax
10001bd8:	e8 fc ff ff ff       	call   10001bd9 <ssfn_free+0x89>	10001bd9: R_386_PC32	free
10001bdd:	83 c4 10             	add    esp,0x10
10001be0:	c7 45 f4 00 00 00 00 	mov    DWORD PTR [ebp-0xc],0x0
10001be7:	83 7d f4 04          	cmp    DWORD PTR [ebp-0xc],0x4
10001beb:	7f 27                	jg     10001c14 <ssfn_free+0xc4>
10001bed:	8b 45 08             	mov    eax,DWORD PTR [ebp+0x8]
10001bf0:	8b 55 f4             	mov    edx,DWORD PTR [ebp-0xc]
10001bf3:	8b 04 90             	mov    eax,DWORD PTR [eax+edx*4]
10001bf6:	85 c0                	test   eax,eax
10001bf8:	74 15                	je     10001c0f <ssfn_free+0xbf>
10001bfa:	8b 45 08             	mov    eax,DWORD PTR [ebp+0x8]
10001bfd:	8b 55 f4             	mov    edx,DWORD PTR [ebp-0xc]
10001c00:	8b 04 90             	mov    eax,DWORD PTR [eax+edx*4]
10001c03:	83 ec 0c             	sub    esp,0xc
10001c06:	50                   	push   eax
10001c07:	e8 fc ff ff ff       	call   10001c08 <ssfn_free+0xb8>	10001c08: R_386_PC32	free
10001c0c:	83 c4 10             	add    esp,0x10
10001c0f:	ff 45 f4             	inc    DWORD PTR [ebp-0xc]
10001c12:	eb d3                	jmp    10001be7 <ssfn_free+0x97>
10001c14:	8b 45 08             	mov    eax,DWORD PTR [ebp+0x8]
10001c17:	8b 80 6c f5 00 00    	mov    eax,DWORD PTR [eax+0xf56c]
10001c1d:	85 c0                	test   eax,eax
10001c1f:	74 15                	je     10001c36 <ssfn_free+0xe6>
10001c21:	8b 45 08             	mov    eax,DWORD PTR [ebp+0x8]
10001c24:	8b 80 6c f5 00 00    	mov    eax,DWORD PTR [eax+0xf56c]
10001c2a:	83 ec 0c             	sub    esp,0xc
10001c2d:	50                   	push   eax
10001c2e:	e8 fc ff ff ff       	call   10001c2f <ssfn_free+0xdf>	10001c2f: R_386_PC32	free
10001c33:	83 c4 10             	add    esp,0x10
10001c36:	83 ec 04             	sub    esp,0x4
10001c39:	68 c8 f5 00 00       	push   0xf5c8
10001c3e:	6a 00                	push   0x0
10001c40:	ff 75 08             	push   DWORD PTR [ebp+0x8]
10001c43:	e8 fc ff ff ff       	call   10001c44 <ssfn_free+0xf4>	10001c44: R_386_PC32	memset
10001c48:	83 c4 10             	add    esp,0x10
10001c4b:	eb 01                	jmp    10001c4e <ssfn_free+0xfe>
10001c4d:	90                   	nop
10001c4e:	c9                   	leave  
10001c4f:	c3                   	ret    

10001c50 <ssfn_mem>:
10001c50:	55                   	push   ebp
10001c51:	89 e5                	mov    ebp,esp
10001c53:	83 ec 10             	sub    esp,0x10
10001c56:	c7 45 f0 c8 f5 00 00 	mov    DWORD PTR [ebp-0x10],0xf5c8
10001c5d:	83 7d 08 00          	cmp    DWORD PTR [ebp+0x8],0x0
10001c61:	75 0a                	jne    10001c6d <ssfn_mem+0x1d>
10001c63:	b8 00 00 00 00       	mov    eax,0x0
10001c68:	e9 88 01 00 00       	jmp    10001df5 <ssfn_mem+0x1a5>
10001c6d:	c7 45 fc 00 00 00 00 	mov    DWORD PTR [ebp-0x4],0x0
10001c74:	83 7d fc 04          	cmp    DWORD PTR [ebp-0x4],0x4
10001c78:	7f 24                	jg     10001c9e <ssfn_mem+0x4e>
10001c7a:	8b 45 08             	mov    eax,DWORD PTR [ebp+0x8]
10001c7d:	8b 55 fc             	mov    edx,DWORD PTR [ebp-0x4]
10001c80:	81 c2 68 3d 00 00    	add    edx,0x3d68
10001c86:	8b 44 90 04          	mov    eax,DWORD PTR [eax+edx*4+0x4]
10001c8a:	8d 14 85 00 00 00 00 	lea    edx,[eax*4+0x0]
10001c91:	8b 45 f0             	mov    eax,DWORD PTR [ebp-0x10]
10001c94:	01 d0                	add    eax,edx
10001c96:	89 45 f0             	mov    DWORD PTR [ebp-0x10],eax
10001c99:	ff 45 fc             	inc    DWORD PTR [ebp-0x4]
10001c9c:	eb d6                	jmp    10001c74 <ssfn_mem+0x24>
10001c9e:	8b 45 08             	mov    eax,DWORD PTR [ebp+0x8]
10001ca1:	8b 80 7c f5 00 00    	mov    eax,DWORD PTR [eax+0xf57c]
10001ca7:	01 45 f0             	add    DWORD PTR [ebp-0x10],eax
10001caa:	c7 45 f4 00 00 00 00 	mov    DWORD PTR [ebp-0xc],0x0
10001cb1:	83 7d f4 10          	cmp    DWORD PTR [ebp-0xc],0x10
10001cb5:	0f 8f 15 01 00 00    	jg     10001dd0 <ssfn_mem+0x180>
10001cbb:	8b 45 08             	mov    eax,DWORD PTR [ebp+0x8]
10001cbe:	8b 55 f4             	mov    edx,DWORD PTR [ebp-0xc]
10001cc1:	81 c2 48 3d 00 00    	add    edx,0x3d48
10001cc7:	8b 44 90 08          	mov    eax,DWORD PTR [eax+edx*4+0x8]
10001ccb:	85 c0                	test   eax,eax
10001ccd:	0f 84 f5 00 00 00    	je     10001dc8 <ssfn_mem+0x178>
10001cd3:	c7 45 f8 00 00 00 00 	mov    DWORD PTR [ebp-0x8],0x0
10001cda:	81 7d f8 ff 00 00 00 	cmp    DWORD PTR [ebp-0x8],0xff
10001ce1:	0f 8f d6 00 00 00    	jg     10001dbd <ssfn_mem+0x16d>
10001ce7:	8b 45 08             	mov    eax,DWORD PTR [ebp+0x8]
10001cea:	8b 55 f4             	mov    edx,DWORD PTR [ebp-0xc]
10001ced:	81 c2 48 3d 00 00    	add    edx,0x3d48
10001cf3:	8b 44 90 08          	mov    eax,DWORD PTR [eax+edx*4+0x8]
10001cf7:	8b 55 f8             	mov    edx,DWORD PTR [ebp-0x8]
10001cfa:	c1 e2 02             	shl    edx,0x2
10001cfd:	01 d0                	add    eax,edx
10001cff:	8b 00                	mov    eax,DWORD PTR [eax]
10001d01:	85 c0                	test   eax,eax
10001d03:	0f 84 ac 00 00 00    	je     10001db5 <ssfn_mem+0x165>
10001d09:	c7 45 fc 00 00 00 00 	mov    DWORD PTR [ebp-0x4],0x0
10001d10:	81 7d fc ff 00 00 00 	cmp    DWORD PTR [ebp-0x4],0xff
10001d17:	0f 8f 8d 00 00 00    	jg     10001daa <ssfn_mem+0x15a>
10001d1d:	8b 45 08             	mov    eax,DWORD PTR [ebp+0x8]
10001d20:	8b 55 f4             	mov    edx,DWORD PTR [ebp-0xc]
10001d23:	81 c2 48 3d 00 00    	add    edx,0x3d48
10001d29:	8b 44 90 08          	mov    eax,DWORD PTR [eax+edx*4+0x8]
10001d2d:	8b 55 f8             	mov    edx,DWORD PTR [ebp-0x8]
10001d30:	c1 e2 02             	shl    edx,0x2
10001d33:	01 d0                	add    eax,edx
10001d35:	8b 00                	mov    eax,DWORD PTR [eax]
10001d37:	8b 55 fc             	mov    edx,DWORD PTR [ebp-0x4]
10001d3a:	c1 e2 02             	shl    edx,0x2
10001d3d:	01 d0                	add    eax,edx
10001d3f:	8b 00                	mov    eax,DWORD PTR [eax]
10001d41:	85 c0                	test   eax,eax
10001d43:	74 5d                	je     10001da2 <ssfn_mem+0x152>
10001d45:	8b 45 08             	mov    eax,DWORD PTR [ebp+0x8]
10001d48:	8b 55 f4             	mov    edx,DWORD PTR [ebp-0xc]
10001d4b:	81 c2 48 3d 00 00    	add    edx,0x3d48
10001d51:	8b 44 90 08          	mov    eax,DWORD PTR [eax+edx*4+0x8]
10001d55:	8b 55 f8             	mov    edx,DWORD PTR [ebp-0x8]
10001d58:	c1 e2 02             	shl    edx,0x2
10001d5b:	01 d0                	add    eax,edx
10001d5d:	8b 00                	mov    eax,DWORD PTR [eax]
10001d5f:	8b 55 fc             	mov    edx,DWORD PTR [ebp-0x4]
10001d62:	c1 e2 02             	shl    edx,0x2
10001d65:	01 d0                	add    eax,edx
10001d67:	8b 00                	mov    eax,DWORD PTR [eax]
10001d69:	66 8b 00             	mov    ax,WORD PTR [eax]
10001d6c:	0f b7 d0             	movzx  edx,ax
10001d6f:	8b 45 08             	mov    eax,DWORD PTR [ebp+0x8]
10001d72:	8b 4d f4             	mov    ecx,DWORD PTR [ebp-0xc]
10001d75:	81 c1 48 3d 00 00    	add    ecx,0x3d48
10001d7b:	8b 44 88 08          	mov    eax,DWORD PTR [eax+ecx*4+0x8]
10001d7f:	8b 4d f8             	mov    ecx,DWORD PTR [ebp-0x8]
10001d82:	c1 e1 02             	shl    ecx,0x2
10001d85:	01 c8                	add    eax,ecx
10001d87:	8b 00                	mov    eax,DWORD PTR [eax]
10001d89:	8b 4d fc             	mov    ecx,DWORD PTR [ebp-0x4]
10001d8c:	c1 e1 02             	shl    ecx,0x2
10001d8f:	01 c8                	add    eax,ecx
10001d91:	8b 00                	mov    eax,DWORD PTR [eax]
10001d93:	8a 40 02             	mov    al,BYTE PTR [eax+0x2]
10001d96:	0f b6 c0             	movzx  eax,al
10001d99:	0f af c2             	imul   eax,edx
10001d9c:	83 c0 08             	add    eax,0x8
10001d9f:	01 45 f0             	add    DWORD PTR [ebp-0x10],eax
10001da2:	ff 45 fc             	inc    DWORD PTR [ebp-0x4]
10001da5:	e9 66 ff ff ff       	jmp    10001d10 <ssfn_mem+0xc0>
10001daa:	8b 45 f0             	mov    eax,DWORD PTR [ebp-0x10]
10001dad:	05 00 04 00 00       	add    eax,0x400
10001db2:	89 45 f0             	mov    DWORD PTR [ebp-0x10],eax
10001db5:	ff 45 f8             	inc    DWORD PTR [ebp-0x8]
10001db8:	e9 1d ff ff ff       	jmp    10001cda <ssfn_mem+0x8a>
10001dbd:	8b 45 f0             	mov    eax,DWORD PTR [ebp-0x10]
10001dc0:	05 00 04 00 00       	add    eax,0x400
10001dc5:	89 45 f0             	mov    DWORD PTR [ebp-0x10],eax
10001dc8:	ff 45 f4             	inc    DWORD PTR [ebp-0xc]
10001dcb:	e9 e1 fe ff ff       	jmp    10001cb1 <ssfn_mem+0x61>
10001dd0:	8b 45 08             	mov    eax,DWORD PTR [ebp+0x8]
10001dd3:	8b 80 6c f5 00 00    	mov    eax,DWORD PTR [eax+0xf56c]
10001dd9:	85 c0                	test   eax,eax
10001ddb:	74 15                	je     10001df2 <ssfn_mem+0x1a2>
10001ddd:	8b 45 08             	mov    eax,DWORD PTR [ebp+0x8]
10001de0:	8b 80 84 f5 00 00    	mov    eax,DWORD PTR [eax+0xf584]
10001de6:	01 c0                	add    eax,eax
10001de8:	89 c2                	mov    edx,eax
10001dea:	8b 45 f0             	mov    eax,DWORD PTR [ebp-0x10]
10001ded:	01 d0                	add    eax,edx
10001def:	89 45 f0             	mov    DWORD PTR [ebp-0x10],eax
10001df2:	8b 45 f0             	mov    eax,DWORD PTR [ebp-0x10]
10001df5:	c9                   	leave  
10001df6:	c3                   	ret    

10001df7 <ssfn_select>:
10001df7:	55                   	push   ebp
10001df8:	89 e5                	mov    ebp,esp
10001dfa:	83 ec 18             	sub    esp,0x18
10001dfd:	83 7d 08 00          	cmp    DWORD PTR [ebp+0x8],0x0
10001e01:	75 0a                	jne    10001e0d <ssfn_select+0x16>
10001e03:	b8 fc ff ff ff       	mov    eax,0xfffffffc
10001e08:	e9 73 01 00 00       	jmp    10001f80 <ssfn_select+0x189>
10001e0d:	83 ec 0c             	sub    esp,0xc
10001e10:	ff 75 08             	push   DWORD PTR [ebp+0x8]
10001e13:	e8 09 ea ff ff       	call   10000821 <_ssfn_fc>
10001e18:	83 c4 10             	add    esp,0x10
10001e1b:	8b 45 14             	mov    eax,DWORD PTR [ebp+0x14]
10001e1e:	25 00 e0 ff ff       	and    eax,0xffffe000
10001e23:	85 c0                	test   eax,eax
10001e25:	74 0a                	je     10001e31 <ssfn_select+0x3a>
10001e27:	b8 fb ff ff ff       	mov    eax,0xfffffffb
10001e2c:	e9 4f 01 00 00       	jmp    10001f80 <ssfn_select+0x189>
10001e31:	83 7d 18 07          	cmp    DWORD PTR [ebp+0x18],0x7
10001e35:	7e 09                	jle    10001e40 <ssfn_select+0x49>
10001e37:	81 7d 18 c0 00 00 00 	cmp    DWORD PTR [ebp+0x18],0xc0
10001e3e:	7e 0a                	jle    10001e4a <ssfn_select+0x53>
10001e40:	b8 fa ff ff ff       	mov    eax,0xfffffffa
10001e45:	e9 36 01 00 00       	jmp    10001f80 <ssfn_select+0x189>
10001e4a:	81 7d 0c fe 00 00 00 	cmp    DWORD PTR [ebp+0xc],0xfe
10001e51:	0f 85 b5 00 00 00    	jne    10001f0c <ssfn_select+0x115>
10001e57:	83 7d 10 00          	cmp    DWORD PTR [ebp+0x10],0x0
10001e5b:	74 09                	je     10001e66 <ssfn_select+0x6f>
10001e5d:	8b 45 10             	mov    eax,DWORD PTR [ebp+0x10]
10001e60:	8a 00                	mov    al,BYTE PTR [eax]
10001e62:	84 c0                	test   al,al
10001e64:	75 0a                	jne    10001e70 <ssfn_select+0x79>
10001e66:	b8 fc ff ff ff       	mov    eax,0xfffffffc
10001e6b:	e9 10 01 00 00       	jmp    10001f80 <ssfn_select+0x189>
10001e70:	c7 45 ec 00 00 00 00 	mov    DWORD PTR [ebp-0x14],0x0
10001e77:	8b 55 ec             	mov    edx,DWORD PTR [ebp-0x14]
10001e7a:	8b 45 10             	mov    eax,DWORD PTR [ebp+0x10]
10001e7d:	01 d0                	add    eax,edx
10001e7f:	8a 00                	mov    al,BYTE PTR [eax]
10001e81:	84 c0                	test   al,al
10001e83:	74 05                	je     10001e8a <ssfn_select+0x93>
10001e85:	ff 45 ec             	inc    DWORD PTR [ebp-0x14]
10001e88:	eb ed                	jmp    10001e77 <ssfn_select+0x80>
10001e8a:	c7 45 f4 00 00 00 00 	mov    DWORD PTR [ebp-0xc],0x0
10001e91:	83 7d f4 04          	cmp    DWORD PTR [ebp-0xc],0x4
10001e95:	7f 6e                	jg     10001f05 <ssfn_select+0x10e>
10001e97:	c7 45 f0 00 00 00 00 	mov    DWORD PTR [ebp-0x10],0x0
10001e9e:	8b 45 08             	mov    eax,DWORD PTR [ebp+0x8]
10001ea1:	8b 55 f4             	mov    edx,DWORD PTR [ebp-0xc]
10001ea4:	81 c2 68 3d 00 00    	add    edx,0x3d68
10001eaa:	8b 44 90 04          	mov    eax,DWORD PTR [eax+edx*4+0x4]
10001eae:	39 45 f0             	cmp    DWORD PTR [ebp-0x10],eax
10001eb1:	7d 4d                	jge    10001f00 <ssfn_select+0x109>
10001eb3:	8b 45 ec             	mov    eax,DWORD PTR [ebp-0x14]
10001eb6:	8b 55 08             	mov    edx,DWORD PTR [ebp+0x8]
10001eb9:	8b 4d f4             	mov    ecx,DWORD PTR [ebp-0xc]
10001ebc:	8b 14 8a             	mov    edx,DWORD PTR [edx+ecx*4]
10001ebf:	8b 4d f0             	mov    ecx,DWORD PTR [ebp-0x10]
10001ec2:	c1 e1 02             	shl    ecx,0x2
10001ec5:	01 ca                	add    edx,ecx
10001ec7:	8b 12                	mov    edx,DWORD PTR [edx]
10001ec9:	83 c2 20             	add    edx,0x20
10001ecc:	83 ec 04             	sub    esp,0x4
10001ecf:	50                   	push   eax
10001ed0:	52                   	push   edx
10001ed1:	ff 75 10             	push   DWORD PTR [ebp+0x10]
10001ed4:	e8 fc ff ff ff       	call   10001ed5 <ssfn_select+0xde>	10001ed5: R_386_PC32	memcmp
10001ed9:	83 c4 10             	add    esp,0x10
10001edc:	85 c0                	test   eax,eax
10001ede:	75 1b                	jne    10001efb <ssfn_select+0x104>
10001ee0:	8b 45 08             	mov    eax,DWORD PTR [ebp+0x8]
10001ee3:	8b 55 f4             	mov    edx,DWORD PTR [ebp-0xc]
10001ee6:	8b 04 90             	mov    eax,DWORD PTR [eax+edx*4]
10001ee9:	8b 55 f0             	mov    edx,DWORD PTR [ebp-0x10]
10001eec:	c1 e2 02             	shl    edx,0x2
10001eef:	01 d0                	add    eax,edx
10001ef1:	8b 10                	mov    edx,DWORD PTR [eax]
10001ef3:	8b 45 08             	mov    eax,DWORD PTR [ebp+0x8]
10001ef6:	89 50 14             	mov    DWORD PTR [eax+0x14],edx
10001ef9:	eb 45                	jmp    10001f40 <ssfn_select+0x149>
10001efb:	ff 45 f0             	inc    DWORD PTR [ebp-0x10]
10001efe:	eb 9e                	jmp    10001e9e <ssfn_select+0xa7>
10001f00:	ff 45 f4             	inc    DWORD PTR [ebp-0xc]
10001f03:	eb 8c                	jmp    10001e91 <ssfn_select+0x9a>
10001f05:	b8 fd ff ff ff       	mov    eax,0xfffffffd
10001f0a:	eb 74                	jmp    10001f80 <ssfn_select+0x189>
10001f0c:	81 7d 0c ff 00 00 00 	cmp    DWORD PTR [ebp+0xc],0xff
10001f13:	74 21                	je     10001f36 <ssfn_select+0x13f>
10001f15:	83 7d 0c 04          	cmp    DWORD PTR [ebp+0xc],0x4
10001f19:	7f 14                	jg     10001f2f <ssfn_select+0x138>
10001f1b:	8b 45 08             	mov    eax,DWORD PTR [ebp+0x8]
10001f1e:	8b 55 0c             	mov    edx,DWORD PTR [ebp+0xc]
10001f21:	81 c2 68 3d 00 00    	add    edx,0x3d68
10001f27:	8b 44 90 04          	mov    eax,DWORD PTR [eax+edx*4+0x4]
10001f2b:	85 c0                	test   eax,eax
10001f2d:	75 07                	jne    10001f36 <ssfn_select+0x13f>
10001f2f:	b8 fd ff ff ff       	mov    eax,0xfffffffd
10001f34:	eb 4a                	jmp    10001f80 <ssfn_select+0x189>
10001f36:	8b 45 08             	mov    eax,DWORD PTR [ebp+0x8]
10001f39:	c7 40 14 00 00 00 00 	mov    DWORD PTR [eax+0x14],0x0
10001f40:	8b 45 08             	mov    eax,DWORD PTR [ebp+0x8]
10001f43:	c7 40 18 00 00 00 00 	mov    DWORD PTR [eax+0x18],0x0
10001f4a:	8b 45 08             	mov    eax,DWORD PTR [ebp+0x8]
10001f4d:	8b 55 0c             	mov    edx,DWORD PTR [ebp+0xc]
10001f50:	89 90 b8 f5 00 00    	mov    DWORD PTR [eax+0xf5b8],edx
10001f56:	8b 45 08             	mov    eax,DWORD PTR [ebp+0x8]
10001f59:	8b 55 14             	mov    edx,DWORD PTR [ebp+0x14]
10001f5c:	89 90 bc f5 00 00    	mov    DWORD PTR [eax+0xf5bc],edx
10001f62:	8b 45 08             	mov    eax,DWORD PTR [ebp+0x8]
10001f65:	8b 55 18             	mov    edx,DWORD PTR [ebp+0x18]
10001f68:	89 90 c0 f5 00 00    	mov    DWORD PTR [eax+0xf5c0],edx
10001f6e:	8b 45 08             	mov    eax,DWORD PTR [ebp+0x8]
10001f71:	c7 80 c4 f5 00 00 00 00 00 00 	mov    DWORD PTR [eax+0xf5c4],0x0
10001f7b:	b8 00 00 00 00       	mov    eax,0x0
10001f80:	c9                   	leave  
10001f81:	c3                   	ret    

10001f82 <ssfn_render>:
10001f82:	55                   	push   ebp
10001f83:	89 e5                	mov    ebp,esp
10001f85:	57                   	push   edi
10001f86:	56                   	push   esi
10001f87:	53                   	push   ebx
10001f88:	81 ec 1c 06 01 00    	sub    esp,0x1061c
10001f8e:	c7 45 e4 00 00 00 00 	mov    DWORD PTR [ebp-0x1c],0x0
10001f95:	c6 85 47 ff ff ff 00 	mov    BYTE PTR [ebp-0xb9],0x0
10001f9c:	c6 85 46 ff ff ff 00 	mov    BYTE PTR [ebp-0xba],0x0
10001fa3:	c7 85 ec f9 fe ff 00 00 00 00 	mov    DWORD PTR [ebp-0x10614],0x0
10001fad:	83 7d 08 00          	cmp    DWORD PTR [ebp+0x8],0x0
10001fb1:	74 06                	je     10001fb9 <ssfn_render+0x37>
10001fb3:	83 7d 10 00          	cmp    DWORD PTR [ebp+0x10],0x0
10001fb7:	75 0a                	jne    10001fc3 <ssfn_render+0x41>
10001fb9:	b8 fc ff ff ff       	mov    eax,0xfffffffc
10001fbe:	e9 aa 31 00 00       	jmp    1000516d <ssfn_render+0x31eb>
10001fc3:	8b 45 10             	mov    eax,DWORD PTR [ebp+0x10]
10001fc6:	8a 00                	mov    al,BYTE PTR [eax]
10001fc8:	84 c0                	test   al,al
10001fca:	75 0a                	jne    10001fd6 <ssfn_render+0x54>
10001fcc:	b8 00 00 00 00       	mov    eax,0x0
10001fd1:	e9 97 31 00 00       	jmp    1000516d <ssfn_render+0x31eb>
10001fd6:	8b 45 10             	mov    eax,DWORD PTR [ebp+0x10]
10001fd9:	8a 00                	mov    al,BYTE PTR [eax]
10001fdb:	3c 0d                	cmp    al,0xd
10001fdd:	75 13                	jne    10001ff2 <ssfn_render+0x70>
10001fdf:	8b 45 0c             	mov    eax,DWORD PTR [ebp+0xc]
10001fe2:	66 c7 40 0a 00 00    	mov    WORD PTR [eax+0xa],0x0
10001fe8:	b8 01 00 00 00       	mov    eax,0x1
10001fed:	e9 7b 31 00 00       	jmp    1000516d <ssfn_render+0x31eb>
10001ff2:	8b 45 10             	mov    eax,DWORD PTR [ebp+0x10]
10001ff5:	8a 00                	mov    al,BYTE PTR [eax]
10001ff7:	3c 0a                	cmp    al,0xa
10001ff9:	75 47                	jne    10002042 <ssfn_render+0xc0>
10001ffb:	8b 45 0c             	mov    eax,DWORD PTR [ebp+0xc]
10001ffe:	66 c7 40 0a 00 00    	mov    WORD PTR [eax+0xa],0x0
10002004:	8b 45 0c             	mov    eax,DWORD PTR [ebp+0xc]
10002007:	8b 40 0c             	mov    eax,DWORD PTR [eax+0xc]
1000200a:	89 c2                	mov    edx,eax
1000200c:	8b 45 08             	mov    eax,DWORD PTR [ebp+0x8]
1000200f:	8b 80 c4 f5 00 00    	mov    eax,DWORD PTR [eax+0xf5c4]
10002015:	85 c0                	test   eax,eax
10002017:	74 0b                	je     10002024 <ssfn_render+0xa2>
10002019:	8b 45 08             	mov    eax,DWORD PTR [ebp+0x8]
1000201c:	8b 80 c4 f5 00 00    	mov    eax,DWORD PTR [eax+0xf5c4]
10002022:	eb 09                	jmp    1000202d <ssfn_render+0xab>
10002024:	8b 45 08             	mov    eax,DWORD PTR [ebp+0x8]
10002027:	8b 80 c0 f5 00 00    	mov    eax,DWORD PTR [eax+0xf5c0]
1000202d:	01 d0                	add    eax,edx
1000202f:	89 c2                	mov    edx,eax
10002031:	8b 45 0c             	mov    eax,DWORD PTR [ebp+0xc]
10002034:	66 89 50 0c          	mov    WORD PTR [eax+0xc],dx
10002038:	b8 01 00 00 00       	mov    eax,0x1
1000203d:	e9 2b 31 00 00       	jmp    1000516d <ssfn_render+0x31eb>
10002042:	8b 45 08             	mov    eax,DWORD PTR [ebp+0x8]
10002045:	8b 40 14             	mov    eax,DWORD PTR [eax+0x14]
10002048:	85 c0                	test   eax,eax
1000204a:	74 34                	je     10002080 <ssfn_render+0xfe>
1000204c:	8b 45 08             	mov    eax,DWORD PTR [ebp+0x8]
1000204f:	8b 50 14             	mov    edx,DWORD PTR [eax+0x14]
10002052:	8b 45 08             	mov    eax,DWORD PTR [ebp+0x8]
10002055:	89 50 18             	mov    DWORD PTR [eax+0x18],edx
10002058:	8b 45 08             	mov    eax,DWORD PTR [ebp+0x8]
1000205b:	8b 40 18             	mov    eax,DWORD PTR [eax+0x18]
1000205e:	8d 95 f4 f9 fe ff    	lea    edx,[ebp-0x1060c]
10002064:	52                   	push   edx
10002065:	8d 95 ec f9 fe ff    	lea    edx,[ebp-0x10614]
1000206b:	52                   	push   edx
1000206c:	ff 75 10             	push   DWORD PTR [ebp+0x10]
1000206f:	50                   	push   eax
10002070:	e8 1d e2 ff ff       	call   10000292 <_ssfn_c>
10002075:	83 c4 10             	add    esp,0x10
10002078:	89 45 e4             	mov    DWORD PTR [ebp-0x1c],eax
1000207b:	e9 b5 04 00 00       	jmp    10002535 <ssfn_render+0x5b3>
10002080:	8b 45 08             	mov    eax,DWORD PTR [ebp+0x8]
10002083:	8b 80 b8 f5 00 00    	mov    eax,DWORD PTR [eax+0xf5b8]
10002089:	89 45 b0             	mov    DWORD PTR [ebp-0x50],eax
1000208c:	8b 45 08             	mov    eax,DWORD PTR [ebp+0x8]
1000208f:	c7 40 18 00 00 00 00 	mov    DWORD PTR [eax+0x18],0x0
10002096:	81 7d b0 fd 00 00 00 	cmp    DWORD PTR [ebp-0x50],0xfd
1000209d:	7e 10                	jle    100020af <ssfn_render+0x12d>
1000209f:	c7 45 a8 00 00 00 00 	mov    DWORD PTR [ebp-0x58],0x0
100020a6:	c7 45 ac 04 00 00 00 	mov    DWORD PTR [ebp-0x54],0x4
100020ad:	eb 0c                	jmp    100020bb <ssfn_render+0x139>
100020af:	8b 45 b0             	mov    eax,DWORD PTR [ebp-0x50]
100020b2:	89 45 ac             	mov    DWORD PTR [ebp-0x54],eax
100020b5:	8b 45 ac             	mov    eax,DWORD PTR [ebp-0x54]
100020b8:	89 45 a8             	mov    DWORD PTR [ebp-0x58],eax
100020bb:	8b 45 a8             	mov    eax,DWORD PTR [ebp-0x58]
100020be:	3b 45 ac             	cmp    eax,DWORD PTR [ebp-0x54]
100020c1:	0f 8f 53 04 00 00    	jg     1000251a <ssfn_render+0x598>
100020c7:	8b 45 08             	mov    eax,DWORD PTR [ebp+0x8]
100020ca:	8b 55 a8             	mov    edx,DWORD PTR [ebp-0x58]
100020cd:	8b 04 90             	mov    eax,DWORD PTR [eax+edx*4]
100020d0:	89 85 40 ff ff ff    	mov    DWORD PTR [ebp-0xc0],eax
100020d6:	8b 45 08             	mov    eax,DWORD PTR [ebp+0x8]
100020d9:	8b 80 bc f5 00 00    	mov    eax,DWORD PTR [eax+0xf5bc]
100020df:	83 e0 03             	and    eax,0x3
100020e2:	85 c0                	test   eax,eax
100020e4:	0f 84 8a 03 00 00    	je     10002474 <ssfn_render+0x4f2>
100020ea:	c7 85 e8 f9 fe ff 00 00 00 00 	mov    DWORD PTR [ebp-0x10618],0x0
100020f4:	8b 45 08             	mov    eax,DWORD PTR [ebp+0x8]
100020f7:	8b 55 a8             	mov    edx,DWORD PTR [ebp-0x58]
100020fa:	81 c2 68 3d 00 00    	add    edx,0x3d68
10002100:	8b 54 90 04          	mov    edx,DWORD PTR [eax+edx*4+0x4]
10002104:	8b 85 e8 f9 fe ff    	mov    eax,DWORD PTR [ebp-0x10618]
1000210a:	39 c2                	cmp    edx,eax
1000210c:	0f 8e d3 00 00 00    	jle    100021e5 <ssfn_render+0x263>
10002112:	8b 85 e8 f9 fe ff    	mov    eax,DWORD PTR [ebp-0x10618]
10002118:	8d 14 85 00 00 00 00 	lea    edx,[eax*4+0x0]
1000211f:	8b 85 40 ff ff ff    	mov    eax,DWORD PTR [ebp-0xc0]
10002125:	01 d0                	add    eax,edx
10002127:	8b 00                	mov    eax,DWORD PTR [eax]
10002129:	8a 40 08             	mov    al,BYTE PTR [eax+0x8]
1000212c:	0f b6 c0             	movzx  eax,al
1000212f:	c1 f8 04             	sar    eax,0x4
10002132:	89 c2                	mov    edx,eax
10002134:	8b 45 08             	mov    eax,DWORD PTR [ebp+0x8]
10002137:	8b 80 bc f5 00 00    	mov    eax,DWORD PTR [eax+0xf5bc]
1000213d:	31 d0                	xor    eax,edx
1000213f:	83 e0 03             	and    eax,0x3
10002142:	85 c0                	test   eax,eax
10002144:	75 68                	jne    100021ae <ssfn_render+0x22c>
10002146:	8b 85 e8 f9 fe ff    	mov    eax,DWORD PTR [ebp-0x10618]
1000214c:	8d 14 85 00 00 00 00 	lea    edx,[eax*4+0x0]
10002153:	8b 85 40 ff ff ff    	mov    eax,DWORD PTR [ebp-0xc0]
10002159:	01 d0                	add    eax,edx
1000215b:	8b 00                	mov    eax,DWORD PTR [eax]
1000215d:	8a 40 0b             	mov    al,BYTE PTR [eax+0xb]
10002160:	0f b6 d0             	movzx  edx,al
10002163:	8b 45 08             	mov    eax,DWORD PTR [ebp+0x8]
10002166:	8b 80 c0 f5 00 00    	mov    eax,DWORD PTR [eax+0xf5c0]
1000216c:	39 c2                	cmp    edx,eax
1000216e:	75 3e                	jne    100021ae <ssfn_render+0x22c>
10002170:	8b 85 e8 f9 fe ff    	mov    eax,DWORD PTR [ebp-0x10618]
10002176:	8d 14 85 00 00 00 00 	lea    edx,[eax*4+0x0]
1000217d:	8b 85 40 ff ff ff    	mov    eax,DWORD PTR [ebp-0xc0]
10002183:	01 d0                	add    eax,edx
10002185:	8b 00                	mov    eax,DWORD PTR [eax]
10002187:	8d 95 f4 f9 fe ff    	lea    edx,[ebp-0x1060c]
1000218d:	52                   	push   edx
1000218e:	8d 95 ec f9 fe ff    	lea    edx,[ebp-0x10614]
10002194:	52                   	push   edx
10002195:	ff 75 10             	push   DWORD PTR [ebp+0x10]
10002198:	50                   	push   eax
10002199:	e8 f4 e0 ff ff       	call   10000292 <_ssfn_c>
1000219e:	83 c4 10             	add    esp,0x10
100021a1:	89 45 e4             	mov    DWORD PTR [ebp-0x1c],eax
100021a4:	83 7d e4 00          	cmp    DWORD PTR [ebp-0x1c],0x0
100021a8:	74 04                	je     100021ae <ssfn_render+0x22c>
100021aa:	b0 01                	mov    al,0x1
100021ac:	eb 02                	jmp    100021b0 <ssfn_render+0x22e>
100021ae:	b0 00                	mov    al,0x0
100021b0:	84 c0                	test   al,al
100021b2:	74 1f                	je     100021d3 <ssfn_render+0x251>
100021b4:	8b 85 e8 f9 fe ff    	mov    eax,DWORD PTR [ebp-0x10618]
100021ba:	8d 14 85 00 00 00 00 	lea    edx,[eax*4+0x0]
100021c1:	8b 85 40 ff ff ff    	mov    eax,DWORD PTR [ebp-0xc0]
100021c7:	01 d0                	add    eax,edx
100021c9:	8b 10                	mov    edx,DWORD PTR [eax]
100021cb:	8b 45 08             	mov    eax,DWORD PTR [ebp+0x8]
100021ce:	89 50 18             	mov    DWORD PTR [eax+0x18],edx
100021d1:	eb 12                	jmp    100021e5 <ssfn_render+0x263>
100021d3:	8b 85 e8 f9 fe ff    	mov    eax,DWORD PTR [ebp-0x10618]
100021d9:	40                   	inc    eax
100021da:	89 85 e8 f9 fe ff    	mov    DWORD PTR [ebp-0x10618],eax
100021e0:	e9 0f ff ff ff       	jmp    100020f4 <ssfn_render+0x172>
100021e5:	83 7d e4 00          	cmp    DWORD PTR [ebp-0x1c],0x0
100021e9:	0f 85 c7 00 00 00    	jne    100022b6 <ssfn_render+0x334>
100021ef:	c7 85 e8 f9 fe ff 00 00 00 00 	mov    DWORD PTR [ebp-0x10618],0x0
100021f9:	8b 45 08             	mov    eax,DWORD PTR [ebp+0x8]
100021fc:	8b 55 a8             	mov    edx,DWORD PTR [ebp-0x58]
100021ff:	81 c2 68 3d 00 00    	add    edx,0x3d68
10002205:	8b 54 90 04          	mov    edx,DWORD PTR [eax+edx*4+0x4]
10002209:	8b 85 e8 f9 fe ff    	mov    eax,DWORD PTR [ebp-0x10618]
1000220f:	39 c2                	cmp    edx,eax
10002211:	0f 8e 9f 00 00 00    	jle    100022b6 <ssfn_render+0x334>
10002217:	8b 85 e8 f9 fe ff    	mov    eax,DWORD PTR [ebp-0x10618]
1000221d:	8d 14 85 00 00 00 00 	lea    edx,[eax*4+0x0]
10002224:	8b 85 40 ff ff ff    	mov    eax,DWORD PTR [ebp-0xc0]
1000222a:	01 d0                	add    eax,edx
1000222c:	8b 00                	mov    eax,DWORD PTR [eax]
1000222e:	8a 40 0b             	mov    al,BYTE PTR [eax+0xb]
10002231:	0f b6 d0             	movzx  edx,al
10002234:	8b 45 08             	mov    eax,DWORD PTR [ebp+0x8]
10002237:	8b 80 c0 f5 00 00    	mov    eax,DWORD PTR [eax+0xf5c0]
1000223d:	39 c2                	cmp    edx,eax
1000223f:	75 3e                	jne    1000227f <ssfn_render+0x2fd>
10002241:	8b 85 e8 f9 fe ff    	mov    eax,DWORD PTR [ebp-0x10618]
10002247:	8d 14 85 00 00 00 00 	lea    edx,[eax*4+0x0]
1000224e:	8b 85 40 ff ff ff    	mov    eax,DWORD PTR [ebp-0xc0]
10002254:	01 d0                	add    eax,edx
10002256:	8b 00                	mov    eax,DWORD PTR [eax]
10002258:	8d 95 f4 f9 fe ff    	lea    edx,[ebp-0x1060c]
1000225e:	52                   	push   edx
1000225f:	8d 95 ec f9 fe ff    	lea    edx,[ebp-0x10614]
10002265:	52                   	push   edx
10002266:	ff 75 10             	push   DWORD PTR [ebp+0x10]
10002269:	50                   	push   eax
1000226a:	e8 23 e0 ff ff       	call   10000292 <_ssfn_c>
1000226f:	83 c4 10             	add    esp,0x10
10002272:	89 45 e4             	mov    DWORD PTR [ebp-0x1c],eax
10002275:	83 7d e4 00          	cmp    DWORD PTR [ebp-0x1c],0x0
10002279:	74 04                	je     1000227f <ssfn_render+0x2fd>
1000227b:	b0 01                	mov    al,0x1
1000227d:	eb 02                	jmp    10002281 <ssfn_render+0x2ff>
1000227f:	b0 00                	mov    al,0x0
10002281:	84 c0                	test   al,al
10002283:	74 1f                	je     100022a4 <ssfn_render+0x322>
10002285:	8b 85 e8 f9 fe ff    	mov    eax,DWORD PTR [ebp-0x10618]
1000228b:	8d 14 85 00 00 00 00 	lea    edx,[eax*4+0x0]
10002292:	8b 85 40 ff ff ff    	mov    eax,DWORD PTR [ebp-0xc0]
10002298:	01 d0                	add    eax,edx
1000229a:	8b 10                	mov    edx,DWORD PTR [eax]
1000229c:	8b 45 08             	mov    eax,DWORD PTR [ebp+0x8]
1000229f:	89 50 18             	mov    DWORD PTR [eax+0x18],edx
100022a2:	eb 12                	jmp    100022b6 <ssfn_render+0x334>
100022a4:	8b 85 e8 f9 fe ff    	mov    eax,DWORD PTR [ebp-0x10618]
100022aa:	40                   	inc    eax
100022ab:	89 85 e8 f9 fe ff    	mov    DWORD PTR [ebp-0x10618],eax
100022b1:	e9 43 ff ff ff       	jmp    100021f9 <ssfn_render+0x277>
100022b6:	83 7d e4 00          	cmp    DWORD PTR [ebp-0x1c],0x0
100022ba:	0f 85 d1 00 00 00    	jne    10002391 <ssfn_render+0x40f>
100022c0:	c7 85 e8 f9 fe ff 00 00 00 00 	mov    DWORD PTR [ebp-0x10618],0x0
100022ca:	8b 45 08             	mov    eax,DWORD PTR [ebp+0x8]
100022cd:	8b 55 a8             	mov    edx,DWORD PTR [ebp-0x58]
100022d0:	81 c2 68 3d 00 00    	add    edx,0x3d68
100022d6:	8b 54 90 04          	mov    edx,DWORD PTR [eax+edx*4+0x4]
100022da:	8b 85 e8 f9 fe ff    	mov    eax,DWORD PTR [ebp-0x10618]
100022e0:	39 c2                	cmp    edx,eax
100022e2:	0f 8e a9 00 00 00    	jle    10002391 <ssfn_render+0x40f>
100022e8:	8b 85 e8 f9 fe ff    	mov    eax,DWORD PTR [ebp-0x10618]
100022ee:	8d 14 85 00 00 00 00 	lea    edx,[eax*4+0x0]
100022f5:	8b 85 40 ff ff ff    	mov    eax,DWORD PTR [ebp-0xc0]
100022fb:	01 d0                	add    eax,edx
100022fd:	8b 00                	mov    eax,DWORD PTR [eax]
100022ff:	8a 40 08             	mov    al,BYTE PTR [eax+0x8]
10002302:	0f b6 c0             	movzx  eax,al
10002305:	c1 f8 04             	sar    eax,0x4
10002308:	89 c2                	mov    edx,eax
1000230a:	8b 45 08             	mov    eax,DWORD PTR [ebp+0x8]
1000230d:	8b 80 bc f5 00 00    	mov    eax,DWORD PTR [eax+0xf5bc]
10002313:	31 d0                	xor    eax,edx
10002315:	83 e0 03             	and    eax,0x3
10002318:	85 c0                	test   eax,eax
1000231a:	75 3e                	jne    1000235a <ssfn_render+0x3d8>
1000231c:	8b 85 e8 f9 fe ff    	mov    eax,DWORD PTR [ebp-0x10618]
10002322:	8d 14 85 00 00 00 00 	lea    edx,[eax*4+0x0]
10002329:	8b 85 40 ff ff ff    	mov    eax,DWORD PTR [ebp-0xc0]
1000232f:	01 d0                	add    eax,edx
10002331:	8b 00                	mov    eax,DWORD PTR [eax]
10002333:	8d 95 f4 f9 fe ff    	lea    edx,[ebp-0x1060c]
10002339:	52                   	push   edx
1000233a:	8d 95 ec f9 fe ff    	lea    edx,[ebp-0x10614]
10002340:	52                   	push   edx
10002341:	ff 75 10             	push   DWORD PTR [ebp+0x10]
10002344:	50                   	push   eax
10002345:	e8 48 df ff ff       	call   10000292 <_ssfn_c>
1000234a:	83 c4 10             	add    esp,0x10
1000234d:	89 45 e4             	mov    DWORD PTR [ebp-0x1c],eax
10002350:	83 7d e4 00          	cmp    DWORD PTR [ebp-0x1c],0x0
10002354:	74 04                	je     1000235a <ssfn_render+0x3d8>
10002356:	b0 01                	mov    al,0x1
10002358:	eb 02                	jmp    1000235c <ssfn_render+0x3da>
1000235a:	b0 00                	mov    al,0x0
1000235c:	84 c0                	test   al,al
1000235e:	74 1f                	je     1000237f <ssfn_render+0x3fd>
10002360:	8b 85 e8 f9 fe ff    	mov    eax,DWORD PTR [ebp-0x10618]
10002366:	8d 14 85 00 00 00 00 	lea    edx,[eax*4+0x0]
1000236d:	8b 85 40 ff ff ff    	mov    eax,DWORD PTR [ebp-0xc0]
10002373:	01 d0                	add    eax,edx
10002375:	8b 10                	mov    edx,DWORD PTR [eax]
10002377:	8b 45 08             	mov    eax,DWORD PTR [ebp+0x8]
1000237a:	89 50 18             	mov    DWORD PTR [eax+0x18],edx
1000237d:	eb 12                	jmp    10002391 <ssfn_render+0x40f>
1000237f:	8b 85 e8 f9 fe ff    	mov    eax,DWORD PTR [ebp-0x10618]
10002385:	40                   	inc    eax
10002386:	89 85 e8 f9 fe ff    	mov    DWORD PTR [ebp-0x10618],eax
1000238c:	e9 39 ff ff ff       	jmp    100022ca <ssfn_render+0x348>
10002391:	83 7d e4 00          	cmp    DWORD PTR [ebp-0x1c],0x0
10002395:	0f 85 d9 00 00 00    	jne    10002474 <ssfn_render+0x4f2>
1000239b:	8b 45 08             	mov    eax,DWORD PTR [ebp+0x8]
1000239e:	8b 80 bc f5 00 00    	mov    eax,DWORD PTR [eax+0xf5bc]
100023a4:	83 e0 03             	and    eax,0x3
100023a7:	83 f8 03             	cmp    eax,0x3
100023aa:	0f 85 c4 00 00 00    	jne    10002474 <ssfn_render+0x4f2>
100023b0:	c7 85 e8 f9 fe ff 00 00 00 00 	mov    DWORD PTR [ebp-0x10618],0x0
100023ba:	8b 45 08             	mov    eax,DWORD PTR [ebp+0x8]
100023bd:	8b 55 a8             	mov    edx,DWORD PTR [ebp-0x58]
100023c0:	81 c2 68 3d 00 00    	add    edx,0x3d68
100023c6:	8b 54 90 04          	mov    edx,DWORD PTR [eax+edx*4+0x4]
100023ca:	8b 85 e8 f9 fe ff    	mov    eax,DWORD PTR [ebp-0x10618]
100023d0:	39 c2                	cmp    edx,eax
100023d2:	0f 8e 9c 00 00 00    	jle    10002474 <ssfn_render+0x4f2>
100023d8:	8b 85 e8 f9 fe ff    	mov    eax,DWORD PTR [ebp-0x10618]
100023de:	8d 14 85 00 00 00 00 	lea    edx,[eax*4+0x0]
100023e5:	8b 85 40 ff ff ff    	mov    eax,DWORD PTR [ebp-0xc0]
100023eb:	01 d0                	add    eax,edx
100023ed:	8b 00                	mov    eax,DWORD PTR [eax]
100023ef:	8a 40 08             	mov    al,BYTE PTR [eax+0x8]
100023f2:	0f b6 c0             	movzx  eax,al
100023f5:	c1 f8 04             	sar    eax,0x4
100023f8:	83 e0 03             	and    eax,0x3
100023fb:	85 c0                	test   eax,eax
100023fd:	74 3e                	je     1000243d <ssfn_render+0x4bb>
100023ff:	8b 85 e8 f9 fe ff    	mov    eax,DWORD PTR [ebp-0x10618]
10002405:	8d 14 85 00 00 00 00 	lea    edx,[eax*4+0x0]
1000240c:	8b 85 40 ff ff ff    	mov    eax,DWORD PTR [ebp-0xc0]
10002412:	01 d0                	add    eax,edx
10002414:	8b 00                	mov    eax,DWORD PTR [eax]
10002416:	8d 95 f4 f9 fe ff    	lea    edx,[ebp-0x1060c]
1000241c:	52                   	push   edx
1000241d:	8d 95 ec f9 fe ff    	lea    edx,[ebp-0x10614]
10002423:	52                   	push   edx
10002424:	ff 75 10             	push   DWORD PTR [ebp+0x10]
10002427:	50                   	push   eax
10002428:	e8 65 de ff ff       	call   10000292 <_ssfn_c>
1000242d:	83 c4 10             	add    esp,0x10
10002430:	89 45 e4             	mov    DWORD PTR [ebp-0x1c],eax
10002433:	83 7d e4 00          	cmp    DWORD PTR [ebp-0x1c],0x0
10002437:	74 04                	je     1000243d <ssfn_render+0x4bb>
10002439:	b0 01                	mov    al,0x1
1000243b:	eb 02                	jmp    1000243f <ssfn_render+0x4bd>
1000243d:	b0 00                	mov    al,0x0
1000243f:	84 c0                	test   al,al
10002441:	74 1f                	je     10002462 <ssfn_render+0x4e0>
10002443:	8b 85 e8 f9 fe ff    	mov    eax,DWORD PTR [ebp-0x10618]
10002449:	8d 14 85 00 00 00 00 	lea    edx,[eax*4+0x0]
10002450:	8b 85 40 ff ff ff    	mov    eax,DWORD PTR [ebp-0xc0]
10002456:	01 d0                	add    eax,edx
10002458:	8b 10                	mov    edx,DWORD PTR [eax]
1000245a:	8b 45 08             	mov    eax,DWORD PTR [ebp+0x8]
1000245d:	89 50 18             	mov    DWORD PTR [eax+0x18],edx
10002460:	eb 12                	jmp    10002474 <ssfn_render+0x4f2>
10002462:	8b 85 e8 f9 fe ff    	mov    eax,DWORD PTR [ebp-0x10618]
10002468:	40                   	inc    eax
10002469:	89 85 e8 f9 fe ff    	mov    DWORD PTR [ebp-0x10618],eax
1000246f:	e9 46 ff ff ff       	jmp    100023ba <ssfn_render+0x438>
10002474:	83 7d e4 00          	cmp    DWORD PTR [ebp-0x1c],0x0
10002478:	0f 85 94 00 00 00    	jne    10002512 <ssfn_render+0x590>
1000247e:	c7 85 e8 f9 fe ff 00 00 00 00 	mov    DWORD PTR [ebp-0x10618],0x0
10002488:	8b 45 08             	mov    eax,DWORD PTR [ebp+0x8]
1000248b:	8b 55 a8             	mov    edx,DWORD PTR [ebp-0x58]
1000248e:	81 c2 68 3d 00 00    	add    edx,0x3d68
10002494:	8b 54 90 04          	mov    edx,DWORD PTR [eax+edx*4+0x4]
10002498:	8b 85 e8 f9 fe ff    	mov    eax,DWORD PTR [ebp-0x10618]
1000249e:	39 c2                	cmp    edx,eax
100024a0:	7e 70                	jle    10002512 <ssfn_render+0x590>
100024a2:	8b 85 e8 f9 fe ff    	mov    eax,DWORD PTR [ebp-0x10618]
100024a8:	8d 14 85 00 00 00 00 	lea    edx,[eax*4+0x0]
100024af:	8b 85 40 ff ff ff    	mov    eax,DWORD PTR [ebp-0xc0]
100024b5:	01 d0                	add    eax,edx
100024b7:	8b 00                	mov    eax,DWORD PTR [eax]
100024b9:	8d 95 f4 f9 fe ff    	lea    edx,[ebp-0x1060c]
100024bf:	52                   	push   edx
100024c0:	8d 95 ec f9 fe ff    	lea    edx,[ebp-0x10614]
100024c6:	52                   	push   edx
100024c7:	ff 75 10             	push   DWORD PTR [ebp+0x10]
100024ca:	50                   	push   eax
100024cb:	e8 c2 dd ff ff       	call   10000292 <_ssfn_c>
100024d0:	83 c4 10             	add    esp,0x10
100024d3:	89 45 e4             	mov    DWORD PTR [ebp-0x1c],eax
100024d6:	83 7d e4 00          	cmp    DWORD PTR [ebp-0x1c],0x0
100024da:	0f 95 c0             	setne  al
100024dd:	84 c0                	test   al,al
100024df:	74 1f                	je     10002500 <ssfn_render+0x57e>
100024e1:	8b 85 e8 f9 fe ff    	mov    eax,DWORD PTR [ebp-0x10618]
100024e7:	8d 14 85 00 00 00 00 	lea    edx,[eax*4+0x0]
100024ee:	8b 85 40 ff ff ff    	mov    eax,DWORD PTR [ebp-0xc0]
100024f4:	01 d0                	add    eax,edx
100024f6:	8b 10                	mov    edx,DWORD PTR [eax]
100024f8:	8b 45 08             	mov    eax,DWORD PTR [ebp+0x8]
100024fb:	89 50 18             	mov    DWORD PTR [eax+0x18],edx
100024fe:	eb 12                	jmp    10002512 <ssfn_render+0x590>
10002500:	8b 85 e8 f9 fe ff    	mov    eax,DWORD PTR [ebp-0x10618]
10002506:	40                   	inc    eax
10002507:	89 85 e8 f9 fe ff    	mov    DWORD PTR [ebp-0x10618],eax
1000250d:	e9 76 ff ff ff       	jmp    10002488 <ssfn_render+0x506>
10002512:	ff 45 a8             	inc    DWORD PTR [ebp-0x58]
10002515:	e9 a1 fb ff ff       	jmp    100020bb <ssfn_render+0x139>
1000251a:	83 7d e4 00          	cmp    DWORD PTR [ebp-0x1c],0x0
1000251e:	75 15                	jne    10002535 <ssfn_render+0x5b3>
10002520:	81 7d b0 ff 00 00 00 	cmp    DWORD PTR [ebp-0x50],0xff
10002527:	74 0c                	je     10002535 <ssfn_render+0x5b3>
10002529:	c7 45 b0 ff 00 00 00 	mov    DWORD PTR [ebp-0x50],0xff
10002530:	e9 61 fb ff ff       	jmp    10002096 <ssfn_render+0x114>
10002535:	83 7d e4 00          	cmp    DWORD PTR [ebp-0x1c],0x0
10002539:	0f 85 e4 00 00 00    	jne    10002623 <ssfn_render+0x6a1>
1000253f:	8b 45 08             	mov    eax,DWORD PTR [ebp+0x8]
10002542:	8b 80 bc f5 00 00    	mov    eax,DWORD PTR [eax+0xf5bc]
10002548:	25 00 01 00 00       	and    eax,0x100
1000254d:	85 c0                	test   eax,eax
1000254f:	74 0a                	je     1000255b <ssfn_render+0x5d9>
10002551:	b8 f9 ff ff ff       	mov    eax,0xfffffff9
10002556:	e9 12 2c 00 00       	jmp    1000516d <ssfn_render+0x31eb>
1000255b:	c7 85 f4 f9 fe ff 00 00 00 00 	mov    DWORD PTR [ebp-0x1060c],0x0
10002565:	8b 45 08             	mov    eax,DWORD PTR [ebp+0x8]
10002568:	8b 80 b8 f5 00 00    	mov    eax,DWORD PTR [eax+0xf5b8]
1000256e:	3d fd 00 00 00       	cmp    eax,0xfd
10002573:	7e 10                	jle    10002585 <ssfn_render+0x603>
10002575:	c7 45 a8 00 00 00 00 	mov    DWORD PTR [ebp-0x58],0x0
1000257c:	c7 45 ac 04 00 00 00 	mov    DWORD PTR [ebp-0x54],0x4
10002583:	eb 12                	jmp    10002597 <ssfn_render+0x615>
10002585:	8b 45 08             	mov    eax,DWORD PTR [ebp+0x8]
10002588:	8b 80 b8 f5 00 00    	mov    eax,DWORD PTR [eax+0xf5b8]
1000258e:	89 45 ac             	mov    DWORD PTR [ebp-0x54],eax
10002591:	8b 45 ac             	mov    eax,DWORD PTR [ebp-0x54]
10002594:	89 45 a8             	mov    DWORD PTR [ebp-0x58],eax
10002597:	8b 45 a8             	mov    eax,DWORD PTR [ebp-0x58]
1000259a:	3b 45 ac             	cmp    eax,DWORD PTR [ebp-0x54]
1000259d:	7f 74                	jg     10002613 <ssfn_render+0x691>
1000259f:	83 7d e4 00          	cmp    DWORD PTR [ebp-0x1c],0x0
100025a3:	75 6e                	jne    10002613 <ssfn_render+0x691>
100025a5:	8b 45 08             	mov    eax,DWORD PTR [ebp+0x8]
100025a8:	8b 55 a8             	mov    edx,DWORD PTR [ebp-0x58]
100025ab:	81 c2 68 3d 00 00    	add    edx,0x3d68
100025b1:	8b 44 90 04          	mov    eax,DWORD PTR [eax+edx*4+0x4]
100025b5:	85 c0                	test   eax,eax
100025b7:	74 55                	je     1000260e <ssfn_render+0x68c>
100025b9:	8b 45 08             	mov    eax,DWORD PTR [ebp+0x8]
100025bc:	8b 55 a8             	mov    edx,DWORD PTR [ebp-0x58]
100025bf:	8b 04 90             	mov    eax,DWORD PTR [eax+edx*4]
100025c2:	8b 00                	mov    eax,DWORD PTR [eax]
100025c4:	85 c0                	test   eax,eax
100025c6:	74 46                	je     1000260e <ssfn_render+0x68c>
100025c8:	8b 45 08             	mov    eax,DWORD PTR [ebp+0x8]
100025cb:	8b 55 a8             	mov    edx,DWORD PTR [ebp-0x58]
100025ce:	8b 04 90             	mov    eax,DWORD PTR [eax+edx*4]
100025d1:	8b 08                	mov    ecx,DWORD PTR [eax]
100025d3:	8b 45 08             	mov    eax,DWORD PTR [ebp+0x8]
100025d6:	8b 55 a8             	mov    edx,DWORD PTR [ebp-0x58]
100025d9:	8b 04 90             	mov    eax,DWORD PTR [eax+edx*4]
100025dc:	8b 00                	mov    eax,DWORD PTR [eax]
100025de:	8b 40 10             	mov    eax,DWORD PTR [eax+0x10]
100025e1:	01 c8                	add    eax,ecx
100025e3:	8a 00                	mov    al,BYTE PTR [eax]
100025e5:	84 c0                	test   al,al
100025e7:	78 25                	js     1000260e <ssfn_render+0x68c>
100025e9:	8b 45 08             	mov    eax,DWORD PTR [ebp+0x8]
100025ec:	8b 55 a8             	mov    edx,DWORD PTR [ebp-0x58]
100025ef:	8b 04 90             	mov    eax,DWORD PTR [eax+edx*4]
100025f2:	8b 10                	mov    edx,DWORD PTR [eax]
100025f4:	8b 45 08             	mov    eax,DWORD PTR [ebp+0x8]
100025f7:	89 50 18             	mov    DWORD PTR [eax+0x18],edx
100025fa:	8b 45 08             	mov    eax,DWORD PTR [ebp+0x8]
100025fd:	8b 50 18             	mov    edx,DWORD PTR [eax+0x18]
10002600:	8b 45 08             	mov    eax,DWORD PTR [ebp+0x8]
10002603:	8b 40 18             	mov    eax,DWORD PTR [eax+0x18]
10002606:	8b 40 10             	mov    eax,DWORD PTR [eax+0x10]
10002609:	01 d0                	add    eax,edx
1000260b:	89 45 e4             	mov    DWORD PTR [ebp-0x1c],eax
1000260e:	ff 45 a8             	inc    DWORD PTR [ebp-0x58]
10002611:	eb 84                	jmp    10002597 <ssfn_render+0x615>
10002613:	83 7d e4 00          	cmp    DWORD PTR [ebp-0x1c],0x0
10002617:	75 0a                	jne    10002623 <ssfn_render+0x6a1>
10002619:	b8 f9 ff ff ff       	mov    eax,0xfffffff9
1000261e:	e9 4a 2b 00 00       	jmp    1000516d <ssfn_render+0x31eb>
10002623:	8b 45 08             	mov    eax,DWORD PTR [ebp+0x8]
10002626:	8b 40 18             	mov    eax,DWORD PTR [eax+0x18]
10002629:	85 c0                	test   eax,eax
1000262b:	74 1a                	je     10002647 <ssfn_render+0x6c5>
1000262d:	8b 45 08             	mov    eax,DWORD PTR [ebp+0x8]
10002630:	8b 40 18             	mov    eax,DWORD PTR [eax+0x18]
10002633:	8a 40 0b             	mov    al,BYTE PTR [eax+0xb]
10002636:	84 c0                	test   al,al
10002638:	74 0d                	je     10002647 <ssfn_render+0x6c5>
1000263a:	8b 45 08             	mov    eax,DWORD PTR [ebp+0x8]
1000263d:	8b 80 c0 f5 00 00    	mov    eax,DWORD PTR [eax+0xf5c0]
10002643:	85 c0                	test   eax,eax
10002645:	75 0a                	jne    10002651 <ssfn_render+0x6cf>
10002647:	b8 fd ff ff ff       	mov    eax,0xfffffffd
1000264c:	e9 1c 2b 00 00       	jmp    1000516d <ssfn_render+0x31eb>
10002651:	8b 85 f4 f9 fe ff    	mov    eax,DWORD PTR [ebp-0x1060c]
10002657:	c1 e8 10             	shr    eax,0x10
1000265a:	83 f8 10             	cmp    eax,0x10
1000265d:	76 0a                	jbe    10002669 <ssfn_render+0x6e7>
1000265f:	b8 fc ff ff ff       	mov    eax,0xfffffffc
10002664:	e9 04 2b 00 00       	jmp    1000516d <ssfn_render+0x31eb>
10002669:	8b 45 08             	mov    eax,DWORD PTR [ebp+0x8]
1000266c:	8b 55 e4             	mov    edx,DWORD PTR [ebp-0x1c]
1000266f:	89 90 74 f5 00 00    	mov    DWORD PTR [eax+0xf574],edx
10002675:	83 45 e4 06          	add    DWORD PTR [ebp-0x1c],0x6
10002679:	8b 45 08             	mov    eax,DWORD PTR [ebp+0x8]
1000267c:	8b 80 bc f5 00 00    	mov    eax,DWORD PTR [eax+0xf5bc]
10002682:	25 00 02 00 00       	and    eax,0x200
10002687:	85 c0                	test   eax,eax
10002689:	0f 85 db 00 00 00    	jne    1000276a <ssfn_render+0x7e8>
1000268f:	8b 85 f4 f9 fe ff    	mov    eax,DWORD PTR [ebp-0x1060c]
10002695:	c1 e8 10             	shr    eax,0x10
10002698:	89 c2                	mov    edx,eax
1000269a:	8b 45 08             	mov    eax,DWORD PTR [ebp+0x8]
1000269d:	81 c2 48 3d 00 00    	add    edx,0x3d48
100026a3:	8b 44 90 08          	mov    eax,DWORD PTR [eax+edx*4+0x8]
100026a7:	85 c0                	test   eax,eax
100026a9:	0f 84 bb 00 00 00    	je     1000276a <ssfn_render+0x7e8>
100026af:	8b 85 f4 f9 fe ff    	mov    eax,DWORD PTR [ebp-0x1060c]
100026b5:	c1 e8 10             	shr    eax,0x10
100026b8:	89 c2                	mov    edx,eax
100026ba:	8b 45 08             	mov    eax,DWORD PTR [ebp+0x8]
100026bd:	81 c2 48 3d 00 00    	add    edx,0x3d48
100026c3:	8b 44 90 08          	mov    eax,DWORD PTR [eax+edx*4+0x8]
100026c7:	8b 95 f4 f9 fe ff    	mov    edx,DWORD PTR [ebp-0x1060c]
100026cd:	c1 ea 08             	shr    edx,0x8
100026d0:	0f b6 d2             	movzx  edx,dl
100026d3:	c1 e2 02             	shl    edx,0x2
100026d6:	01 d0                	add    eax,edx
100026d8:	8b 00                	mov    eax,DWORD PTR [eax]
100026da:	85 c0                	test   eax,eax
100026dc:	0f 84 88 00 00 00    	je     1000276a <ssfn_render+0x7e8>
100026e2:	8b 85 f4 f9 fe ff    	mov    eax,DWORD PTR [ebp-0x1060c]
100026e8:	c1 e8 10             	shr    eax,0x10
100026eb:	89 c2                	mov    edx,eax
100026ed:	8b 45 08             	mov    eax,DWORD PTR [ebp+0x8]
100026f0:	81 c2 48 3d 00 00    	add    edx,0x3d48
100026f6:	8b 44 90 08          	mov    eax,DWORD PTR [eax+edx*4+0x8]
100026fa:	8b 95 f4 f9 fe ff    	mov    edx,DWORD PTR [ebp-0x1060c]
10002700:	c1 ea 08             	shr    edx,0x8
10002703:	0f b6 d2             	movzx  edx,dl
10002706:	c1 e2 02             	shl    edx,0x2
10002709:	01 d0                	add    eax,edx
1000270b:	8b 00                	mov    eax,DWORD PTR [eax]
1000270d:	8b 95 f4 f9 fe ff    	mov    edx,DWORD PTR [ebp-0x1060c]
10002713:	0f b6 d2             	movzx  edx,dl
10002716:	c1 e2 02             	shl    edx,0x2
10002719:	01 d0                	add    eax,edx
1000271b:	8b 00                	mov    eax,DWORD PTR [eax]
1000271d:	85 c0                	test   eax,eax
1000271f:	74 49                	je     1000276a <ssfn_render+0x7e8>
10002721:	8b 85 f4 f9 fe ff    	mov    eax,DWORD PTR [ebp-0x1060c]
10002727:	c1 e8 10             	shr    eax,0x10
1000272a:	89 c2                	mov    edx,eax
1000272c:	8b 45 08             	mov    eax,DWORD PTR [ebp+0x8]
1000272f:	81 c2 48 3d 00 00    	add    edx,0x3d48
10002735:	8b 44 90 08          	mov    eax,DWORD PTR [eax+edx*4+0x8]
10002739:	8b 95 f4 f9 fe ff    	mov    edx,DWORD PTR [ebp-0x1060c]
1000273f:	c1 ea 08             	shr    edx,0x8
10002742:	0f b6 d2             	movzx  edx,dl
10002745:	c1 e2 02             	shl    edx,0x2
10002748:	01 d0                	add    eax,edx
1000274a:	8b 00                	mov    eax,DWORD PTR [eax]
1000274c:	8b 95 f4 f9 fe ff    	mov    edx,DWORD PTR [ebp-0x1060c]
10002752:	0f b6 d2             	movzx  edx,dl
10002755:	c1 e2 02             	shl    edx,0x2
10002758:	01 d0                	add    eax,edx
1000275a:	8b 10                	mov    edx,DWORD PTR [eax]
1000275c:	8b 45 08             	mov    eax,DWORD PTR [ebp+0x8]
1000275f:	89 90 24 f5 00 00    	mov    DWORD PTR [eax+0xf524],edx
10002765:	e9 f2 15 00 00       	jmp    10003d5c <ssfn_render+0x1dda>
1000276a:	8b 45 08             	mov    eax,DWORD PTR [ebp+0x8]
1000276d:	8b 80 bc f5 00 00    	mov    eax,DWORD PTR [eax+0xf5bc]
10002773:	83 e0 40             	and    eax,0x40
10002776:	85 c0                	test   eax,eax
10002778:	74 0b                	je     10002785 <ssfn_render+0x803>
1000277a:	8b 45 08             	mov    eax,DWORD PTR [ebp+0x8]
1000277d:	8b 80 c0 f5 00 00    	mov    eax,DWORD PTR [eax+0xf5c0]
10002783:	eb 36                	jmp    100027bb <ssfn_render+0x839>
10002785:	8b 45 08             	mov    eax,DWORD PTR [ebp+0x8]
10002788:	8b 90 c0 f5 00 00    	mov    edx,DWORD PTR [eax+0xf5c0]
1000278e:	8b 45 08             	mov    eax,DWORD PTR [ebp+0x8]
10002791:	8b 40 18             	mov    eax,DWORD PTR [eax+0x18]
10002794:	8a 40 0b             	mov    al,BYTE PTR [eax+0xb]
10002797:	0f b6 c0             	movzx  eax,al
1000279a:	39 c2                	cmp    edx,eax
1000279c:	7e 11                	jle    100027af <ssfn_render+0x82d>
1000279e:	8b 45 08             	mov    eax,DWORD PTR [ebp+0x8]
100027a1:	8b 80 c0 f5 00 00    	mov    eax,DWORD PTR [eax+0xf5c0]
100027a7:	83 c0 04             	add    eax,0x4
100027aa:	83 e0 fc             	and    eax,0xfffffffc
100027ad:	eb 0c                	jmp    100027bb <ssfn_render+0x839>
100027af:	8b 45 08             	mov    eax,DWORD PTR [ebp+0x8]
100027b2:	8b 40 18             	mov    eax,DWORD PTR [eax+0x18]
100027b5:	8a 40 0b             	mov    al,BYTE PTR [eax+0xb]
100027b8:	0f b6 c0             	movzx  eax,al
100027bb:	89 85 3c ff ff ff    	mov    DWORD PTR [ebp-0xc4],eax
100027c1:	8b 45 08             	mov    eax,DWORD PTR [ebp+0x8]
100027c4:	8b 80 bc f5 00 00    	mov    eax,DWORD PTR [eax+0xf5bc]
100027ca:	83 e0 02             	and    eax,0x2
100027cd:	85 c0                	test   eax,eax
100027cf:	74 1a                	je     100027eb <ssfn_render+0x869>
100027d1:	8b 45 08             	mov    eax,DWORD PTR [ebp+0x8]
100027d4:	8b 40 18             	mov    eax,DWORD PTR [eax+0x18]
100027d7:	8a 40 08             	mov    al,BYTE PTR [eax+0x8]
100027da:	c0 e8 04             	shr    al,0x4
100027dd:	0f b6 c0             	movzx  eax,al
100027e0:	83 e0 02             	and    eax,0x2
100027e3:	85 c0                	test   eax,eax
100027e5:	75 04                	jne    100027eb <ssfn_render+0x869>
100027e7:	b0 01                	mov    al,0x1
100027e9:	eb 02                	jmp    100027ed <ssfn_render+0x86b>
100027eb:	b0 00                	mov    al,0x0
100027ed:	88 85 47 ff ff ff    	mov    BYTE PTR [ebp-0xb9],al
100027f3:	8b 45 08             	mov    eax,DWORD PTR [ebp+0x8]
100027f6:	8b 80 bc f5 00 00    	mov    eax,DWORD PTR [eax+0xf5bc]
100027fc:	83 e0 01             	and    eax,0x1
100027ff:	85 c0                	test   eax,eax
10002801:	74 2a                	je     1000282d <ssfn_render+0x8ab>
10002803:	8b 45 08             	mov    eax,DWORD PTR [ebp+0x8]
10002806:	8b 40 18             	mov    eax,DWORD PTR [eax+0x18]
10002809:	8a 40 08             	mov    al,BYTE PTR [eax+0x8]
1000280c:	c0 e8 04             	shr    al,0x4
1000280f:	0f b6 c0             	movzx  eax,al
10002812:	83 e0 01             	and    eax,0x1
10002815:	85 c0                	test   eax,eax
10002817:	75 14                	jne    1000282d <ssfn_render+0x8ab>
10002819:	8b 45 08             	mov    eax,DWORD PTR [ebp+0x8]
1000281c:	8b 40 18             	mov    eax,DWORD PTR [eax+0x18]
1000281f:	8a 40 0b             	mov    al,BYTE PTR [eax+0xb]
10002822:	0f b6 c0             	movzx  eax,al
10002825:	83 c0 40             	add    eax,0x40
10002828:	c1 f8 06             	sar    eax,0x6
1000282b:	eb 02                	jmp    1000282f <ssfn_render+0x8ad>
1000282d:	b0 00                	mov    al,0x0
1000282f:	88 85 46 ff ff ff    	mov    BYTE PTR [ebp-0xba],al
10002835:	8b 45 08             	mov    eax,DWORD PTR [ebp+0x8]
10002838:	8b 80 74 f5 00 00    	mov    eax,DWORD PTR [eax+0xf574]
1000283e:	8a 40 02             	mov    al,BYTE PTR [eax+0x2]
10002841:	0f b6 c0             	movzx  eax,al
10002844:	0f af 85 3c ff ff ff 	imul   eax,DWORD PTR [ebp-0xc4]
1000284b:	89 c2                	mov    edx,eax
1000284d:	8b 45 08             	mov    eax,DWORD PTR [ebp+0x8]
10002850:	8b 40 18             	mov    eax,DWORD PTR [eax+0x18]
10002853:	8a 40 0b             	mov    al,BYTE PTR [eax+0xb]
10002856:	0f b6 c0             	movzx  eax,al
10002859:	01 d0                	add    eax,edx
1000285b:	8d 48 ff             	lea    ecx,[eax-0x1]
1000285e:	8b 45 08             	mov    eax,DWORD PTR [ebp+0x8]
10002861:	8b 40 18             	mov    eax,DWORD PTR [eax+0x18]
10002864:	8a 40 0b             	mov    al,BYTE PTR [eax+0xb]
10002867:	0f b6 f8             	movzx  edi,al
1000286a:	89 c8                	mov    eax,ecx
1000286c:	99                   	cdq    
1000286d:	f7 ff                	idiv   edi
1000286f:	89 45 94             	mov    DWORD PTR [ebp-0x6c],eax
10002872:	80 bd 47 ff ff ff 00 	cmp    BYTE PTR [ebp-0xb9],0x0
10002879:	74 12                	je     1000288d <ssfn_render+0x90b>
1000287b:	8b 85 3c ff ff ff    	mov    eax,DWORD PTR [ebp-0xc4]
10002881:	be 04 00 00 00       	mov    esi,0x4
10002886:	99                   	cdq    
10002887:	f7 fe                	idiv   esi
10002889:	89 c2                	mov    edx,eax
1000288b:	eb 05                	jmp    10002892 <ssfn_render+0x910>
1000288d:	ba 00 00 00 00       	mov    edx,0x0
10002892:	8b 45 94             	mov    eax,DWORD PTR [ebp-0x6c]
10002895:	01 c2                	add    edx,eax
10002897:	0f b6 85 46 ff ff ff 	movzx  eax,BYTE PTR [ebp-0xba]
1000289e:	01 d0                	add    eax,edx
100028a0:	89 45 b0             	mov    DWORD PTR [ebp-0x50],eax
100028a3:	8b 45 b0             	mov    eax,DWORD PTR [ebp-0x50]
100028a6:	0f af 85 3c ff ff ff 	imul   eax,DWORD PTR [ebp-0xc4]
100028ad:	3d ff f4 00 00       	cmp    eax,0xf4ff
100028b2:	7e 0a                	jle    100028be <ssfn_render+0x93c>
100028b4:	b8 fa ff ff ff       	mov    eax,0xfffffffa
100028b9:	e9 af 28 00 00       	jmp    1000516d <ssfn_render+0x31eb>
100028be:	8b 45 08             	mov    eax,DWORD PTR [ebp+0x8]
100028c1:	8b 80 bc f5 00 00    	mov    eax,DWORD PTR [eax+0xf5bc]
100028c7:	25 00 02 00 00       	and    eax,0x200
100028cc:	85 c0                	test   eax,eax
100028ce:	0f 85 28 02 00 00    	jne    10002afc <ssfn_render+0xb7a>
100028d4:	8b 85 f4 f9 fe ff    	mov    eax,DWORD PTR [ebp-0x1060c]
100028da:	c1 e8 10             	shr    eax,0x10
100028dd:	89 c2                	mov    edx,eax
100028df:	8b 45 08             	mov    eax,DWORD PTR [ebp+0x8]
100028e2:	81 c2 48 3d 00 00    	add    edx,0x3d48
100028e8:	8b 44 90 08          	mov    eax,DWORD PTR [eax+edx*4+0x8]
100028ec:	85 c0                	test   eax,eax
100028ee:	75 7b                	jne    1000296b <ssfn_render+0x9e9>
100028f0:	8b 85 f4 f9 fe ff    	mov    eax,DWORD PTR [ebp-0x1060c]
100028f6:	c1 e8 10             	shr    eax,0x10
100028f9:	89 c3                	mov    ebx,eax
100028fb:	83 ec 0c             	sub    esp,0xc
100028fe:	68 00 04 00 00       	push   0x400
10002903:	e8 fc ff ff ff       	call   10002904 <ssfn_render+0x982>	10002904: R_386_PC32	malloc
10002908:	83 c4 10             	add    esp,0x10
1000290b:	89 c1                	mov    ecx,eax
1000290d:	8b 45 08             	mov    eax,DWORD PTR [ebp+0x8]
10002910:	8d 93 48 3d 00 00    	lea    edx,[ebx+0x3d48]
10002916:	89 4c 90 08          	mov    DWORD PTR [eax+edx*4+0x8],ecx
1000291a:	8b 85 f4 f9 fe ff    	mov    eax,DWORD PTR [ebp-0x1060c]
10002920:	c1 e8 10             	shr    eax,0x10
10002923:	89 c2                	mov    edx,eax
10002925:	8b 45 08             	mov    eax,DWORD PTR [ebp+0x8]
10002928:	81 c2 48 3d 00 00    	add    edx,0x3d48
1000292e:	8b 44 90 08          	mov    eax,DWORD PTR [eax+edx*4+0x8]
10002932:	85 c0                	test   eax,eax
10002934:	75 0a                	jne    10002940 <ssfn_render+0x9be>
10002936:	b8 ff ff ff ff       	mov    eax,0xffffffff
1000293b:	e9 2d 28 00 00       	jmp    1000516d <ssfn_render+0x31eb>
10002940:	8b 85 f4 f9 fe ff    	mov    eax,DWORD PTR [ebp-0x1060c]
10002946:	c1 e8 10             	shr    eax,0x10
10002949:	89 c2                	mov    edx,eax
1000294b:	8b 45 08             	mov    eax,DWORD PTR [ebp+0x8]
1000294e:	81 c2 48 3d 00 00    	add    edx,0x3d48
10002954:	8b 44 90 08          	mov    eax,DWORD PTR [eax+edx*4+0x8]
10002958:	83 ec 04             	sub    esp,0x4
1000295b:	68 00 04 00 00       	push   0x400
10002960:	6a 00                	push   0x0
10002962:	50                   	push   eax
10002963:	e8 fc ff ff ff       	call   10002964 <ssfn_render+0x9e2>	10002964: R_386_PC32	memset
10002968:	83 c4 10             	add    esp,0x10
1000296b:	8b 85 f4 f9 fe ff    	mov    eax,DWORD PTR [ebp-0x1060c]
10002971:	c1 e8 10             	shr    eax,0x10
10002974:	89 c2                	mov    edx,eax
10002976:	8b 45 08             	mov    eax,DWORD PTR [ebp+0x8]
10002979:	81 c2 48 3d 00 00    	add    edx,0x3d48
1000297f:	8b 44 90 08          	mov    eax,DWORD PTR [eax+edx*4+0x8]
10002983:	8b 95 f4 f9 fe ff    	mov    edx,DWORD PTR [ebp-0x1060c]
10002989:	c1 ea 08             	shr    edx,0x8
1000298c:	0f b6 d2             	movzx  edx,dl
1000298f:	c1 e2 02             	shl    edx,0x2
10002992:	01 d0                	add    eax,edx
10002994:	8b 00                	mov    eax,DWORD PTR [eax]
10002996:	85 c0                	test   eax,eax
10002998:	0f 85 b3 00 00 00    	jne    10002a51 <ssfn_render+0xacf>
1000299e:	8b 85 f4 f9 fe ff    	mov    eax,DWORD PTR [ebp-0x1060c]
100029a4:	c1 e8 10             	shr    eax,0x10
100029a7:	89 c2                	mov    edx,eax
100029a9:	8b 45 08             	mov    eax,DWORD PTR [ebp+0x8]
100029ac:	81 c2 48 3d 00 00    	add    edx,0x3d48
100029b2:	8b 44 90 08          	mov    eax,DWORD PTR [eax+edx*4+0x8]
100029b6:	8b 95 f4 f9 fe ff    	mov    edx,DWORD PTR [ebp-0x1060c]
100029bc:	c1 ea 08             	shr    edx,0x8
100029bf:	0f b6 d2             	movzx  edx,dl
100029c2:	c1 e2 02             	shl    edx,0x2
100029c5:	8d 1c 10             	lea    ebx,[eax+edx*1]
100029c8:	83 ec 0c             	sub    esp,0xc
100029cb:	68 00 04 00 00       	push   0x400
100029d0:	e8 fc ff ff ff       	call   100029d1 <ssfn_render+0xa4f>	100029d1: R_386_PC32	malloc
100029d5:	83 c4 10             	add    esp,0x10
100029d8:	89 03                	mov    DWORD PTR [ebx],eax
100029da:	8b 85 f4 f9 fe ff    	mov    eax,DWORD PTR [ebp-0x1060c]
100029e0:	c1 e8 10             	shr    eax,0x10
100029e3:	89 c2                	mov    edx,eax
100029e5:	8b 45 08             	mov    eax,DWORD PTR [ebp+0x8]
100029e8:	81 c2 48 3d 00 00    	add    edx,0x3d48
100029ee:	8b 44 90 08          	mov    eax,DWORD PTR [eax+edx*4+0x8]
100029f2:	8b 95 f4 f9 fe ff    	mov    edx,DWORD PTR [ebp-0x1060c]
100029f8:	c1 ea 08             	shr    edx,0x8
100029fb:	0f b6 d2             	movzx  edx,dl
100029fe:	c1 e2 02             	shl    edx,0x2
10002a01:	01 d0                	add    eax,edx
10002a03:	8b 00                	mov    eax,DWORD PTR [eax]
10002a05:	85 c0                	test   eax,eax
10002a07:	75 0a                	jne    10002a13 <ssfn_render+0xa91>
10002a09:	b8 ff ff ff ff       	mov    eax,0xffffffff
10002a0e:	e9 5a 27 00 00       	jmp    1000516d <ssfn_render+0x31eb>
10002a13:	8b 85 f4 f9 fe ff    	mov    eax,DWORD PTR [ebp-0x1060c]
10002a19:	c1 e8 10             	shr    eax,0x10
10002a1c:	89 c2                	mov    edx,eax
10002a1e:	8b 45 08             	mov    eax,DWORD PTR [ebp+0x8]
10002a21:	81 c2 48 3d 00 00    	add    edx,0x3d48
10002a27:	8b 44 90 08          	mov    eax,DWORD PTR [eax+edx*4+0x8]
10002a2b:	8b 95 f4 f9 fe ff    	mov    edx,DWORD PTR [ebp-0x1060c]
10002a31:	c1 ea 08             	shr    edx,0x8
10002a34:	0f b6 d2             	movzx  edx,dl
10002a37:	c1 e2 02             	shl    edx,0x2
10002a3a:	01 d0                	add    eax,edx
10002a3c:	8b 00                	mov    eax,DWORD PTR [eax]
10002a3e:	83 ec 04             	sub    esp,0x4
10002a41:	68 00 04 00 00       	push   0x400
10002a46:	6a 00                	push   0x0
10002a48:	50                   	push   eax
10002a49:	e8 fc ff ff ff       	call   10002a4a <ssfn_render+0xac8>	10002a4a: R_386_PC32	memset
10002a4e:	83 c4 10             	add    esp,0x10
10002a51:	8b 45 b0             	mov    eax,DWORD PTR [ebp-0x50]
10002a54:	0f af 85 3c ff ff ff 	imul   eax,DWORD PTR [ebp-0xc4]
10002a5b:	83 c0 08             	add    eax,0x8
10002a5e:	89 c2                	mov    edx,eax
10002a60:	8b 85 f4 f9 fe ff    	mov    eax,DWORD PTR [ebp-0x1060c]
10002a66:	c1 e8 10             	shr    eax,0x10
10002a69:	89 c1                	mov    ecx,eax
10002a6b:	8b 45 08             	mov    eax,DWORD PTR [ebp+0x8]
10002a6e:	81 c1 48 3d 00 00    	add    ecx,0x3d48
10002a74:	8b 44 88 08          	mov    eax,DWORD PTR [eax+ecx*4+0x8]
10002a78:	8b 8d f4 f9 fe ff    	mov    ecx,DWORD PTR [ebp-0x1060c]
10002a7e:	c1 e9 08             	shr    ecx,0x8
10002a81:	0f b6 c9             	movzx  ecx,cl
10002a84:	c1 e1 02             	shl    ecx,0x2
10002a87:	01 c8                	add    eax,ecx
10002a89:	8b 00                	mov    eax,DWORD PTR [eax]
10002a8b:	8b 8d f4 f9 fe ff    	mov    ecx,DWORD PTR [ebp-0x1060c]
10002a91:	0f b6 c9             	movzx  ecx,cl
10002a94:	c1 e1 02             	shl    ecx,0x2
10002a97:	8d 1c 08             	lea    ebx,[eax+ecx*1]
10002a9a:	83 ec 0c             	sub    esp,0xc
10002a9d:	52                   	push   edx
10002a9e:	e8 fc ff ff ff       	call   10002a9f <ssfn_render+0xb1d>	10002a9f: R_386_PC32	malloc
10002aa3:	83 c4 10             	add    esp,0x10
10002aa6:	89 03                	mov    DWORD PTR [ebx],eax
10002aa8:	8b 13                	mov    edx,DWORD PTR [ebx]
10002aaa:	8b 45 08             	mov    eax,DWORD PTR [ebp+0x8]
10002aad:	89 90 24 f5 00 00    	mov    DWORD PTR [eax+0xf524],edx
10002ab3:	8b 85 f4 f9 fe ff    	mov    eax,DWORD PTR [ebp-0x1060c]
10002ab9:	c1 e8 10             	shr    eax,0x10
10002abc:	89 c2                	mov    edx,eax
10002abe:	8b 45 08             	mov    eax,DWORD PTR [ebp+0x8]
10002ac1:	81 c2 48 3d 00 00    	add    edx,0x3d48
10002ac7:	8b 44 90 08          	mov    eax,DWORD PTR [eax+edx*4+0x8]
10002acb:	8b 95 f4 f9 fe ff    	mov    edx,DWORD PTR [ebp-0x1060c]
10002ad1:	c1 ea 08             	shr    edx,0x8
10002ad4:	0f b6 d2             	movzx  edx,dl
10002ad7:	c1 e2 02             	shl    edx,0x2
10002ada:	01 d0                	add    eax,edx
10002adc:	8b 00                	mov    eax,DWORD PTR [eax]
10002ade:	8b 95 f4 f9 fe ff    	mov    edx,DWORD PTR [ebp-0x1060c]
10002ae4:	0f b6 d2             	movzx  edx,dl
10002ae7:	c1 e2 02             	shl    edx,0x2
10002aea:	01 d0                	add    eax,edx
10002aec:	8b 00                	mov    eax,DWORD PTR [eax]
10002aee:	85 c0                	test   eax,eax
10002af0:	75 19                	jne    10002b0b <ssfn_render+0xb89>
10002af2:	b8 ff ff ff ff       	mov    eax,0xffffffff
10002af7:	e9 71 26 00 00       	jmp    1000516d <ssfn_render+0x31eb>
10002afc:	8b 45 08             	mov    eax,DWORD PTR [ebp+0x8]
10002aff:	8d 50 1c             	lea    edx,[eax+0x1c]
10002b02:	8b 45 08             	mov    eax,DWORD PTR [ebp+0x8]
10002b05:	89 90 24 f5 00 00    	mov    DWORD PTR [eax+0xf524],edx
10002b0b:	8b 45 08             	mov    eax,DWORD PTR [ebp+0x8]
10002b0e:	8b 80 74 f5 00 00    	mov    eax,DWORD PTR [eax+0xf574]
10002b14:	8a 40 04             	mov    al,BYTE PTR [eax+0x4]
10002b17:	84 c0                	test   al,al
10002b19:	74 49                	je     10002b64 <ssfn_render+0xbe2>
10002b1b:	80 bd 47 ff ff ff 00 	cmp    BYTE PTR [ebp-0xb9],0x0
10002b22:	74 40                	je     10002b64 <ssfn_render+0xbe2>
10002b24:	8b 45 08             	mov    eax,DWORD PTR [ebp+0x8]
10002b27:	8b 40 18             	mov    eax,DWORD PTR [eax+0x18]
10002b2a:	8a 40 0b             	mov    al,BYTE PTR [eax+0xb]
10002b2d:	0f b6 d0             	movzx  edx,al
10002b30:	8b 45 08             	mov    eax,DWORD PTR [ebp+0x8]
10002b33:	8b 40 18             	mov    eax,DWORD PTR [eax+0x18]
10002b36:	8a 40 0c             	mov    al,BYTE PTR [eax+0xc]
10002b39:	0f b6 c0             	movzx  eax,al
10002b3c:	29 c2                	sub    edx,eax
10002b3e:	89 d0                	mov    eax,edx
10002b40:	0f af 85 3c ff ff ff 	imul   eax,DWORD PTR [ebp-0xc4]
10002b47:	bf 04 00 00 00       	mov    edi,0x4
10002b4c:	99                   	cdq    
10002b4d:	f7 ff                	idiv   edi
10002b4f:	89 c1                	mov    ecx,eax
10002b51:	8b 45 08             	mov    eax,DWORD PTR [ebp+0x8]
10002b54:	8b 40 18             	mov    eax,DWORD PTR [eax+0x18]
10002b57:	8a 40 0b             	mov    al,BYTE PTR [eax+0xb]
10002b5a:	0f b6 f8             	movzx  edi,al
10002b5d:	89 c8                	mov    eax,ecx
10002b5f:	99                   	cdq    
10002b60:	f7 ff                	idiv   edi
10002b62:	eb 05                	jmp    10002b69 <ssfn_render+0xbe7>
10002b64:	b8 00 00 00 00       	mov    eax,0x0
10002b69:	89 45 9c             	mov    DWORD PTR [ebp-0x64],eax
10002b6c:	8b 45 08             	mov    eax,DWORD PTR [ebp+0x8]
10002b6f:	8b 80 24 f5 00 00    	mov    eax,DWORD PTR [eax+0xf524]
10002b75:	8b 55 b0             	mov    edx,DWORD PTR [ebp-0x50]
10002b78:	66 89 10             	mov    WORD PTR [eax],dx
10002b7b:	8b 45 08             	mov    eax,DWORD PTR [ebp+0x8]
10002b7e:	8b 80 24 f5 00 00    	mov    eax,DWORD PTR [eax+0xf524]
10002b84:	8b 95 3c ff ff ff    	mov    edx,DWORD PTR [ebp-0xc4]
10002b8a:	88 50 02             	mov    BYTE PTR [eax+0x2],dl
10002b8d:	8b 45 08             	mov    eax,DWORD PTR [ebp+0x8]
10002b90:	8b 80 74 f5 00 00    	mov    eax,DWORD PTR [eax+0xf574]
10002b96:	8a 50 04             	mov    dl,BYTE PTR [eax+0x4]
10002b99:	8b 45 9c             	mov    eax,DWORD PTR [ebp-0x64]
10002b9c:	88 c1                	mov    cl,al
10002b9e:	8b 45 08             	mov    eax,DWORD PTR [ebp+0x8]
10002ba1:	8b 80 24 f5 00 00    	mov    eax,DWORD PTR [eax+0xf524]
10002ba7:	01 ca                	add    edx,ecx
10002ba9:	88 50 04             	mov    BYTE PTR [eax+0x4],dl
10002bac:	8b 45 08             	mov    eax,DWORD PTR [ebp+0x8]
10002baf:	8b 90 74 f5 00 00    	mov    edx,DWORD PTR [eax+0xf574]
10002bb5:	8b 45 08             	mov    eax,DWORD PTR [ebp+0x8]
10002bb8:	8b 80 24 f5 00 00    	mov    eax,DWORD PTR [eax+0xf524]
10002bbe:	8a 52 05             	mov    dl,BYTE PTR [edx+0x5]
10002bc1:	88 50 05             	mov    BYTE PTR [eax+0x5],dl
10002bc4:	8b 45 08             	mov    eax,DWORD PTR [ebp+0x8]
10002bc7:	8b 80 74 f5 00 00    	mov    eax,DWORD PTR [eax+0xf574]
10002bcd:	8a 00                	mov    al,BYTE PTR [eax]
10002bcf:	83 e0 3f             	and    eax,0x3f
10002bd2:	88 c1                	mov    cl,al
10002bd4:	8b 45 9c             	mov    eax,DWORD PTR [ebp-0x64]
10002bd7:	88 c2                	mov    dl,al
10002bd9:	8b 45 08             	mov    eax,DWORD PTR [ebp+0x8]
10002bdc:	8b 80 24 f5 00 00    	mov    eax,DWORD PTR [eax+0xf524]
10002be2:	01 ca                	add    edx,ecx
10002be4:	88 50 03             	mov    BYTE PTR [eax+0x3],dl
10002be7:	8b 45 b0             	mov    eax,DWORD PTR [ebp-0x50]
10002bea:	0f af 85 3c ff ff ff 	imul   eax,DWORD PTR [ebp-0xc4]
10002bf1:	89 c2                	mov    edx,eax
10002bf3:	8b 45 08             	mov    eax,DWORD PTR [ebp+0x8]
10002bf6:	8b 80 24 f5 00 00    	mov    eax,DWORD PTR [eax+0xf524]
10002bfc:	83 c0 08             	add    eax,0x8
10002bff:	83 ec 04             	sub    esp,0x4
10002c02:	52                   	push   edx
10002c03:	68 ff 00 00 00       	push   0xff
10002c08:	50                   	push   eax
10002c09:	e8 fc ff ff ff       	call   10002c0a <ssfn_render+0xc88>	10002c0a: R_386_PC32	memset
10002c0e:	83 c4 10             	add    esp,0x10
10002c11:	c6 45 db fe          	mov    BYTE PTR [ebp-0x25],0xfe
10002c15:	8b 45 08             	mov    eax,DWORD PTR [ebp+0x8]
10002c18:	8b 80 24 f5 00 00    	mov    eax,DWORD PTR [eax+0xf524]
10002c1e:	c6 40 07 00          	mov    BYTE PTR [eax+0x7],0x0
10002c22:	8b 55 08             	mov    edx,DWORD PTR [ebp+0x8]
10002c25:	8b 92 24 f5 00 00    	mov    edx,DWORD PTR [edx+0xf524]
10002c2b:	8a 40 07             	mov    al,BYTE PTR [eax+0x7]
10002c2e:	88 42 06             	mov    BYTE PTR [edx+0x6],al
10002c31:	c7 45 a8 00 00 00 00 	mov    DWORD PTR [ebp-0x58],0x0
10002c38:	8b 45 08             	mov    eax,DWORD PTR [ebp+0x8]
10002c3b:	8b 80 74 f5 00 00    	mov    eax,DWORD PTR [eax+0xf574]
10002c41:	8a 40 01             	mov    al,BYTE PTR [eax+0x1]
10002c44:	0f b6 c0             	movzx  eax,al
10002c47:	39 45 a8             	cmp    DWORD PTR [ebp-0x58],eax
10002c4a:	0f 8d 9e 10 00 00    	jge    10003cee <ssfn_render+0x1d6c>
10002c50:	8b 45 e4             	mov    eax,DWORD PTR [ebp-0x1c]
10002c53:	8a 00                	mov    al,BYTE PTR [eax]
10002c55:	3c ff                	cmp    al,0xff
10002c57:	75 3c                	jne    10002c95 <ssfn_render+0xd13>
10002c59:	8b 45 e4             	mov    eax,DWORD PTR [ebp-0x1c]
10002c5c:	40                   	inc    eax
10002c5d:	8a 00                	mov    al,BYTE PTR [eax]
10002c5f:	3c ff                	cmp    al,0xff
10002c61:	75 32                	jne    10002c95 <ssfn_render+0xd13>
10002c63:	8b 45 e4             	mov    eax,DWORD PTR [ebp-0x1c]
10002c66:	8a 40 02             	mov    al,BYTE PTR [eax+0x2]
10002c69:	88 45 db             	mov    BYTE PTR [ebp-0x25],al
10002c6c:	8b 45 08             	mov    eax,DWORD PTR [ebp+0x8]
10002c6f:	8b 80 74 f5 00 00    	mov    eax,DWORD PTR [eax+0xf574]
10002c75:	8a 00                	mov    al,BYTE PTR [eax]
10002c77:	0f b6 c0             	movzx  eax,al
10002c7a:	83 e0 40             	and    eax,0x40
10002c7d:	85 c0                	test   eax,eax
10002c7f:	74 07                	je     10002c88 <ssfn_render+0xd06>
10002c81:	b8 06 00 00 00       	mov    eax,0x6
10002c86:	eb 05                	jmp    10002c8d <ssfn_render+0xd0b>
10002c88:	b8 05 00 00 00       	mov    eax,0x5
10002c8d:	01 45 e4             	add    DWORD PTR [ebp-0x1c],eax
10002c90:	e9 51 10 00 00       	jmp    10003ce6 <ssfn_render+0x1d64>
10002c95:	8b 45 e4             	mov    eax,DWORD PTR [ebp-0x1c]
10002c98:	8a 00                	mov    al,BYTE PTR [eax]
10002c9a:	0f b6 d0             	movzx  edx,al
10002c9d:	0f b6 85 46 ff ff ff 	movzx  eax,BYTE PTR [ebp-0xba]
10002ca4:	01 d0                	add    eax,edx
10002ca6:	c1 e0 04             	shl    eax,0x4
10002ca9:	0f af 85 3c ff ff ff 	imul   eax,DWORD PTR [ebp-0xc4]
10002cb0:	8b 55 08             	mov    edx,DWORD PTR [ebp+0x8]
10002cb3:	8b 52 18             	mov    edx,DWORD PTR [edx+0x18]
10002cb6:	8a 52 0b             	mov    dl,BYTE PTR [edx+0xb]
10002cb9:	0f b6 fa             	movzx  edi,dl
10002cbc:	99                   	cdq    
10002cbd:	f7 ff                	idiv   edi
10002cbf:	89 45 9c             	mov    DWORD PTR [ebp-0x64],eax
10002cc2:	8b 45 e4             	mov    eax,DWORD PTR [ebp-0x1c]
10002cc5:	40                   	inc    eax
10002cc6:	8a 00                	mov    al,BYTE PTR [eax]
10002cc8:	0f b6 c0             	movzx  eax,al
10002ccb:	c1 e0 04             	shl    eax,0x4
10002cce:	0f af 85 3c ff ff ff 	imul   eax,DWORD PTR [ebp-0xc4]
10002cd5:	8b 55 08             	mov    edx,DWORD PTR [ebp+0x8]
10002cd8:	8b 52 18             	mov    edx,DWORD PTR [edx+0x18]
10002cdb:	8a 52 0b             	mov    dl,BYTE PTR [edx+0xb]
10002cde:	0f b6 fa             	movzx  edi,dl
10002ce1:	99                   	cdq    
10002ce2:	f7 ff                	idiv   edi
10002ce4:	89 45 98             	mov    DWORD PTR [ebp-0x68],eax
10002ce7:	8b 45 08             	mov    eax,DWORD PTR [ebp+0x8]
10002cea:	8b 80 74 f5 00 00    	mov    eax,DWORD PTR [eax+0xf574]
10002cf0:	8a 00                	mov    al,BYTE PTR [eax]
10002cf2:	0f b6 c0             	movzx  eax,al
10002cf5:	83 e0 40             	and    eax,0x40
10002cf8:	85 c0                	test   eax,eax
10002cfa:	74 46                	je     10002d42 <ssfn_render+0xdc0>
10002cfc:	8b 45 e4             	mov    eax,DWORD PTR [ebp-0x1c]
10002cff:	83 c0 05             	add    eax,0x5
10002d02:	8a 00                	mov    al,BYTE PTR [eax]
10002d04:	0f b6 c0             	movzx  eax,al
10002d07:	c1 e0 18             	shl    eax,0x18
10002d0a:	89 c2                	mov    edx,eax
10002d0c:	8b 45 e4             	mov    eax,DWORD PTR [ebp-0x1c]
10002d0f:	83 c0 04             	add    eax,0x4
10002d12:	8a 00                	mov    al,BYTE PTR [eax]
10002d14:	0f b6 c0             	movzx  eax,al
10002d17:	c1 e0 10             	shl    eax,0x10
10002d1a:	09 c2                	or     edx,eax
10002d1c:	8b 45 e4             	mov    eax,DWORD PTR [ebp-0x1c]
10002d1f:	83 c0 03             	add    eax,0x3
10002d22:	8a 00                	mov    al,BYTE PTR [eax]
10002d24:	0f b6 c0             	movzx  eax,al
10002d27:	c1 e0 08             	shl    eax,0x8
10002d2a:	09 c2                	or     edx,eax
10002d2c:	8b 45 e4             	mov    eax,DWORD PTR [ebp-0x1c]
10002d2f:	83 c0 02             	add    eax,0x2
10002d32:	8a 00                	mov    al,BYTE PTR [eax]
10002d34:	0f b6 c0             	movzx  eax,al
10002d37:	09 d0                	or     eax,edx
10002d39:	89 45 ac             	mov    DWORD PTR [ebp-0x54],eax
10002d3c:	83 45 e4 06          	add    DWORD PTR [ebp-0x1c],0x6
10002d40:	eb 34                	jmp    10002d76 <ssfn_render+0xdf4>
10002d42:	8b 45 e4             	mov    eax,DWORD PTR [ebp-0x1c]
10002d45:	83 c0 04             	add    eax,0x4
10002d48:	8a 00                	mov    al,BYTE PTR [eax]
10002d4a:	0f b6 c0             	movzx  eax,al
10002d4d:	c1 e0 10             	shl    eax,0x10
10002d50:	89 c2                	mov    edx,eax
10002d52:	8b 45 e4             	mov    eax,DWORD PTR [ebp-0x1c]
10002d55:	83 c0 03             	add    eax,0x3
10002d58:	8a 00                	mov    al,BYTE PTR [eax]
10002d5a:	0f b6 c0             	movzx  eax,al
10002d5d:	c1 e0 08             	shl    eax,0x8
10002d60:	09 c2                	or     edx,eax
10002d62:	8b 45 e4             	mov    eax,DWORD PTR [ebp-0x1c]
10002d65:	83 c0 02             	add    eax,0x2
10002d68:	8a 00                	mov    al,BYTE PTR [eax]
10002d6a:	0f b6 c0             	movzx  eax,al
10002d6d:	09 d0                	or     eax,edx
10002d6f:	89 45 ac             	mov    DWORD PTR [ebp-0x54],eax
10002d72:	83 45 e4 05          	add    DWORD PTR [ebp-0x1c],0x5
10002d76:	8b 45 08             	mov    eax,DWORD PTR [ebp+0x8]
10002d79:	8b 50 18             	mov    edx,DWORD PTR [eax+0x18]
10002d7c:	8b 45 ac             	mov    eax,DWORD PTR [ebp-0x54]
10002d7f:	01 d0                	add    eax,edx
10002d81:	89 45 e0             	mov    DWORD PTR [ebp-0x20],eax
10002d84:	8b 45 e0             	mov    eax,DWORD PTR [ebp-0x20]
10002d87:	8a 00                	mov    al,BYTE PTR [eax]
10002d89:	84 c0                	test   al,al
10002d8b:	0f 88 1d 09 00 00    	js     100036ae <ssfn_render+0x172c>
10002d91:	8b 45 e0             	mov    eax,DWORD PTR [ebp-0x20]
10002d94:	8a 00                	mov    al,BYTE PTR [eax]
10002d96:	0f b6 c0             	movzx  eax,al
10002d99:	83 e0 3f             	and    eax,0x3f
10002d9c:	89 45 bc             	mov    DWORD PTR [ebp-0x44],eax
10002d9f:	8b 45 e0             	mov    eax,DWORD PTR [ebp-0x20]
10002da2:	8a 00                	mov    al,BYTE PTR [eax]
10002da4:	0f b6 c0             	movzx  eax,al
10002da7:	83 e0 40             	and    eax,0x40
10002daa:	85 c0                	test   eax,eax
10002dac:	74 13                	je     10002dc1 <ssfn_render+0xe3f>
10002dae:	c1 65 bc 08          	shl    DWORD PTR [ebp-0x44],0x8
10002db2:	8b 45 e0             	mov    eax,DWORD PTR [ebp-0x20]
10002db5:	40                   	inc    eax
10002db6:	8a 00                	mov    al,BYTE PTR [eax]
10002db8:	0f b6 c0             	movzx  eax,al
10002dbb:	09 45 bc             	or     DWORD PTR [ebp-0x44],eax
10002dbe:	ff 45 e0             	inc    DWORD PTR [ebp-0x20]
10002dc1:	ff 45 bc             	inc    DWORD PTR [ebp-0x44]
10002dc4:	ff 45 e0             	inc    DWORD PTR [ebp-0x20]
10002dc7:	8b 45 e0             	mov    eax,DWORD PTR [ebp-0x20]
10002dca:	89 45 dc             	mov    DWORD PTR [ebp-0x24],eax
10002dcd:	8b 45 bc             	mov    eax,DWORD PTR [ebp-0x44]
10002dd0:	83 c0 03             	add    eax,0x3
10002dd3:	be 04 00 00 00       	mov    esi,0x4
10002dd8:	99                   	cdq    
10002dd9:	f7 fe                	idiv   esi
10002ddb:	01 45 e0             	add    DWORD PTR [ebp-0x20],eax
10002dde:	8b 45 08             	mov    eax,DWORD PTR [ebp+0x8]
10002de1:	c7 80 80 f5 00 00 00 00 00 00 	mov    DWORD PTR [eax+0xf580],0x0
10002deb:	c7 85 e8 f9 fe ff 00 00 00 00 	mov    DWORD PTR [ebp-0x10618],0x0
10002df5:	8b 85 e8 f9 fe ff    	mov    eax,DWORD PTR [ebp-0x10618]
10002dfb:	39 45 bc             	cmp    DWORD PTR [ebp-0x44],eax
10002dfe:	0f 8e 76 03 00 00    	jle    1000317a <ssfn_render+0x11f8>
10002e04:	8b 45 e0             	mov    eax,DWORD PTR [ebp-0x20]
10002e07:	8a 00                	mov    al,BYTE PTR [eax]
10002e09:	0f b6 c0             	movzx  eax,al
10002e0c:	c1 e0 04             	shl    eax,0x4
10002e0f:	0f af 85 3c ff ff ff 	imul   eax,DWORD PTR [ebp-0xc4]
10002e16:	8b 55 08             	mov    edx,DWORD PTR [ebp+0x8]
10002e19:	8b 52 18             	mov    edx,DWORD PTR [edx+0x18]
10002e1c:	8a 52 0b             	mov    dl,BYTE PTR [edx+0xb]
10002e1f:	0f b6 fa             	movzx  edi,dl
10002e22:	99                   	cdq    
10002e23:	f7 ff                	idiv   edi
10002e25:	89 c2                	mov    edx,eax
10002e27:	8b 45 9c             	mov    eax,DWORD PTR [ebp-0x64]
10002e2a:	01 d0                	add    eax,edx
10002e2c:	89 45 b8             	mov    DWORD PTR [ebp-0x48],eax
10002e2f:	8b 45 e0             	mov    eax,DWORD PTR [ebp-0x20]
10002e32:	40                   	inc    eax
10002e33:	8a 00                	mov    al,BYTE PTR [eax]
10002e35:	0f b6 c0             	movzx  eax,al
10002e38:	c1 e0 04             	shl    eax,0x4
10002e3b:	0f af 85 3c ff ff ff 	imul   eax,DWORD PTR [ebp-0xc4]
10002e42:	8b 55 08             	mov    edx,DWORD PTR [ebp+0x8]
10002e45:	8b 52 18             	mov    edx,DWORD PTR [edx+0x18]
10002e48:	8a 52 0b             	mov    dl,BYTE PTR [edx+0xb]
10002e4b:	0f b6 fa             	movzx  edi,dl
10002e4e:	99                   	cdq    
10002e4f:	f7 ff                	idiv   edi
10002e51:	89 c2                	mov    edx,eax
10002e53:	8b 45 98             	mov    eax,DWORD PTR [ebp-0x68]
10002e56:	01 d0                	add    eax,edx
10002e58:	89 45 ac             	mov    DWORD PTR [ebp-0x54],eax
10002e5b:	8b 85 e8 f9 fe ff    	mov    eax,DWORD PTR [ebp-0x10618]
10002e61:	c1 f8 02             	sar    eax,0x2
10002e64:	89 c2                	mov    edx,eax
10002e66:	8b 45 dc             	mov    eax,DWORD PTR [ebp-0x24]
10002e69:	01 d0                	add    eax,edx
10002e6b:	8a 00                	mov    al,BYTE PTR [eax]
10002e6d:	0f b6 d0             	movzx  edx,al
10002e70:	8b 85 e8 f9 fe ff    	mov    eax,DWORD PTR [ebp-0x10618]
10002e76:	01 c0                	add    eax,eax
10002e78:	83 e0 06             	and    eax,0x6
10002e7b:	88 c1                	mov    cl,al
10002e7d:	d3 fa                	sar    edx,cl
10002e7f:	89 d0                	mov    eax,edx
10002e81:	83 e0 03             	and    eax,0x3
10002e84:	83 f8 01             	cmp    eax,0x1
10002e87:	74 6a                	je     10002ef3 <ssfn_render+0xf71>
10002e89:	83 f8 01             	cmp    eax,0x1
10002e8c:	7f 09                	jg     10002e97 <ssfn_render+0xf15>
10002e8e:	85 c0                	test   eax,eax
10002e90:	74 1c                	je     10002eae <ssfn_render+0xf2c>
10002e92:	e9 d1 02 00 00       	jmp    10003168 <ssfn_render+0x11e6>
10002e97:	83 f8 02             	cmp    eax,0x2
10002e9a:	0f 84 83 00 00 00    	je     10002f23 <ssfn_render+0xfa1>
10002ea0:	83 f8 03             	cmp    eax,0x3
10002ea3:	0f 84 b6 01 00 00    	je     1000305f <ssfn_render+0x10dd>
10002ea9:	e9 ba 02 00 00       	jmp    10003168 <ssfn_render+0x11e6>
10002eae:	8b 45 08             	mov    eax,DWORD PTR [ebp+0x8]
10002eb1:	8b 55 b8             	mov    edx,DWORD PTR [ebp-0x48]
10002eb4:	89 90 9c f5 00 00    	mov    DWORD PTR [eax+0xf59c],edx
10002eba:	8b 45 08             	mov    eax,DWORD PTR [ebp+0x8]
10002ebd:	8b 90 9c f5 00 00    	mov    edx,DWORD PTR [eax+0xf59c]
10002ec3:	8b 45 08             	mov    eax,DWORD PTR [ebp+0x8]
10002ec6:	89 90 94 f5 00 00    	mov    DWORD PTR [eax+0xf594],edx
10002ecc:	8b 45 08             	mov    eax,DWORD PTR [ebp+0x8]
10002ecf:	8b 55 ac             	mov    edx,DWORD PTR [ebp-0x54]
10002ed2:	89 90 a0 f5 00 00    	mov    DWORD PTR [eax+0xf5a0],edx
10002ed8:	8b 45 08             	mov    eax,DWORD PTR [ebp+0x8]
10002edb:	8b 90 a0 f5 00 00    	mov    edx,DWORD PTR [eax+0xf5a0]
10002ee1:	8b 45 08             	mov    eax,DWORD PTR [ebp+0x8]
10002ee4:	89 90 98 f5 00 00    	mov    DWORD PTR [eax+0xf598],edx
10002eea:	83 45 e0 02          	add    DWORD PTR [ebp-0x20],0x2
10002eee:	e9 75 02 00 00       	jmp    10003168 <ssfn_render+0x11e6>
10002ef3:	8b 85 3c ff ff ff    	mov    eax,DWORD PTR [ebp-0xc4]
10002ef9:	c1 e0 04             	shl    eax,0x4
10002efc:	89 c2                	mov    edx,eax
10002efe:	8b 45 b0             	mov    eax,DWORD PTR [ebp-0x50]
10002f01:	c1 e0 04             	shl    eax,0x4
10002f04:	83 ec 0c             	sub    esp,0xc
10002f07:	ff 75 ac             	push   DWORD PTR [ebp-0x54]
10002f0a:	ff 75 b8             	push   DWORD PTR [ebp-0x48]
10002f0d:	52                   	push   edx
10002f0e:	50                   	push   eax
10002f0f:	ff 75 08             	push   DWORD PTR [ebp+0x8]
10002f12:	e8 8e d5 ff ff       	call   100004a5 <_ssfn_l>
10002f17:	83 c4 20             	add    esp,0x20
10002f1a:	83 45 e0 02          	add    DWORD PTR [ebp-0x20],0x2
10002f1e:	e9 45 02 00 00       	jmp    10003168 <ssfn_render+0x11e6>
10002f23:	8b 45 e0             	mov    eax,DWORD PTR [ebp-0x20]
10002f26:	83 c0 02             	add    eax,0x2
10002f29:	8a 00                	mov    al,BYTE PTR [eax]
10002f2b:	0f b6 c0             	movzx  eax,al
10002f2e:	c1 e0 04             	shl    eax,0x4
10002f31:	0f af 85 3c ff ff ff 	imul   eax,DWORD PTR [ebp-0xc4]
10002f38:	8b 55 08             	mov    edx,DWORD PTR [ebp+0x8]
10002f3b:	8b 52 18             	mov    edx,DWORD PTR [edx+0x18]
10002f3e:	8a 52 0b             	mov    dl,BYTE PTR [edx+0xb]
10002f41:	0f b6 fa             	movzx  edi,dl
10002f44:	99                   	cdq    
10002f45:	f7 ff                	idiv   edi
10002f47:	89 c2                	mov    edx,eax
10002f49:	8b 45 9c             	mov    eax,DWORD PTR [ebp-0x64]
10002f4c:	01 d0                	add    eax,edx
10002f4e:	89 85 38 ff ff ff    	mov    DWORD PTR [ebp-0xc8],eax
10002f54:	8b 45 e0             	mov    eax,DWORD PTR [ebp-0x20]
10002f57:	83 c0 03             	add    eax,0x3
10002f5a:	8a 00                	mov    al,BYTE PTR [eax]
10002f5c:	0f b6 c0             	movzx  eax,al
10002f5f:	c1 e0 04             	shl    eax,0x4
10002f62:	0f af 85 3c ff ff ff 	imul   eax,DWORD PTR [ebp-0xc4]
10002f69:	8b 55 08             	mov    edx,DWORD PTR [ebp+0x8]
10002f6c:	8b 52 18             	mov    edx,DWORD PTR [edx+0x18]
10002f6f:	8a 52 0b             	mov    dl,BYTE PTR [edx+0xb]
10002f72:	0f b6 f2             	movzx  esi,dl
10002f75:	99                   	cdq    
10002f76:	f7 fe                	idiv   esi
10002f78:	89 c2                	mov    edx,eax
10002f7a:	8b 45 98             	mov    eax,DWORD PTR [ebp-0x68]
10002f7d:	01 d0                	add    eax,edx
10002f7f:	89 45 90             	mov    DWORD PTR [ebp-0x70],eax
10002f82:	8b 45 90             	mov    eax,DWORD PTR [ebp-0x70]
10002f85:	2b 45 ac             	sub    eax,DWORD PTR [ebp-0x54]
10002f88:	bf 02 00 00 00       	mov    edi,0x2
10002f8d:	99                   	cdq    
10002f8e:	f7 ff                	idiv   edi
10002f90:	89 c2                	mov    edx,eax
10002f92:	8b 45 ac             	mov    eax,DWORD PTR [ebp-0x54]
10002f95:	8d 34 02             	lea    esi,[edx+eax*1]
10002f98:	8b 45 b8             	mov    eax,DWORD PTR [ebp-0x48]
10002f9b:	2b 85 38 ff ff ff    	sub    eax,DWORD PTR [ebp-0xc8]
10002fa1:	bf 02 00 00 00       	mov    edi,0x2
10002fa6:	99                   	cdq    
10002fa7:	f7 ff                	idiv   edi
10002fa9:	89 c2                	mov    edx,eax
10002fab:	8b 85 38 ff ff ff    	mov    eax,DWORD PTR [ebp-0xc8]
10002fb1:	01 d0                	add    eax,edx
10002fb3:	89 85 e4 f9 fe ff    	mov    DWORD PTR [ebp-0x1061c],eax
10002fb9:	8b 45 08             	mov    eax,DWORD PTR [ebp+0x8]
10002fbc:	8b 80 a0 f5 00 00    	mov    eax,DWORD PTR [eax+0xf5a0]
10002fc2:	8b 55 90             	mov    edx,DWORD PTR [ebp-0x70]
10002fc5:	29 c2                	sub    edx,eax
10002fc7:	89 d0                	mov    eax,edx
10002fc9:	bf 02 00 00 00       	mov    edi,0x2
10002fce:	99                   	cdq    
10002fcf:	f7 ff                	idiv   edi
10002fd1:	89 c2                	mov    edx,eax
10002fd3:	8b 45 08             	mov    eax,DWORD PTR [ebp+0x8]
10002fd6:	8b 80 a0 f5 00 00    	mov    eax,DWORD PTR [eax+0xf5a0]
10002fdc:	8d 3c 02             	lea    edi,[edx+eax*1]
10002fdf:	89 bd e0 f9 fe ff    	mov    DWORD PTR [ebp-0x10620],edi
10002fe5:	8b 45 08             	mov    eax,DWORD PTR [ebp+0x8]
10002fe8:	8b 80 9c f5 00 00    	mov    eax,DWORD PTR [eax+0xf59c]
10002fee:	8b 95 38 ff ff ff    	mov    edx,DWORD PTR [ebp-0xc8]
10002ff4:	29 c2                	sub    edx,eax
10002ff6:	89 d0                	mov    eax,edx
10002ff8:	bb 02 00 00 00       	mov    ebx,0x2
10002ffd:	99                   	cdq    
10002ffe:	f7 fb                	idiv   ebx
10003000:	89 c2                	mov    edx,eax
10003002:	8b 45 08             	mov    eax,DWORD PTR [ebp+0x8]
10003005:	8b 80 9c f5 00 00    	mov    eax,DWORD PTR [eax+0xf59c]
1000300b:	8d 3c 02             	lea    edi,[edx+eax*1]
1000300e:	8b 45 08             	mov    eax,DWORD PTR [ebp+0x8]
10003011:	8b 88 a0 f5 00 00    	mov    ecx,DWORD PTR [eax+0xf5a0]
10003017:	8b 45 08             	mov    eax,DWORD PTR [ebp+0x8]
1000301a:	8b 90 9c f5 00 00    	mov    edx,DWORD PTR [eax+0xf59c]
10003020:	8b 85 3c ff ff ff    	mov    eax,DWORD PTR [ebp-0xc4]
10003026:	c1 e0 04             	shl    eax,0x4
10003029:	89 c3                	mov    ebx,eax
1000302b:	8b 45 b0             	mov    eax,DWORD PTR [ebp-0x50]
1000302e:	c1 e0 04             	shl    eax,0x4
10003031:	6a 00                	push   0x0
10003033:	ff 75 ac             	push   DWORD PTR [ebp-0x54]
10003036:	ff 75 b8             	push   DWORD PTR [ebp-0x48]
10003039:	56                   	push   esi
1000303a:	ff b5 e4 f9 fe ff    	push   DWORD PTR [ebp-0x1061c]
10003040:	ff b5 e0 f9 fe ff    	push   DWORD PTR [ebp-0x10620]
10003046:	57                   	push   edi
10003047:	51                   	push   ecx
10003048:	52                   	push   edx
10003049:	53                   	push   ebx
1000304a:	50                   	push   eax
1000304b:	ff 75 08             	push   DWORD PTR [ebp+0x8]
1000304e:	e8 0b d6 ff ff       	call   1000065e <_ssfn_b>
10003053:	83 c4 30             	add    esp,0x30
10003056:	83 45 e0 04          	add    DWORD PTR [ebp-0x20],0x4
1000305a:	e9 09 01 00 00       	jmp    10003168 <ssfn_render+0x11e6>
1000305f:	8b 45 e0             	mov    eax,DWORD PTR [ebp-0x20]
10003062:	83 c0 02             	add    eax,0x2
10003065:	8a 00                	mov    al,BYTE PTR [eax]
10003067:	0f b6 c0             	movzx  eax,al
1000306a:	c1 e0 04             	shl    eax,0x4
1000306d:	0f af 85 3c ff ff ff 	imul   eax,DWORD PTR [ebp-0xc4]
10003074:	8b 55 08             	mov    edx,DWORD PTR [ebp+0x8]
10003077:	8b 52 18             	mov    edx,DWORD PTR [edx+0x18]
1000307a:	8a 52 0b             	mov    dl,BYTE PTR [edx+0xb]
1000307d:	0f b6 fa             	movzx  edi,dl
10003080:	99                   	cdq    
10003081:	f7 ff                	idiv   edi
10003083:	89 c2                	mov    edx,eax
10003085:	8b 45 9c             	mov    eax,DWORD PTR [ebp-0x64]
10003088:	01 d0                	add    eax,edx
1000308a:	89 85 38 ff ff ff    	mov    DWORD PTR [ebp-0xc8],eax
10003090:	8b 45 e0             	mov    eax,DWORD PTR [ebp-0x20]
10003093:	83 c0 03             	add    eax,0x3
10003096:	8a 00                	mov    al,BYTE PTR [eax]
10003098:	0f b6 c0             	movzx  eax,al
1000309b:	c1 e0 04             	shl    eax,0x4
1000309e:	0f af 85 3c ff ff ff 	imul   eax,DWORD PTR [ebp-0xc4]
100030a5:	8b 55 08             	mov    edx,DWORD PTR [ebp+0x8]
100030a8:	8b 52 18             	mov    edx,DWORD PTR [edx+0x18]
100030ab:	8a 52 0b             	mov    dl,BYTE PTR [edx+0xb]
100030ae:	0f b6 f2             	movzx  esi,dl
100030b1:	99                   	cdq    
100030b2:	f7 fe                	idiv   esi
100030b4:	89 c2                	mov    edx,eax
100030b6:	8b 45 98             	mov    eax,DWORD PTR [ebp-0x68]
100030b9:	01 d0                	add    eax,edx
100030bb:	89 45 90             	mov    DWORD PTR [ebp-0x70],eax
100030be:	8b 45 e0             	mov    eax,DWORD PTR [ebp-0x20]
100030c1:	83 c0 04             	add    eax,0x4
100030c4:	8a 00                	mov    al,BYTE PTR [eax]
100030c6:	0f b6 c0             	movzx  eax,al
100030c9:	c1 e0 04             	shl    eax,0x4
100030cc:	0f af 85 3c ff ff ff 	imul   eax,DWORD PTR [ebp-0xc4]
100030d3:	8b 55 08             	mov    edx,DWORD PTR [ebp+0x8]
100030d6:	8b 52 18             	mov    edx,DWORD PTR [edx+0x18]
100030d9:	8a 52 0b             	mov    dl,BYTE PTR [edx+0xb]
100030dc:	0f b6 fa             	movzx  edi,dl
100030df:	99                   	cdq    
100030e0:	f7 ff                	idiv   edi
100030e2:	89 c2                	mov    edx,eax
100030e4:	8b 45 9c             	mov    eax,DWORD PTR [ebp-0x64]
100030e7:	01 d0                	add    eax,edx
100030e9:	89 45 8c             	mov    DWORD PTR [ebp-0x74],eax
100030ec:	8b 45 e0             	mov    eax,DWORD PTR [ebp-0x20]
100030ef:	83 c0 05             	add    eax,0x5
100030f2:	8a 00                	mov    al,BYTE PTR [eax]
100030f4:	0f b6 c0             	movzx  eax,al
100030f7:	c1 e0 04             	shl    eax,0x4
100030fa:	0f af 85 3c ff ff ff 	imul   eax,DWORD PTR [ebp-0xc4]
10003101:	8b 55 08             	mov    edx,DWORD PTR [ebp+0x8]
10003104:	8b 52 18             	mov    edx,DWORD PTR [edx+0x18]
10003107:	8a 52 0b             	mov    dl,BYTE PTR [edx+0xb]
1000310a:	0f b6 f2             	movzx  esi,dl
1000310d:	99                   	cdq    
1000310e:	f7 fe                	idiv   esi
10003110:	89 c2                	mov    edx,eax
10003112:	8b 45 98             	mov    eax,DWORD PTR [ebp-0x68]
10003115:	01 d0                	add    eax,edx
10003117:	89 45 88             	mov    DWORD PTR [ebp-0x78],eax
1000311a:	8b 45 08             	mov    eax,DWORD PTR [ebp+0x8]
1000311d:	8b 90 a0 f5 00 00    	mov    edx,DWORD PTR [eax+0xf5a0]
10003123:	8b 45 08             	mov    eax,DWORD PTR [ebp+0x8]
10003126:	8b 80 9c f5 00 00    	mov    eax,DWORD PTR [eax+0xf59c]
1000312c:	8b 8d 3c ff ff ff    	mov    ecx,DWORD PTR [ebp-0xc4]
10003132:	89 cb                	mov    ebx,ecx
10003134:	c1 e3 04             	shl    ebx,0x4
10003137:	8b 4d b0             	mov    ecx,DWORD PTR [ebp-0x50]
1000313a:	c1 e1 04             	shl    ecx,0x4
1000313d:	6a 00                	push   0x0
1000313f:	ff 75 ac             	push   DWORD PTR [ebp-0x54]
10003142:	ff 75 b8             	push   DWORD PTR [ebp-0x48]
10003145:	ff 75 88             	push   DWORD PTR [ebp-0x78]
10003148:	ff 75 8c             	push   DWORD PTR [ebp-0x74]
1000314b:	ff 75 90             	push   DWORD PTR [ebp-0x70]
1000314e:	ff b5 38 ff ff ff    	push   DWORD PTR [ebp-0xc8]
10003154:	52                   	push   edx
10003155:	50                   	push   eax
10003156:	53                   	push   ebx
10003157:	51                   	push   ecx
10003158:	ff 75 08             	push   DWORD PTR [ebp+0x8]
1000315b:	e8 fe d4 ff ff       	call   1000065e <_ssfn_b>
10003160:	83 c4 30             	add    esp,0x30
10003163:	83 45 e0 06          	add    DWORD PTR [ebp-0x20],0x6
10003167:	90                   	nop
10003168:	8b 85 e8 f9 fe ff    	mov    eax,DWORD PTR [ebp-0x10618]
1000316e:	40                   	inc    eax
1000316f:	89 85 e8 f9 fe ff    	mov    DWORD PTR [ebp-0x10618],eax
10003175:	e9 7b fc ff ff       	jmp    10002df5 <ssfn_render+0xe73>
1000317a:	8b 45 08             	mov    eax,DWORD PTR [ebp+0x8]
1000317d:	8b 90 94 f5 00 00    	mov    edx,DWORD PTR [eax+0xf594]
10003183:	8b 45 08             	mov    eax,DWORD PTR [ebp+0x8]
10003186:	8b 80 9c f5 00 00    	mov    eax,DWORD PTR [eax+0xf59c]
1000318c:	39 c2                	cmp    edx,eax
1000318e:	75 16                	jne    100031a6 <ssfn_render+0x1224>
10003190:	8b 45 08             	mov    eax,DWORD PTR [ebp+0x8]
10003193:	8b 90 98 f5 00 00    	mov    edx,DWORD PTR [eax+0xf598]
10003199:	8b 45 08             	mov    eax,DWORD PTR [ebp+0x8]
1000319c:	8b 80 a0 f5 00 00    	mov    eax,DWORD PTR [eax+0xf5a0]
100031a2:	39 c2                	cmp    edx,eax
100031a4:	74 5a                	je     10003200 <ssfn_render+0x127e>
100031a6:	8b 45 08             	mov    eax,DWORD PTR [ebp+0x8]
100031a9:	8b 90 94 f5 00 00    	mov    edx,DWORD PTR [eax+0xf594]
100031af:	8b 45 08             	mov    eax,DWORD PTR [ebp+0x8]
100031b2:	8b 88 6c f5 00 00    	mov    ecx,DWORD PTR [eax+0xf56c]
100031b8:	8b 45 08             	mov    eax,DWORD PTR [ebp+0x8]
100031bb:	8b 80 80 f5 00 00    	mov    eax,DWORD PTR [eax+0xf580]
100031c1:	01 c0                	add    eax,eax
100031c3:	01 c8                	add    eax,ecx
100031c5:	66 89 10             	mov    WORD PTR [eax],dx
100031c8:	8b 45 08             	mov    eax,DWORD PTR [ebp+0x8]
100031cb:	8b 90 98 f5 00 00    	mov    edx,DWORD PTR [eax+0xf598]
100031d1:	8b 45 08             	mov    eax,DWORD PTR [ebp+0x8]
100031d4:	8b 88 6c f5 00 00    	mov    ecx,DWORD PTR [eax+0xf56c]
100031da:	8b 45 08             	mov    eax,DWORD PTR [ebp+0x8]
100031dd:	8b 80 80 f5 00 00    	mov    eax,DWORD PTR [eax+0xf580]
100031e3:	40                   	inc    eax
100031e4:	01 c0                	add    eax,eax
100031e6:	01 c8                	add    eax,ecx
100031e8:	66 89 10             	mov    WORD PTR [eax],dx
100031eb:	8b 45 08             	mov    eax,DWORD PTR [ebp+0x8]
100031ee:	8b 80 80 f5 00 00    	mov    eax,DWORD PTR [eax+0xf580]
100031f4:	8d 50 02             	lea    edx,[eax+0x2]
100031f7:	8b 45 08             	mov    eax,DWORD PTR [ebp+0x8]
100031fa:	89 90 80 f5 00 00    	mov    DWORD PTR [eax+0xf580],edx
10003200:	8b 45 08             	mov    eax,DWORD PTR [ebp+0x8]
10003203:	8b 80 80 f5 00 00    	mov    eax,DWORD PTR [eax+0xf580]
10003209:	83 f8 04             	cmp    eax,0x4
1000320c:	0f 8e d0 0a 00 00    	jle    10003ce2 <ssfn_render+0x1d60>
10003212:	c7 45 a4 00 00 00 00 	mov    DWORD PTR [ebp-0x5c],0x0
10003219:	8b 45 a4             	mov    eax,DWORD PTR [ebp-0x5c]
1000321c:	89 45 88             	mov    DWORD PTR [ebp-0x78],eax
1000321f:	8b 45 88             	mov    eax,DWORD PTR [ebp-0x78]
10003222:	89 45 90             	mov    DWORD PTR [ebp-0x70],eax
10003225:	8b 45 90             	mov    eax,DWORD PTR [ebp-0x70]
10003228:	89 45 8c             	mov    DWORD PTR [ebp-0x74],eax
1000322b:	8b 45 8c             	mov    eax,DWORD PTR [ebp-0x74]
1000322e:	3b 85 3c ff ff ff    	cmp    eax,DWORD PTR [ebp-0xc4]
10003234:	0f 8d a8 0a 00 00    	jge    10003ce2 <ssfn_render+0x1d60>
1000323a:	8b 45 8c             	mov    eax,DWORD PTR [ebp-0x74]
1000323d:	c1 e0 04             	shl    eax,0x4
10003240:	89 85 38 ff ff ff    	mov    DWORD PTR [ebp-0xc8],eax
10003246:	c7 45 84 00 00 00 00 	mov    DWORD PTR [ebp-0x7c],0x0
1000324d:	c7 85 e8 f9 fe ff 00 00 00 00 	mov    DWORD PTR [ebp-0x10618],0x0
10003257:	8b 45 08             	mov    eax,DWORD PTR [ebp+0x8]
1000325a:	8b 80 80 f5 00 00    	mov    eax,DWORD PTR [eax+0xf580]
10003260:	8d 50 fd             	lea    edx,[eax-0x3]
10003263:	8b 85 e8 f9 fe ff    	mov    eax,DWORD PTR [ebp-0x10618]
10003269:	39 c2                	cmp    edx,eax
1000326b:	0f 8e c2 02 00 00    	jle    10003533 <ssfn_render+0x15b1>
10003271:	8b 45 08             	mov    eax,DWORD PTR [ebp+0x8]
10003274:	8b 80 6c f5 00 00    	mov    eax,DWORD PTR [eax+0xf56c]
1000327a:	8b 95 e8 f9 fe ff    	mov    edx,DWORD PTR [ebp-0x10618]
10003280:	42                   	inc    edx
10003281:	01 d2                	add    edx,edx
10003283:	01 d0                	add    eax,edx
10003285:	66 8b 00             	mov    ax,WORD PTR [eax]
10003288:	0f b7 c0             	movzx  eax,ax
1000328b:	39 85 38 ff ff ff    	cmp    DWORD PTR [ebp-0xc8],eax
10003291:	7e 24                	jle    100032b7 <ssfn_render+0x1335>
10003293:	8b 45 08             	mov    eax,DWORD PTR [ebp+0x8]
10003296:	8b 80 6c f5 00 00    	mov    eax,DWORD PTR [eax+0xf56c]
1000329c:	8b 95 e8 f9 fe ff    	mov    edx,DWORD PTR [ebp-0x10618]
100032a2:	83 c2 03             	add    edx,0x3
100032a5:	01 d2                	add    edx,edx
100032a7:	01 d0                	add    eax,edx
100032a9:	66 8b 00             	mov    ax,WORD PTR [eax]
100032ac:	0f b7 c0             	movzx  eax,ax
100032af:	39 85 38 ff ff ff    	cmp    DWORD PTR [ebp-0xc8],eax
100032b5:	7e 4e                	jle    10003305 <ssfn_render+0x1383>
100032b7:	8b 45 08             	mov    eax,DWORD PTR [ebp+0x8]
100032ba:	8b 80 6c f5 00 00    	mov    eax,DWORD PTR [eax+0xf56c]
100032c0:	8b 95 e8 f9 fe ff    	mov    edx,DWORD PTR [ebp-0x10618]
100032c6:	83 c2 03             	add    edx,0x3
100032c9:	01 d2                	add    edx,edx
100032cb:	01 d0                	add    eax,edx
100032cd:	66 8b 00             	mov    ax,WORD PTR [eax]
100032d0:	0f b7 c0             	movzx  eax,ax
100032d3:	39 85 38 ff ff ff    	cmp    DWORD PTR [ebp-0xc8],eax
100032d9:	0f 8e 40 02 00 00    	jle    1000351f <ssfn_render+0x159d>
100032df:	8b 45 08             	mov    eax,DWORD PTR [ebp+0x8]
100032e2:	8b 80 6c f5 00 00    	mov    eax,DWORD PTR [eax+0xf56c]
100032e8:	8b 95 e8 f9 fe ff    	mov    edx,DWORD PTR [ebp-0x10618]
100032ee:	42                   	inc    edx
100032ef:	01 d2                	add    edx,edx
100032f1:	01 d0                	add    eax,edx
100032f3:	66 8b 00             	mov    ax,WORD PTR [eax]
100032f6:	0f b7 c0             	movzx  eax,ax
100032f9:	39 85 38 ff ff ff    	cmp    DWORD PTR [ebp-0xc8],eax
100032ff:	0f 8f 1a 02 00 00    	jg     1000351f <ssfn_render+0x159d>
10003305:	8b 45 08             	mov    eax,DWORD PTR [ebp+0x8]
10003308:	8b 80 6c f5 00 00    	mov    eax,DWORD PTR [eax+0xf56c]
1000330e:	8b 95 e8 f9 fe ff    	mov    edx,DWORD PTR [ebp-0x10618]
10003314:	42                   	inc    edx
10003315:	01 d2                	add    edx,edx
10003317:	01 d0                	add    eax,edx
10003319:	66 8b 00             	mov    ax,WORD PTR [eax]
1000331c:	0f b7 c0             	movzx  eax,ax
1000331f:	c1 f8 04             	sar    eax,0x4
10003322:	89 c1                	mov    ecx,eax
10003324:	8b 45 08             	mov    eax,DWORD PTR [ebp+0x8]
10003327:	8b 80 6c f5 00 00    	mov    eax,DWORD PTR [eax+0xf56c]
1000332d:	8b 95 e8 f9 fe ff    	mov    edx,DWORD PTR [ebp-0x10618]
10003333:	83 c2 03             	add    edx,0x3
10003336:	01 d2                	add    edx,edx
10003338:	01 d0                	add    eax,edx
1000333a:	66 8b 00             	mov    ax,WORD PTR [eax]
1000333d:	0f b7 c0             	movzx  eax,ax
10003340:	c1 f8 04             	sar    eax,0x4
10003343:	39 c1                	cmp    ecx,eax
10003345:	75 41                	jne    10003388 <ssfn_render+0x1406>
10003347:	8b 45 08             	mov    eax,DWORD PTR [ebp+0x8]
1000334a:	8b 80 6c f5 00 00    	mov    eax,DWORD PTR [eax+0xf56c]
10003350:	8b 95 e8 f9 fe ff    	mov    edx,DWORD PTR [ebp-0x10618]
10003356:	01 d2                	add    edx,edx
10003358:	01 d0                	add    eax,edx
1000335a:	66 8b 00             	mov    ax,WORD PTR [eax]
1000335d:	0f b7 d0             	movzx  edx,ax
10003360:	8b 45 08             	mov    eax,DWORD PTR [ebp+0x8]
10003363:	8b 80 6c f5 00 00    	mov    eax,DWORD PTR [eax+0xf56c]
10003369:	8b 8d e8 f9 fe ff    	mov    ecx,DWORD PTR [ebp-0x10618]
1000336f:	83 c1 02             	add    ecx,0x2
10003372:	01 c9                	add    ecx,ecx
10003374:	01 c8                	add    eax,ecx
10003376:	66 8b 00             	mov    ax,WORD PTR [eax]
10003379:	0f b7 c0             	movzx  eax,ax
1000337c:	01 d0                	add    eax,edx
1000337e:	d1 f8                	sar    eax,1
10003380:	89 45 9c             	mov    DWORD PTR [ebp-0x64],eax
10003383:	e9 bb 00 00 00       	jmp    10003443 <ssfn_render+0x14c1>
10003388:	8b 45 08             	mov    eax,DWORD PTR [ebp+0x8]
1000338b:	8b 80 6c f5 00 00    	mov    eax,DWORD PTR [eax+0xf56c]
10003391:	8b 95 e8 f9 fe ff    	mov    edx,DWORD PTR [ebp-0x10618]
10003397:	01 d2                	add    edx,edx
10003399:	01 d0                	add    eax,edx
1000339b:	66 8b 00             	mov    ax,WORD PTR [eax]
1000339e:	0f b7 c8             	movzx  ecx,ax
100033a1:	8b 45 08             	mov    eax,DWORD PTR [ebp+0x8]
100033a4:	8b 80 6c f5 00 00    	mov    eax,DWORD PTR [eax+0xf56c]
100033aa:	8b 95 e8 f9 fe ff    	mov    edx,DWORD PTR [ebp-0x10618]
100033b0:	42                   	inc    edx
100033b1:	01 d2                	add    edx,edx
100033b3:	01 d0                	add    eax,edx
100033b5:	66 8b 00             	mov    ax,WORD PTR [eax]
100033b8:	0f b7 c0             	movzx  eax,ax
100033bb:	8b 95 38 ff ff ff    	mov    edx,DWORD PTR [ebp-0xc8]
100033c1:	89 d6                	mov    esi,edx
100033c3:	29 c6                	sub    esi,eax
100033c5:	8b 45 08             	mov    eax,DWORD PTR [ebp+0x8]
100033c8:	8b 80 6c f5 00 00    	mov    eax,DWORD PTR [eax+0xf56c]
100033ce:	8b 95 e8 f9 fe ff    	mov    edx,DWORD PTR [ebp-0x10618]
100033d4:	83 c2 02             	add    edx,0x2
100033d7:	01 d2                	add    edx,edx
100033d9:	01 d0                	add    eax,edx
100033db:	66 8b 00             	mov    ax,WORD PTR [eax]
100033de:	0f b7 d0             	movzx  edx,ax
100033e1:	8b 45 08             	mov    eax,DWORD PTR [ebp+0x8]
100033e4:	8b 80 6c f5 00 00    	mov    eax,DWORD PTR [eax+0xf56c]
100033ea:	8b 9d e8 f9 fe ff    	mov    ebx,DWORD PTR [ebp-0x10618]
100033f0:	01 db                	add    ebx,ebx
100033f2:	01 d8                	add    eax,ebx
100033f4:	66 8b 00             	mov    ax,WORD PTR [eax]
100033f7:	0f b7 c0             	movzx  eax,ax
100033fa:	29 c2                	sub    edx,eax
100033fc:	89 d0                	mov    eax,edx
100033fe:	0f af c6             	imul   eax,esi
10003401:	8b 55 08             	mov    edx,DWORD PTR [ebp+0x8]
10003404:	8b 92 6c f5 00 00    	mov    edx,DWORD PTR [edx+0xf56c]
1000340a:	8b 9d e8 f9 fe ff    	mov    ebx,DWORD PTR [ebp-0x10618]
10003410:	83 c3 03             	add    ebx,0x3
10003413:	01 db                	add    ebx,ebx
10003415:	01 da                	add    edx,ebx
10003417:	66 8b 12             	mov    dx,WORD PTR [edx]
1000341a:	0f b7 da             	movzx  ebx,dx
1000341d:	8b 55 08             	mov    edx,DWORD PTR [ebp+0x8]
10003420:	8b 92 6c f5 00 00    	mov    edx,DWORD PTR [edx+0xf56c]
10003426:	8b b5 e8 f9 fe ff    	mov    esi,DWORD PTR [ebp-0x10618]
1000342c:	46                   	inc    esi
1000342d:	01 f6                	add    esi,esi
1000342f:	01 f2                	add    edx,esi
10003431:	66 8b 12             	mov    dx,WORD PTR [edx]
10003434:	0f b7 d2             	movzx  edx,dx
10003437:	29 d3                	sub    ebx,edx
10003439:	89 df                	mov    edi,ebx
1000343b:	99                   	cdq    
1000343c:	f7 ff                	idiv   edi
1000343e:	01 c8                	add    eax,ecx
10003440:	89 45 9c             	mov    DWORD PTR [ebp-0x64],eax
10003443:	c1 7d 9c 04          	sar    DWORD PTR [ebp-0x64],0x4
10003447:	80 bd 47 ff ff ff 00 	cmp    BYTE PTR [ebp-0xb9],0x0
1000344e:	74 14                	je     10003464 <ssfn_render+0x14e2>
10003450:	8b 85 3c ff ff ff    	mov    eax,DWORD PTR [ebp-0xc4]
10003456:	2b 45 8c             	sub    eax,DWORD PTR [ebp-0x74]
10003459:	be 04 00 00 00       	mov    esi,0x4
1000345e:	99                   	cdq    
1000345f:	f7 fe                	idiv   esi
10003461:	01 45 9c             	add    DWORD PTR [ebp-0x64],eax
10003464:	80 bd 46 ff ff ff 00 	cmp    BYTE PTR [ebp-0xba],0x0
1000346b:	74 4e                	je     100034bb <ssfn_render+0x1539>
1000346d:	83 7d a4 00          	cmp    DWORD PTR [ebp-0x5c],0x0
10003471:	75 48                	jne    100034bb <ssfn_render+0x1539>
10003473:	8b 45 08             	mov    eax,DWORD PTR [ebp+0x8]
10003476:	8b 80 24 f5 00 00    	mov    eax,DWORD PTR [eax+0xf524]
1000347c:	8b 4d 88             	mov    ecx,DWORD PTR [ebp-0x78]
1000347f:	8b 55 9c             	mov    edx,DWORD PTR [ebp-0x64]
10003482:	01 ca                	add    edx,ecx
10003484:	8a 44 10 08          	mov    al,BYTE PTR [eax+edx*1+0x8]
10003488:	38 45 db             	cmp    BYTE PTR [ebp-0x25],al
1000348b:	74 18                	je     100034a5 <ssfn_render+0x1523>
1000348d:	0f b6 85 46 ff ff ff 	movzx  eax,BYTE PTR [ebp-0xba]
10003494:	f7 d8                	neg    eax
10003496:	89 45 a4             	mov    DWORD PTR [ebp-0x5c],eax
10003499:	0f b6 85 46 ff ff ff 	movzx  eax,BYTE PTR [ebp-0xba]
100034a0:	89 45 90             	mov    DWORD PTR [ebp-0x70],eax
100034a3:	eb 16                	jmp    100034bb <ssfn_render+0x1539>
100034a5:	0f b6 85 46 ff ff ff 	movzx  eax,BYTE PTR [ebp-0xba]
100034ac:	89 45 a4             	mov    DWORD PTR [ebp-0x5c],eax
100034af:	0f b6 85 46 ff ff ff 	movzx  eax,BYTE PTR [ebp-0xba]
100034b6:	f7 d8                	neg    eax
100034b8:	89 45 90             	mov    DWORD PTR [ebp-0x70],eax
100034bb:	c7 45 b8 00 00 00 00 	mov    DWORD PTR [ebp-0x48],0x0
100034c2:	8b 45 b8             	mov    eax,DWORD PTR [ebp-0x48]
100034c5:	3b 45 84             	cmp    eax,DWORD PTR [ebp-0x7c]
100034c8:	7d 18                	jge    100034e2 <ssfn_render+0x1560>
100034ca:	8b 45 b8             	mov    eax,DWORD PTR [ebp-0x48]
100034cd:	66 8b 84 45 f8 f9 fe ff 	mov    ax,WORD PTR [ebp+eax*2-0x10608]
100034d5:	0f b7 c0             	movzx  eax,ax
100034d8:	39 45 9c             	cmp    DWORD PTR [ebp-0x64],eax
100034db:	7e 05                	jle    100034e2 <ssfn_render+0x1560>
100034dd:	ff 45 b8             	inc    DWORD PTR [ebp-0x48]
100034e0:	eb e0                	jmp    100034c2 <ssfn_render+0x1540>
100034e2:	8b 45 84             	mov    eax,DWORD PTR [ebp-0x7c]
100034e5:	89 45 b4             	mov    DWORD PTR [ebp-0x4c],eax
100034e8:	8b 45 b4             	mov    eax,DWORD PTR [ebp-0x4c]
100034eb:	3b 45 b8             	cmp    eax,DWORD PTR [ebp-0x48]
100034ee:	7e 1c                	jle    1000350c <ssfn_render+0x158a>
100034f0:	8b 45 b4             	mov    eax,DWORD PTR [ebp-0x4c]
100034f3:	48                   	dec    eax
100034f4:	66 8b 94 45 f8 f9 fe ff 	mov    dx,WORD PTR [ebp+eax*2-0x10608]
100034fc:	8b 45 b4             	mov    eax,DWORD PTR [ebp-0x4c]
100034ff:	66 89 94 45 f8 f9 fe ff 	mov    WORD PTR [ebp+eax*2-0x10608],dx
10003507:	ff 4d b4             	dec    DWORD PTR [ebp-0x4c]
1000350a:	eb dc                	jmp    100034e8 <ssfn_render+0x1566>
1000350c:	8b 45 9c             	mov    eax,DWORD PTR [ebp-0x64]
1000350f:	89 c2                	mov    edx,eax
10003511:	8b 45 b8             	mov    eax,DWORD PTR [ebp-0x48]
10003514:	66 89 94 45 f8 f9 fe ff 	mov    WORD PTR [ebp+eax*2-0x10608],dx
1000351c:	ff 45 84             	inc    DWORD PTR [ebp-0x7c]
1000351f:	8b 85 e8 f9 fe ff    	mov    eax,DWORD PTR [ebp-0x10618]
10003525:	83 c0 02             	add    eax,0x2
10003528:	89 85 e8 f9 fe ff    	mov    DWORD PTR [ebp-0x10618],eax
1000352e:	e9 24 fd ff ff       	jmp    10003257 <ssfn_render+0x12d5>
10003533:	83 7d 84 01          	cmp    DWORD PTR [ebp-0x7c],0x1
10003537:	7e 27                	jle    10003560 <ssfn_render+0x15de>
10003539:	8b 45 84             	mov    eax,DWORD PTR [ebp-0x7c]
1000353c:	83 e0 01             	and    eax,0x1
1000353f:	85 c0                	test   eax,eax
10003541:	74 1d                	je     10003560 <ssfn_render+0x15de>
10003543:	8b 45 84             	mov    eax,DWORD PTR [ebp-0x7c]
10003546:	48                   	dec    eax
10003547:	8b 55 84             	mov    edx,DWORD PTR [ebp-0x7c]
1000354a:	83 ea 02             	sub    edx,0x2
1000354d:	66 8b 84 45 f8 f9 fe ff 	mov    ax,WORD PTR [ebp+eax*2-0x10608]
10003555:	66 89 84 55 f8 f9 fe ff 	mov    WORD PTR [ebp+edx*2-0x10608],ax
1000355d:	ff 4d 84             	dec    DWORD PTR [ebp-0x7c]
10003560:	83 7d 84 00          	cmp    DWORD PTR [ebp-0x7c],0x0
10003564:	0f 84 36 01 00 00    	je     100036a0 <ssfn_render+0x171e>
1000356a:	8b 45 08             	mov    eax,DWORD PTR [ebp+0x8]
1000356d:	8b 80 24 f5 00 00    	mov    eax,DWORD PTR [eax+0xf524]
10003573:	8a 40 07             	mov    al,BYTE PTR [eax+0x7]
10003576:	0f b6 c0             	movzx  eax,al
10003579:	8b 4d 98             	mov    ecx,DWORD PTR [ebp-0x68]
1000357c:	8b 55 8c             	mov    edx,DWORD PTR [ebp-0x74]
1000357f:	01 ca                	add    edx,ecx
10003581:	39 d0                	cmp    eax,edx
10003583:	7d 18                	jge    1000359d <ssfn_render+0x161b>
10003585:	8b 45 98             	mov    eax,DWORD PTR [ebp-0x68]
10003588:	88 c1                	mov    cl,al
1000358a:	8b 45 8c             	mov    eax,DWORD PTR [ebp-0x74]
1000358d:	88 c2                	mov    dl,al
1000358f:	8b 45 08             	mov    eax,DWORD PTR [ebp+0x8]
10003592:	8b 80 24 f5 00 00    	mov    eax,DWORD PTR [eax+0xf524]
10003598:	01 ca                	add    edx,ecx
1000359a:	88 50 07             	mov    BYTE PTR [eax+0x7],dl
1000359d:	c7 85 e8 f9 fe ff 00 00 00 00 	mov    DWORD PTR [ebp-0x10618],0x0
100035a7:	8b 45 84             	mov    eax,DWORD PTR [ebp-0x7c]
100035aa:	8d 50 ff             	lea    edx,[eax-0x1]
100035ad:	8b 85 e8 f9 fe ff    	mov    eax,DWORD PTR [ebp-0x10618]
100035b3:	39 c2                	cmp    edx,eax
100035b5:	0f 8e e5 00 00 00    	jle    100036a0 <ssfn_render+0x171e>
100035bb:	8b 85 e8 f9 fe ff    	mov    eax,DWORD PTR [ebp-0x10618]
100035c1:	66 8b 84 45 f8 f9 fe ff 	mov    ax,WORD PTR [ebp+eax*2-0x10608]
100035c9:	0f b7 d0             	movzx  edx,ax
100035cc:	8b 45 a4             	mov    eax,DWORD PTR [ebp-0x5c]
100035cf:	01 d0                	add    eax,edx
100035d1:	89 45 b4             	mov    DWORD PTR [ebp-0x4c],eax
100035d4:	8b 85 e8 f9 fe ff    	mov    eax,DWORD PTR [ebp-0x10618]
100035da:	40                   	inc    eax
100035db:	66 8b 84 45 f8 f9 fe ff 	mov    ax,WORD PTR [ebp+eax*2-0x10608]
100035e3:	0f b7 d0             	movzx  edx,ax
100035e6:	8b 45 90             	mov    eax,DWORD PTR [ebp-0x70]
100035e9:	01 d0                	add    eax,edx
100035eb:	89 45 ac             	mov    DWORD PTR [ebp-0x54],eax
100035ee:	83 7d b4 00          	cmp    DWORD PTR [ebp-0x4c],0x0
100035f2:	79 07                	jns    100035fb <ssfn_render+0x1679>
100035f4:	c7 45 b4 00 00 00 00 	mov    DWORD PTR [ebp-0x4c],0x0
100035fb:	8b 45 ac             	mov    eax,DWORD PTR [ebp-0x54]
100035fe:	3b 45 b0             	cmp    eax,DWORD PTR [ebp-0x50]
10003601:	7e 06                	jle    10003609 <ssfn_render+0x1687>
10003603:	8b 45 b0             	mov    eax,DWORD PTR [ebp-0x50]
10003606:	89 45 ac             	mov    DWORD PTR [ebp-0x54],eax
10003609:	8b 85 e8 f9 fe ff    	mov    eax,DWORD PTR [ebp-0x10618]
1000360f:	85 c0                	test   eax,eax
10003611:	7e 36                	jle    10003649 <ssfn_render+0x16c7>
10003613:	8b 85 e8 f9 fe ff    	mov    eax,DWORD PTR [ebp-0x10618]
10003619:	48                   	dec    eax
1000361a:	66 8b 84 45 f8 f9 fe ff 	mov    ax,WORD PTR [ebp+eax*2-0x10608]
10003622:	0f b7 d0             	movzx  edx,ax
10003625:	8b 45 90             	mov    eax,DWORD PTR [ebp-0x70]
10003628:	01 d0                	add    eax,edx
1000362a:	39 45 b4             	cmp    DWORD PTR [ebp-0x4c],eax
1000362d:	7d 1a                	jge    10003649 <ssfn_render+0x16c7>
1000362f:	8b 85 e8 f9 fe ff    	mov    eax,DWORD PTR [ebp-0x10618]
10003635:	48                   	dec    eax
10003636:	66 8b 84 45 f8 f9 fe ff 	mov    ax,WORD PTR [ebp+eax*2-0x10608]
1000363e:	0f b7 d0             	movzx  edx,ax
10003641:	8b 45 90             	mov    eax,DWORD PTR [ebp-0x70]
10003644:	01 d0                	add    eax,edx
10003646:	89 45 b4             	mov    DWORD PTR [ebp-0x4c],eax
10003649:	8b 45 b4             	mov    eax,DWORD PTR [ebp-0x4c]
1000364c:	3b 45 ac             	cmp    eax,DWORD PTR [ebp-0x54]
1000364f:	7d 3b                	jge    1000368c <ssfn_render+0x170a>
10003651:	8b 45 08             	mov    eax,DWORD PTR [ebp+0x8]
10003654:	8b 80 24 f5 00 00    	mov    eax,DWORD PTR [eax+0xf524]
1000365a:	8b 4d 88             	mov    ecx,DWORD PTR [ebp-0x78]
1000365d:	8b 55 b4             	mov    edx,DWORD PTR [ebp-0x4c]
10003660:	01 ca                	add    edx,ecx
10003662:	8a 44 10 08          	mov    al,BYTE PTR [eax+edx*1+0x8]
10003666:	38 45 db             	cmp    BYTE PTR [ebp-0x25],al
10003669:	74 05                	je     10003670 <ssfn_render+0x16ee>
1000366b:	8a 45 db             	mov    al,BYTE PTR [ebp-0x25]
1000366e:	eb 02                	jmp    10003672 <ssfn_render+0x16f0>
10003670:	b0 ff                	mov    al,0xff
10003672:	8b 55 08             	mov    edx,DWORD PTR [ebp+0x8]
10003675:	8b 92 24 f5 00 00    	mov    edx,DWORD PTR [edx+0xf524]
1000367b:	8b 5d 88             	mov    ebx,DWORD PTR [ebp-0x78]
1000367e:	8b 4d b4             	mov    ecx,DWORD PTR [ebp-0x4c]
10003681:	01 d9                	add    ecx,ebx
10003683:	88 44 0a 08          	mov    BYTE PTR [edx+ecx*1+0x8],al
10003687:	ff 45 b4             	inc    DWORD PTR [ebp-0x4c]
1000368a:	eb bd                	jmp    10003649 <ssfn_render+0x16c7>
1000368c:	8b 85 e8 f9 fe ff    	mov    eax,DWORD PTR [ebp-0x10618]
10003692:	83 c0 02             	add    eax,0x2
10003695:	89 85 e8 f9 fe ff    	mov    DWORD PTR [ebp-0x10618],eax
1000369b:	e9 07 ff ff ff       	jmp    100035a7 <ssfn_render+0x1625>
100036a0:	ff 45 8c             	inc    DWORD PTR [ebp-0x74]
100036a3:	8b 45 b0             	mov    eax,DWORD PTR [ebp-0x50]
100036a6:	01 45 88             	add    DWORD PTR [ebp-0x78],eax
100036a9:	e9 7d fb ff ff       	jmp    1000322b <ssfn_render+0x12a9>
100036ae:	8b 45 e0             	mov    eax,DWORD PTR [ebp-0x20]
100036b1:	8a 00                	mov    al,BYTE PTR [eax]
100036b3:	0f b6 c0             	movzx  eax,al
100036b6:	83 e0 60             	and    eax,0x60
100036b9:	85 c0                	test   eax,eax
100036bb:	0f 85 c1 03 00 00    	jne    10003a82 <ssfn_render+0x1b00>
100036c1:	8b 45 e0             	mov    eax,DWORD PTR [ebp-0x20]
100036c4:	8a 00                	mov    al,BYTE PTR [eax]
100036c6:	0f b6 c0             	movzx  eax,al
100036c9:	83 e0 1f             	and    eax,0x1f
100036cc:	40                   	inc    eax
100036cd:	c1 e0 03             	shl    eax,0x3
100036d0:	89 45 88             	mov    DWORD PTR [ebp-0x78],eax
100036d3:	8b 45 e0             	mov    eax,DWORD PTR [ebp-0x20]
100036d6:	40                   	inc    eax
100036d7:	8a 00                	mov    al,BYTE PTR [eax]
100036d9:	0f b6 c0             	movzx  eax,al
100036dc:	40                   	inc    eax
100036dd:	89 45 90             	mov    DWORD PTR [ebp-0x70],eax
100036e0:	c1 7d 9c 04          	sar    DWORD PTR [ebp-0x64],0x4
100036e4:	c1 7d 98 04          	sar    DWORD PTR [ebp-0x68],0x4
100036e8:	8b 45 88             	mov    eax,DWORD PTR [ebp-0x78]
100036eb:	0f af 85 3c ff ff ff 	imul   eax,DWORD PTR [ebp-0xc4]
100036f2:	8b 55 08             	mov    edx,DWORD PTR [ebp+0x8]
100036f5:	8b 52 18             	mov    edx,DWORD PTR [edx+0x18]
100036f8:	8a 52 0b             	mov    dl,BYTE PTR [edx+0xb]
100036fb:	0f b6 f2             	movzx  esi,dl
100036fe:	99                   	cdq    
100036ff:	f7 fe                	idiv   esi
10003701:	89 45 8c             	mov    DWORD PTR [ebp-0x74],eax
10003704:	8b 45 90             	mov    eax,DWORD PTR [ebp-0x70]
10003707:	0f af 85 3c ff ff ff 	imul   eax,DWORD PTR [ebp-0xc4]
1000370e:	8b 55 08             	mov    edx,DWORD PTR [ebp+0x8]
10003711:	8b 52 18             	mov    edx,DWORD PTR [edx+0x18]
10003714:	8a 52 0b             	mov    dl,BYTE PTR [edx+0xb]
10003717:	0f b6 fa             	movzx  edi,dl
1000371a:	99                   	cdq    
1000371b:	f7 ff                	idiv   edi
1000371d:	89 85 38 ff ff ff    	mov    DWORD PTR [ebp-0xc8],eax
10003723:	8b 45 08             	mov    eax,DWORD PTR [ebp+0x8]
10003726:	8b 80 24 f5 00 00    	mov    eax,DWORD PTR [eax+0xf524]
1000372c:	8a 40 07             	mov    al,BYTE PTR [eax+0x7]
1000372f:	0f b6 c0             	movzx  eax,al
10003732:	8b 4d 98             	mov    ecx,DWORD PTR [ebp-0x68]
10003735:	8b 95 38 ff ff ff    	mov    edx,DWORD PTR [ebp-0xc8]
1000373b:	01 ca                	add    edx,ecx
1000373d:	39 d0                	cmp    eax,edx
1000373f:	7d 1b                	jge    1000375c <ssfn_render+0x17da>
10003741:	8b 45 98             	mov    eax,DWORD PTR [ebp-0x68]
10003744:	88 c1                	mov    cl,al
10003746:	8b 85 38 ff ff ff    	mov    eax,DWORD PTR [ebp-0xc8]
1000374c:	88 c2                	mov    dl,al
1000374e:	8b 45 08             	mov    eax,DWORD PTR [ebp+0x8]
10003751:	8b 80 24 f5 00 00    	mov    eax,DWORD PTR [eax+0xf524]
10003757:	01 ca                	add    edx,ecx
10003759:	88 50 07             	mov    BYTE PTR [eax+0x7],dl
1000375c:	83 45 e0 02          	add    DWORD PTR [ebp-0x20],0x2
10003760:	c7 45 bc 00 00 00 00 	mov    DWORD PTR [ebp-0x44],0x0
10003767:	8b 45 bc             	mov    eax,DWORD PTR [ebp-0x44]
1000376a:	3b 85 38 ff ff ff    	cmp    eax,DWORD PTR [ebp-0xc8]
10003770:	0f 8d fa 00 00 00    	jge    10003870 <ssfn_render+0x18ee>
10003776:	8b 45 bc             	mov    eax,DWORD PTR [ebp-0x44]
10003779:	0f af 45 90          	imul   eax,DWORD PTR [ebp-0x70]
1000377d:	99                   	cdq    
1000377e:	f7 bd 38 ff ff ff    	idiv   DWORD PTR [ebp-0xc8]
10003784:	89 45 b8             	mov    DWORD PTR [ebp-0x48],eax
10003787:	8b 55 98             	mov    edx,DWORD PTR [ebp-0x68]
1000378a:	8b 45 bc             	mov    eax,DWORD PTR [ebp-0x44]
1000378d:	01 d0                	add    eax,edx
1000378f:	0f af 45 b0          	imul   eax,DWORD PTR [ebp-0x50]
10003793:	89 c2                	mov    edx,eax
10003795:	8b 45 9c             	mov    eax,DWORD PTR [ebp-0x64]
10003798:	8d 0c 02             	lea    ecx,[edx+eax*1]
1000379b:	80 bd 47 ff ff ff 00 	cmp    BYTE PTR [ebp-0xb9],0x0
100037a2:	74 16                	je     100037ba <ssfn_render+0x1838>
100037a4:	8b 85 3c ff ff ff    	mov    eax,DWORD PTR [ebp-0xc4]
100037aa:	2b 45 98             	sub    eax,DWORD PTR [ebp-0x68]
100037ad:	2b 45 bc             	sub    eax,DWORD PTR [ebp-0x44]
100037b0:	be 04 00 00 00       	mov    esi,0x4
100037b5:	99                   	cdq    
100037b6:	f7 fe                	idiv   esi
100037b8:	eb 05                	jmp    100037bf <ssfn_render+0x183d>
100037ba:	b8 00 00 00 00       	mov    eax,0x0
100037bf:	01 c8                	add    eax,ecx
100037c1:	89 45 b4             	mov    DWORD PTR [ebp-0x4c],eax
100037c4:	c7 85 e8 f9 fe ff 00 00 00 00 	mov    DWORD PTR [ebp-0x10618],0x0
100037ce:	8b 85 e8 f9 fe ff    	mov    eax,DWORD PTR [ebp-0x10618]
100037d4:	39 45 8c             	cmp    DWORD PTR [ebp-0x74],eax
100037d7:	0f 8e 8b 00 00 00    	jle    10003868 <ssfn_render+0x18e6>
100037dd:	8b 85 e8 f9 fe ff    	mov    eax,DWORD PTR [ebp-0x10618]
100037e3:	0f af 45 88          	imul   eax,DWORD PTR [ebp-0x78]
100037e7:	99                   	cdq    
100037e8:	f7 7d 8c             	idiv   DWORD PTR [ebp-0x74]
100037eb:	89 45 ac             	mov    DWORD PTR [ebp-0x54],eax
100037ee:	8b 45 b8             	mov    eax,DWORD PTR [ebp-0x48]
100037f1:	0f af 45 88          	imul   eax,DWORD PTR [ebp-0x78]
100037f5:	89 c2                	mov    edx,eax
100037f7:	8b 45 ac             	mov    eax,DWORD PTR [ebp-0x54]
100037fa:	01 d0                	add    eax,edx
100037fc:	c1 f8 03             	sar    eax,0x3
100037ff:	89 c2                	mov    edx,eax
10003801:	8b 45 e0             	mov    eax,DWORD PTR [ebp-0x20]
10003804:	01 d0                	add    eax,edx
10003806:	8a 00                	mov    al,BYTE PTR [eax]
10003808:	0f b6 d0             	movzx  edx,al
1000380b:	8b 45 ac             	mov    eax,DWORD PTR [ebp-0x54]
1000380e:	83 e0 07             	and    eax,0x7
10003811:	88 c1                	mov    cl,al
10003813:	d3 fa                	sar    edx,cl
10003815:	89 d0                	mov    eax,edx
10003817:	83 e0 01             	and    eax,0x1
1000381a:	85 c0                	test   eax,eax
1000381c:	74 38                	je     10003856 <ssfn_render+0x18d4>
1000381e:	c7 45 a4 00 00 00 00 	mov    DWORD PTR [ebp-0x5c],0x0
10003825:	0f b6 85 46 ff ff ff 	movzx  eax,BYTE PTR [ebp-0xba]
1000382c:	39 45 a4             	cmp    DWORD PTR [ebp-0x5c],eax
1000382f:	7f 25                	jg     10003856 <ssfn_render+0x18d4>
10003831:	8b 45 08             	mov    eax,DWORD PTR [ebp+0x8]
10003834:	8b 80 24 f5 00 00    	mov    eax,DWORD PTR [eax+0xf524]
1000383a:	8b 8d e8 f9 fe ff    	mov    ecx,DWORD PTR [ebp-0x10618]
10003840:	8b 55 b4             	mov    edx,DWORD PTR [ebp-0x4c]
10003843:	01 d1                	add    ecx,edx
10003845:	8b 55 a4             	mov    edx,DWORD PTR [ebp-0x5c]
10003848:	01 d1                	add    ecx,edx
1000384a:	8a 55 db             	mov    dl,BYTE PTR [ebp-0x25]
1000384d:	88 54 08 08          	mov    BYTE PTR [eax+ecx*1+0x8],dl
10003851:	ff 45 a4             	inc    DWORD PTR [ebp-0x5c]
10003854:	eb cf                	jmp    10003825 <ssfn_render+0x18a3>
10003856:	8b 85 e8 f9 fe ff    	mov    eax,DWORD PTR [ebp-0x10618]
1000385c:	40                   	inc    eax
1000385d:	89 85 e8 f9 fe ff    	mov    DWORD PTR [ebp-0x10618],eax
10003863:	e9 66 ff ff ff       	jmp    100037ce <ssfn_render+0x184c>
10003868:	ff 45 bc             	inc    DWORD PTR [ebp-0x44]
1000386b:	e9 f7 fe ff ff       	jmp    10003767 <ssfn_render+0x17e5>
10003870:	8b 45 08             	mov    eax,DWORD PTR [ebp+0x8]
10003873:	8b 80 bc f5 00 00    	mov    eax,DWORD PTR [eax+0xf5bc]
10003879:	83 e0 40             	and    eax,0x40
1000387c:	85 c0                	test   eax,eax
1000387e:	0f 85 5e 04 00 00    	jne    10003ce2 <ssfn_render+0x1d60>
10003884:	80 7d db fd          	cmp    BYTE PTR [ebp-0x25],0xfd
10003888:	75 07                	jne    10003891 <ssfn_render+0x190f>
1000388a:	b8 fc 00 00 00       	mov    eax,0xfc
1000388f:	eb 05                	jmp    10003896 <ssfn_render+0x1914>
10003891:	b8 fd 00 00 00       	mov    eax,0xfd
10003896:	89 45 ac             	mov    DWORD PTR [ebp-0x54],eax
10003899:	8b 45 98             	mov    eax,DWORD PTR [ebp-0x68]
1000389c:	0f af 45 b0          	imul   eax,DWORD PTR [ebp-0x50]
100038a0:	89 c2                	mov    edx,eax
100038a2:	8b 45 b0             	mov    eax,DWORD PTR [ebp-0x50]
100038a5:	01 c2                	add    edx,eax
100038a7:	8b 45 9c             	mov    eax,DWORD PTR [ebp-0x64]
100038aa:	01 d0                	add    eax,edx
100038ac:	89 45 a4             	mov    DWORD PTR [ebp-0x5c],eax
100038af:	8b 85 3c ff ff ff    	mov    eax,DWORD PTR [ebp-0xc4]
100038b5:	89 45 b8             	mov    DWORD PTR [ebp-0x48],eax
100038b8:	8b 45 08             	mov    eax,DWORD PTR [ebp+0x8]
100038bb:	8b 40 18             	mov    eax,DWORD PTR [eax+0x18]
100038be:	8a 40 0b             	mov    al,BYTE PTR [eax+0xb]
100038c1:	0f b6 c0             	movzx  eax,al
100038c4:	83 c0 04             	add    eax,0x4
100038c7:	39 45 b8             	cmp    DWORD PTR [ebp-0x48],eax
100038ca:	0f 8e 12 04 00 00    	jle    10003ce2 <ssfn_render+0x1d60>
100038d0:	c7 45 bc 01 00 00 00 	mov    DWORD PTR [ebp-0x44],0x1
100038d7:	8b 45 a4             	mov    eax,DWORD PTR [ebp-0x5c]
100038da:	89 45 b4             	mov    DWORD PTR [ebp-0x4c],eax
100038dd:	8b 85 38 ff ff ff    	mov    eax,DWORD PTR [ebp-0xc8]
100038e3:	48                   	dec    eax
100038e4:	39 45 bc             	cmp    DWORD PTR [ebp-0x44],eax
100038e7:	0f 8d f7 00 00 00    	jge    100039e4 <ssfn_render+0x1a62>
100038ed:	c7 85 e8 f9 fe ff 01 00 00 00 	mov    DWORD PTR [ebp-0x10618],0x1
100038f7:	8b 45 8c             	mov    eax,DWORD PTR [ebp-0x74]
100038fa:	8d 50 ff             	lea    edx,[eax-0x1]
100038fd:	8b 85 e8 f9 fe ff    	mov    eax,DWORD PTR [ebp-0x10618]
10003903:	39 c2                	cmp    edx,eax
10003905:	0f 8e cb 00 00 00    	jle    100039d6 <ssfn_render+0x1a54>
1000390b:	8b 45 08             	mov    eax,DWORD PTR [ebp+0x8]
1000390e:	8b 80 24 f5 00 00    	mov    eax,DWORD PTR [eax+0xf524]
10003914:	8b 8d e8 f9 fe ff    	mov    ecx,DWORD PTR [ebp-0x10618]
1000391a:	8b 55 b4             	mov    edx,DWORD PTR [ebp-0x4c]
1000391d:	01 ca                	add    edx,ecx
1000391f:	8a 44 10 08          	mov    al,BYTE PTR [eax+edx*1+0x8]
10003923:	3c ff                	cmp    al,0xff
10003925:	0f 85 99 00 00 00    	jne    100039c4 <ssfn_render+0x1a42>
1000392b:	8b 45 08             	mov    eax,DWORD PTR [ebp+0x8]
1000392e:	8b 90 24 f5 00 00    	mov    edx,DWORD PTR [eax+0xf524]
10003934:	8b 8d e8 f9 fe ff    	mov    ecx,DWORD PTR [ebp-0x10618]
1000393a:	8b 45 b4             	mov    eax,DWORD PTR [ebp-0x4c]
1000393d:	01 c8                	add    eax,ecx
1000393f:	2b 45 b0             	sub    eax,DWORD PTR [ebp-0x50]
10003942:	8a 44 02 08          	mov    al,BYTE PTR [edx+eax*1+0x8]
10003946:	38 45 db             	cmp    BYTE PTR [ebp-0x25],al
10003949:	74 22                	je     1000396d <ssfn_render+0x19eb>
1000394b:	8b 45 08             	mov    eax,DWORD PTR [ebp+0x8]
1000394e:	8b 80 24 f5 00 00    	mov    eax,DWORD PTR [eax+0xf524]
10003954:	8b 8d e8 f9 fe ff    	mov    ecx,DWORD PTR [ebp-0x10618]
1000395a:	8b 55 b4             	mov    edx,DWORD PTR [ebp-0x4c]
1000395d:	01 d1                	add    ecx,edx
1000395f:	8b 55 b0             	mov    edx,DWORD PTR [ebp-0x50]
10003962:	01 ca                	add    edx,ecx
10003964:	8a 44 10 08          	mov    al,BYTE PTR [eax+edx*1+0x8]
10003968:	38 45 db             	cmp    BYTE PTR [ebp-0x25],al
1000396b:	75 57                	jne    100039c4 <ssfn_render+0x1a42>
1000396d:	8b 45 08             	mov    eax,DWORD PTR [ebp+0x8]
10003970:	8b 80 24 f5 00 00    	mov    eax,DWORD PTR [eax+0xf524]
10003976:	8b 8d e8 f9 fe ff    	mov    ecx,DWORD PTR [ebp-0x10618]
1000397c:	8b 55 b4             	mov    edx,DWORD PTR [ebp-0x4c]
1000397f:	01 ca                	add    edx,ecx
10003981:	4a                   	dec    edx
10003982:	8a 44 10 08          	mov    al,BYTE PTR [eax+edx*1+0x8]
10003986:	38 45 db             	cmp    BYTE PTR [ebp-0x25],al
10003989:	74 1e                	je     100039a9 <ssfn_render+0x1a27>
1000398b:	8b 45 08             	mov    eax,DWORD PTR [ebp+0x8]
1000398e:	8b 80 24 f5 00 00    	mov    eax,DWORD PTR [eax+0xf524]
10003994:	8b 8d e8 f9 fe ff    	mov    ecx,DWORD PTR [ebp-0x10618]
1000399a:	8b 55 b4             	mov    edx,DWORD PTR [ebp-0x4c]
1000399d:	01 ca                	add    edx,ecx
1000399f:	42                   	inc    edx
100039a0:	8a 44 10 08          	mov    al,BYTE PTR [eax+edx*1+0x8]
100039a4:	38 45 db             	cmp    BYTE PTR [ebp-0x25],al
100039a7:	75 1b                	jne    100039c4 <ssfn_render+0x1a42>
100039a9:	8b 45 08             	mov    eax,DWORD PTR [ebp+0x8]
100039ac:	8b 80 24 f5 00 00    	mov    eax,DWORD PTR [eax+0xf524]
100039b2:	8b 8d e8 f9 fe ff    	mov    ecx,DWORD PTR [ebp-0x10618]
100039b8:	8b 55 b4             	mov    edx,DWORD PTR [ebp-0x4c]
100039bb:	01 ca                	add    edx,ecx
100039bd:	8b 4d ac             	mov    ecx,DWORD PTR [ebp-0x54]
100039c0:	88 4c 10 08          	mov    BYTE PTR [eax+edx*1+0x8],cl
100039c4:	8b 85 e8 f9 fe ff    	mov    eax,DWORD PTR [ebp-0x10618]
100039ca:	40                   	inc    eax
100039cb:	89 85 e8 f9 fe ff    	mov    DWORD PTR [ebp-0x10618],eax
100039d1:	e9 21 ff ff ff       	jmp    100038f7 <ssfn_render+0x1975>
100039d6:	ff 45 bc             	inc    DWORD PTR [ebp-0x44]
100039d9:	8b 45 b0             	mov    eax,DWORD PTR [ebp-0x50]
100039dc:	01 45 b4             	add    DWORD PTR [ebp-0x4c],eax
100039df:	e9 f9 fe ff ff       	jmp    100038dd <ssfn_render+0x195b>
100039e4:	c7 45 bc 01 00 00 00 	mov    DWORD PTR [ebp-0x44],0x1
100039eb:	8b 45 a4             	mov    eax,DWORD PTR [ebp-0x5c]
100039ee:	89 45 b4             	mov    DWORD PTR [ebp-0x4c],eax
100039f1:	8b 85 38 ff ff ff    	mov    eax,DWORD PTR [ebp-0xc8]
100039f7:	48                   	dec    eax
100039f8:	39 45 bc             	cmp    DWORD PTR [ebp-0x44],eax
100039fb:	7d 6f                	jge    10003a6c <ssfn_render+0x1aea>
100039fd:	c7 85 e8 f9 fe ff 01 00 00 00 	mov    DWORD PTR [ebp-0x10618],0x1
10003a07:	8b 45 8c             	mov    eax,DWORD PTR [ebp-0x74]
10003a0a:	8d 50 ff             	lea    edx,[eax-0x1]
10003a0d:	8b 85 e8 f9 fe ff    	mov    eax,DWORD PTR [ebp-0x10618]
10003a13:	39 c2                	cmp    edx,eax
10003a15:	7e 4a                	jle    10003a61 <ssfn_render+0x1adf>
10003a17:	8b 45 08             	mov    eax,DWORD PTR [ebp+0x8]
10003a1a:	8b 80 24 f5 00 00    	mov    eax,DWORD PTR [eax+0xf524]
10003a20:	8b 8d e8 f9 fe ff    	mov    ecx,DWORD PTR [ebp-0x10618]
10003a26:	8b 55 b4             	mov    edx,DWORD PTR [ebp-0x4c]
10003a29:	01 ca                	add    edx,ecx
10003a2b:	8a 44 10 08          	mov    al,BYTE PTR [eax+edx*1+0x8]
10003a2f:	0f b6 c0             	movzx  eax,al
10003a32:	39 45 ac             	cmp    DWORD PTR [ebp-0x54],eax
10003a35:	75 1b                	jne    10003a52 <ssfn_render+0x1ad0>
10003a37:	8b 45 08             	mov    eax,DWORD PTR [ebp+0x8]
10003a3a:	8b 80 24 f5 00 00    	mov    eax,DWORD PTR [eax+0xf524]
10003a40:	8b 8d e8 f9 fe ff    	mov    ecx,DWORD PTR [ebp-0x10618]
10003a46:	8b 55 b4             	mov    edx,DWORD PTR [ebp-0x4c]
10003a49:	01 d1                	add    ecx,edx
10003a4b:	8a 55 db             	mov    dl,BYTE PTR [ebp-0x25]
10003a4e:	88 54 08 08          	mov    BYTE PTR [eax+ecx*1+0x8],dl
10003a52:	8b 85 e8 f9 fe ff    	mov    eax,DWORD PTR [ebp-0x10618]
10003a58:	40                   	inc    eax
10003a59:	89 85 e8 f9 fe ff    	mov    DWORD PTR [ebp-0x10618],eax
10003a5f:	eb a6                	jmp    10003a07 <ssfn_render+0x1a85>
10003a61:	ff 45 bc             	inc    DWORD PTR [ebp-0x44]
10003a64:	8b 45 b0             	mov    eax,DWORD PTR [ebp-0x50]
10003a67:	01 45 b4             	add    DWORD PTR [ebp-0x4c],eax
10003a6a:	eb 85                	jmp    100039f1 <ssfn_render+0x1a6f>
10003a6c:	8b 45 08             	mov    eax,DWORD PTR [ebp+0x8]
10003a6f:	8b 40 18             	mov    eax,DWORD PTR [eax+0x18]
10003a72:	8a 40 0b             	mov    al,BYTE PTR [eax+0xb]
10003a75:	0f b6 c0             	movzx  eax,al
10003a78:	01 c0                	add    eax,eax
10003a7a:	29 45 b8             	sub    DWORD PTR [ebp-0x48],eax
10003a7d:	e9 36 fe ff ff       	jmp    100038b8 <ssfn_render+0x1936>
10003a82:	8b 45 e0             	mov    eax,DWORD PTR [ebp-0x20]
10003a85:	8a 00                	mov    al,BYTE PTR [eax]
10003a87:	0f b6 c0             	movzx  eax,al
10003a8a:	83 e0 60             	and    eax,0x60
10003a8d:	83 f8 20             	cmp    eax,0x20
10003a90:	0f 85 4c 02 00 00    	jne    10003ce2 <ssfn_render+0x1d60>
10003a96:	8b 45 e0             	mov    eax,DWORD PTR [ebp-0x20]
10003a99:	8a 00                	mov    al,BYTE PTR [eax]
10003a9b:	0f b6 c0             	movzx  eax,al
10003a9e:	c1 e0 08             	shl    eax,0x8
10003aa1:	25 00 1f 00 00       	and    eax,0x1f00
10003aa6:	89 c2                	mov    edx,eax
10003aa8:	8b 45 e0             	mov    eax,DWORD PTR [ebp-0x20]
10003aab:	40                   	inc    eax
10003aac:	8a 00                	mov    al,BYTE PTR [eax]
10003aae:	0f b6 c0             	movzx  eax,al
10003ab1:	09 d0                	or     eax,edx
10003ab3:	40                   	inc    eax
10003ab4:	89 45 b8             	mov    DWORD PTR [ebp-0x48],eax
10003ab7:	8b 45 e0             	mov    eax,DWORD PTR [ebp-0x20]
10003aba:	83 c0 02             	add    eax,0x2
10003abd:	8a 00                	mov    al,BYTE PTR [eax]
10003abf:	0f b6 c0             	movzx  eax,al
10003ac2:	40                   	inc    eax
10003ac3:	89 45 88             	mov    DWORD PTR [ebp-0x78],eax
10003ac6:	8b 45 e0             	mov    eax,DWORD PTR [ebp-0x20]
10003ac9:	83 c0 03             	add    eax,0x3
10003acc:	8a 00                	mov    al,BYTE PTR [eax]
10003ace:	0f b6 c0             	movzx  eax,al
10003ad1:	40                   	inc    eax
10003ad2:	89 45 90             	mov    DWORD PTR [ebp-0x70],eax
10003ad5:	c1 7d 9c 04          	sar    DWORD PTR [ebp-0x64],0x4
10003ad9:	c1 7d 98 04          	sar    DWORD PTR [ebp-0x68],0x4
10003add:	8b 45 88             	mov    eax,DWORD PTR [ebp-0x78]
10003ae0:	0f af 85 3c ff ff ff 	imul   eax,DWORD PTR [ebp-0xc4]
10003ae7:	8b 55 08             	mov    edx,DWORD PTR [ebp+0x8]
10003aea:	8b 52 18             	mov    edx,DWORD PTR [edx+0x18]
10003aed:	8a 52 0b             	mov    dl,BYTE PTR [edx+0xb]
10003af0:	0f b6 f2             	movzx  esi,dl
10003af3:	99                   	cdq    
10003af4:	f7 fe                	idiv   esi
10003af6:	89 45 8c             	mov    DWORD PTR [ebp-0x74],eax
10003af9:	8b 45 90             	mov    eax,DWORD PTR [ebp-0x70]
10003afc:	0f af 85 3c ff ff ff 	imul   eax,DWORD PTR [ebp-0xc4]
10003b03:	8b 55 08             	mov    edx,DWORD PTR [ebp+0x8]
10003b06:	8b 52 18             	mov    edx,DWORD PTR [edx+0x18]
10003b09:	8a 52 0b             	mov    dl,BYTE PTR [edx+0xb]
10003b0c:	0f b6 fa             	movzx  edi,dl
10003b0f:	99                   	cdq    
10003b10:	f7 ff                	idiv   edi
10003b12:	89 85 38 ff ff ff    	mov    DWORD PTR [ebp-0xc8],eax
10003b18:	8b 45 08             	mov    eax,DWORD PTR [ebp+0x8]
10003b1b:	8b 80 24 f5 00 00    	mov    eax,DWORD PTR [eax+0xf524]
10003b21:	8a 40 07             	mov    al,BYTE PTR [eax+0x7]
10003b24:	0f b6 c0             	movzx  eax,al
10003b27:	8b 4d 98             	mov    ecx,DWORD PTR [ebp-0x68]
10003b2a:	8b 95 38 ff ff ff    	mov    edx,DWORD PTR [ebp-0xc8]
10003b30:	01 ca                	add    edx,ecx
10003b32:	39 d0                	cmp    eax,edx
10003b34:	7d 1b                	jge    10003b51 <ssfn_render+0x1bcf>
10003b36:	8b 45 98             	mov    eax,DWORD PTR [ebp-0x68]
10003b39:	88 c1                	mov    cl,al
10003b3b:	8b 85 38 ff ff ff    	mov    eax,DWORD PTR [ebp-0xc8]
10003b41:	88 c2                	mov    dl,al
10003b43:	8b 45 08             	mov    eax,DWORD PTR [ebp+0x8]
10003b46:	8b 80 24 f5 00 00    	mov    eax,DWORD PTR [eax+0xf524]
10003b4c:	01 ca                	add    edx,ecx
10003b4e:	88 50 07             	mov    BYTE PTR [eax+0x7],dl
10003b51:	83 45 e0 04          	add    DWORD PTR [ebp-0x20],0x4
10003b55:	8b 55 b8             	mov    edx,DWORD PTR [ebp-0x48]
10003b58:	8b 45 e0             	mov    eax,DWORD PTR [ebp-0x20]
10003b5b:	01 d0                	add    eax,edx
10003b5d:	89 85 34 ff ff ff    	mov    DWORD PTR [ebp-0xcc],eax
10003b63:	c7 85 e8 f9 fe ff 00 00 00 00 	mov    DWORD PTR [ebp-0x10618],0x0
10003b6d:	8b 45 e0             	mov    eax,DWORD PTR [ebp-0x20]
10003b70:	3b 85 34 ff ff ff    	cmp    eax,DWORD PTR [ebp-0xcc]
10003b76:	0f 83 88 00 00 00    	jae    10003c04 <ssfn_render+0x1c82>
10003b7c:	8b 45 e0             	mov    eax,DWORD PTR [ebp-0x20]
10003b7f:	8d 50 01             	lea    edx,[eax+0x1]
10003b82:	89 55 e0             	mov    DWORD PTR [ebp-0x20],edx
10003b85:	8a 00                	mov    al,BYTE PTR [eax]
10003b87:	0f b6 c0             	movzx  eax,al
10003b8a:	83 e0 7f             	and    eax,0x7f
10003b8d:	40                   	inc    eax
10003b8e:	89 45 b4             	mov    DWORD PTR [ebp-0x4c],eax
10003b91:	8b 45 e0             	mov    eax,DWORD PTR [ebp-0x20]
10003b94:	48                   	dec    eax
10003b95:	8a 00                	mov    al,BYTE PTR [eax]
10003b97:	84 c0                	test   al,al
10003b99:	79 34                	jns    10003bcf <ssfn_render+0x1c4d>
10003b9b:	8b 45 b4             	mov    eax,DWORD PTR [ebp-0x4c]
10003b9e:	8d 50 ff             	lea    edx,[eax-0x1]
10003ba1:	89 55 b4             	mov    DWORD PTR [ebp-0x4c],edx
10003ba4:	85 c0                	test   eax,eax
10003ba6:	0f 95 c0             	setne  al
10003ba9:	84 c0                	test   al,al
10003bab:	74 1d                	je     10003bca <ssfn_render+0x1c48>
10003bad:	8b 85 e8 f9 fe ff    	mov    eax,DWORD PTR [ebp-0x10618]
10003bb3:	8d 50 01             	lea    edx,[eax+0x1]
10003bb6:	89 95 e8 f9 fe ff    	mov    DWORD PTR [ebp-0x10618],edx
10003bbc:	8b 55 e0             	mov    edx,DWORD PTR [ebp-0x20]
10003bbf:	8a 12                	mov    dl,BYTE PTR [edx]
10003bc1:	88 94 05 f8 fe fe ff 	mov    BYTE PTR [ebp+eax*1-0x10108],dl
10003bc8:	eb d1                	jmp    10003b9b <ssfn_render+0x1c19>
10003bca:	ff 45 e0             	inc    DWORD PTR [ebp-0x20]
10003bcd:	eb 9e                	jmp    10003b6d <ssfn_render+0x1beb>
10003bcf:	8b 45 b4             	mov    eax,DWORD PTR [ebp-0x4c]
10003bd2:	8d 50 ff             	lea    edx,[eax-0x1]
10003bd5:	89 55 b4             	mov    DWORD PTR [ebp-0x4c],edx
10003bd8:	85 c0                	test   eax,eax
10003bda:	0f 95 c0             	setne  al
10003bdd:	84 c0                	test   al,al
10003bdf:	74 8c                	je     10003b6d <ssfn_render+0x1beb>
10003be1:	8b 55 e0             	mov    edx,DWORD PTR [ebp-0x20]
10003be4:	8d 42 01             	lea    eax,[edx+0x1]
10003be7:	89 45 e0             	mov    DWORD PTR [ebp-0x20],eax
10003bea:	8b 85 e8 f9 fe ff    	mov    eax,DWORD PTR [ebp-0x10618]
10003bf0:	8d 48 01             	lea    ecx,[eax+0x1]
10003bf3:	89 8d e8 f9 fe ff    	mov    DWORD PTR [ebp-0x10618],ecx
10003bf9:	8a 12                	mov    dl,BYTE PTR [edx]
10003bfb:	88 94 05 f8 fe fe ff 	mov    BYTE PTR [ebp+eax*1-0x10108],dl
10003c02:	eb cb                	jmp    10003bcf <ssfn_render+0x1c4d>
10003c04:	c7 45 bc 00 00 00 00 	mov    DWORD PTR [ebp-0x44],0x0
10003c0b:	8b 45 bc             	mov    eax,DWORD PTR [ebp-0x44]
10003c0e:	3b 85 38 ff ff ff    	cmp    eax,DWORD PTR [ebp-0xc8]
10003c14:	0f 8d c8 00 00 00    	jge    10003ce2 <ssfn_render+0x1d60>
10003c1a:	8b 45 bc             	mov    eax,DWORD PTR [ebp-0x44]
10003c1d:	0f af 45 90          	imul   eax,DWORD PTR [ebp-0x70]
10003c21:	99                   	cdq    
10003c22:	f7 bd 38 ff ff ff    	idiv   DWORD PTR [ebp-0xc8]
10003c28:	89 c2                	mov    edx,eax
10003c2a:	8b 45 88             	mov    eax,DWORD PTR [ebp-0x78]
10003c2d:	0f af c2             	imul   eax,edx
10003c30:	89 45 b8             	mov    DWORD PTR [ebp-0x48],eax
10003c33:	8b 55 98             	mov    edx,DWORD PTR [ebp-0x68]
10003c36:	8b 45 bc             	mov    eax,DWORD PTR [ebp-0x44]
10003c39:	01 d0                	add    eax,edx
10003c3b:	0f af 45 b0          	imul   eax,DWORD PTR [ebp-0x50]
10003c3f:	89 c2                	mov    edx,eax
10003c41:	8b 45 9c             	mov    eax,DWORD PTR [ebp-0x64]
10003c44:	8d 0c 02             	lea    ecx,[edx+eax*1]
10003c47:	80 bd 47 ff ff ff 00 	cmp    BYTE PTR [ebp-0xb9],0x0
10003c4e:	74 16                	je     10003c66 <ssfn_render+0x1ce4>
10003c50:	8b 85 3c ff ff ff    	mov    eax,DWORD PTR [ebp-0xc4]
10003c56:	2b 45 98             	sub    eax,DWORD PTR [ebp-0x68]
10003c59:	2b 45 bc             	sub    eax,DWORD PTR [ebp-0x44]
10003c5c:	be 04 00 00 00       	mov    esi,0x4
10003c61:	99                   	cdq    
10003c62:	f7 fe                	idiv   esi
10003c64:	eb 05                	jmp    10003c6b <ssfn_render+0x1ce9>
10003c66:	b8 00 00 00 00       	mov    eax,0x0
10003c6b:	01 c8                	add    eax,ecx
10003c6d:	89 45 b4             	mov    DWORD PTR [ebp-0x4c],eax
10003c70:	c7 85 e8 f9 fe ff 00 00 00 00 	mov    DWORD PTR [ebp-0x10618],0x0
10003c7a:	8b 85 e8 f9 fe ff    	mov    eax,DWORD PTR [ebp-0x10618]
10003c80:	39 45 8c             	cmp    DWORD PTR [ebp-0x74],eax
10003c83:	7e 55                	jle    10003cda <ssfn_render+0x1d58>
10003c85:	8b 85 e8 f9 fe ff    	mov    eax,DWORD PTR [ebp-0x10618]
10003c8b:	0f af 45 88          	imul   eax,DWORD PTR [ebp-0x78]
10003c8f:	99                   	cdq    
10003c90:	f7 7d 8c             	idiv   DWORD PTR [ebp-0x74]
10003c93:	89 c2                	mov    edx,eax
10003c95:	8b 45 b8             	mov    eax,DWORD PTR [ebp-0x48]
10003c98:	01 d0                	add    eax,edx
10003c9a:	8a 84 05 f8 fe fe ff 	mov    al,BYTE PTR [ebp+eax*1-0x10108]
10003ca1:	0f b6 c0             	movzx  eax,al
10003ca4:	89 45 ac             	mov    DWORD PTR [ebp-0x54],eax
10003ca7:	81 7d ac ff 00 00 00 	cmp    DWORD PTR [ebp-0x54],0xff
10003cae:	74 1b                	je     10003ccb <ssfn_render+0x1d49>
10003cb0:	8b 45 08             	mov    eax,DWORD PTR [ebp+0x8]
10003cb3:	8b 80 24 f5 00 00    	mov    eax,DWORD PTR [eax+0xf524]
10003cb9:	8b 8d e8 f9 fe ff    	mov    ecx,DWORD PTR [ebp-0x10618]
10003cbf:	8b 55 b4             	mov    edx,DWORD PTR [ebp-0x4c]
10003cc2:	01 ca                	add    edx,ecx
10003cc4:	8b 4d ac             	mov    ecx,DWORD PTR [ebp-0x54]
10003cc7:	88 4c 10 08          	mov    BYTE PTR [eax+edx*1+0x8],cl
10003ccb:	8b 85 e8 f9 fe ff    	mov    eax,DWORD PTR [ebp-0x10618]
10003cd1:	40                   	inc    eax
10003cd2:	89 85 e8 f9 fe ff    	mov    DWORD PTR [ebp-0x10618],eax
10003cd8:	eb a0                	jmp    10003c7a <ssfn_render+0x1cf8>
10003cda:	ff 45 bc             	inc    DWORD PTR [ebp-0x44]
10003cdd:	e9 29 ff ff ff       	jmp    10003c0b <ssfn_render+0x1c89>
10003ce2:	c6 45 db fe          	mov    BYTE PTR [ebp-0x25],0xfe
10003ce6:	ff 45 a8             	inc    DWORD PTR [ebp-0x58]
10003ce9:	e9 4a ef ff ff       	jmp    10002c38 <ssfn_render+0xcb6>
10003cee:	8b 45 08             	mov    eax,DWORD PTR [ebp+0x8]
10003cf1:	8b 50 18             	mov    edx,DWORD PTR [eax+0x18]
10003cf4:	8b 45 08             	mov    eax,DWORD PTR [ebp+0x8]
10003cf7:	8b 80 24 f5 00 00    	mov    eax,DWORD PTR [eax+0xf524]
10003cfd:	8a 52 0c             	mov    dl,BYTE PTR [edx+0xc]
10003d00:	88 50 06             	mov    BYTE PTR [eax+0x6],dl
10003d03:	8b 45 08             	mov    eax,DWORD PTR [ebp+0x8]
10003d06:	8b 80 24 f5 00 00    	mov    eax,DWORD PTR [eax+0xf524]
10003d0c:	8a 40 07             	mov    al,BYTE PTR [eax+0x7]
10003d0f:	0f b6 d0             	movzx  edx,al
10003d12:	8b 45 08             	mov    eax,DWORD PTR [ebp+0x8]
10003d15:	8b 80 24 f5 00 00    	mov    eax,DWORD PTR [eax+0xf524]
10003d1b:	8a 40 06             	mov    al,BYTE PTR [eax+0x6]
10003d1e:	0f b6 c0             	movzx  eax,al
10003d21:	40                   	inc    eax
10003d22:	39 c2                	cmp    edx,eax
10003d24:	7e 29                	jle    10003d4f <ssfn_render+0x1dcd>
10003d26:	8b 45 08             	mov    eax,DWORD PTR [ebp+0x8]
10003d29:	8b 80 24 f5 00 00    	mov    eax,DWORD PTR [eax+0xf524]
10003d2f:	8a 50 07             	mov    dl,BYTE PTR [eax+0x7]
10003d32:	8b 45 08             	mov    eax,DWORD PTR [ebp+0x8]
10003d35:	8b 80 24 f5 00 00    	mov    eax,DWORD PTR [eax+0xf524]
10003d3b:	8a 40 06             	mov    al,BYTE PTR [eax+0x6]
10003d3e:	29 c2                	sub    edx,eax
10003d40:	8b 45 08             	mov    eax,DWORD PTR [ebp+0x8]
10003d43:	8b 80 24 f5 00 00    	mov    eax,DWORD PTR [eax+0xf524]
10003d49:	4a                   	dec    edx
10003d4a:	88 50 07             	mov    BYTE PTR [eax+0x7],dl
10003d4d:	eb 0d                	jmp    10003d5c <ssfn_render+0x1dda>
10003d4f:	8b 45 08             	mov    eax,DWORD PTR [ebp+0x8]
10003d52:	8b 80 24 f5 00 00    	mov    eax,DWORD PTR [eax+0xf524]
10003d58:	c6 40 07 00          	mov    BYTE PTR [eax+0x7],0x0
10003d5c:	83 7d 0c 00          	cmp    DWORD PTR [ebp+0xc],0x0
10003d60:	0f 84 01 14 00 00    	je     10005167 <ssfn_render+0x31e5>
10003d66:	8b 45 08             	mov    eax,DWORD PTR [ebp+0x8]
10003d69:	8b 80 bc f5 00 00    	mov    eax,DWORD PTR [eax+0xf5bc]
10003d6f:	25 00 10 00 00       	and    eax,0x1000
10003d74:	85 c0                	test   eax,eax
10003d76:	75 21                	jne    10003d99 <ssfn_render+0x1e17>
10003d78:	8b 45 08             	mov    eax,DWORD PTR [ebp+0x8]
10003d7b:	8b 40 18             	mov    eax,DWORD PTR [eax+0x18]
10003d7e:	8a 40 08             	mov    al,BYTE PTR [eax+0x8]
10003d81:	0f b6 c0             	movzx  eax,al
10003d84:	83 e0 0f             	and    eax,0xf
10003d87:	83 f8 03             	cmp    eax,0x3
10003d8a:	74 0d                	je     10003d99 <ssfn_render+0x1e17>
10003d8c:	8b 45 08             	mov    eax,DWORD PTR [ebp+0x8]
10003d8f:	8b 40 18             	mov    eax,DWORD PTR [eax+0x18]
10003d92:	8a 40 0c             	mov    al,BYTE PTR [eax+0xc]
10003d95:	84 c0                	test   al,al
10003d97:	75 0b                	jne    10003da4 <ssfn_render+0x1e22>
10003d99:	8b 45 08             	mov    eax,DWORD PTR [ebp+0x8]
10003d9c:	8b 80 c0 f5 00 00    	mov    eax,DWORD PTR [eax+0xf5c0]
10003da2:	eb 27                	jmp    10003dcb <ssfn_render+0x1e49>
10003da4:	8b 45 08             	mov    eax,DWORD PTR [ebp+0x8]
10003da7:	8b 90 c0 f5 00 00    	mov    edx,DWORD PTR [eax+0xf5c0]
10003dad:	8b 45 08             	mov    eax,DWORD PTR [ebp+0x8]
10003db0:	8b 40 18             	mov    eax,DWORD PTR [eax+0x18]
10003db3:	8a 40 0b             	mov    al,BYTE PTR [eax+0xb]
10003db6:	0f b6 c0             	movzx  eax,al
10003db9:	0f af c2             	imul   eax,edx
10003dbc:	8b 55 08             	mov    edx,DWORD PTR [ebp+0x8]
10003dbf:	8b 52 18             	mov    edx,DWORD PTR [edx+0x18]
10003dc2:	8a 52 0c             	mov    dl,BYTE PTR [edx+0xc]
10003dc5:	0f b6 f2             	movzx  esi,dl
10003dc8:	99                   	cdq    
10003dc9:	f7 fe                	idiv   esi
10003dcb:	89 85 3c ff ff ff    	mov    DWORD PTR [ebp-0xc4],eax
10003dd1:	8b 45 08             	mov    eax,DWORD PTR [ebp+0x8]
10003dd4:	8b 80 c4 f5 00 00    	mov    eax,DWORD PTR [eax+0xf5c4]
10003dda:	39 85 3c ff ff ff    	cmp    DWORD PTR [ebp-0xc4],eax
10003de0:	7e 0f                	jle    10003df1 <ssfn_render+0x1e6f>
10003de2:	8b 45 08             	mov    eax,DWORD PTR [ebp+0x8]
10003de5:	8b 95 3c ff ff ff    	mov    edx,DWORD PTR [ebp-0xc4]
10003deb:	89 90 c4 f5 00 00    	mov    DWORD PTR [eax+0xf5c4],edx
10003df1:	8b 45 08             	mov    eax,DWORD PTR [ebp+0x8]
10003df4:	8b 80 24 f5 00 00    	mov    eax,DWORD PTR [eax+0xf524]
10003dfa:	66 8b 00             	mov    ax,WORD PTR [eax]
10003dfd:	0f b7 c0             	movzx  eax,ax
10003e00:	0f af 85 3c ff ff ff 	imul   eax,DWORD PTR [ebp-0xc4]
10003e07:	8b 55 08             	mov    edx,DWORD PTR [ebp+0x8]
10003e0a:	8b 92 24 f5 00 00    	mov    edx,DWORD PTR [edx+0xf524]
10003e10:	8a 52 02             	mov    dl,BYTE PTR [edx+0x2]
10003e13:	0f b6 fa             	movzx  edi,dl
10003e16:	99                   	cdq    
10003e17:	f7 ff                	idiv   edi
10003e19:	89 45 94             	mov    DWORD PTR [ebp-0x6c],eax
10003e1c:	8b 45 08             	mov    eax,DWORD PTR [ebp+0x8]
10003e1f:	8b 80 24 f5 00 00    	mov    eax,DWORD PTR [eax+0xf524]
10003e25:	8a 40 04             	mov    al,BYTE PTR [eax+0x4]
10003e28:	0f b6 d0             	movzx  edx,al
10003e2b:	8b 45 08             	mov    eax,DWORD PTR [ebp+0x8]
10003e2e:	8b 80 24 f5 00 00    	mov    eax,DWORD PTR [eax+0xf524]
10003e34:	8a 40 03             	mov    al,BYTE PTR [eax+0x3]
10003e37:	0f b6 c0             	movzx  eax,al
10003e3a:	29 c2                	sub    edx,eax
10003e3c:	89 d0                	mov    eax,edx
10003e3e:	0f af 85 3c ff ff ff 	imul   eax,DWORD PTR [ebp-0xc4]
10003e45:	89 c2                	mov    edx,eax
10003e47:	8b 45 08             	mov    eax,DWORD PTR [ebp+0x8]
10003e4a:	8b 40 18             	mov    eax,DWORD PTR [eax+0x18]
10003e4d:	8a 40 0b             	mov    al,BYTE PTR [eax+0xb]
10003e50:	0f b6 c0             	movzx  eax,al
10003e53:	01 d0                	add    eax,edx
10003e55:	8d 48 ff             	lea    ecx,[eax-0x1]
10003e58:	8b 45 08             	mov    eax,DWORD PTR [ebp+0x8]
10003e5b:	8b 40 18             	mov    eax,DWORD PTR [eax+0x18]
10003e5e:	8a 40 0b             	mov    al,BYTE PTR [eax+0xb]
10003e61:	0f b6 f0             	movzx  esi,al
10003e64:	89 c8                	mov    eax,ecx
10003e66:	99                   	cdq    
10003e67:	f7 fe                	idiv   esi
10003e69:	89 45 a0             	mov    DWORD PTR [ebp-0x60],eax
10003e6c:	8b 45 08             	mov    eax,DWORD PTR [ebp+0x8]
10003e6f:	8b 80 c0 f5 00 00    	mov    eax,DWORD PTR [eax+0xf5c0]
10003e75:	83 f8 10             	cmp    eax,0x10
10003e78:	7e 07                	jle    10003e81 <ssfn_render+0x1eff>
10003e7a:	b8 02 00 00 00       	mov    eax,0x2
10003e7f:	eb 05                	jmp    10003e86 <ssfn_render+0x1f04>
10003e81:	b8 01 00 00 00       	mov    eax,0x1
10003e86:	89 45 a8             	mov    DWORD PTR [ebp-0x58],eax
10003e89:	8b 45 94             	mov    eax,DWORD PTR [ebp-0x6c]
10003e8c:	3b 45 a8             	cmp    eax,DWORD PTR [ebp-0x58]
10003e8f:	7d 06                	jge    10003e97 <ssfn_render+0x1f15>
10003e91:	8b 45 a8             	mov    eax,DWORD PTR [ebp-0x58]
10003e94:	89 45 94             	mov    DWORD PTR [ebp-0x6c],eax
10003e97:	8b 45 a0             	mov    eax,DWORD PTR [ebp-0x60]
10003e9a:	3b 45 a8             	cmp    eax,DWORD PTR [ebp-0x58]
10003e9d:	7d 06                	jge    10003ea5 <ssfn_render+0x1f23>
10003e9f:	8b 45 a8             	mov    eax,DWORD PTR [ebp-0x58]
10003ea2:	89 45 a0             	mov    DWORD PTR [ebp-0x60],eax
10003ea5:	8b 45 08             	mov    eax,DWORD PTR [ebp+0x8]
10003ea8:	8b 80 24 f5 00 00    	mov    eax,DWORD PTR [eax+0xf524]
10003eae:	8a 40 04             	mov    al,BYTE PTR [eax+0x4]
10003eb1:	84 c0                	test   al,al
10003eb3:	0f 84 c0 00 00 00    	je     10003f79 <ssfn_render+0x1ff7>
10003eb9:	8b 45 08             	mov    eax,DWORD PTR [ebp+0x8]
10003ebc:	8b 80 24 f5 00 00    	mov    eax,DWORD PTR [eax+0xf524]
10003ec2:	8a 40 03             	mov    al,BYTE PTR [eax+0x3]
10003ec5:	0f b6 c0             	movzx  eax,al
10003ec8:	0f af 85 3c ff ff ff 	imul   eax,DWORD PTR [ebp-0xc4]
10003ecf:	89 c2                	mov    edx,eax
10003ed1:	8b 45 08             	mov    eax,DWORD PTR [ebp+0x8]
10003ed4:	8b 40 18             	mov    eax,DWORD PTR [eax+0x18]
10003ed7:	8a 40 0b             	mov    al,BYTE PTR [eax+0xb]
10003eda:	0f b6 c0             	movzx  eax,al
10003edd:	01 d0                	add    eax,edx
10003edf:	8d 48 ff             	lea    ecx,[eax-0x1]
10003ee2:	8b 45 08             	mov    eax,DWORD PTR [ebp+0x8]
10003ee5:	8b 40 18             	mov    eax,DWORD PTR [eax+0x18]
10003ee8:	8a 40 0b             	mov    al,BYTE PTR [eax+0xb]
10003eeb:	0f b6 f8             	movzx  edi,al
10003eee:	89 c8                	mov    eax,ecx
10003ef0:	99                   	cdq    
10003ef1:	f7 ff                	idiv   edi
10003ef3:	89 c2                	mov    edx,eax
10003ef5:	8b 45 08             	mov    eax,DWORD PTR [ebp+0x8]
10003ef8:	8b 80 bc f5 00 00    	mov    eax,DWORD PTR [eax+0xf5bc]
10003efe:	25 00 08 00 00       	and    eax,0x800
10003f03:	85 c0                	test   eax,eax
10003f05:	74 05                	je     10003f0c <ssfn_render+0x1f8a>
10003f07:	8b 45 94             	mov    eax,DWORD PTR [ebp-0x6c]
10003f0a:	eb 05                	jmp    10003f11 <ssfn_render+0x1f8f>
10003f0c:	b8 00 00 00 00       	mov    eax,0x0
10003f11:	01 d0                	add    eax,edx
10003f13:	89 85 78 ff ff ff    	mov    DWORD PTR [ebp-0x88],eax
10003f19:	8b 45 08             	mov    eax,DWORD PTR [ebp+0x8]
10003f1c:	8b 95 78 ff ff ff    	mov    edx,DWORD PTR [ebp-0x88]
10003f22:	89 90 88 f5 00 00    	mov    DWORD PTR [eax+0xf588],edx
10003f28:	8b 45 08             	mov    eax,DWORD PTR [ebp+0x8]
10003f2b:	8b 80 24 f5 00 00    	mov    eax,DWORD PTR [eax+0xf524]
10003f31:	8a 40 06             	mov    al,BYTE PTR [eax+0x6]
10003f34:	0f b6 c0             	movzx  eax,al
10003f37:	0f af 85 3c ff ff ff 	imul   eax,DWORD PTR [ebp-0xc4]
10003f3e:	89 c2                	mov    edx,eax
10003f40:	8b 45 08             	mov    eax,DWORD PTR [ebp+0x8]
10003f43:	8b 40 18             	mov    eax,DWORD PTR [eax+0x18]
10003f46:	8a 40 0b             	mov    al,BYTE PTR [eax+0xb]
10003f49:	0f b6 c0             	movzx  eax,al
10003f4c:	01 d0                	add    eax,edx
10003f4e:	8d 48 ff             	lea    ecx,[eax-0x1]
10003f51:	8b 45 08             	mov    eax,DWORD PTR [ebp+0x8]
10003f54:	8b 40 18             	mov    eax,DWORD PTR [eax+0x18]
10003f57:	8a 40 0b             	mov    al,BYTE PTR [eax+0xb]
10003f5a:	0f b6 f0             	movzx  esi,al
10003f5d:	89 c8                	mov    eax,ecx
10003f5f:	99                   	cdq    
10003f60:	f7 fe                	idiv   esi
10003f62:	89 85 74 ff ff ff    	mov    DWORD PTR [ebp-0x8c],eax
10003f68:	8b 45 08             	mov    eax,DWORD PTR [ebp+0x8]
10003f6b:	8b 95 74 ff ff ff    	mov    edx,DWORD PTR [ebp-0x8c]
10003f71:	89 90 8c f5 00 00    	mov    DWORD PTR [eax+0xf58c],edx
10003f77:	eb 39                	jmp    10003fb2 <ssfn_render+0x2030>
10003f79:	8b 45 94             	mov    eax,DWORD PTR [ebp-0x6c]
10003f7c:	bf 02 00 00 00       	mov    edi,0x2
10003f81:	99                   	cdq    
10003f82:	f7 ff                	idiv   edi
10003f84:	89 85 78 ff ff ff    	mov    DWORD PTR [ebp-0x88],eax
10003f8a:	8b 45 08             	mov    eax,DWORD PTR [ebp+0x8]
10003f8d:	8b 95 78 ff ff ff    	mov    edx,DWORD PTR [ebp-0x88]
10003f93:	89 90 88 f5 00 00    	mov    DWORD PTR [eax+0xf588],edx
10003f99:	c7 85 74 ff ff ff 00 00 00 00 	mov    DWORD PTR [ebp-0x8c],0x0
10003fa3:	8b 45 08             	mov    eax,DWORD PTR [ebp+0x8]
10003fa6:	8b 95 74 ff ff ff    	mov    edx,DWORD PTR [ebp-0x8c]
10003fac:	89 90 8c f5 00 00    	mov    DWORD PTR [eax+0xf58c],edx
10003fb2:	8b 45 0c             	mov    eax,DWORD PTR [ebp+0xc]
10003fb5:	8b 00                	mov    eax,DWORD PTR [eax]
10003fb7:	85 c0                	test   eax,eax
10003fb9:	0f 84 5b 0d 00 00    	je     10004d1a <ssfn_render+0x2d98>
10003fbf:	8b 45 0c             	mov    eax,DWORD PTR [ebp+0xc]
10003fc2:	8b 40 04             	mov    eax,DWORD PTR [eax+0x4]
10003fc5:	98                   	cwde   
10003fc6:	85 c0                	test   eax,eax
10003fc8:	79 02                	jns    10003fcc <ssfn_render+0x204a>
10003fca:	f7 d8                	neg    eax
10003fcc:	89 45 bc             	mov    DWORD PTR [ebp-0x44],eax
10003fcf:	8b 45 0c             	mov    eax,DWORD PTR [ebp+0xc]
10003fd2:	8b 40 04             	mov    eax,DWORD PTR [eax+0x4]
10003fd5:	66 c1 f8 0b          	sar    ax,0xb
10003fd9:	83 e0 10             	and    eax,0x10
10003fdc:	88 85 33 ff ff ff    	mov    BYTE PTR [ebp-0xcd],al
10003fe2:	8b 85 3c ff ff ff    	mov    eax,DWORD PTR [ebp-0xc4]
10003fe8:	83 c0 40             	add    eax,0x40
10003feb:	c1 f8 06             	sar    eax,0x6
10003fee:	88 85 46 ff ff ff    	mov    BYTE PTR [ebp-0xba],al
10003ff4:	8b 45 94             	mov    eax,DWORD PTR [ebp-0x6c]
10003ff7:	3b 45 a0             	cmp    eax,DWORD PTR [ebp-0x60]
10003ffa:	7e 05                	jle    10004001 <ssfn_render+0x207f>
10003ffc:	8b 45 94             	mov    eax,DWORD PTR [ebp-0x6c]
10003fff:	eb 03                	jmp    10004004 <ssfn_render+0x2082>
10004001:	8b 45 a0             	mov    eax,DWORD PTR [ebp-0x60]
10004004:	89 45 80             	mov    DWORD PTR [ebp-0x80],eax
10004007:	c7 85 7c ff ff ff 00 00 00 00 	mov    DWORD PTR [ebp-0x84],0x0
10004011:	8b 45 08             	mov    eax,DWORD PTR [ebp+0x8]
10004014:	8b 40 18             	mov    eax,DWORD PTR [eax+0x18]
10004017:	8a 40 0d             	mov    al,BYTE PTR [eax+0xd]
1000401a:	0f b6 c0             	movzx  eax,al
1000401d:	0f af 85 3c ff ff ff 	imul   eax,DWORD PTR [ebp-0xc4]
10004024:	89 c2                	mov    edx,eax
10004026:	8b 45 08             	mov    eax,DWORD PTR [ebp+0x8]
10004029:	8b 40 18             	mov    eax,DWORD PTR [eax+0x18]
1000402c:	8a 40 0b             	mov    al,BYTE PTR [eax+0xb]
1000402f:	0f b6 c0             	movzx  eax,al
10004032:	01 d0                	add    eax,edx
10004034:	8d 48 ff             	lea    ecx,[eax-0x1]
10004037:	8b 45 08             	mov    eax,DWORD PTR [ebp+0x8]
1000403a:	8b 40 18             	mov    eax,DWORD PTR [eax+0x18]
1000403d:	8a 40 0b             	mov    al,BYTE PTR [eax+0xb]
10004040:	0f b6 f8             	movzx  edi,al
10004043:	89 c8                	mov    eax,ecx
10004045:	99                   	cdq    
10004046:	f7 ff                	idiv   edi
10004048:	89 45 a8             	mov    DWORD PTR [ebp-0x58],eax
1000404b:	8b 45 0c             	mov    eax,DWORD PTR [ebp+0xc]
1000404e:	8b 40 10             	mov    eax,DWORD PTR [eax+0x10]
10004051:	c1 e8 10             	shr    eax,0x10
10004054:	25 ff 00 00 00       	and    eax,0xff
10004059:	89 85 2c ff ff ff    	mov    DWORD PTR [ebp-0xd4],eax
1000405f:	8b 45 0c             	mov    eax,DWORD PTR [ebp+0xc]
10004062:	8b 40 10             	mov    eax,DWORD PTR [eax+0x10]
10004065:	c1 e8 08             	shr    eax,0x8
10004068:	25 ff 00 00 00       	and    eax,0xff
1000406d:	89 85 28 ff ff ff    	mov    DWORD PTR [ebp-0xd8],eax
10004073:	8b 45 0c             	mov    eax,DWORD PTR [ebp+0xc]
10004076:	8b 40 10             	mov    eax,DWORD PTR [eax+0x10]
10004079:	25 ff 00 00 00       	and    eax,0xff
1000407e:	89 85 24 ff ff ff    	mov    DWORD PTR [ebp-0xdc],eax
10004084:	8b 45 0c             	mov    eax,DWORD PTR [ebp+0xc]
10004087:	8b 40 10             	mov    eax,DWORD PTR [eax+0x10]
1000408a:	c1 e8 18             	shr    eax,0x18
1000408d:	89 85 20 ff ff ff    	mov    DWORD PTR [ebp-0xe0],eax
10004093:	8b 45 0c             	mov    eax,DWORD PTR [ebp+0xc]
10004096:	8b 40 14             	mov    eax,DWORD PTR [eax+0x14]
10004099:	c1 e8 10             	shr    eax,0x10
1000409c:	25 ff 00 00 00       	and    eax,0xff
100040a1:	89 85 58 ff ff ff    	mov    DWORD PTR [ebp-0xa8],eax
100040a7:	8b 45 0c             	mov    eax,DWORD PTR [ebp+0xc]
100040aa:	8b 40 14             	mov    eax,DWORD PTR [eax+0x14]
100040ad:	c1 e8 08             	shr    eax,0x8
100040b0:	25 ff 00 00 00       	and    eax,0xff
100040b5:	89 85 5c ff ff ff    	mov    DWORD PTR [ebp-0xa4],eax
100040bb:	8b 45 0c             	mov    eax,DWORD PTR [ebp+0xc]
100040be:	8b 40 14             	mov    eax,DWORD PTR [eax+0x14]
100040c1:	25 ff 00 00 00       	and    eax,0xff
100040c6:	89 85 60 ff ff ff    	mov    DWORD PTR [ebp-0xa0],eax
100040cc:	8b 45 0c             	mov    eax,DWORD PTR [ebp+0xc]
100040cf:	8b 10                	mov    edx,DWORD PTR [eax]
100040d1:	8b 45 0c             	mov    eax,DWORD PTR [ebp+0xc]
100040d4:	8b 40 08             	mov    eax,DWORD PTR [eax+0x8]
100040d7:	0f b7 c8             	movzx  ecx,ax
100040da:	8b 45 0c             	mov    eax,DWORD PTR [ebp+0xc]
100040dd:	8b 40 0c             	mov    eax,DWORD PTR [eax+0xc]
100040e0:	98                   	cwde   
100040e1:	2b 85 74 ff ff ff    	sub    eax,DWORD PTR [ebp-0x8c]
100040e7:	0f af c1             	imul   eax,ecx
100040ea:	89 c1                	mov    ecx,eax
100040ec:	8b 45 0c             	mov    eax,DWORD PTR [ebp+0xc]
100040ef:	66 8b 40 0a          	mov    ax,WORD PTR [eax+0xa]
100040f3:	98                   	cwde   
100040f4:	2b 85 78 ff ff ff    	sub    eax,DWORD PTR [ebp-0x88]
100040fa:	c1 e0 02             	shl    eax,0x2
100040fd:	01 c8                	add    eax,ecx
100040ff:	01 d0                	add    eax,edx
10004101:	89 45 d4             	mov    DWORD PTR [ebp-0x2c],eax
10004104:	c7 45 98 00 00 00 00 	mov    DWORD PTR [ebp-0x68],0x0
1000410b:	8b 45 98             	mov    eax,DWORD PTR [ebp-0x68]
1000410e:	3b 85 3c ff ff ff    	cmp    eax,DWORD PTR [ebp-0xc4]
10004114:	0f 8d 10 07 00 00    	jge    1000482a <ssfn_render+0x28a8>
1000411a:	8b 45 0c             	mov    eax,DWORD PTR [ebp+0xc]
1000411d:	8b 40 0c             	mov    eax,DWORD PTR [eax+0xc]
10004120:	0f bf d0             	movsx  edx,ax
10004123:	8b 45 98             	mov    eax,DWORD PTR [ebp-0x68]
10004126:	01 d0                	add    eax,edx
10004128:	2b 85 74 ff ff ff    	sub    eax,DWORD PTR [ebp-0x8c]
1000412e:	89 c2                	mov    edx,eax
10004130:	8b 45 0c             	mov    eax,DWORD PTR [ebp+0xc]
10004133:	66 8b 40 06          	mov    ax,WORD PTR [eax+0x6]
10004137:	98                   	cwde   
10004138:	39 c2                	cmp    edx,eax
1000413a:	0f 8d ea 06 00 00    	jge    1000482a <ssfn_render+0x28a8>
10004140:	8b 45 0c             	mov    eax,DWORD PTR [ebp+0xc]
10004143:	8b 40 0c             	mov    eax,DWORD PTR [eax+0xc]
10004146:	0f bf d0             	movsx  edx,ax
10004149:	8b 45 98             	mov    eax,DWORD PTR [ebp-0x68]
1000414c:	01 d0                	add    eax,edx
1000414e:	2b 85 74 ff ff ff    	sub    eax,DWORD PTR [ebp-0x8c]
10004154:	85 c0                	test   eax,eax
10004156:	0f 88 b3 06 00 00    	js     1000480f <ssfn_render+0x288d>
1000415c:	8b 45 98             	mov    eax,DWORD PTR [ebp-0x68]
1000415f:	c1 e0 08             	shl    eax,0x8
10004162:	89 c2                	mov    edx,eax
10004164:	8b 45 08             	mov    eax,DWORD PTR [ebp+0x8]
10004167:	8b 80 24 f5 00 00    	mov    eax,DWORD PTR [eax+0xf524]
1000416d:	8a 40 02             	mov    al,BYTE PTR [eax+0x2]
10004170:	0f b6 c0             	movzx  eax,al
10004173:	0f af c2             	imul   eax,edx
10004176:	99                   	cdq    
10004177:	f7 bd 3c ff ff ff    	idiv   DWORD PTR [ebp-0xc4]
1000417d:	89 85 1c ff ff ff    	mov    DWORD PTR [ebp-0xe4],eax
10004183:	8b 85 1c ff ff ff    	mov    eax,DWORD PTR [ebp-0xe4]
10004189:	c1 f8 08             	sar    eax,0x8
1000418c:	89 85 18 ff ff ff    	mov    DWORD PTR [ebp-0xe8],eax
10004192:	8b 45 98             	mov    eax,DWORD PTR [ebp-0x68]
10004195:	40                   	inc    eax
10004196:	c1 e0 08             	shl    eax,0x8
10004199:	89 c2                	mov    edx,eax
1000419b:	8b 45 08             	mov    eax,DWORD PTR [ebp+0x8]
1000419e:	8b 80 24 f5 00 00    	mov    eax,DWORD PTR [eax+0xf524]
100041a4:	8a 40 02             	mov    al,BYTE PTR [eax+0x2]
100041a7:	0f b6 c0             	movzx  eax,al
100041aa:	0f af c2             	imul   eax,edx
100041ad:	99                   	cdq    
100041ae:	f7 bd 3c ff ff ff    	idiv   DWORD PTR [ebp-0xc4]
100041b4:	89 85 14 ff ff ff    	mov    DWORD PTR [ebp-0xec],eax
100041ba:	8b 85 14 ff ff ff    	mov    eax,DWORD PTR [ebp-0xec]
100041c0:	c1 f8 08             	sar    eax,0x8
100041c3:	89 85 10 ff ff ff    	mov    DWORD PTR [ebp-0xf0],eax
100041c9:	8b 45 d4             	mov    eax,DWORD PTR [ebp-0x2c]
100041cc:	89 45 d0             	mov    DWORD PTR [ebp-0x30],eax
100041cf:	c7 45 9c 00 00 00 00 	mov    DWORD PTR [ebp-0x64],0x0
100041d6:	8b 45 9c             	mov    eax,DWORD PTR [ebp-0x64]
100041d9:	3b 45 94             	cmp    eax,DWORD PTR [ebp-0x6c]
100041dc:	0f 8d 2e 06 00 00    	jge    10004810 <ssfn_render+0x288e>
100041e2:	8b 45 0c             	mov    eax,DWORD PTR [ebp+0xc]
100041e5:	66 8b 40 0a          	mov    ax,WORD PTR [eax+0xa]
100041e9:	0f bf d0             	movsx  edx,ax
100041ec:	8b 45 9c             	mov    eax,DWORD PTR [ebp-0x64]
100041ef:	01 d0                	add    eax,edx
100041f1:	2b 85 78 ff ff ff    	sub    eax,DWORD PTR [ebp-0x88]
100041f7:	39 45 bc             	cmp    DWORD PTR [ebp-0x44],eax
100041fa:	0f 8e 10 06 00 00    	jle    10004810 <ssfn_render+0x288e>
10004200:	8b 45 0c             	mov    eax,DWORD PTR [ebp+0xc]
10004203:	66 8b 40 0a          	mov    ax,WORD PTR [eax+0xa]
10004207:	0f bf d0             	movsx  edx,ax
1000420a:	8b 45 9c             	mov    eax,DWORD PTR [ebp-0x64]
1000420d:	01 d0                	add    eax,edx
1000420f:	2b 85 78 ff ff ff    	sub    eax,DWORD PTR [ebp-0x88]
10004215:	85 c0                	test   eax,eax
10004217:	0f 88 e5 05 00 00    	js     10004802 <ssfn_render+0x2880>
1000421d:	c7 45 ac 00 00 00 00 	mov    DWORD PTR [ebp-0x54],0x0
10004224:	c7 45 c0 00 00 00 00 	mov    DWORD PTR [ebp-0x40],0x0
1000422b:	8b 45 c0             	mov    eax,DWORD PTR [ebp-0x40]
1000422e:	89 45 c4             	mov    DWORD PTR [ebp-0x3c],eax
10004231:	8b 45 c4             	mov    eax,DWORD PTR [ebp-0x3c]
10004234:	89 45 c8             	mov    DWORD PTR [ebp-0x38],eax
10004237:	8b 45 c8             	mov    eax,DWORD PTR [ebp-0x38]
1000423a:	89 45 cc             	mov    DWORD PTR [ebp-0x34],eax
1000423d:	8b 45 0c             	mov    eax,DWORD PTR [ebp+0xc]
10004240:	8b 40 14             	mov    eax,DWORD PTR [eax+0x14]
10004243:	85 c0                	test   eax,eax
10004245:	75 64                	jne    100042ab <ssfn_render+0x2329>
10004247:	8b 45 d0             	mov    eax,DWORD PTR [ebp-0x30]
1000424a:	8b 00                	mov    eax,DWORD PTR [eax]
1000424c:	89 85 0c ff ff ff    	mov    DWORD PTR [ebp-0xf4],eax
10004252:	0f b6 85 33 ff ff ff 	movzx  eax,BYTE PTR [ebp-0xcd]
10004259:	ba 10 00 00 00       	mov    edx,0x10
1000425e:	29 c2                	sub    edx,eax
10004260:	89 d0                	mov    eax,edx
10004262:	8b 95 0c ff ff ff    	mov    edx,DWORD PTR [ebp-0xf4]
10004268:	88 c1                	mov    cl,al
1000426a:	d3 ea                	shr    edx,cl
1000426c:	89 d0                	mov    eax,edx
1000426e:	25 ff 00 00 00       	and    eax,0xff
10004273:	89 85 58 ff ff ff    	mov    DWORD PTR [ebp-0xa8],eax
10004279:	8b 85 0c ff ff ff    	mov    eax,DWORD PTR [ebp-0xf4]
1000427f:	c1 e8 08             	shr    eax,0x8
10004282:	25 ff 00 00 00       	and    eax,0xff
10004287:	89 85 5c ff ff ff    	mov    DWORD PTR [ebp-0xa4],eax
1000428d:	0f b6 85 33 ff ff ff 	movzx  eax,BYTE PTR [ebp-0xcd]
10004294:	8b 95 0c ff ff ff    	mov    edx,DWORD PTR [ebp-0xf4]
1000429a:	88 c1                	mov    cl,al
1000429c:	d3 ea                	shr    edx,cl
1000429e:	89 d0                	mov    eax,edx
100042a0:	25 ff 00 00 00       	and    eax,0xff
100042a5:	89 85 60 ff ff ff    	mov    DWORD PTR [ebp-0xa0],eax
100042ab:	8b 45 9c             	mov    eax,DWORD PTR [ebp-0x64]
100042ae:	c1 e0 08             	shl    eax,0x8
100042b1:	89 c2                	mov    edx,eax
100042b3:	8b 45 08             	mov    eax,DWORD PTR [ebp+0x8]
100042b6:	8b 80 24 f5 00 00    	mov    eax,DWORD PTR [eax+0xf524]
100042bc:	66 8b 00             	mov    ax,WORD PTR [eax]
100042bf:	0f b7 c0             	movzx  eax,ax
100042c2:	0f af c2             	imul   eax,edx
100042c5:	99                   	cdq    
100042c6:	f7 7d 94             	idiv   DWORD PTR [ebp-0x6c]
100042c9:	89 85 08 ff ff ff    	mov    DWORD PTR [ebp-0xf8],eax
100042cf:	8b 85 08 ff ff ff    	mov    eax,DWORD PTR [ebp-0xf8]
100042d5:	c1 f8 08             	sar    eax,0x8
100042d8:	89 85 04 ff ff ff    	mov    DWORD PTR [ebp-0xfc],eax
100042de:	8b 45 9c             	mov    eax,DWORD PTR [ebp-0x64]
100042e1:	40                   	inc    eax
100042e2:	c1 e0 08             	shl    eax,0x8
100042e5:	89 c2                	mov    edx,eax
100042e7:	8b 45 08             	mov    eax,DWORD PTR [ebp+0x8]
100042ea:	8b 80 24 f5 00 00    	mov    eax,DWORD PTR [eax+0xf524]
100042f0:	66 8b 00             	mov    ax,WORD PTR [eax]
100042f3:	0f b7 c0             	movzx  eax,ax
100042f6:	0f af c2             	imul   eax,edx
100042f9:	99                   	cdq    
100042fa:	f7 7d 94             	idiv   DWORD PTR [ebp-0x6c]
100042fd:	89 85 00 ff ff ff    	mov    DWORD PTR [ebp-0x100],eax
10004303:	8b 85 00 ff ff ff    	mov    eax,DWORD PTR [ebp-0x100]
10004309:	c1 f8 08             	sar    eax,0x8
1000430c:	89 85 fc fe ff ff    	mov    DWORD PTR [ebp-0x104],eax
10004312:	8b 85 1c ff ff ff    	mov    eax,DWORD PTR [ebp-0xe4]
10004318:	89 85 6c ff ff ff    	mov    DWORD PTR [ebp-0x94],eax
1000431e:	8b 85 6c ff ff ff    	mov    eax,DWORD PTR [ebp-0x94]
10004324:	3b 85 14 ff ff ff    	cmp    eax,DWORD PTR [ebp-0xec]
1000432a:	0f 8d d0 03 00 00    	jge    10004700 <ssfn_render+0x277e>
10004330:	8b 85 6c ff ff ff    	mov    eax,DWORD PTR [ebp-0x94]
10004336:	c1 f8 08             	sar    eax,0x8
10004339:	39 85 18 ff ff ff    	cmp    DWORD PTR [ebp-0xe8],eax
1000433f:	75 4a                	jne    1000438b <ssfn_render+0x2409>
10004341:	8b 85 6c ff ff ff    	mov    eax,DWORD PTR [ebp-0x94]
10004347:	0f b6 c0             	movzx  eax,al
1000434a:	ba 00 01 00 00       	mov    edx,0x100
1000434f:	29 c2                	sub    edx,eax
10004351:	89 d0                	mov    eax,edx
10004353:	89 85 68 ff ff ff    	mov    DWORD PTR [ebp-0x98],eax
10004359:	81 a5 6c ff ff ff 00 ff ff ff 	and    DWORD PTR [ebp-0x94],0xffffff00
10004363:	8b 85 14 ff ff ff    	mov    eax,DWORD PTR [ebp-0xec]
10004369:	2b 85 1c ff ff ff    	sub    eax,DWORD PTR [ebp-0xe4]
1000436f:	39 85 68 ff ff ff    	cmp    DWORD PTR [ebp-0x98],eax
10004375:	7e 40                	jle    100043b7 <ssfn_render+0x2435>
10004377:	8b 85 14 ff ff ff    	mov    eax,DWORD PTR [ebp-0xec]
1000437d:	2b 85 1c ff ff ff    	sub    eax,DWORD PTR [ebp-0xe4]
10004383:	89 85 68 ff ff ff    	mov    DWORD PTR [ebp-0x98],eax
10004389:	eb 2c                	jmp    100043b7 <ssfn_render+0x2435>
1000438b:	8b 85 6c ff ff ff    	mov    eax,DWORD PTR [ebp-0x94]
10004391:	c1 f8 08             	sar    eax,0x8
10004394:	39 85 10 ff ff ff    	cmp    DWORD PTR [ebp-0xf0],eax
1000439a:	75 11                	jne    100043ad <ssfn_render+0x242b>
1000439c:	8b 85 14 ff ff ff    	mov    eax,DWORD PTR [ebp-0xec]
100043a2:	0f b6 c0             	movzx  eax,al
100043a5:	89 85 68 ff ff ff    	mov    DWORD PTR [ebp-0x98],eax
100043ab:	eb 0a                	jmp    100043b7 <ssfn_render+0x2435>
100043ad:	c7 85 68 ff ff ff 00 01 00 00 	mov    DWORD PTR [ebp-0x98],0x100
100043b7:	8b 85 6c ff ff ff    	mov    eax,DWORD PTR [ebp-0x94]
100043bd:	c1 f8 08             	sar    eax,0x8
100043c0:	89 c2                	mov    edx,eax
100043c2:	8b 45 08             	mov    eax,DWORD PTR [ebp+0x8]
100043c5:	8b 80 24 f5 00 00    	mov    eax,DWORD PTR [eax+0xf524]
100043cb:	66 8b 00             	mov    ax,WORD PTR [eax]
100043ce:	0f b7 c0             	movzx  eax,ax
100043d1:	0f af c2             	imul   eax,edx
100043d4:	89 85 f8 fe ff ff    	mov    DWORD PTR [ebp-0x108],eax
100043da:	8b 85 08 ff ff ff    	mov    eax,DWORD PTR [ebp-0xf8]
100043e0:	89 85 70 ff ff ff    	mov    DWORD PTR [ebp-0x90],eax
100043e6:	8b 85 70 ff ff ff    	mov    eax,DWORD PTR [ebp-0x90]
100043ec:	3b 85 00 ff ff ff    	cmp    eax,DWORD PTR [ebp-0x100]
100043f2:	0f 8d f9 02 00 00    	jge    100046f1 <ssfn_render+0x276f>
100043f8:	8b 85 70 ff ff ff    	mov    eax,DWORD PTR [ebp-0x90]
100043fe:	c1 f8 08             	sar    eax,0x8
10004401:	39 85 04 ff ff ff    	cmp    DWORD PTR [ebp-0xfc],eax
10004407:	75 65                	jne    1000446e <ssfn_render+0x24ec>
10004409:	8b 85 70 ff ff ff    	mov    eax,DWORD PTR [ebp-0x90]
1000440f:	0f b6 c0             	movzx  eax,al
10004412:	ba 00 01 00 00       	mov    edx,0x100
10004417:	29 c2                	sub    edx,eax
10004419:	89 d0                	mov    eax,edx
1000441b:	89 45 b8             	mov    DWORD PTR [ebp-0x48],eax
1000441e:	81 a5 70 ff ff ff 00 ff ff ff 	and    DWORD PTR [ebp-0x90],0xffffff00
10004428:	8b 85 00 ff ff ff    	mov    eax,DWORD PTR [ebp-0x100]
1000442e:	2b 85 08 ff ff ff    	sub    eax,DWORD PTR [ebp-0xf8]
10004434:	39 45 b8             	cmp    DWORD PTR [ebp-0x48],eax
10004437:	7e 0f                	jle    10004448 <ssfn_render+0x24c6>
10004439:	8b 85 00 ff ff ff    	mov    eax,DWORD PTR [ebp-0x100]
1000443f:	2b 85 08 ff ff ff    	sub    eax,DWORD PTR [ebp-0xf8]
10004445:	89 45 b8             	mov    DWORD PTR [ebp-0x48],eax
10004448:	81 7d b8 00 01 00 00 	cmp    DWORD PTR [ebp-0x48],0x100
1000444f:	74 0f                	je     10004460 <ssfn_render+0x24de>
10004451:	8b 45 b8             	mov    eax,DWORD PTR [ebp-0x48]
10004454:	0f af 85 68 ff ff ff 	imul   eax,DWORD PTR [ebp-0x98]
1000445b:	c1 f8 08             	sar    eax,0x8
1000445e:	eb 06                	jmp    10004466 <ssfn_render+0x24e4>
10004460:	8b 85 68 ff ff ff    	mov    eax,DWORD PTR [ebp-0x98]
10004466:	89 85 64 ff ff ff    	mov    DWORD PTR [ebp-0x9c],eax
1000446c:	eb 4f                	jmp    100044bd <ssfn_render+0x253b>
1000446e:	8b 85 70 ff ff ff    	mov    eax,DWORD PTR [ebp-0x90]
10004474:	c1 f8 08             	sar    eax,0x8
10004477:	39 85 fc fe ff ff    	cmp    DWORD PTR [ebp-0x104],eax
1000447d:	75 32                	jne    100044b1 <ssfn_render+0x252f>
1000447f:	8b 85 00 ff ff ff    	mov    eax,DWORD PTR [ebp-0x100]
10004485:	0f b6 c0             	movzx  eax,al
10004488:	89 45 b8             	mov    DWORD PTR [ebp-0x48],eax
1000448b:	81 7d b8 00 01 00 00 	cmp    DWORD PTR [ebp-0x48],0x100
10004492:	74 0f                	je     100044a3 <ssfn_render+0x2521>
10004494:	8b 45 b8             	mov    eax,DWORD PTR [ebp-0x48]
10004497:	0f af 85 68 ff ff ff 	imul   eax,DWORD PTR [ebp-0x98]
1000449e:	c1 f8 08             	sar    eax,0x8
100044a1:	eb 06                	jmp    100044a9 <ssfn_render+0x2527>
100044a3:	8b 85 68 ff ff ff    	mov    eax,DWORD PTR [ebp-0x98]
100044a9:	89 85 64 ff ff ff    	mov    DWORD PTR [ebp-0x9c],eax
100044af:	eb 0c                	jmp    100044bd <ssfn_render+0x253b>
100044b1:	8b 85 68 ff ff ff    	mov    eax,DWORD PTR [ebp-0x98]
100044b7:	89 85 64 ff ff ff    	mov    DWORD PTR [ebp-0x9c],eax
100044bd:	8b 85 64 ff ff ff    	mov    eax,DWORD PTR [ebp-0x9c]
100044c3:	01 45 ac             	add    DWORD PTR [ebp-0x54],eax
100044c6:	8b 45 08             	mov    eax,DWORD PTR [ebp+0x8]
100044c9:	8b 80 24 f5 00 00    	mov    eax,DWORD PTR [eax+0xf524]
100044cf:	8b 95 70 ff ff ff    	mov    edx,DWORD PTR [ebp-0x90]
100044d5:	89 d1                	mov    ecx,edx
100044d7:	c1 f9 08             	sar    ecx,0x8
100044da:	8b 95 f8 fe ff ff    	mov    edx,DWORD PTR [ebp-0x108]
100044e0:	01 ca                	add    edx,ecx
100044e2:	8a 44 10 08          	mov    al,BYTE PTR [eax+edx*1+0x8]
100044e6:	0f b6 c0             	movzx  eax,al
100044e9:	89 45 b8             	mov    DWORD PTR [ebp-0x48],eax
100044ec:	81 7d b8 ff 00 00 00 	cmp    DWORD PTR [ebp-0x48],0xff
100044f3:	75 3c                	jne    10004531 <ssfn_render+0x25af>
100044f5:	8b 85 60 ff ff ff    	mov    eax,DWORD PTR [ebp-0xa0]
100044fb:	0f af 85 64 ff ff ff 	imul   eax,DWORD PTR [ebp-0x9c]
10004502:	01 45 c4             	add    DWORD PTR [ebp-0x3c],eax
10004505:	8b 85 5c ff ff ff    	mov    eax,DWORD PTR [ebp-0xa4]
1000450b:	0f af 85 64 ff ff ff 	imul   eax,DWORD PTR [ebp-0x9c]
10004512:	01 45 c8             	add    DWORD PTR [ebp-0x38],eax
10004515:	8b 85 58 ff ff ff    	mov    eax,DWORD PTR [ebp-0xa8]
1000451b:	0f af 85 64 ff ff ff 	imul   eax,DWORD PTR [ebp-0x9c]
10004522:	01 45 cc             	add    DWORD PTR [ebp-0x34],eax
10004525:	81 45 c0 ff 00 00 00 	add    DWORD PTR [ebp-0x40],0xff
1000452c:	e9 b1 01 00 00       	jmp    100046e2 <ssfn_render+0x2760>
10004531:	81 7d b8 fe 00 00 00 	cmp    DWORD PTR [ebp-0x48],0xfe
10004538:	74 0d                	je     10004547 <ssfn_render+0x25c5>
1000453a:	8b 45 08             	mov    eax,DWORD PTR [ebp+0x8]
1000453d:	8b 40 18             	mov    eax,DWORD PTR [eax+0x18]
10004540:	8b 40 1c             	mov    eax,DWORD PTR [eax+0x1c]
10004543:	85 c0                	test   eax,eax
10004545:	75 32                	jne    10004579 <ssfn_render+0x25f7>
10004547:	8b 85 24 ff ff ff    	mov    eax,DWORD PTR [ebp-0xdc]
1000454d:	89 85 54 ff ff ff    	mov    DWORD PTR [ebp-0xac],eax
10004553:	8b 85 28 ff ff ff    	mov    eax,DWORD PTR [ebp-0xd8]
10004559:	89 85 50 ff ff ff    	mov    DWORD PTR [ebp-0xb0],eax
1000455f:	8b 85 2c ff ff ff    	mov    eax,DWORD PTR [ebp-0xd4]
10004565:	89 85 4c ff ff ff    	mov    DWORD PTR [ebp-0xb4],eax
1000456b:	8b 85 20 ff ff ff    	mov    eax,DWORD PTR [ebp-0xe0]
10004571:	89 85 48 ff ff ff    	mov    DWORD PTR [ebp-0xb8],eax
10004577:	eb 69                	jmp    100045e2 <ssfn_render+0x2660>
10004579:	8b 45 08             	mov    eax,DWORD PTR [ebp+0x8]
1000457c:	8b 50 18             	mov    edx,DWORD PTR [eax+0x18]
1000457f:	8b 45 08             	mov    eax,DWORD PTR [ebp+0x8]
10004582:	8b 40 18             	mov    eax,DWORD PTR [eax+0x18]
10004585:	8b 40 1c             	mov    eax,DWORD PTR [eax+0x1c]
10004588:	8b 4d b8             	mov    ecx,DWORD PTR [ebp-0x48]
1000458b:	c1 e1 02             	shl    ecx,0x2
1000458e:	01 c8                	add    eax,ecx
10004590:	01 d0                	add    eax,edx
10004592:	8b 00                	mov    eax,DWORD PTR [eax]
10004594:	89 85 f0 f9 fe ff    	mov    DWORD PTR [ebp-0x10610],eax
1000459a:	8b 85 f0 f9 fe ff    	mov    eax,DWORD PTR [ebp-0x10610]
100045a0:	c1 e8 10             	shr    eax,0x10
100045a3:	25 ff 00 00 00       	and    eax,0xff
100045a8:	89 85 4c ff ff ff    	mov    DWORD PTR [ebp-0xb4],eax
100045ae:	8b 85 f0 f9 fe ff    	mov    eax,DWORD PTR [ebp-0x10610]
100045b4:	c1 e8 08             	shr    eax,0x8
100045b7:	25 ff 00 00 00       	and    eax,0xff
100045bc:	89 85 50 ff ff ff    	mov    DWORD PTR [ebp-0xb0],eax
100045c2:	8b 85 f0 f9 fe ff    	mov    eax,DWORD PTR [ebp-0x10610]
100045c8:	25 ff 00 00 00       	and    eax,0xff
100045cd:	89 85 54 ff ff ff    	mov    DWORD PTR [ebp-0xac],eax
100045d3:	8b 85 f0 f9 fe ff    	mov    eax,DWORD PTR [ebp-0x10610]
100045d9:	c1 e8 18             	shr    eax,0x18
100045dc:	89 85 48 ff ff ff    	mov    DWORD PTR [ebp-0xb8],eax
100045e2:	81 bd 48 ff ff ff ff 00 00 00 	cmp    DWORD PTR [ebp-0xb8],0xff
100045ec:	75 45                	jne    10004633 <ssfn_render+0x26b1>
100045ee:	8b 85 54 ff ff ff    	mov    eax,DWORD PTR [ebp-0xac]
100045f4:	0f af 85 64 ff ff ff 	imul   eax,DWORD PTR [ebp-0x9c]
100045fb:	01 45 c4             	add    DWORD PTR [ebp-0x3c],eax
100045fe:	8b 85 50 ff ff ff    	mov    eax,DWORD PTR [ebp-0xb0]
10004604:	0f af 85 64 ff ff ff 	imul   eax,DWORD PTR [ebp-0x9c]
1000460b:	01 45 c8             	add    DWORD PTR [ebp-0x38],eax
1000460e:	8b 85 4c ff ff ff    	mov    eax,DWORD PTR [ebp-0xb4]
10004614:	0f af 85 64 ff ff ff 	imul   eax,DWORD PTR [ebp-0x9c]
1000461b:	01 45 cc             	add    DWORD PTR [ebp-0x34],eax
1000461e:	8b 85 48 ff ff ff    	mov    eax,DWORD PTR [ebp-0xb8]
10004624:	0f af 85 64 ff ff ff 	imul   eax,DWORD PTR [ebp-0x9c]
1000462b:	01 45 c0             	add    DWORD PTR [ebp-0x40],eax
1000462e:	e9 af 00 00 00       	jmp    100046e2 <ssfn_render+0x2760>
10004633:	8b 85 54 ff ff ff    	mov    eax,DWORD PTR [ebp-0xac]
10004639:	0f af 85 48 ff ff ff 	imul   eax,DWORD PTR [ebp-0xb8]
10004640:	89 c2                	mov    edx,eax
10004642:	b8 ff 00 00 00       	mov    eax,0xff
10004647:	2b 85 48 ff ff ff    	sub    eax,DWORD PTR [ebp-0xb8]
1000464d:	0f af 85 60 ff ff ff 	imul   eax,DWORD PTR [ebp-0xa0]
10004654:	01 d0                	add    eax,edx
10004656:	0f af 85 64 ff ff ff 	imul   eax,DWORD PTR [ebp-0x9c]
1000465d:	be ff 00 00 00       	mov    esi,0xff
10004662:	99                   	cdq    
10004663:	f7 fe                	idiv   esi
10004665:	01 45 c4             	add    DWORD PTR [ebp-0x3c],eax
10004668:	8b 85 50 ff ff ff    	mov    eax,DWORD PTR [ebp-0xb0]
1000466e:	0f af 85 48 ff ff ff 	imul   eax,DWORD PTR [ebp-0xb8]
10004675:	89 c2                	mov    edx,eax
10004677:	b8 ff 00 00 00       	mov    eax,0xff
1000467c:	2b 85 48 ff ff ff    	sub    eax,DWORD PTR [ebp-0xb8]
10004682:	0f af 85 5c ff ff ff 	imul   eax,DWORD PTR [ebp-0xa4]
10004689:	01 d0                	add    eax,edx
1000468b:	0f af 85 64 ff ff ff 	imul   eax,DWORD PTR [ebp-0x9c]
10004692:	bf ff 00 00 00       	mov    edi,0xff
10004697:	99                   	cdq    
10004698:	f7 ff                	idiv   edi
1000469a:	01 45 c8             	add    DWORD PTR [ebp-0x38],eax
1000469d:	8b 85 4c ff ff ff    	mov    eax,DWORD PTR [ebp-0xb4]
100046a3:	0f af 85 48 ff ff ff 	imul   eax,DWORD PTR [ebp-0xb8]
100046aa:	89 c2                	mov    edx,eax
100046ac:	b8 ff 00 00 00       	mov    eax,0xff
100046b1:	2b 85 48 ff ff ff    	sub    eax,DWORD PTR [ebp-0xb8]
100046b7:	0f af 85 58 ff ff ff 	imul   eax,DWORD PTR [ebp-0xa8]
100046be:	01 d0                	add    eax,edx
100046c0:	0f af 85 64 ff ff ff 	imul   eax,DWORD PTR [ebp-0x9c]
100046c7:	be ff 00 00 00       	mov    esi,0xff
100046cc:	99                   	cdq    
100046cd:	f7 fe                	idiv   esi
100046cf:	01 45 cc             	add    DWORD PTR [ebp-0x34],eax
100046d2:	8b 85 48 ff ff ff    	mov    eax,DWORD PTR [ebp-0xb8]
100046d8:	0f af 85 64 ff ff ff 	imul   eax,DWORD PTR [ebp-0x9c]
100046df:	01 45 c0             	add    DWORD PTR [ebp-0x40],eax
100046e2:	81 85 70 ff ff ff 00 01 00 00 	add    DWORD PTR [ebp-0x90],0x100
100046ec:	e9 f5 fc ff ff       	jmp    100043e6 <ssfn_render+0x2464>
100046f1:	81 85 6c ff ff ff 00 01 00 00 	add    DWORD PTR [ebp-0x94],0x100
100046fb:	e9 1e fc ff ff       	jmp    1000431e <ssfn_render+0x239c>
10004700:	83 7d ac 00          	cmp    DWORD PTR [ebp-0x54],0x0
10004704:	74 42                	je     10004748 <ssfn_render+0x27c6>
10004706:	8b 75 ac             	mov    esi,DWORD PTR [ebp-0x54]
10004709:	8b 45 cc             	mov    eax,DWORD PTR [ebp-0x34]
1000470c:	ba 00 00 00 00       	mov    edx,0x0
10004711:	f7 f6                	div    esi
10004713:	89 45 cc             	mov    DWORD PTR [ebp-0x34],eax
10004716:	8b 7d ac             	mov    edi,DWORD PTR [ebp-0x54]
10004719:	8b 45 c8             	mov    eax,DWORD PTR [ebp-0x38]
1000471c:	ba 00 00 00 00       	mov    edx,0x0
10004721:	f7 f7                	div    edi
10004723:	89 45 c8             	mov    DWORD PTR [ebp-0x38],eax
10004726:	8b 75 ac             	mov    esi,DWORD PTR [ebp-0x54]
10004729:	8b 45 c4             	mov    eax,DWORD PTR [ebp-0x3c]
1000472c:	ba 00 00 00 00       	mov    edx,0x0
10004731:	f7 f6                	div    esi
10004733:	89 45 c4             	mov    DWORD PTR [ebp-0x3c],eax
10004736:	8b 7d ac             	mov    edi,DWORD PTR [ebp-0x54]
10004739:	8b 45 c0             	mov    eax,DWORD PTR [ebp-0x40]
1000473c:	ba 00 00 00 00       	mov    edx,0x0
10004741:	f7 f7                	div    edi
10004743:	89 45 c0             	mov    DWORD PTR [ebp-0x40],eax
10004746:	eb 10                	jmp    10004758 <ssfn_render+0x27d6>
10004748:	c1 6d cc 08          	shr    DWORD PTR [ebp-0x34],0x8
1000474c:	c1 6d c8 08          	shr    DWORD PTR [ebp-0x38],0x8
10004750:	c1 6d c4 08          	shr    DWORD PTR [ebp-0x3c],0x8
10004754:	c1 6d c0 08          	shr    DWORD PTR [ebp-0x40],0x8
10004758:	83 7d c0 0f          	cmp    DWORD PTR [ebp-0x40],0xf
1000475c:	0f 86 a1 00 00 00    	jbe    10004803 <ssfn_render+0x2881>
10004762:	8b 45 c0             	mov    eax,DWORD PTR [ebp-0x40]
10004765:	3d ff 00 00 00       	cmp    eax,0xff
1000476a:	76 05                	jbe    10004771 <ssfn_render+0x27ef>
1000476c:	b8 ff 00 00 00       	mov    eax,0xff
10004771:	c1 e0 18             	shl    eax,0x18
10004774:	89 c3                	mov    ebx,eax
10004776:	8b 45 cc             	mov    eax,DWORD PTR [ebp-0x34]
10004779:	3d ff 00 00 00       	cmp    eax,0xff
1000477e:	76 05                	jbe    10004785 <ssfn_render+0x2803>
10004780:	b8 ff 00 00 00       	mov    eax,0xff
10004785:	0f b6 95 33 ff ff ff 	movzx  edx,BYTE PTR [ebp-0xcd]
1000478c:	b9 10 00 00 00       	mov    ecx,0x10
10004791:	29 d1                	sub    ecx,edx
10004793:	89 ca                	mov    edx,ecx
10004795:	88 d1                	mov    cl,dl
10004797:	d3 e0                	shl    eax,cl
10004799:	09 c3                	or     ebx,eax
1000479b:	89 da                	mov    edx,ebx
1000479d:	8b 45 c8             	mov    eax,DWORD PTR [ebp-0x38]
100047a0:	3d ff 00 00 00       	cmp    eax,0xff
100047a5:	76 05                	jbe    100047ac <ssfn_render+0x282a>
100047a7:	b8 ff 00 00 00       	mov    eax,0xff
100047ac:	c1 e0 08             	shl    eax,0x8
100047af:	89 d3                	mov    ebx,edx
100047b1:	09 c3                	or     ebx,eax
100047b3:	8b 45 c4             	mov    eax,DWORD PTR [ebp-0x3c]
100047b6:	3d ff 00 00 00       	cmp    eax,0xff
100047bb:	76 05                	jbe    100047c2 <ssfn_render+0x2840>
100047bd:	b8 ff 00 00 00       	mov    eax,0xff
100047c2:	0f b6 95 33 ff ff ff 	movzx  edx,BYTE PTR [ebp-0xcd]
100047c9:	88 d1                	mov    cl,dl
100047cb:	d3 e0                	shl    eax,cl
100047cd:	09 c3                	or     ebx,eax
100047cf:	89 da                	mov    edx,ebx
100047d1:	8b 45 d0             	mov    eax,DWORD PTR [ebp-0x30]
100047d4:	89 10                	mov    DWORD PTR [eax],edx
100047d6:	8b 45 98             	mov    eax,DWORD PTR [ebp-0x68]
100047d9:	3b 45 a8             	cmp    eax,DWORD PTR [ebp-0x58]
100047dc:	75 25                	jne    10004803 <ssfn_render+0x2881>
100047de:	8b 45 80             	mov    eax,DWORD PTR [ebp-0x80]
100047e1:	3b 45 9c             	cmp    eax,DWORD PTR [ebp-0x64]
100047e4:	7e 06                	jle    100047ec <ssfn_render+0x286a>
100047e6:	8b 45 9c             	mov    eax,DWORD PTR [ebp-0x64]
100047e9:	89 45 80             	mov    DWORD PTR [ebp-0x80],eax
100047ec:	8b 85 7c ff ff ff    	mov    eax,DWORD PTR [ebp-0x84]
100047f2:	3b 45 9c             	cmp    eax,DWORD PTR [ebp-0x64]
100047f5:	7d 0c                	jge    10004803 <ssfn_render+0x2881>
100047f7:	8b 45 9c             	mov    eax,DWORD PTR [ebp-0x64]
100047fa:	89 85 7c ff ff ff    	mov    DWORD PTR [ebp-0x84],eax
10004800:	eb 01                	jmp    10004803 <ssfn_render+0x2881>
10004802:	90                   	nop
10004803:	ff 45 9c             	inc    DWORD PTR [ebp-0x64]
10004806:	83 45 d0 04          	add    DWORD PTR [ebp-0x30],0x4
1000480a:	e9 c7 f9 ff ff       	jmp    100041d6 <ssfn_render+0x2254>
1000480f:	90                   	nop
10004810:	ff 45 98             	inc    DWORD PTR [ebp-0x68]
10004813:	8b 45 0c             	mov    eax,DWORD PTR [ebp+0xc]
10004816:	8b 40 08             	mov    eax,DWORD PTR [eax+0x8]
10004819:	0f b7 c0             	movzx  eax,ax
1000481c:	c1 f8 02             	sar    eax,0x2
1000481f:	c1 e0 02             	shl    eax,0x2
10004822:	01 45 d4             	add    DWORD PTR [ebp-0x2c],eax
10004825:	e9 e1 f8 ff ff       	jmp    1000410b <ssfn_render+0x2189>
1000482a:	8b 45 08             	mov    eax,DWORD PTR [ebp+0x8]
1000482d:	8b 80 bc f5 00 00    	mov    eax,DWORD PTR [eax+0xf5bc]
10004833:	83 e0 10             	and    eax,0x10
10004836:	85 c0                	test   eax,eax
10004838:	0f 84 81 02 00 00    	je     10004abf <ssfn_render+0x2b3d>
1000483e:	0f b6 85 46 ff ff ff 	movzx  eax,BYTE PTR [ebp-0xba]
10004845:	40                   	inc    eax
10004846:	29 45 80             	sub    DWORD PTR [ebp-0x80],eax
10004849:	0f b6 85 46 ff ff ff 	movzx  eax,BYTE PTR [ebp-0xba]
10004850:	83 c0 02             	add    eax,0x2
10004853:	01 85 7c ff ff ff    	add    DWORD PTR [ebp-0x84],eax
10004859:	8b 85 7c ff ff ff    	mov    eax,DWORD PTR [ebp-0x84]
1000485f:	3b 45 80             	cmp    eax,DWORD PTR [ebp-0x80]
10004862:	7d 0a                	jge    1000486e <ssfn_render+0x28ec>
10004864:	8b 45 80             	mov    eax,DWORD PTR [ebp-0x80]
10004867:	40                   	inc    eax
10004868:	89 85 7c ff ff ff    	mov    DWORD PTR [ebp-0x84],eax
1000486e:	8b 45 94             	mov    eax,DWORD PTR [ebp-0x6c]
10004871:	3b 45 a0             	cmp    eax,DWORD PTR [ebp-0x60]
10004874:	7e 05                	jle    1000487b <ssfn_render+0x28f9>
10004876:	8b 45 94             	mov    eax,DWORD PTR [ebp-0x6c]
10004879:	eb 03                	jmp    1000487e <ssfn_render+0x28fc>
1000487b:	8b 45 a0             	mov    eax,DWORD PTR [ebp-0x60]
1000487e:	89 45 b8             	mov    DWORD PTR [ebp-0x48],eax
10004881:	8b 45 0c             	mov    eax,DWORD PTR [ebp+0xc]
10004884:	8b 10                	mov    edx,DWORD PTR [eax]
10004886:	8b 45 0c             	mov    eax,DWORD PTR [ebp+0xc]
10004889:	8b 40 08             	mov    eax,DWORD PTR [eax+0x8]
1000488c:	0f b7 c8             	movzx  ecx,ax
1000488f:	8b 45 0c             	mov    eax,DWORD PTR [ebp+0xc]
10004892:	8b 40 0c             	mov    eax,DWORD PTR [eax+0xc]
10004895:	98                   	cwde   
10004896:	2b 85 74 ff ff ff    	sub    eax,DWORD PTR [ebp-0x8c]
1000489c:	89 c3                	mov    ebx,eax
1000489e:	8b 45 a8             	mov    eax,DWORD PTR [ebp-0x58]
100048a1:	01 d8                	add    eax,ebx
100048a3:	0f af c1             	imul   eax,ecx
100048a6:	89 c1                	mov    ecx,eax
100048a8:	8b 45 0c             	mov    eax,DWORD PTR [ebp+0xc]
100048ab:	66 8b 40 0a          	mov    ax,WORD PTR [eax+0xa]
100048af:	98                   	cwde   
100048b0:	2b 85 78 ff ff ff    	sub    eax,DWORD PTR [ebp-0x88]
100048b6:	48                   	dec    eax
100048b7:	c1 e0 02             	shl    eax,0x2
100048ba:	01 c8                	add    eax,ecx
100048bc:	01 d0                	add    eax,edx
100048be:	89 45 d4             	mov    DWORD PTR [ebp-0x2c],eax
100048c1:	8b 45 a8             	mov    eax,DWORD PTR [ebp-0x58]
100048c4:	89 45 98             	mov    DWORD PTR [ebp-0x68],eax
100048c7:	0f b6 95 46 ff ff ff 	movzx  edx,BYTE PTR [ebp-0xba]
100048ce:	8b 45 a8             	mov    eax,DWORD PTR [ebp-0x58]
100048d1:	01 d0                	add    eax,edx
100048d3:	39 45 98             	cmp    DWORD PTR [ebp-0x68],eax
100048d6:	0f 8d e3 01 00 00    	jge    10004abf <ssfn_render+0x2b3d>
100048dc:	8b 45 0c             	mov    eax,DWORD PTR [ebp+0xc]
100048df:	8b 40 0c             	mov    eax,DWORD PTR [eax+0xc]
100048e2:	0f bf d0             	movsx  edx,ax
100048e5:	8b 45 98             	mov    eax,DWORD PTR [ebp-0x68]
100048e8:	01 d0                	add    eax,edx
100048ea:	2b 85 74 ff ff ff    	sub    eax,DWORD PTR [ebp-0x8c]
100048f0:	89 c2                	mov    edx,eax
100048f2:	8b 45 0c             	mov    eax,DWORD PTR [ebp+0xc]
100048f5:	66 8b 40 06          	mov    ax,WORD PTR [eax+0x6]
100048f9:	98                   	cwde   
100048fa:	39 c2                	cmp    edx,eax
100048fc:	0f 8d bd 01 00 00    	jge    10004abf <ssfn_render+0x2b3d>
10004902:	8b 45 0c             	mov    eax,DWORD PTR [ebp+0xc]
10004905:	8b 40 0c             	mov    eax,DWORD PTR [eax+0xc]
10004908:	0f bf d0             	movsx  edx,ax
1000490b:	8b 45 98             	mov    eax,DWORD PTR [ebp-0x68]
1000490e:	01 d0                	add    eax,edx
10004910:	2b 85 74 ff ff ff    	sub    eax,DWORD PTR [ebp-0x8c]
10004916:	85 c0                	test   eax,eax
10004918:	0f 88 86 01 00 00    	js     10004aa4 <ssfn_render+0x2b22>
1000491e:	8b 45 d4             	mov    eax,DWORD PTR [ebp-0x2c]
10004921:	89 45 d0             	mov    DWORD PTR [ebp-0x30],eax
10004924:	c7 45 9c 00 00 00 00 	mov    DWORD PTR [ebp-0x64],0x0
1000492b:	8b 45 9c             	mov    eax,DWORD PTR [ebp-0x64]
1000492e:	3b 45 b8             	cmp    eax,DWORD PTR [ebp-0x48]
10004931:	0f 8f 6e 01 00 00    	jg     10004aa5 <ssfn_render+0x2b23>
10004937:	8b 45 0c             	mov    eax,DWORD PTR [ebp+0xc]
1000493a:	66 8b 40 0a          	mov    ax,WORD PTR [eax+0xa]
1000493e:	0f bf d0             	movsx  edx,ax
10004941:	8b 45 9c             	mov    eax,DWORD PTR [ebp-0x64]
10004944:	01 d0                	add    eax,edx
10004946:	2b 85 78 ff ff ff    	sub    eax,DWORD PTR [ebp-0x88]
1000494c:	39 45 bc             	cmp    DWORD PTR [ebp-0x44],eax
1000494f:	0f 8e 50 01 00 00    	jle    10004aa5 <ssfn_render+0x2b23>
10004955:	8b 45 0c             	mov    eax,DWORD PTR [ebp+0xc]
10004958:	66 8b 40 0a          	mov    ax,WORD PTR [eax+0xa]
1000495c:	0f bf d0             	movsx  edx,ax
1000495f:	8b 45 9c             	mov    eax,DWORD PTR [ebp-0x64]
10004962:	01 d0                	add    eax,edx
10004964:	2b 85 78 ff ff ff    	sub    eax,DWORD PTR [ebp-0x88]
1000496a:	85 c0                	test   eax,eax
1000496c:	0f 88 25 01 00 00    	js     10004a97 <ssfn_render+0x2b15>
10004972:	8b 45 9c             	mov    eax,DWORD PTR [ebp-0x64]
10004975:	3b 45 80             	cmp    eax,DWORD PTR [ebp-0x80]
10004978:	7e 0f                	jle    10004989 <ssfn_render+0x2a07>
1000497a:	8b 45 9c             	mov    eax,DWORD PTR [ebp-0x64]
1000497d:	3b 85 7c ff ff ff    	cmp    eax,DWORD PTR [ebp-0x84]
10004983:	0f 8c 0e 01 00 00    	jl     10004a97 <ssfn_render+0x2b15>
10004989:	8b 45 d0             	mov    eax,DWORD PTR [ebp-0x30]
1000498c:	8b 00                	mov    eax,DWORD PTR [eax]
1000498e:	89 85 0c ff ff ff    	mov    DWORD PTR [ebp-0xf4],eax
10004994:	0f b6 85 33 ff ff ff 	movzx  eax,BYTE PTR [ebp-0xcd]
1000499b:	ba 10 00 00 00       	mov    edx,0x10
100049a0:	29 c2                	sub    edx,eax
100049a2:	89 d0                	mov    eax,edx
100049a4:	8b 95 0c ff ff ff    	mov    edx,DWORD PTR [ebp-0xf4]
100049aa:	88 c1                	mov    cl,al
100049ac:	d3 ea                	shr    edx,cl
100049ae:	89 d0                	mov    eax,edx
100049b0:	25 ff 00 00 00       	and    eax,0xff
100049b5:	89 85 58 ff ff ff    	mov    DWORD PTR [ebp-0xa8],eax
100049bb:	8b 85 0c ff ff ff    	mov    eax,DWORD PTR [ebp-0xf4]
100049c1:	c1 e8 08             	shr    eax,0x8
100049c4:	25 ff 00 00 00       	and    eax,0xff
100049c9:	89 85 5c ff ff ff    	mov    DWORD PTR [ebp-0xa4],eax
100049cf:	0f b6 85 33 ff ff ff 	movzx  eax,BYTE PTR [ebp-0xcd]
100049d6:	8b 95 0c ff ff ff    	mov    edx,DWORD PTR [ebp-0xf4]
100049dc:	88 c1                	mov    cl,al
100049de:	d3 ea                	shr    edx,cl
100049e0:	89 d0                	mov    eax,edx
100049e2:	25 ff 00 00 00       	and    eax,0xff
100049e7:	89 85 60 ff ff ff    	mov    DWORD PTR [ebp-0xa0],eax
100049ed:	8b 85 24 ff ff ff    	mov    eax,DWORD PTR [ebp-0xdc]
100049f3:	2b 85 60 ff ff ff    	sub    eax,DWORD PTR [ebp-0xa0]
100049f9:	0f af 85 20 ff ff ff 	imul   eax,DWORD PTR [ebp-0xe0]
10004a00:	c1 f8 08             	sar    eax,0x8
10004a03:	01 85 60 ff ff ff    	add    DWORD PTR [ebp-0xa0],eax
10004a09:	8b 85 28 ff ff ff    	mov    eax,DWORD PTR [ebp-0xd8]
10004a0f:	2b 85 5c ff ff ff    	sub    eax,DWORD PTR [ebp-0xa4]
10004a15:	0f af 85 20 ff ff ff 	imul   eax,DWORD PTR [ebp-0xe0]
10004a1c:	c1 f8 08             	sar    eax,0x8
10004a1f:	01 85 5c ff ff ff    	add    DWORD PTR [ebp-0xa4],eax
10004a25:	8b 85 2c ff ff ff    	mov    eax,DWORD PTR [ebp-0xd4]
10004a2b:	2b 85 58 ff ff ff    	sub    eax,DWORD PTR [ebp-0xa8]
10004a31:	0f af 85 20 ff ff ff 	imul   eax,DWORD PTR [ebp-0xe0]
10004a38:	c1 f8 08             	sar    eax,0x8
10004a3b:	01 85 58 ff ff ff    	add    DWORD PTR [ebp-0xa8],eax
10004a41:	8b 85 20 ff ff ff    	mov    eax,DWORD PTR [ebp-0xe0]
10004a47:	c1 e0 18             	shl    eax,0x18
10004a4a:	89 c3                	mov    ebx,eax
10004a4c:	0f b6 85 33 ff ff ff 	movzx  eax,BYTE PTR [ebp-0xcd]
10004a53:	ba 10 00 00 00       	mov    edx,0x10
10004a58:	29 c2                	sub    edx,eax
10004a5a:	89 d0                	mov    eax,edx
10004a5c:	8b 95 58 ff ff ff    	mov    edx,DWORD PTR [ebp-0xa8]
10004a62:	88 c1                	mov    cl,al
10004a64:	d3 e2                	shl    edx,cl
10004a66:	89 d0                	mov    eax,edx
10004a68:	09 c3                	or     ebx,eax
10004a6a:	89 da                	mov    edx,ebx
10004a6c:	8b 85 5c ff ff ff    	mov    eax,DWORD PTR [ebp-0xa4]
10004a72:	c1 e0 08             	shl    eax,0x8
10004a75:	89 d3                	mov    ebx,edx
10004a77:	09 c3                	or     ebx,eax
10004a79:	0f b6 85 33 ff ff ff 	movzx  eax,BYTE PTR [ebp-0xcd]
10004a80:	8b 95 60 ff ff ff    	mov    edx,DWORD PTR [ebp-0xa0]
10004a86:	88 c1                	mov    cl,al
10004a88:	d3 e2                	shl    edx,cl
10004a8a:	89 d0                	mov    eax,edx
10004a8c:	09 d8                	or     eax,ebx
10004a8e:	89 c2                	mov    edx,eax
10004a90:	8b 45 d0             	mov    eax,DWORD PTR [ebp-0x30]
10004a93:	89 10                	mov    DWORD PTR [eax],edx
10004a95:	eb 01                	jmp    10004a98 <ssfn_render+0x2b16>
10004a97:	90                   	nop
10004a98:	ff 45 9c             	inc    DWORD PTR [ebp-0x64]
10004a9b:	83 45 d0 04          	add    DWORD PTR [ebp-0x30],0x4
10004a9f:	e9 87 fe ff ff       	jmp    1000492b <ssfn_render+0x29a9>
10004aa4:	90                   	nop
10004aa5:	ff 45 98             	inc    DWORD PTR [ebp-0x68]
10004aa8:	8b 45 0c             	mov    eax,DWORD PTR [ebp+0xc]
10004aab:	8b 40 08             	mov    eax,DWORD PTR [eax+0x8]
10004aae:	0f b7 c0             	movzx  eax,ax
10004ab1:	c1 f8 02             	sar    eax,0x2
10004ab4:	c1 e0 02             	shl    eax,0x2
10004ab7:	01 45 d4             	add    DWORD PTR [ebp-0x2c],eax
10004aba:	e9 08 fe ff ff       	jmp    100048c7 <ssfn_render+0x2945>
10004abf:	8b 45 08             	mov    eax,DWORD PTR [ebp+0x8]
10004ac2:	8b 80 bc f5 00 00    	mov    eax,DWORD PTR [eax+0xf5bc]
10004ac8:	83 e0 20             	and    eax,0x20
10004acb:	85 c0                	test   eax,eax
10004acd:	0f 84 47 02 00 00    	je     10004d1a <ssfn_render+0x2d98>
10004ad3:	8b 85 3c ff ff ff    	mov    eax,DWORD PTR [ebp-0xc4]
10004ad9:	d1 f8                	sar    eax,1
10004adb:	89 45 a8             	mov    DWORD PTR [ebp-0x58],eax
10004ade:	8b 45 94             	mov    eax,DWORD PTR [ebp-0x6c]
10004ae1:	3b 45 a0             	cmp    eax,DWORD PTR [ebp-0x60]
10004ae4:	7e 06                	jle    10004aec <ssfn_render+0x2b6a>
10004ae6:	8b 45 94             	mov    eax,DWORD PTR [ebp-0x6c]
10004ae9:	40                   	inc    eax
10004aea:	eb 04                	jmp    10004af0 <ssfn_render+0x2b6e>
10004aec:	8b 45 a0             	mov    eax,DWORD PTR [ebp-0x60]
10004aef:	40                   	inc    eax
10004af0:	89 45 b8             	mov    DWORD PTR [ebp-0x48],eax
10004af3:	8b 45 0c             	mov    eax,DWORD PTR [ebp+0xc]
10004af6:	8b 10                	mov    edx,DWORD PTR [eax]
10004af8:	8b 45 0c             	mov    eax,DWORD PTR [ebp+0xc]
10004afb:	8b 40 08             	mov    eax,DWORD PTR [eax+0x8]
10004afe:	0f b7 c8             	movzx  ecx,ax
10004b01:	8b 45 0c             	mov    eax,DWORD PTR [ebp+0xc]
10004b04:	8b 40 0c             	mov    eax,DWORD PTR [eax+0xc]
10004b07:	98                   	cwde   
10004b08:	2b 85 74 ff ff ff    	sub    eax,DWORD PTR [ebp-0x8c]
10004b0e:	89 c3                	mov    ebx,eax
10004b10:	8b 45 a8             	mov    eax,DWORD PTR [ebp-0x58]
10004b13:	01 d8                	add    eax,ebx
10004b15:	0f af c1             	imul   eax,ecx
10004b18:	89 c1                	mov    ecx,eax
10004b1a:	8b 45 0c             	mov    eax,DWORD PTR [ebp+0xc]
10004b1d:	66 8b 40 0a          	mov    ax,WORD PTR [eax+0xa]
10004b21:	98                   	cwde   
10004b22:	2b 85 78 ff ff ff    	sub    eax,DWORD PTR [ebp-0x88]
10004b28:	48                   	dec    eax
10004b29:	c1 e0 02             	shl    eax,0x2
10004b2c:	01 c8                	add    eax,ecx
10004b2e:	01 d0                	add    eax,edx
10004b30:	89 45 d4             	mov    DWORD PTR [ebp-0x2c],eax
10004b33:	8b 45 a8             	mov    eax,DWORD PTR [ebp-0x58]
10004b36:	89 45 98             	mov    DWORD PTR [ebp-0x68],eax
10004b39:	0f b6 95 46 ff ff ff 	movzx  edx,BYTE PTR [ebp-0xba]
10004b40:	8b 45 a8             	mov    eax,DWORD PTR [ebp-0x58]
10004b43:	01 d0                	add    eax,edx
10004b45:	39 45 98             	cmp    DWORD PTR [ebp-0x68],eax
10004b48:	0f 8d cc 01 00 00    	jge    10004d1a <ssfn_render+0x2d98>
10004b4e:	8b 45 0c             	mov    eax,DWORD PTR [ebp+0xc]
10004b51:	8b 40 0c             	mov    eax,DWORD PTR [eax+0xc]
10004b54:	0f bf d0             	movsx  edx,ax
10004b57:	8b 45 98             	mov    eax,DWORD PTR [ebp-0x68]
10004b5a:	01 d0                	add    eax,edx
10004b5c:	2b 85 74 ff ff ff    	sub    eax,DWORD PTR [ebp-0x8c]
10004b62:	89 c2                	mov    edx,eax
10004b64:	8b 45 0c             	mov    eax,DWORD PTR [ebp+0xc]
10004b67:	66 8b 40 06          	mov    ax,WORD PTR [eax+0x6]
10004b6b:	98                   	cwde   
10004b6c:	39 c2                	cmp    edx,eax
10004b6e:	0f 8d a6 01 00 00    	jge    10004d1a <ssfn_render+0x2d98>
10004b74:	8b 45 0c             	mov    eax,DWORD PTR [ebp+0xc]
10004b77:	8b 40 0c             	mov    eax,DWORD PTR [eax+0xc]
10004b7a:	0f bf d0             	movsx  edx,ax
10004b7d:	8b 45 98             	mov    eax,DWORD PTR [ebp-0x68]
10004b80:	01 d0                	add    eax,edx
10004b82:	2b 85 74 ff ff ff    	sub    eax,DWORD PTR [ebp-0x8c]
10004b88:	85 c0                	test   eax,eax
10004b8a:	0f 88 6f 01 00 00    	js     10004cff <ssfn_render+0x2d7d>
10004b90:	8b 45 d4             	mov    eax,DWORD PTR [ebp-0x2c]
10004b93:	89 45 d0             	mov    DWORD PTR [ebp-0x30],eax
10004b96:	c7 45 9c 00 00 00 00 	mov    DWORD PTR [ebp-0x64],0x0
10004b9d:	8b 45 9c             	mov    eax,DWORD PTR [ebp-0x64]
10004ba0:	3b 45 b8             	cmp    eax,DWORD PTR [ebp-0x48]
10004ba3:	0f 8f 57 01 00 00    	jg     10004d00 <ssfn_render+0x2d7e>
10004ba9:	8b 45 0c             	mov    eax,DWORD PTR [ebp+0xc]
10004bac:	66 8b 40 0a          	mov    ax,WORD PTR [eax+0xa]
10004bb0:	0f bf d0             	movsx  edx,ax
10004bb3:	8b 45 9c             	mov    eax,DWORD PTR [ebp-0x64]
10004bb6:	01 d0                	add    eax,edx
10004bb8:	2b 85 78 ff ff ff    	sub    eax,DWORD PTR [ebp-0x88]
10004bbe:	39 45 bc             	cmp    DWORD PTR [ebp-0x44],eax
10004bc1:	0f 8e 39 01 00 00    	jle    10004d00 <ssfn_render+0x2d7e>
10004bc7:	8b 45 0c             	mov    eax,DWORD PTR [ebp+0xc]
10004bca:	66 8b 40 0a          	mov    ax,WORD PTR [eax+0xa]
10004bce:	0f bf d0             	movsx  edx,ax
10004bd1:	8b 45 9c             	mov    eax,DWORD PTR [ebp-0x64]
10004bd4:	01 d0                	add    eax,edx
10004bd6:	2b 85 78 ff ff ff    	sub    eax,DWORD PTR [ebp-0x88]
10004bdc:	85 c0                	test   eax,eax
10004bde:	0f 88 0e 01 00 00    	js     10004cf2 <ssfn_render+0x2d70>
10004be4:	8b 45 d0             	mov    eax,DWORD PTR [ebp-0x30]
10004be7:	8b 00                	mov    eax,DWORD PTR [eax]
10004be9:	89 85 0c ff ff ff    	mov    DWORD PTR [ebp-0xf4],eax
10004bef:	0f b6 85 33 ff ff ff 	movzx  eax,BYTE PTR [ebp-0xcd]
10004bf6:	ba 10 00 00 00       	mov    edx,0x10
10004bfb:	29 c2                	sub    edx,eax
10004bfd:	89 d0                	mov    eax,edx
10004bff:	8b 95 0c ff ff ff    	mov    edx,DWORD PTR [ebp-0xf4]
10004c05:	88 c1                	mov    cl,al
10004c07:	d3 ea                	shr    edx,cl
10004c09:	89 d0                	mov    eax,edx
10004c0b:	25 ff 00 00 00       	and    eax,0xff
10004c10:	89 85 58 ff ff ff    	mov    DWORD PTR [ebp-0xa8],eax
10004c16:	8b 85 0c ff ff ff    	mov    eax,DWORD PTR [ebp-0xf4]
10004c1c:	c1 e8 08             	shr    eax,0x8
10004c1f:	25 ff 00 00 00       	and    eax,0xff
10004c24:	89 85 5c ff ff ff    	mov    DWORD PTR [ebp-0xa4],eax
10004c2a:	0f b6 85 33 ff ff ff 	movzx  eax,BYTE PTR [ebp-0xcd]
10004c31:	8b 95 0c ff ff ff    	mov    edx,DWORD PTR [ebp-0xf4]
10004c37:	88 c1                	mov    cl,al
10004c39:	d3 ea                	shr    edx,cl
10004c3b:	89 d0                	mov    eax,edx
10004c3d:	25 ff 00 00 00       	and    eax,0xff
10004c42:	89 85 60 ff ff ff    	mov    DWORD PTR [ebp-0xa0],eax
10004c48:	8b 85 24 ff ff ff    	mov    eax,DWORD PTR [ebp-0xdc]
10004c4e:	2b 85 60 ff ff ff    	sub    eax,DWORD PTR [ebp-0xa0]
10004c54:	0f af 85 20 ff ff ff 	imul   eax,DWORD PTR [ebp-0xe0]
10004c5b:	c1 f8 08             	sar    eax,0x8
10004c5e:	01 85 60 ff ff ff    	add    DWORD PTR [ebp-0xa0],eax
10004c64:	8b 85 28 ff ff ff    	mov    eax,DWORD PTR [ebp-0xd8]
10004c6a:	2b 85 5c ff ff ff    	sub    eax,DWORD PTR [ebp-0xa4]
10004c70:	0f af 85 20 ff ff ff 	imul   eax,DWORD PTR [ebp-0xe0]
10004c77:	c1 f8 08             	sar    eax,0x8
10004c7a:	01 85 5c ff ff ff    	add    DWORD PTR [ebp-0xa4],eax
10004c80:	8b 85 2c ff ff ff    	mov    eax,DWORD PTR [ebp-0xd4]
10004c86:	2b 85 58 ff ff ff    	sub    eax,DWORD PTR [ebp-0xa8]
10004c8c:	0f af 85 20 ff ff ff 	imul   eax,DWORD PTR [ebp-0xe0]
10004c93:	c1 f8 08             	sar    eax,0x8
10004c96:	01 85 58 ff ff ff    	add    DWORD PTR [ebp-0xa8],eax
10004c9c:	8b 85 20 ff ff ff    	mov    eax,DWORD PTR [ebp-0xe0]
10004ca2:	c1 e0 18             	shl    eax,0x18
10004ca5:	89 c3                	mov    ebx,eax
10004ca7:	0f b6 85 33 ff ff ff 	movzx  eax,BYTE PTR [ebp-0xcd]
10004cae:	ba 10 00 00 00       	mov    edx,0x10
10004cb3:	29 c2                	sub    edx,eax
10004cb5:	89 d0                	mov    eax,edx
10004cb7:	8b 95 58 ff ff ff    	mov    edx,DWORD PTR [ebp-0xa8]
10004cbd:	88 c1                	mov    cl,al
10004cbf:	d3 e2                	shl    edx,cl
10004cc1:	89 d0                	mov    eax,edx
10004cc3:	09 c3                	or     ebx,eax
10004cc5:	89 da                	mov    edx,ebx
10004cc7:	8b 85 5c ff ff ff    	mov    eax,DWORD PTR [ebp-0xa4]
10004ccd:	c1 e0 08             	shl    eax,0x8
10004cd0:	89 d3                	mov    ebx,edx
10004cd2:	09 c3                	or     ebx,eax
10004cd4:	0f b6 85 33 ff ff ff 	movzx  eax,BYTE PTR [ebp-0xcd]
10004cdb:	8b 95 60 ff ff ff    	mov    edx,DWORD PTR [ebp-0xa0]
10004ce1:	88 c1                	mov    cl,al
10004ce3:	d3 e2                	shl    edx,cl
10004ce5:	89 d0                	mov    eax,edx
10004ce7:	09 d8                	or     eax,ebx
10004ce9:	89 c2                	mov    edx,eax
10004ceb:	8b 45 d0             	mov    eax,DWORD PTR [ebp-0x30]
10004cee:	89 10                	mov    DWORD PTR [eax],edx
10004cf0:	eb 01                	jmp    10004cf3 <ssfn_render+0x2d71>
10004cf2:	90                   	nop
10004cf3:	ff 45 9c             	inc    DWORD PTR [ebp-0x64]
10004cf6:	83 45 d0 04          	add    DWORD PTR [ebp-0x30],0x4
10004cfa:	e9 9e fe ff ff       	jmp    10004b9d <ssfn_render+0x2c1b>
10004cff:	90                   	nop
10004d00:	ff 45 98             	inc    DWORD PTR [ebp-0x68]
10004d03:	8b 45 0c             	mov    eax,DWORD PTR [ebp+0xc]
10004d06:	8b 40 08             	mov    eax,DWORD PTR [eax+0x8]
10004d09:	0f b7 c0             	movzx  eax,ax
10004d0c:	c1 f8 02             	sar    eax,0x2
10004d0f:	c1 e0 02             	shl    eax,0x2
10004d12:	01 45 d4             	add    DWORD PTR [ebp-0x2c],eax
10004d15:	e9 1f fe ff ff       	jmp    10004b39 <ssfn_render+0x2bb7>
10004d1a:	8b 45 08             	mov    eax,DWORD PTR [ebp+0x8]
10004d1d:	8b 80 bc f5 00 00    	mov    eax,DWORD PTR [eax+0xf5bc]
10004d23:	25 00 08 00 00       	and    eax,0x800
10004d28:	85 c0                	test   eax,eax
10004d2a:	74 07                	je     10004d33 <ssfn_render+0x2db1>
10004d2c:	8b 45 a0             	mov    eax,DWORD PTR [ebp-0x60]
10004d2f:	f7 d8                	neg    eax
10004d31:	eb 03                	jmp    10004d36 <ssfn_render+0x2db4>
10004d33:	8b 45 a0             	mov    eax,DWORD PTR [ebp-0x60]
10004d36:	8b 55 08             	mov    edx,DWORD PTR [ebp+0x8]
10004d39:	89 82 90 f5 00 00    	mov    DWORD PTR [edx+0xf590],eax
10004d3f:	8b 45 0c             	mov    eax,DWORD PTR [ebp+0xc]
10004d42:	66 8b 40 0a          	mov    ax,WORD PTR [eax+0xa]
10004d46:	89 c2                	mov    edx,eax
10004d48:	8b 45 08             	mov    eax,DWORD PTR [ebp+0x8]
10004d4b:	8b 80 90 f5 00 00    	mov    eax,DWORD PTR [eax+0xf590]
10004d51:	01 d0                	add    eax,edx
10004d53:	89 c2                	mov    edx,eax
10004d55:	8b 45 0c             	mov    eax,DWORD PTR [ebp+0xc]
10004d58:	66 89 50 0a          	mov    WORD PTR [eax+0xa],dx
10004d5c:	8b 45 0c             	mov    eax,DWORD PTR [ebp+0xc]
10004d5f:	8b 40 0c             	mov    eax,DWORD PTR [eax+0xc]
10004d62:	89 c3                	mov    ebx,eax
10004d64:	8b 45 08             	mov    eax,DWORD PTR [ebp+0x8]
10004d67:	8b 80 24 f5 00 00    	mov    eax,DWORD PTR [eax+0xf524]
10004d6d:	8a 40 05             	mov    al,BYTE PTR [eax+0x5]
10004d70:	0f b6 c0             	movzx  eax,al
10004d73:	0f af 85 3c ff ff ff 	imul   eax,DWORD PTR [ebp-0xc4]
10004d7a:	89 c2                	mov    edx,eax
10004d7c:	8b 45 08             	mov    eax,DWORD PTR [ebp+0x8]
10004d7f:	8b 40 18             	mov    eax,DWORD PTR [eax+0x18]
10004d82:	8a 40 0b             	mov    al,BYTE PTR [eax+0xb]
10004d85:	0f b6 c0             	movzx  eax,al
10004d88:	01 d0                	add    eax,edx
10004d8a:	8d 48 ff             	lea    ecx,[eax-0x1]
10004d8d:	8b 45 08             	mov    eax,DWORD PTR [ebp+0x8]
10004d90:	8b 40 18             	mov    eax,DWORD PTR [eax+0x18]
10004d93:	8a 40 0b             	mov    al,BYTE PTR [eax+0xb]
10004d96:	0f b6 f0             	movzx  esi,al
10004d99:	89 c8                	mov    eax,ecx
10004d9b:	99                   	cdq    
10004d9c:	f7 fe                	idiv   esi
10004d9e:	01 d8                	add    eax,ebx
10004da0:	89 c2                	mov    edx,eax
10004da2:	8b 45 0c             	mov    eax,DWORD PTR [ebp+0xc]
10004da5:	66 89 50 0c          	mov    WORD PTR [eax+0xc],dx
10004da9:	8b 85 ec f9 fe ff    	mov    eax,DWORD PTR [ebp-0x10614]
10004daf:	89 c2                	mov    edx,eax
10004db1:	8b 45 10             	mov    eax,DWORD PTR [ebp+0x10]
10004db4:	01 d0                	add    eax,edx
10004db6:	89 45 e4             	mov    DWORD PTR [ebp-0x1c],eax
10004db9:	8b 45 08             	mov    eax,DWORD PTR [ebp+0x8]
10004dbc:	8b 80 bc f5 00 00    	mov    eax,DWORD PTR [eax+0xf5bc]
10004dc2:	25 80 00 00 00       	and    eax,0x80
10004dc7:	85 c0                	test   eax,eax
10004dc9:	75 40                	jne    10004e0b <ssfn_render+0x2e89>
10004dcb:	8b 45 08             	mov    eax,DWORD PTR [ebp+0x8]
10004dce:	8b 40 18             	mov    eax,DWORD PTR [eax+0x18]
10004dd1:	8b 40 18             	mov    eax,DWORD PTR [eax+0x18]
10004dd4:	85 c0                	test   eax,eax
10004dd6:	74 33                	je     10004e0b <ssfn_render+0x2e89>
10004dd8:	8b 45 08             	mov    eax,DWORD PTR [ebp+0x8]
10004ddb:	8b 40 18             	mov    eax,DWORD PTR [eax+0x18]
10004dde:	8d 95 f0 f9 fe ff    	lea    edx,[ebp-0x10610]
10004de4:	52                   	push   edx
10004de5:	8d 95 e8 f9 fe ff    	lea    edx,[ebp-0x10618]
10004deb:	52                   	push   edx
10004dec:	ff 75 e4             	push   DWORD PTR [ebp-0x1c]
10004def:	50                   	push   eax
10004df0:	e8 9d b4 ff ff       	call   10000292 <_ssfn_c>
10004df5:	83 c4 10             	add    esp,0x10
10004df8:	85 c0                	test   eax,eax
10004dfa:	74 0f                	je     10004e0b <ssfn_render+0x2e89>
10004dfc:	8b 85 f0 f9 fe ff    	mov    eax,DWORD PTR [ebp-0x10610]
10004e02:	83 f8 20             	cmp    eax,0x20
10004e05:	76 04                	jbe    10004e0b <ssfn_render+0x2e89>
10004e07:	b0 01                	mov    al,0x1
10004e09:	eb 02                	jmp    10004e0d <ssfn_render+0x2e8b>
10004e0b:	b0 00                	mov    al,0x0
10004e0d:	84 c0                	test   al,al
10004e0f:	0f 84 52 03 00 00    	je     10005167 <ssfn_render+0x31e5>
10004e15:	8b 45 08             	mov    eax,DWORD PTR [ebp+0x8]
10004e18:	8b 80 74 f5 00 00    	mov    eax,DWORD PTR [eax+0xf574]
10004e1e:	83 c0 06             	add    eax,0x6
10004e21:	89 45 e4             	mov    DWORD PTR [ebp-0x1c],eax
10004e24:	c7 45 a8 00 00 00 00 	mov    DWORD PTR [ebp-0x58],0x0
10004e2b:	8b 45 08             	mov    eax,DWORD PTR [ebp+0x8]
10004e2e:	8b 80 74 f5 00 00    	mov    eax,DWORD PTR [eax+0xf574]
10004e34:	8a 40 01             	mov    al,BYTE PTR [eax+0x1]
10004e37:	0f b6 c0             	movzx  eax,al
10004e3a:	39 45 a8             	cmp    DWORD PTR [ebp-0x58],eax
10004e3d:	0f 8d 24 03 00 00    	jge    10005167 <ssfn_render+0x31e5>
10004e43:	8b 45 e4             	mov    eax,DWORD PTR [ebp-0x1c]
10004e46:	8a 00                	mov    al,BYTE PTR [eax]
10004e48:	3c ff                	cmp    al,0xff
10004e4a:	75 33                	jne    10004e7f <ssfn_render+0x2efd>
10004e4c:	8b 45 e4             	mov    eax,DWORD PTR [ebp-0x1c]
10004e4f:	40                   	inc    eax
10004e50:	8a 00                	mov    al,BYTE PTR [eax]
10004e52:	3c ff                	cmp    al,0xff
10004e54:	75 29                	jne    10004e7f <ssfn_render+0x2efd>
10004e56:	8b 45 08             	mov    eax,DWORD PTR [ebp+0x8]
10004e59:	8b 80 74 f5 00 00    	mov    eax,DWORD PTR [eax+0xf574]
10004e5f:	8a 00                	mov    al,BYTE PTR [eax]
10004e61:	0f b6 c0             	movzx  eax,al
10004e64:	83 e0 40             	and    eax,0x40
10004e67:	85 c0                	test   eax,eax
10004e69:	74 07                	je     10004e72 <ssfn_render+0x2ef0>
10004e6b:	b8 06 00 00 00       	mov    eax,0x6
10004e70:	eb 05                	jmp    10004e77 <ssfn_render+0x2ef5>
10004e72:	b8 05 00 00 00       	mov    eax,0x5
10004e77:	01 45 e4             	add    DWORD PTR [ebp-0x1c],eax
10004e7a:	e9 e0 02 00 00       	jmp    1000515f <ssfn_render+0x31dd>
10004e7f:	8b 45 e4             	mov    eax,DWORD PTR [ebp-0x1c]
10004e82:	8a 00                	mov    al,BYTE PTR [eax]
10004e84:	0f b6 c0             	movzx  eax,al
10004e87:	89 45 9c             	mov    DWORD PTR [ebp-0x64],eax
10004e8a:	8b 45 08             	mov    eax,DWORD PTR [ebp+0x8]
10004e8d:	8b 80 74 f5 00 00    	mov    eax,DWORD PTR [eax+0xf574]
10004e93:	8a 00                	mov    al,BYTE PTR [eax]
10004e95:	0f b6 c0             	movzx  eax,al
10004e98:	83 e0 40             	and    eax,0x40
10004e9b:	85 c0                	test   eax,eax
10004e9d:	74 46                	je     10004ee5 <ssfn_render+0x2f63>
10004e9f:	8b 45 e4             	mov    eax,DWORD PTR [ebp-0x1c]
10004ea2:	83 c0 05             	add    eax,0x5
10004ea5:	8a 00                	mov    al,BYTE PTR [eax]
10004ea7:	0f b6 c0             	movzx  eax,al
10004eaa:	c1 e0 18             	shl    eax,0x18
10004ead:	89 c2                	mov    edx,eax
10004eaf:	8b 45 e4             	mov    eax,DWORD PTR [ebp-0x1c]
10004eb2:	83 c0 04             	add    eax,0x4
10004eb5:	8a 00                	mov    al,BYTE PTR [eax]
10004eb7:	0f b6 c0             	movzx  eax,al
10004eba:	c1 e0 10             	shl    eax,0x10
10004ebd:	09 c2                	or     edx,eax
10004ebf:	8b 45 e4             	mov    eax,DWORD PTR [ebp-0x1c]
10004ec2:	83 c0 03             	add    eax,0x3
10004ec5:	8a 00                	mov    al,BYTE PTR [eax]
10004ec7:	0f b6 c0             	movzx  eax,al
10004eca:	c1 e0 08             	shl    eax,0x8
10004ecd:	09 c2                	or     edx,eax
10004ecf:	8b 45 e4             	mov    eax,DWORD PTR [ebp-0x1c]
10004ed2:	83 c0 02             	add    eax,0x2
10004ed5:	8a 00                	mov    al,BYTE PTR [eax]
10004ed7:	0f b6 c0             	movzx  eax,al
10004eda:	09 d0                	or     eax,edx
10004edc:	89 45 ac             	mov    DWORD PTR [ebp-0x54],eax
10004edf:	83 45 e4 06          	add    DWORD PTR [ebp-0x1c],0x6
10004ee3:	eb 34                	jmp    10004f19 <ssfn_render+0x2f97>
10004ee5:	8b 45 e4             	mov    eax,DWORD PTR [ebp-0x1c]
10004ee8:	83 c0 04             	add    eax,0x4
10004eeb:	8a 00                	mov    al,BYTE PTR [eax]
10004eed:	0f b6 c0             	movzx  eax,al
10004ef0:	c1 e0 10             	shl    eax,0x10
10004ef3:	89 c2                	mov    edx,eax
10004ef5:	8b 45 e4             	mov    eax,DWORD PTR [ebp-0x1c]
10004ef8:	83 c0 03             	add    eax,0x3
10004efb:	8a 00                	mov    al,BYTE PTR [eax]
10004efd:	0f b6 c0             	movzx  eax,al
10004f00:	c1 e0 08             	shl    eax,0x8
10004f03:	09 c2                	or     edx,eax
10004f05:	8b 45 e4             	mov    eax,DWORD PTR [ebp-0x1c]
10004f08:	83 c0 02             	add    eax,0x2
10004f0b:	8a 00                	mov    al,BYTE PTR [eax]
10004f0d:	0f b6 c0             	movzx  eax,al
10004f10:	09 d0                	or     eax,edx
10004f12:	89 45 ac             	mov    DWORD PTR [ebp-0x54],eax
10004f15:	83 45 e4 05          	add    DWORD PTR [ebp-0x1c],0x5
10004f19:	8b 45 08             	mov    eax,DWORD PTR [ebp+0x8]
10004f1c:	8b 50 18             	mov    edx,DWORD PTR [eax+0x18]
10004f1f:	8b 45 ac             	mov    eax,DWORD PTR [ebp-0x54]
10004f22:	01 d0                	add    eax,edx
10004f24:	89 45 e0             	mov    DWORD PTR [ebp-0x20],eax
10004f27:	8b 45 e0             	mov    eax,DWORD PTR [ebp-0x20]
10004f2a:	8a 00                	mov    al,BYTE PTR [eax]
10004f2c:	0f b6 c0             	movzx  eax,al
10004f2f:	25 e0 00 00 00       	and    eax,0xe0
10004f34:	3d c0 00 00 00       	cmp    eax,0xc0
10004f39:	0f 85 20 02 00 00    	jne    1000515f <ssfn_render+0x31dd>
10004f3f:	8b 45 e0             	mov    eax,DWORD PTR [ebp-0x20]
10004f42:	8a 00                	mov    al,BYTE PTR [eax]
10004f44:	0f b6 c0             	movzx  eax,al
10004f47:	c1 e0 08             	shl    eax,0x8
10004f4a:	25 00 1f 00 00       	and    eax,0x1f00
10004f4f:	89 c2                	mov    edx,eax
10004f51:	8b 45 e0             	mov    eax,DWORD PTR [ebp-0x20]
10004f54:	40                   	inc    eax
10004f55:	8a 00                	mov    al,BYTE PTR [eax]
10004f57:	0f b6 c0             	movzx  eax,al
10004f5a:	09 d0                	or     eax,edx
10004f5c:	40                   	inc    eax
10004f5d:	89 45 b8             	mov    DWORD PTR [ebp-0x48],eax
10004f60:	83 45 e0 02          	add    DWORD PTR [ebp-0x20],0x2
10004f64:	8b 45 b8             	mov    eax,DWORD PTR [ebp-0x48]
10004f67:	8d 50 ff             	lea    edx,[eax-0x1]
10004f6a:	89 55 b8             	mov    DWORD PTR [ebp-0x48],edx
10004f6d:	85 c0                	test   eax,eax
10004f6f:	0f 95 c0             	setne  al
10004f72:	84 c0                	test   al,al
10004f74:	0f 84 e5 01 00 00    	je     1000515f <ssfn_render+0x31dd>
10004f7a:	8b 45 e0             	mov    eax,DWORD PTR [ebp-0x20]
10004f7d:	83 c0 02             	add    eax,0x2
10004f80:	8a 00                	mov    al,BYTE PTR [eax]
10004f82:	0f b6 c0             	movzx  eax,al
10004f85:	c1 e0 10             	shl    eax,0x10
10004f88:	25 00 00 0f 00       	and    eax,0xf0000
10004f8d:	89 c2                	mov    edx,eax
10004f8f:	8b 45 e0             	mov    eax,DWORD PTR [ebp-0x20]
10004f92:	40                   	inc    eax
10004f93:	8a 00                	mov    al,BYTE PTR [eax]
10004f95:	0f b6 c0             	movzx  eax,al
10004f98:	c1 e0 08             	shl    eax,0x8
10004f9b:	09 c2                	or     edx,eax
10004f9d:	8b 45 e0             	mov    eax,DWORD PTR [ebp-0x20]
10004fa0:	8a 00                	mov    al,BYTE PTR [eax]
10004fa2:	0f b6 c0             	movzx  eax,al
10004fa5:	09 d0                	or     eax,edx
10004fa7:	89 45 ac             	mov    DWORD PTR [ebp-0x54],eax
10004faa:	8b 95 f0 f9 fe ff    	mov    edx,DWORD PTR [ebp-0x10610]
10004fb0:	8b 45 ac             	mov    eax,DWORD PTR [ebp-0x54]
10004fb3:	39 c2                	cmp    edx,eax
10004fb5:	0f 82 9a 01 00 00    	jb     10005155 <ssfn_render+0x31d3>
10004fbb:	8b 45 e0             	mov    eax,DWORD PTR [ebp-0x20]
10004fbe:	83 c0 05             	add    eax,0x5
10004fc1:	8a 00                	mov    al,BYTE PTR [eax]
10004fc3:	0f b6 c0             	movzx  eax,al
10004fc6:	c1 e0 10             	shl    eax,0x10
10004fc9:	25 00 00 0f 00       	and    eax,0xf0000
10004fce:	89 c2                	mov    edx,eax
10004fd0:	8b 45 e0             	mov    eax,DWORD PTR [ebp-0x20]
10004fd3:	83 c0 04             	add    eax,0x4
10004fd6:	8a 00                	mov    al,BYTE PTR [eax]
10004fd8:	0f b6 c0             	movzx  eax,al
10004fdb:	c1 e0 08             	shl    eax,0x8
10004fde:	09 c2                	or     edx,eax
10004fe0:	8b 45 e0             	mov    eax,DWORD PTR [ebp-0x20]
10004fe3:	83 c0 03             	add    eax,0x3
10004fe6:	8a 00                	mov    al,BYTE PTR [eax]
10004fe8:	0f b6 c0             	movzx  eax,al
10004feb:	09 d0                	or     eax,edx
10004fed:	89 c2                	mov    edx,eax
10004fef:	8b 85 f0 f9 fe ff    	mov    eax,DWORD PTR [ebp-0x10610]
10004ff5:	39 c2                	cmp    edx,eax
10004ff7:	0f 82 58 01 00 00    	jb     10005155 <ssfn_render+0x31d3>
10004ffd:	8b 95 f0 f9 fe ff    	mov    edx,DWORD PTR [ebp-0x10610]
10005003:	8b 45 ac             	mov    eax,DWORD PTR [ebp-0x54]
10005006:	29 c2                	sub    edx,eax
10005008:	89 d0                	mov    eax,edx
1000500a:	89 85 f0 f9 fe ff    	mov    DWORD PTR [ebp-0x10610],eax
10005010:	8b 45 08             	mov    eax,DWORD PTR [ebp+0x8]
10005013:	8b 40 18             	mov    eax,DWORD PTR [eax+0x18]
10005016:	8b 40 18             	mov    eax,DWORD PTR [eax+0x18]
10005019:	8b 55 e0             	mov    edx,DWORD PTR [ebp-0x20]
1000501c:	83 c2 02             	add    edx,0x2
1000501f:	8a 12                	mov    dl,BYTE PTR [edx]
10005021:	c0 ea 04             	shr    dl,0x4
10005024:	0f b6 d2             	movzx  edx,dl
10005027:	89 d1                	mov    ecx,edx
10005029:	c1 e1 18             	shl    ecx,0x18
1000502c:	8b 55 e0             	mov    edx,DWORD PTR [ebp-0x20]
1000502f:	83 c2 05             	add    edx,0x5
10005032:	8a 12                	mov    dl,BYTE PTR [edx]
10005034:	c0 ea 04             	shr    dl,0x4
10005037:	0f b6 d2             	movzx  edx,dl
1000503a:	c1 e2 10             	shl    edx,0x10
1000503d:	09 d1                	or     ecx,edx
1000503f:	8b 55 e0             	mov    edx,DWORD PTR [ebp-0x20]
10005042:	83 c2 07             	add    edx,0x7
10005045:	8a 12                	mov    dl,BYTE PTR [edx]
10005047:	0f b6 d2             	movzx  edx,dl
1000504a:	c1 e2 08             	shl    edx,0x8
1000504d:	09 d1                	or     ecx,edx
1000504f:	8b 55 e0             	mov    edx,DWORD PTR [ebp-0x20]
10005052:	83 c2 06             	add    edx,0x6
10005055:	8a 12                	mov    dl,BYTE PTR [edx]
10005057:	0f b6 d2             	movzx  edx,dl
1000505a:	09 ca                	or     edx,ecx
1000505c:	01 d0                	add    eax,edx
1000505e:	89 45 ac             	mov    DWORD PTR [ebp-0x54],eax
10005061:	8b 45 08             	mov    eax,DWORD PTR [ebp+0x8]
10005064:	8b 50 18             	mov    edx,DWORD PTR [eax+0x18]
10005067:	8b 45 ac             	mov    eax,DWORD PTR [ebp-0x54]
1000506a:	01 d0                	add    eax,edx
1000506c:	89 45 dc             	mov    DWORD PTR [ebp-0x24],eax
1000506f:	8b 45 08             	mov    eax,DWORD PTR [ebp+0x8]
10005072:	8b 50 18             	mov    edx,DWORD PTR [eax+0x18]
10005075:	8b 45 08             	mov    eax,DWORD PTR [ebp+0x8]
10005078:	8b 40 18             	mov    eax,DWORD PTR [eax+0x18]
1000507b:	8b 40 04             	mov    eax,DWORD PTR [eax+0x4]
1000507e:	83 e8 04             	sub    eax,0x4
10005081:	01 d0                	add    eax,edx
10005083:	39 45 dc             	cmp    DWORD PTR [ebp-0x24],eax
10005086:	0f 83 d2 00 00 00    	jae    1000515e <ssfn_render+0x31dc>
1000508c:	8b 45 dc             	mov    eax,DWORD PTR [ebp-0x24]
1000508f:	8a 00                	mov    al,BYTE PTR [eax]
10005091:	0f b6 c0             	movzx  eax,al
10005094:	83 e0 7f             	and    eax,0x7f
10005097:	89 c2                	mov    edx,eax
10005099:	8b 85 f0 f9 fe ff    	mov    eax,DWORD PTR [ebp-0x10610]
1000509f:	39 c2                	cmp    edx,eax
100050a1:	73 3f                	jae    100050e2 <ssfn_render+0x3160>
100050a3:	8b 95 f0 f9 fe ff    	mov    edx,DWORD PTR [ebp-0x10610]
100050a9:	8b 45 dc             	mov    eax,DWORD PTR [ebp-0x24]
100050ac:	8a 00                	mov    al,BYTE PTR [eax]
100050ae:	0f b6 c0             	movzx  eax,al
100050b1:	83 e0 7f             	and    eax,0x7f
100050b4:	29 c2                	sub    edx,eax
100050b6:	89 d0                	mov    eax,edx
100050b8:	48                   	dec    eax
100050b9:	89 85 f0 f9 fe ff    	mov    DWORD PTR [ebp-0x10610],eax
100050bf:	8b 45 dc             	mov    eax,DWORD PTR [ebp-0x24]
100050c2:	8a 00                	mov    al,BYTE PTR [eax]
100050c4:	84 c0                	test   al,al
100050c6:	78 10                	js     100050d8 <ssfn_render+0x3156>
100050c8:	8b 45 dc             	mov    eax,DWORD PTR [ebp-0x24]
100050cb:	8a 00                	mov    al,BYTE PTR [eax]
100050cd:	0f b6 c0             	movzx  eax,al
100050d0:	83 e0 7f             	and    eax,0x7f
100050d3:	83 c0 02             	add    eax,0x2
100050d6:	eb 05                	jmp    100050dd <ssfn_render+0x315b>
100050d8:	b8 02 00 00 00       	mov    eax,0x2
100050dd:	01 45 dc             	add    DWORD PTR [ebp-0x24],eax
100050e0:	eb 8d                	jmp    1000506f <ssfn_render+0x30ed>
100050e2:	8b 45 dc             	mov    eax,DWORD PTR [ebp-0x24]
100050e5:	8a 00                	mov    al,BYTE PTR [eax]
100050e7:	84 c0                	test   al,al
100050e9:	78 0b                	js     100050f6 <ssfn_render+0x3174>
100050eb:	8b 85 f0 f9 fe ff    	mov    eax,DWORD PTR [ebp-0x10610]
100050f1:	8d 50 01             	lea    edx,[eax+0x1]
100050f4:	eb 05                	jmp    100050fb <ssfn_render+0x3179>
100050f6:	ba 01 00 00 00       	mov    edx,0x1
100050fb:	8b 45 dc             	mov    eax,DWORD PTR [ebp-0x24]
100050fe:	01 d0                	add    eax,edx
10005100:	8a 00                	mov    al,BYTE PTR [eax]
10005102:	0f be c0             	movsx  eax,al
10005105:	0f af 85 3c ff ff ff 	imul   eax,DWORD PTR [ebp-0xc4]
1000510c:	8b 55 08             	mov    edx,DWORD PTR [ebp+0x8]
1000510f:	8b 52 18             	mov    edx,DWORD PTR [edx+0x18]
10005112:	8a 52 0b             	mov    dl,BYTE PTR [edx+0xb]
10005115:	0f b6 fa             	movzx  edi,dl
10005118:	99                   	cdq    
10005119:	f7 ff                	idiv   edi
1000511b:	89 45 98             	mov    DWORD PTR [ebp-0x68],eax
1000511e:	83 7d 9c 00          	cmp    DWORD PTR [ebp-0x64],0x0
10005122:	74 19                	je     1000513d <ssfn_render+0x31bb>
10005124:	8b 45 0c             	mov    eax,DWORD PTR [ebp+0xc]
10005127:	66 8b 40 0a          	mov    ax,WORD PTR [eax+0xa]
1000512b:	89 c2                	mov    edx,eax
1000512d:	8b 45 98             	mov    eax,DWORD PTR [ebp-0x68]
10005130:	01 d0                	add    eax,edx
10005132:	89 c2                	mov    edx,eax
10005134:	8b 45 0c             	mov    eax,DWORD PTR [ebp+0xc]
10005137:	66 89 50 0a          	mov    WORD PTR [eax+0xa],dx
1000513b:	eb 16                	jmp    10005153 <ssfn_render+0x31d1>
1000513d:	8b 45 0c             	mov    eax,DWORD PTR [ebp+0xc]
10005140:	8b 40 0c             	mov    eax,DWORD PTR [eax+0xc]
10005143:	89 c2                	mov    edx,eax
10005145:	8b 45 98             	mov    eax,DWORD PTR [ebp-0x68]
10005148:	01 d0                	add    eax,edx
1000514a:	89 c2                	mov    edx,eax
1000514c:	8b 45 0c             	mov    eax,DWORD PTR [ebp+0xc]
1000514f:	66 89 50 0c          	mov    WORD PTR [eax+0xc],dx
10005153:	eb 09                	jmp    1000515e <ssfn_render+0x31dc>
10005155:	83 45 e0 08          	add    DWORD PTR [ebp-0x20],0x8
10005159:	e9 06 fe ff ff       	jmp    10004f64 <ssfn_render+0x2fe2>
1000515e:	90                   	nop
1000515f:	ff 45 a8             	inc    DWORD PTR [ebp-0x58]
10005162:	e9 c4 fc ff ff       	jmp    10004e2b <ssfn_render+0x2ea9>
10005167:	8b 85 ec f9 fe ff    	mov    eax,DWORD PTR [ebp-0x10614]
1000516d:	8d 65 f4             	lea    esp,[ebp-0xc]
10005170:	5b                   	pop    ebx
10005171:	5e                   	pop    esi
10005172:	5f                   	pop    edi
10005173:	5d                   	pop    ebp
10005174:	c3                   	ret    

10005175 <ssfn_bbox>:
10005175:	55                   	push   ebp
10005176:	89 e5                	mov    ebp,esp
10005178:	53                   	push   ebx
10005179:	83 ec 34             	sub    esp,0x34
1000517c:	c7 45 f4 01 00 00 00 	mov    DWORD PTR [ebp-0xc],0x1
10005183:	c7 45 f0 00 00 00 00 	mov    DWORD PTR [ebp-0x10],0x0
1000518a:	c7 45 ec 00 00 00 00 	mov    DWORD PTR [ebp-0x14],0x0
10005191:	83 7d 08 00          	cmp    DWORD PTR [ebp+0x8],0x0
10005195:	74 1e                	je     100051b5 <ssfn_bbox+0x40>
10005197:	83 7d 0c 00          	cmp    DWORD PTR [ebp+0xc],0x0
1000519b:	74 18                	je     100051b5 <ssfn_bbox+0x40>
1000519d:	83 7d 10 00          	cmp    DWORD PTR [ebp+0x10],0x0
100051a1:	74 12                	je     100051b5 <ssfn_bbox+0x40>
100051a3:	83 7d 14 00          	cmp    DWORD PTR [ebp+0x14],0x0
100051a7:	74 0c                	je     100051b5 <ssfn_bbox+0x40>
100051a9:	83 7d 1c 00          	cmp    DWORD PTR [ebp+0x1c],0x0
100051ad:	74 06                	je     100051b5 <ssfn_bbox+0x40>
100051af:	83 7d 18 00          	cmp    DWORD PTR [ebp+0x18],0x0
100051b3:	75 0a                	jne    100051bf <ssfn_bbox+0x4a>
100051b5:	b8 fc ff ff ff       	mov    eax,0xfffffffc
100051ba:	e9 16 02 00 00       	jmp    100053d5 <ssfn_bbox+0x260>
100051bf:	8b 45 18             	mov    eax,DWORD PTR [ebp+0x18]
100051c2:	c7 00 00 00 00 00    	mov    DWORD PTR [eax],0x0
100051c8:	8b 45 18             	mov    eax,DWORD PTR [ebp+0x18]
100051cb:	8b 10                	mov    edx,DWORD PTR [eax]
100051cd:	8b 45 1c             	mov    eax,DWORD PTR [ebp+0x1c]
100051d0:	89 10                	mov    DWORD PTR [eax],edx
100051d2:	8b 45 1c             	mov    eax,DWORD PTR [ebp+0x1c]
100051d5:	8b 10                	mov    edx,DWORD PTR [eax]
100051d7:	8b 45 14             	mov    eax,DWORD PTR [ebp+0x14]
100051da:	89 10                	mov    DWORD PTR [eax],edx
100051dc:	8b 45 14             	mov    eax,DWORD PTR [ebp+0x14]
100051df:	8b 10                	mov    edx,DWORD PTR [eax]
100051e1:	8b 45 10             	mov    eax,DWORD PTR [ebp+0x10]
100051e4:	89 10                	mov    DWORD PTR [eax],edx
100051e6:	8b 45 0c             	mov    eax,DWORD PTR [ebp+0xc]
100051e9:	8a 00                	mov    al,BYTE PTR [eax]
100051eb:	84 c0                	test   al,al
100051ed:	75 0a                	jne    100051f9 <ssfn_bbox+0x84>
100051ef:	b8 00 00 00 00       	mov    eax,0x0
100051f4:	e9 dc 01 00 00       	jmp    100053d5 <ssfn_bbox+0x260>
100051f9:	83 ec 04             	sub    esp,0x4
100051fc:	6a 18                	push   0x18
100051fe:	6a 00                	push   0x0
10005200:	8d 45 d0             	lea    eax,[ebp-0x30]
10005203:	50                   	push   eax
10005204:	e8 fc ff ff ff       	call   10005205 <ssfn_bbox+0x90>	10005205: R_386_PC32	memset
10005209:	83 c4 10             	add    esp,0x10
1000520c:	8b 45 08             	mov    eax,DWORD PTR [ebp+0x8]
1000520f:	c7 80 c4 f5 00 00 00 00 00 00 	mov    DWORD PTR [eax+0xf5c4],0x0
10005219:	83 ec 04             	sub    esp,0x4
1000521c:	ff 75 0c             	push   DWORD PTR [ebp+0xc]
1000521f:	8d 45 d0             	lea    eax,[ebp-0x30]
10005222:	50                   	push   eax
10005223:	ff 75 08             	push   DWORD PTR [ebp+0x8]
10005226:	e8 fc ff ff ff       	call   10005227 <ssfn_bbox+0xb2>	10005227: R_386_PC32	ssfn_render
1000522b:	83 c4 10             	add    esp,0x10
1000522e:	89 45 e8             	mov    DWORD PTR [ebp-0x18],eax
10005231:	83 7d e8 00          	cmp    DWORD PTR [ebp-0x18],0x0
10005235:	0f 95 c0             	setne  al
10005238:	84 c0                	test   al,al
1000523a:	0f 84 df 00 00 00    	je     1000531f <ssfn_bbox+0x1aa>
10005240:	83 7d e8 00          	cmp    DWORD PTR [ebp-0x18],0x0
10005244:	78 0d                	js     10005253 <ssfn_bbox+0xde>
10005246:	8b 45 08             	mov    eax,DWORD PTR [ebp+0x8]
10005249:	8b 80 24 f5 00 00    	mov    eax,DWORD PTR [eax+0xf524]
1000524f:	85 c0                	test   eax,eax
10005251:	75 08                	jne    1000525b <ssfn_bbox+0xe6>
10005253:	8b 45 e8             	mov    eax,DWORD PTR [ebp-0x18]
10005256:	e9 7a 01 00 00       	jmp    100053d5 <ssfn_bbox+0x260>
1000525b:	83 7d f4 00          	cmp    DWORD PTR [ebp-0xc],0x0
1000525f:	74 22                	je     10005283 <ssfn_bbox+0x10e>
10005261:	c7 45 f4 00 00 00 00 	mov    DWORD PTR [ebp-0xc],0x0
10005268:	8b 45 08             	mov    eax,DWORD PTR [ebp+0x8]
1000526b:	8b 80 88 f5 00 00    	mov    eax,DWORD PTR [eax+0xf588]
10005271:	89 45 f0             	mov    DWORD PTR [ebp-0x10],eax
10005274:	66 8b 45 da          	mov    ax,WORD PTR [ebp-0x26]
10005278:	89 c2                	mov    edx,eax
1000527a:	8b 45 f0             	mov    eax,DWORD PTR [ebp-0x10]
1000527d:	01 d0                	add    eax,edx
1000527f:	66 89 45 da          	mov    WORD PTR [ebp-0x26],ax
10005283:	8b 45 08             	mov    eax,DWORD PTR [ebp+0x8]
10005286:	8b 80 24 f5 00 00    	mov    eax,DWORD PTR [eax+0xf524]
1000528c:	8a 40 04             	mov    al,BYTE PTR [eax+0x4]
1000528f:	84 c0                	test   al,al
10005291:	74 1c                	je     100052af <ssfn_bbox+0x13a>
10005293:	8b 45 08             	mov    eax,DWORD PTR [ebp+0x8]
10005296:	8b 80 8c f5 00 00    	mov    eax,DWORD PTR [eax+0xf58c]
1000529c:	39 45 ec             	cmp    DWORD PTR [ebp-0x14],eax
1000529f:	7d 73                	jge    10005314 <ssfn_bbox+0x19f>
100052a1:	8b 45 08             	mov    eax,DWORD PTR [ebp+0x8]
100052a4:	8b 80 8c f5 00 00    	mov    eax,DWORD PTR [eax+0xf58c]
100052aa:	89 45 ec             	mov    DWORD PTR [ebp-0x14],eax
100052ad:	eb 65                	jmp    10005314 <ssfn_bbox+0x19f>
100052af:	8b 45 d4             	mov    eax,DWORD PTR [ebp-0x2c]
100052b2:	0f bf d0             	movsx  edx,ax
100052b5:	8b 45 08             	mov    eax,DWORD PTR [ebp+0x8]
100052b8:	8b 80 24 f5 00 00    	mov    eax,DWORD PTR [eax+0xf524]
100052be:	66 8b 00             	mov    ax,WORD PTR [eax]
100052c1:	0f b7 c0             	movzx  eax,ax
100052c4:	39 c2                	cmp    edx,eax
100052c6:	7d 10                	jge    100052d8 <ssfn_bbox+0x163>
100052c8:	8b 45 08             	mov    eax,DWORD PTR [ebp+0x8]
100052cb:	8b 80 24 f5 00 00    	mov    eax,DWORD PTR [eax+0xf524]
100052d1:	66 8b 00             	mov    ax,WORD PTR [eax]
100052d4:	66 89 45 d4          	mov    WORD PTR [ebp-0x2c],ax
100052d8:	66 8b 45 d6          	mov    ax,WORD PTR [ebp-0x2a]
100052dc:	89 c2                	mov    edx,eax
100052de:	8b 45 08             	mov    eax,DWORD PTR [ebp+0x8]
100052e1:	8b 80 24 f5 00 00    	mov    eax,DWORD PTR [eax+0xf524]
100052e7:	8a 40 05             	mov    al,BYTE PTR [eax+0x5]
100052ea:	84 c0                	test   al,al
100052ec:	74 11                	je     100052ff <ssfn_bbox+0x18a>
100052ee:	8b 45 08             	mov    eax,DWORD PTR [ebp+0x8]
100052f1:	8b 80 24 f5 00 00    	mov    eax,DWORD PTR [eax+0xf524]
100052f7:	8a 40 05             	mov    al,BYTE PTR [eax+0x5]
100052fa:	0f b6 c0             	movzx  eax,al
100052fd:	eb 0f                	jmp    1000530e <ssfn_bbox+0x199>
100052ff:	8b 45 08             	mov    eax,DWORD PTR [ebp+0x8]
10005302:	8b 80 24 f5 00 00    	mov    eax,DWORD PTR [eax+0xf524]
10005308:	8a 40 02             	mov    al,BYTE PTR [eax+0x2]
1000530b:	0f b6 c0             	movzx  eax,al
1000530e:	01 d0                	add    eax,edx
10005310:	66 89 45 d6          	mov    WORD PTR [ebp-0x2a],ax
10005314:	8b 45 e8             	mov    eax,DWORD PTR [ebp-0x18]
10005317:	01 45 0c             	add    DWORD PTR [ebp+0xc],eax
1000531a:	e9 fa fe ff ff       	jmp    10005219 <ssfn_bbox+0xa4>
1000531f:	8b 45 08             	mov    eax,DWORD PTR [ebp+0x8]
10005322:	8b 80 bc f5 00 00    	mov    eax,DWORD PTR [eax+0xf5bc]
10005328:	83 e0 02             	and    eax,0x2
1000532b:	85 c0                	test   eax,eax
1000532d:	74 3c                	je     1000536b <ssfn_bbox+0x1f6>
1000532f:	8b 45 08             	mov    eax,DWORD PTR [ebp+0x8]
10005332:	8b 40 18             	mov    eax,DWORD PTR [eax+0x18]
10005335:	8a 40 08             	mov    al,BYTE PTR [eax+0x8]
10005338:	c0 e8 04             	shr    al,0x4
1000533b:	0f b6 c0             	movzx  eax,al
1000533e:	83 e0 02             	and    eax,0x2
10005341:	85 c0                	test   eax,eax
10005343:	75 26                	jne    1000536b <ssfn_bbox+0x1f6>
10005345:	66 8b 45 da          	mov    ax,WORD PTR [ebp-0x26]
10005349:	89 c1                	mov    ecx,eax
1000534b:	8b 45 08             	mov    eax,DWORD PTR [ebp+0x8]
1000534e:	8b 80 c0 f5 00 00    	mov    eax,DWORD PTR [eax+0xf5c0]
10005354:	bb 04 00 00 00       	mov    ebx,0x4
10005359:	99                   	cdq    
1000535a:	f7 fb                	idiv   ebx
1000535c:	89 c2                	mov    edx,eax
1000535e:	8b 45 f0             	mov    eax,DWORD PTR [ebp-0x10]
10005361:	29 c2                	sub    edx,eax
10005363:	89 d0                	mov    eax,edx
10005365:	01 c8                	add    eax,ecx
10005367:	66 89 45 da          	mov    WORD PTR [ebp-0x26],ax
1000536b:	8b 45 08             	mov    eax,DWORD PTR [ebp+0x8]
1000536e:	8b 80 24 f5 00 00    	mov    eax,DWORD PTR [eax+0xf524]
10005374:	8a 40 04             	mov    al,BYTE PTR [eax+0x4]
10005377:	84 c0                	test   al,al
10005379:	74 2c                	je     100053a7 <ssfn_bbox+0x232>
1000537b:	66 8b 45 da          	mov    ax,WORD PTR [ebp-0x26]
1000537f:	0f bf d0             	movsx  edx,ax
10005382:	8b 45 10             	mov    eax,DWORD PTR [ebp+0x10]
10005385:	89 10                	mov    DWORD PTR [eax],edx
10005387:	8b 45 08             	mov    eax,DWORD PTR [ebp+0x8]
1000538a:	8b 90 c4 f5 00 00    	mov    edx,DWORD PTR [eax+0xf5c4]
10005390:	8b 45 14             	mov    eax,DWORD PTR [ebp+0x14]
10005393:	89 10                	mov    DWORD PTR [eax],edx
10005395:	8b 45 18             	mov    eax,DWORD PTR [ebp+0x18]
10005398:	8b 55 f0             	mov    edx,DWORD PTR [ebp-0x10]
1000539b:	89 10                	mov    DWORD PTR [eax],edx
1000539d:	8b 45 1c             	mov    eax,DWORD PTR [ebp+0x1c]
100053a0:	8b 55 ec             	mov    edx,DWORD PTR [ebp-0x14]
100053a3:	89 10                	mov    DWORD PTR [eax],edx
100053a5:	eb 29                	jmp    100053d0 <ssfn_bbox+0x25b>
100053a7:	8b 45 d4             	mov    eax,DWORD PTR [ebp-0x2c]
100053aa:	0f bf d0             	movsx  edx,ax
100053ad:	8b 45 10             	mov    eax,DWORD PTR [ebp+0x10]
100053b0:	89 10                	mov    DWORD PTR [eax],edx
100053b2:	8b 45 dc             	mov    eax,DWORD PTR [ebp-0x24]
100053b5:	0f bf d0             	movsx  edx,ax
100053b8:	8b 45 14             	mov    eax,DWORD PTR [ebp+0x14]
100053bb:	89 10                	mov    DWORD PTR [eax],edx
100053bd:	8b 45 18             	mov    eax,DWORD PTR [ebp+0x18]
100053c0:	c7 00 00 00 00 00    	mov    DWORD PTR [eax],0x0
100053c6:	8b 45 18             	mov    eax,DWORD PTR [ebp+0x18]
100053c9:	8b 10                	mov    edx,DWORD PTR [eax]
100053cb:	8b 45 1c             	mov    eax,DWORD PTR [ebp+0x1c]
100053ce:	89 10                	mov    DWORD PTR [eax],edx
100053d0:	b8 00 00 00 00       	mov    eax,0x0
100053d5:	8b 5d fc             	mov    ebx,DWORD PTR [ebp-0x4]
100053d8:	c9                   	leave  
100053d9:	c3                   	ret    

100053da <ssfn_text>:
100053da:	55                   	push   ebp
100053db:	89 e5                	mov    ebp,esp
100053dd:	53                   	push   ebx
100053de:	83 ec 14             	sub    esp,0x14
100053e1:	83 7d 08 00          	cmp    DWORD PTR [ebp+0x8],0x0
100053e5:	74 06                	je     100053ed <ssfn_text+0x13>
100053e7:	83 7d 0c 00          	cmp    DWORD PTR [ebp+0xc],0x0
100053eb:	75 0a                	jne    100053f7 <ssfn_text+0x1d>
100053ed:	b8 00 00 00 00       	mov    eax,0x0
100053f2:	e9 39 01 00 00       	jmp    10005530 <ssfn_text+0x156>
100053f7:	83 ec 0c             	sub    esp,0xc
100053fa:	6a 18                	push   0x18
100053fc:	e8 fc ff ff ff       	call   100053fd <ssfn_text+0x23>	100053fd: R_386_PC32	malloc
10005401:	83 c4 10             	add    esp,0x10
10005404:	89 45 f4             	mov    DWORD PTR [ebp-0xc],eax
10005407:	83 7d f4 00          	cmp    DWORD PTR [ebp-0xc],0x0
1000540b:	75 0a                	jne    10005417 <ssfn_text+0x3d>
1000540d:	b8 00 00 00 00       	mov    eax,0x0
10005412:	e9 19 01 00 00       	jmp    10005530 <ssfn_text+0x156>
10005417:	83 ec 04             	sub    esp,0x4
1000541a:	6a 18                	push   0x18
1000541c:	6a 00                	push   0x0
1000541e:	ff 75 f4             	push   DWORD PTR [ebp-0xc]
10005421:	e8 fc ff ff ff       	call   10005422 <ssfn_text+0x48>	10005422: R_386_PC32	memset
10005426:	83 c4 10             	add    esp,0x10
10005429:	8b 45 f4             	mov    eax,DWORD PTR [ebp-0xc]
1000542c:	8b 55 10             	mov    edx,DWORD PTR [ebp+0x10]
1000542f:	89 50 10             	mov    DWORD PTR [eax+0x10],edx
10005432:	8b 45 0c             	mov    eax,DWORD PTR [ebp+0xc]
10005435:	8a 00                	mov    al,BYTE PTR [eax]
10005437:	84 c0                	test   al,al
10005439:	74 31                	je     1000546c <ssfn_text+0x92>
1000543b:	8b 45 f4             	mov    eax,DWORD PTR [ebp-0xc]
1000543e:	8d 58 0c             	lea    ebx,[eax+0xc]
10005441:	8b 45 f4             	mov    eax,DWORD PTR [ebp-0xc]
10005444:	8d 48 0a             	lea    ecx,[eax+0xa]
10005447:	8b 45 f4             	mov    eax,DWORD PTR [ebp-0xc]
1000544a:	8d 50 06             	lea    edx,[eax+0x6]
1000544d:	8b 45 f4             	mov    eax,DWORD PTR [ebp-0xc]
10005450:	83 c0 04             	add    eax,0x4
10005453:	83 ec 08             	sub    esp,0x8
10005456:	53                   	push   ebx
10005457:	51                   	push   ecx
10005458:	52                   	push   edx
10005459:	50                   	push   eax
1000545a:	ff 75 0c             	push   DWORD PTR [ebp+0xc]
1000545d:	ff 75 08             	push   DWORD PTR [ebp+0x8]
10005460:	e8 fc ff ff ff       	call   10005461 <ssfn_text+0x87>	10005461: R_386_PC32	ssfn_bbox
10005465:	83 c4 20             	add    esp,0x20
10005468:	85 c0                	test   eax,eax
1000546a:	74 04                	je     10005470 <ssfn_text+0x96>
1000546c:	b0 01                	mov    al,0x1
1000546e:	eb 02                	jmp    10005472 <ssfn_text+0x98>
10005470:	b0 00                	mov    al,0x0
10005472:	84 c0                	test   al,al
10005474:	74 08                	je     1000547e <ssfn_text+0xa4>
10005476:	8b 45 f4             	mov    eax,DWORD PTR [ebp-0xc]
10005479:	e9 b2 00 00 00       	jmp    10005530 <ssfn_text+0x156>
1000547e:	8b 45 f4             	mov    eax,DWORD PTR [ebp-0xc]
10005481:	8b 40 04             	mov    eax,DWORD PTR [eax+0x4]
10005484:	0f bf d0             	movsx  edx,ax
10005487:	8b 45 f4             	mov    eax,DWORD PTR [ebp-0xc]
1000548a:	66 8b 40 06          	mov    ax,WORD PTR [eax+0x6]
1000548e:	98                   	cwde   
1000548f:	0f af c2             	imul   eax,edx
10005492:	c1 e0 02             	shl    eax,0x2
10005495:	83 ec 0c             	sub    esp,0xc
10005498:	50                   	push   eax
10005499:	e8 fc ff ff ff       	call   1000549a <ssfn_text+0xc0>	1000549a: R_386_PC32	malloc
1000549e:	83 c4 10             	add    esp,0x10
100054a1:	89 c2                	mov    edx,eax
100054a3:	8b 45 f4             	mov    eax,DWORD PTR [ebp-0xc]
100054a6:	89 10                	mov    DWORD PTR [eax],edx
100054a8:	8b 45 f4             	mov    eax,DWORD PTR [ebp-0xc]
100054ab:	8b 40 04             	mov    eax,DWORD PTR [eax+0x4]
100054ae:	0f bf d0             	movsx  edx,ax
100054b1:	8b 45 f4             	mov    eax,DWORD PTR [ebp-0xc]
100054b4:	66 8b 40 06          	mov    ax,WORD PTR [eax+0x6]
100054b8:	98                   	cwde   
100054b9:	0f af c2             	imul   eax,edx
100054bc:	8d 14 85 00 00 00 00 	lea    edx,[eax*4+0x0]
100054c3:	8b 45 f4             	mov    eax,DWORD PTR [ebp-0xc]
100054c6:	8b 00                	mov    eax,DWORD PTR [eax]
100054c8:	83 ec 04             	sub    esp,0x4
100054cb:	52                   	push   edx
100054cc:	6a 00                	push   0x0
100054ce:	50                   	push   eax
100054cf:	e8 fc ff ff ff       	call   100054d0 <ssfn_text+0xf6>	100054d0: R_386_PC32	memset
100054d4:	83 c4 10             	add    esp,0x10
100054d7:	83 ec 04             	sub    esp,0x4
100054da:	ff 75 0c             	push   DWORD PTR [ebp+0xc]
100054dd:	ff 75 f4             	push   DWORD PTR [ebp-0xc]
100054e0:	ff 75 08             	push   DWORD PTR [ebp+0x8]
100054e3:	e8 fc ff ff ff       	call   100054e4 <ssfn_text+0x10a>	100054e4: R_386_PC32	ssfn_render
100054e8:	83 c4 10             	add    esp,0x10
100054eb:	89 45 f0             	mov    DWORD PTR [ebp-0x10],eax
100054ee:	83 7d f0 00          	cmp    DWORD PTR [ebp-0x10],0x0
100054f2:	0f 9f c0             	setg   al
100054f5:	84 c0                	test   al,al
100054f7:	74 08                	je     10005501 <ssfn_text+0x127>
100054f9:	8b 45 f0             	mov    eax,DWORD PTR [ebp-0x10]
100054fc:	01 45 0c             	add    DWORD PTR [ebp+0xc],eax
100054ff:	eb d6                	jmp    100054d7 <ssfn_text+0xfd>
10005501:	83 7d f0 00          	cmp    DWORD PTR [ebp-0x10],0x0
10005505:	74 26                	je     1000552d <ssfn_text+0x153>
10005507:	8b 45 f4             	mov    eax,DWORD PTR [ebp-0xc]
1000550a:	8b 00                	mov    eax,DWORD PTR [eax]
1000550c:	83 ec 0c             	sub    esp,0xc
1000550f:	50                   	push   eax
10005510:	e8 fc ff ff ff       	call   10005511 <ssfn_text+0x137>	10005511: R_386_PC32	free
10005515:	83 c4 10             	add    esp,0x10
10005518:	83 ec 0c             	sub    esp,0xc
1000551b:	ff 75 f4             	push   DWORD PTR [ebp-0xc]
1000551e:	e8 fc ff ff ff       	call   1000551f <ssfn_text+0x145>	1000551f: R_386_PC32	free
10005523:	83 c4 10             	add    esp,0x10
10005526:	b8 00 00 00 00       	mov    eax,0x0
1000552b:	eb 03                	jmp    10005530 <ssfn_text+0x156>
1000552d:	8b 45 f4             	mov    eax,DWORD PTR [ebp-0xc]
10005530:	8b 5d fc             	mov    ebx,DWORD PTR [ebp-0x4]
10005533:	c9                   	leave  
10005534:	c3                   	ret    
10005535:	90                   	nop

10005536 <NIContext::drvPutpixel4(int, int, unsigned int)>:
10005536:	55                   	push   ebp
10005537:	89 e5                	mov    ebp,esp
10005539:	83 ec 08             	sub    esp,0x8
1000553c:	8b 45 08             	mov    eax,DWORD PTR [ebp+0x8]
1000553f:	8b 90 08 04 00 00    	mov    edx,DWORD PTR [eax+0x408]
10005545:	8b 45 08             	mov    eax,DWORD PTR [ebp+0x8]
10005548:	8b 80 08 04 00 00    	mov    eax,DWORD PTR [eax+0x408]
1000554e:	8b 00                	mov    eax,DWORD PTR [eax]
10005550:	83 c0 24             	add    eax,0x24
10005553:	8b 00                	mov    eax,DWORD PTR [eax]
10005555:	ff 75 14             	push   DWORD PTR [ebp+0x14]
10005558:	ff 75 10             	push   DWORD PTR [ebp+0x10]
1000555b:	ff 75 0c             	push   DWORD PTR [ebp+0xc]
1000555e:	52                   	push   edx
1000555f:	ff d0                	call   eax
10005561:	83 c4 10             	add    esp,0x10
10005564:	90                   	nop
10005565:	c9                   	leave  
10005566:	c3                   	ret    
10005567:	90                   	nop

10005568 <NIContext::drvDarken4(int, int, int)>:
10005568:	55                   	push   ebp
10005569:	89 e5                	mov    ebp,esp
1000556b:	83 ec 28             	sub    esp,0x28
1000556e:	8b 45 08             	mov    eax,DWORD PTR [ebp+0x8]
10005571:	8b 90 08 04 00 00    	mov    edx,DWORD PTR [eax+0x408]
10005577:	8b 45 08             	mov    eax,DWORD PTR [ebp+0x8]
1000557a:	8b 80 08 04 00 00    	mov    eax,DWORD PTR [eax+0x408]
10005580:	8b 00                	mov    eax,DWORD PTR [eax]
10005582:	83 c0 34             	add    eax,0x34
10005585:	8b 00                	mov    eax,DWORD PTR [eax]
10005587:	83 ec 04             	sub    esp,0x4
1000558a:	ff 75 10             	push   DWORD PTR [ebp+0x10]
1000558d:	ff 75 0c             	push   DWORD PTR [ebp+0xc]
10005590:	52                   	push   edx
10005591:	ff d0                	call   eax
10005593:	83 c4 10             	add    esp,0x10
10005596:	89 45 f4             	mov    DWORD PTR [ebp-0xc],eax
10005599:	8b 45 f4             	mov    eax,DWORD PTR [ebp-0xc]
1000559c:	c1 e8 10             	shr    eax,0x10
1000559f:	25 ff 00 00 00       	and    eax,0xff
100055a4:	89 45 f0             	mov    DWORD PTR [ebp-0x10],eax
100055a7:	8b 45 f4             	mov    eax,DWORD PTR [ebp-0xc]
100055aa:	c1 e8 08             	shr    eax,0x8
100055ad:	25 ff 00 00 00       	and    eax,0xff
100055b2:	89 45 ec             	mov    DWORD PTR [ebp-0x14],eax
100055b5:	8b 45 f4             	mov    eax,DWORD PTR [ebp-0xc]
100055b8:	0f b6 c0             	movzx  eax,al
100055bb:	89 45 e8             	mov    DWORD PTR [ebp-0x18],eax
100055be:	8b 45 14             	mov    eax,DWORD PTR [ebp+0x14]
100055c1:	0f af 45 f0          	imul   eax,DWORD PTR [ebp-0x10]
100055c5:	c1 e8 07             	shr    eax,0x7
100055c8:	89 45 f0             	mov    DWORD PTR [ebp-0x10],eax
100055cb:	8b 45 14             	mov    eax,DWORD PTR [ebp+0x14]
100055ce:	0f af 45 ec          	imul   eax,DWORD PTR [ebp-0x14]
100055d2:	c1 e8 07             	shr    eax,0x7
100055d5:	89 45 ec             	mov    DWORD PTR [ebp-0x14],eax
100055d8:	8b 45 14             	mov    eax,DWORD PTR [ebp+0x14]
100055db:	0f af 45 e8          	imul   eax,DWORD PTR [ebp-0x18]
100055df:	c1 e8 07             	shr    eax,0x7
100055e2:	89 45 e8             	mov    DWORD PTR [ebp-0x18],eax
100055e5:	8b 45 f0             	mov    eax,DWORD PTR [ebp-0x10]
100055e8:	c1 e0 10             	shl    eax,0x10
100055eb:	89 c2                	mov    edx,eax
100055ed:	8b 45 ec             	mov    eax,DWORD PTR [ebp-0x14]
100055f0:	c1 e0 08             	shl    eax,0x8
100055f3:	09 d0                	or     eax,edx
100055f5:	0b 45 e8             	or     eax,DWORD PTR [ebp-0x18]
100055f8:	89 45 e4             	mov    DWORD PTR [ebp-0x1c],eax
100055fb:	8b 45 08             	mov    eax,DWORD PTR [ebp+0x8]
100055fe:	8b 90 08 04 00 00    	mov    edx,DWORD PTR [eax+0x408]
10005604:	8b 45 08             	mov    eax,DWORD PTR [ebp+0x8]
10005607:	8b 80 08 04 00 00    	mov    eax,DWORD PTR [eax+0x408]
1000560d:	8b 00                	mov    eax,DWORD PTR [eax]
1000560f:	83 c0 24             	add    eax,0x24
10005612:	8b 00                	mov    eax,DWORD PTR [eax]
10005614:	ff 75 e4             	push   DWORD PTR [ebp-0x1c]
10005617:	ff 75 10             	push   DWORD PTR [ebp+0x10]
1000561a:	ff 75 0c             	push   DWORD PTR [ebp+0xc]
1000561d:	52                   	push   edx
1000561e:	ff d0                	call   eax
10005620:	83 c4 10             	add    esp,0x10
10005623:	90                   	nop
10005624:	c9                   	leave  
10005625:	c3                   	ret    

10005626 <NIContext::renderTTF(int, int, unsigned int, char*, int*)>:
10005626:	55                   	push   ebp
10005627:	89 e5                	mov    ebp,esp
10005629:	57                   	push   edi
1000562a:	56                   	push   esi
1000562b:	53                   	push   ebx
1000562c:	83 ec 4c             	sub    esp,0x4c
1000562f:	8b 45 08             	mov    eax,DWORD PTR [ebp+0x8]
10005632:	8b 00                	mov    eax,DWORD PTR [eax]
10005634:	83 ec 04             	sub    esp,0x4
10005637:	68 00 40 00 00       	push   0x4000
1000563c:	68 ff 00 00 00       	push   0xff
10005641:	50                   	push   eax
10005642:	e8 fc ff ff ff       	call   10005643 <NIContext::renderTTF(int, int, unsigned int, char*, int*)+0x1d>	10005643: R_386_PC32	memset
10005647:	83 c4 10             	add    esp,0x10
1000564a:	83 7d 1c 00          	cmp    DWORD PTR [ebp+0x1c],0x0
1000564e:	75 10                	jne    10005660 <NIContext::renderTTF(int, int, unsigned int, char*, int*)+0x3a>
10005650:	83 ec 0c             	sub    esp,0xc
10005653:	68 96 67 00 10       	push   0x10006796	10005654: R_386_32	.text
10005658:	e8 fc ff ff ff       	call   10005659 <NIContext::renderTTF(int, int, unsigned int, char*, int*)+0x33>	10005659: R_386_PC32	KePanic(char const*)
1000565d:	83 c4 10             	add    esp,0x10
10005660:	83 ec 08             	sub    esp,0x8
10005663:	8d 45 cc             	lea    eax,[ebp-0x34]
10005666:	50                   	push   eax
10005667:	8d 45 d0             	lea    eax,[ebp-0x30]
1000566a:	50                   	push   eax
1000566b:	8d 45 d4             	lea    eax,[ebp-0x2c]
1000566e:	50                   	push   eax
1000566f:	8d 45 d8             	lea    eax,[ebp-0x28]
10005672:	50                   	push   eax
10005673:	ff 75 18             	push   DWORD PTR [ebp+0x18]
10005676:	68 00 00 00 00       	push   0x0	10005677: R_386_32	ssfn_ctx
1000567b:	e8 fc ff ff ff       	call   1000567c <NIContext::renderTTF(int, int, unsigned int, char*, int*)+0x56>	1000567c: R_386_PC32	ssfn_bbox
10005680:	83 c4 20             	add    esp,0x20
10005683:	8b 45 08             	mov    eax,DWORD PTR [ebp+0x8]
10005686:	8b 00                	mov    eax,DWORD PTR [eax]
10005688:	89 45 b4             	mov    DWORD PTR [ebp-0x4c],eax
1000568b:	66 c7 45 b8 40 00    	mov    WORD PTR [ebp-0x48],0x40
10005691:	66 c7 45 ba 40 00    	mov    WORD PTR [ebp-0x46],0x40
10005697:	66 c7 45 bc 00 01    	mov    WORD PTR [ebp-0x44],0x100
1000569d:	66 c7 45 be 00 00    	mov    WORD PTR [ebp-0x42],0x0
100056a3:	8b 45 cc             	mov    eax,DWORD PTR [ebp-0x34]
100056a6:	66 89 45 c0          	mov    WORD PTR [ebp-0x40],ax
100056aa:	8b 45 14             	mov    eax,DWORD PTR [ebp+0x14]
100056ad:	0d 00 00 00 ff       	or     eax,0xff000000
100056b2:	89 45 c4             	mov    DWORD PTR [ebp-0x3c],eax
100056b5:	83 ec 04             	sub    esp,0x4
100056b8:	ff 75 18             	push   DWORD PTR [ebp+0x18]
100056bb:	8d 45 b4             	lea    eax,[ebp-0x4c]
100056be:	50                   	push   eax
100056bf:	68 00 00 00 00       	push   0x0	100056c0: R_386_32	ssfn_ctx
100056c4:	e8 fc ff ff ff       	call   100056c5 <NIContext::renderTTF(int, int, unsigned int, char*, int*)+0x9f>	100056c5: R_386_PC32	ssfn_render
100056c9:	83 c4 10             	add    esp,0x10
100056cc:	89 c2                	mov    edx,eax
100056ce:	8b 45 1c             	mov    eax,DWORD PTR [ebp+0x1c]
100056d1:	89 10                	mov    DWORD PTR [eax],edx
100056d3:	c7 45 e4 00 00 00 00 	mov    DWORD PTR [ebp-0x1c],0x0
100056da:	c7 45 e0 00 00 00 00 	mov    DWORD PTR [ebp-0x20],0x0
100056e1:	8b 45 d4             	mov    eax,DWORD PTR [ebp-0x2c]
100056e4:	39 45 e0             	cmp    DWORD PTR [ebp-0x20],eax
100056e7:	0f 8d 8f 00 00 00    	jge    1000577c <NIContext::renderTTF(int, int, unsigned int, char*, int*)+0x156>
100056ed:	c7 45 dc 00 00 00 00 	mov    DWORD PTR [ebp-0x24],0x0
100056f4:	66 8b 45 be          	mov    ax,WORD PTR [ebp-0x42]
100056f8:	98                   	cwde   
100056f9:	39 45 dc             	cmp    DWORD PTR [ebp-0x24],eax
100056fc:	7d 65                	jge    10005763 <NIContext::renderTTF(int, int, unsigned int, char*, int*)+0x13d>
100056fe:	8b 45 08             	mov    eax,DWORD PTR [ebp+0x8]
10005701:	8b 00                	mov    eax,DWORD PTR [eax]
10005703:	8b 55 e4             	mov    edx,DWORD PTR [ebp-0x1c]
10005706:	c1 e2 02             	shl    edx,0x2
10005709:	01 d0                	add    eax,edx
1000570b:	8b 00                	mov    eax,DWORD PTR [eax]
1000570d:	83 f8 ff             	cmp    eax,0xffffffff
10005710:	74 49                	je     1000575b <NIContext::renderTTF(int, int, unsigned int, char*, int*)+0x135>
10005712:	8b 45 08             	mov    eax,DWORD PTR [ebp+0x8]
10005715:	8b 90 08 04 00 00    	mov    edx,DWORD PTR [eax+0x408]
1000571b:	8b 45 08             	mov    eax,DWORD PTR [ebp+0x8]
1000571e:	8b 80 08 04 00 00    	mov    eax,DWORD PTR [eax+0x408]
10005724:	8b 00                	mov    eax,DWORD PTR [eax]
10005726:	83 c0 24             	add    eax,0x24
10005729:	8b 00                	mov    eax,DWORD PTR [eax]
1000572b:	8b 4d 08             	mov    ecx,DWORD PTR [ebp+0x8]
1000572e:	8b 09                	mov    ecx,DWORD PTR [ecx]
10005730:	8b 5d e4             	mov    ebx,DWORD PTR [ebp-0x1c]
10005733:	c1 e3 02             	shl    ebx,0x2
10005736:	01 d9                	add    ecx,ebx
10005738:	8b 09                	mov    ecx,DWORD PTR [ecx]
1000573a:	89 ce                	mov    esi,ecx
1000573c:	81 e6 ff ff ff 00    	and    esi,0xffffff
10005742:	8b 5d 10             	mov    ebx,DWORD PTR [ebp+0x10]
10005745:	8b 4d e0             	mov    ecx,DWORD PTR [ebp-0x20]
10005748:	01 cb                	add    ebx,ecx
1000574a:	8b 7d 0c             	mov    edi,DWORD PTR [ebp+0xc]
1000574d:	8b 4d dc             	mov    ecx,DWORD PTR [ebp-0x24]
10005750:	01 f9                	add    ecx,edi
10005752:	56                   	push   esi
10005753:	53                   	push   ebx
10005754:	51                   	push   ecx
10005755:	52                   	push   edx
10005756:	ff d0                	call   eax
10005758:	83 c4 10             	add    esp,0x10
1000575b:	ff 45 e4             	inc    DWORD PTR [ebp-0x1c]
1000575e:	ff 45 dc             	inc    DWORD PTR [ebp-0x24]
10005761:	eb 91                	jmp    100056f4 <NIContext::renderTTF(int, int, unsigned int, char*, int*)+0xce>
10005763:	66 8b 45 be          	mov    ax,WORD PTR [ebp-0x42]
10005767:	98                   	cwde   
10005768:	ba 40 00 00 00       	mov    edx,0x40
1000576d:	29 c2                	sub    edx,eax
1000576f:	89 d0                	mov    eax,edx
10005771:	01 45 e4             	add    DWORD PTR [ebp-0x1c],eax
10005774:	ff 45 e0             	inc    DWORD PTR [ebp-0x20]
10005777:	e9 65 ff ff ff       	jmp    100056e1 <NIContext::renderTTF(int, int, unsigned int, char*, int*)+0xbb>
1000577c:	66 8b 45 be          	mov    ax,WORD PTR [ebp-0x42]
10005780:	98                   	cwde   
10005781:	8d 65 f4             	lea    esp,[ebp-0xc]
10005784:	5b                   	pop    ebx
10005785:	5e                   	pop    esi
10005786:	5f                   	pop    edi
10005787:	5d                   	pop    ebp
10005788:	c3                   	ret    
10005789:	90                   	nop

1000578a <NIContext::~NIContext()>:
1000578a:	c7 44 24 04 00 00 00 00 	mov    DWORD PTR [esp+0x4],0x0	1000578e: R_386_32	ssfn_ctx
10005792:	e9 b9 c3 ff ff       	jmp    10001b50 <ssfn_free>
10005797:	90                   	nop

10005798 <NIContext::NIContext(Video*, int, int, int, int)>:
10005798:	57                   	push   edi
10005799:	ba 00 00 00 00       	mov    edx,0x0	1000579a: R_386_32	ssfn_ctx
1000579e:	56                   	push   esi
1000579f:	89 d7                	mov    edi,edx
100057a1:	53                   	push   ebx
100057a2:	b9 72 3d 00 00       	mov    ecx,0x3d72
100057a7:	81 ec 3c 02 00 00    	sub    esp,0x23c
100057ad:	8b b4 24 4c 02 00 00 	mov    esi,DWORD PTR [esp+0x24c]
100057b4:	8b 84 24 50 02 00 00 	mov    eax,DWORD PTR [esp+0x250]
100057bb:	89 86 08 04 00 00    	mov    DWORD PTR [esi+0x408],eax
100057c1:	8b 84 24 54 02 00 00 	mov    eax,DWORD PTR [esp+0x254]
100057c8:	89 86 0c 04 00 00    	mov    DWORD PTR [esi+0x40c],eax
100057ce:	8b 84 24 58 02 00 00 	mov    eax,DWORD PTR [esp+0x258]
100057d5:	89 86 10 04 00 00    	mov    DWORD PTR [esi+0x410],eax
100057db:	8b 84 24 5c 02 00 00 	mov    eax,DWORD PTR [esp+0x25c]
100057e2:	89 86 14 04 00 00    	mov    DWORD PTR [esi+0x414],eax
100057e8:	8b 84 24 60 02 00 00 	mov    eax,DWORD PTR [esp+0x260]
100057ef:	89 86 18 04 00 00    	mov    DWORD PTR [esi+0x418],eax
100057f5:	31 c0                	xor    eax,eax
100057f7:	f3 ab                	rep stos DWORD PTR es:[edi],eax
100057f9:	68 00 40 00 00       	push   0x4000
100057fe:	e8 fc ff ff ff       	call   100057ff <NIContext::NIContext(Video*, int, int, int, int)+0x67>	100057ff: R_386_PC32	malloc
10005803:	c7 86 04 04 00 00 00 00 00 00 	mov    DWORD PTR [esi+0x404],0x0
1000580d:	89 06                	mov    DWORD PTR [esi],eax
1000580f:	c7 04 24 14 01 00 00 	mov    DWORD PTR [esp],0x114
10005816:	e8 fc ff ff ff       	call   10005817 <NIContext::NIContext(Video*, int, int, int, int)+0x7f>	10005817: R_386_PC32	malloc
1000581b:	83 c4 0c             	add    esp,0xc
1000581e:	89 c3                	mov    ebx,eax
10005820:	ff 35 00 00 00 00    	push   DWORD PTR ds:0x0	10005822: R_386_32	kernelProcess
10005826:	68 af 67 00 10       	push   0x100067af	10005827: R_386_32	.text
1000582b:	50                   	push   eax
1000582c:	e8 fc ff ff ff       	call   1000582d <NIContext::NIContext(Video*, int, int, int, int)+0x95>	1000582d: R_386_PC32	Directory::Directory(char const*, Process*)
10005831:	83 c4 10             	add    esp,0x10
10005834:	85 db                	test   ebx,ebx
10005836:	75 10                	jne    10005848 <NIContext::NIContext(Video*, int, int, int, int)+0xb0>
10005838:	83 ec 0c             	sub    esp,0xc
1000583b:	68 c3 67 00 10       	push   0x100067c3	1000583c: R_386_32	.text
10005840:	e8 fc ff ff ff       	call   10005841 <NIContext::NIContext(Video*, int, int, int, int)+0xa9>	10005841: R_386_PC32	KePanic(char const*)
10005845:	83 c4 10             	add    esp,0x10
10005848:	83 ec 0c             	sub    esp,0xc
1000584b:	53                   	push   ebx
1000584c:	e8 fc ff ff ff       	call   1000584d <NIContext::NIContext(Video*, int, int, int, int)+0xb5>	1000584d: R_386_PC32	Directory::open()
10005851:	83 c4 10             	add    esp,0x10
10005854:	85 c0                	test   eax,eax
10005856:	75 e0                	jne    10005838 <NIContext::NIContext(Video*, int, int, int, int)+0xa0>
10005858:	83 ec 0c             	sub    esp,0xc
1000585b:	8b 03                	mov    eax,DWORD PTR [ebx]
1000585d:	8d 4c 24 20          	lea    ecx,[esp+0x20]
10005861:	51                   	push   ecx
10005862:	8d 94 24 30 01 00 00 	lea    edx,[esp+0x130]
10005869:	52                   	push   edx
1000586a:	6a 00                	push   0x0
1000586c:	68 10 01 00 00       	push   0x110
10005871:	53                   	push   ebx
10005872:	ff 50 0c             	call   DWORD PTR [eax+0xc]
10005875:	83 c4 20             	add    esp,0x20
10005878:	85 c0                	test   eax,eax
1000587a:	0f 85 c5 01 00 00    	jne    10005a45 <NIContext::NIContext(Video*, int, int, int, int)+0x2ad>
10005880:	81 7c 24 14 10 01 00 00 	cmp    DWORD PTR [esp+0x14],0x110
10005888:	0f 85 b7 01 00 00    	jne    10005a45 <NIContext::NIContext(Video*, int, int, int, int)+0x2ad>
1000588e:	8d bc 24 30 01 00 00 	lea    edi,[esp+0x130]
10005895:	83 c9 ff             	or     ecx,0xffffffff
10005898:	83 ec 0c             	sub    esp,0xc
1000589b:	f2 ae                	repnz scas al,BYTE PTR es:[edi]
1000589d:	8b be 04 04 00 00    	mov    edi,DWORD PTR [esi+0x404]
100058a3:	89 ca                	mov    edx,ecx
100058a5:	f7 d2                	not    edx
100058a7:	52                   	push   edx
100058a8:	e8 fc ff ff ff       	call   100058a9 <NIContext::NIContext(Video*, int, int, int, int)+0x111>	100058a9: R_386_PC32	malloc
100058ad:	89 44 be 04          	mov    DWORD PTR [esi+edi*4+0x4],eax
100058b1:	47                   	inc    edi
100058b2:	89 be 04 04 00 00    	mov    DWORD PTR [esi+0x404],edi
100058b8:	5a                   	pop    edx
100058b9:	59                   	pop    ecx
100058ba:	8d 94 24 38 01 00 00 	lea    edx,[esp+0x138]
100058c1:	52                   	push   edx
100058c2:	50                   	push   eax
100058c3:	e8 fc ff ff ff       	call   100058c4 <NIContext::NIContext(Video*, int, int, int, int)+0x12c>	100058c4: R_386_PC32	strcpy
100058c8:	5f                   	pop    edi
100058c9:	58                   	pop    eax
100058ca:	68 de 67 00 10       	push   0x100067de	100058cb: R_386_32	.text
100058cf:	8d 44 24 2c          	lea    eax,[esp+0x2c]
100058d3:	50                   	push   eax
100058d4:	e8 fc ff ff ff       	call   100058d5 <NIContext::NIContext(Video*, int, int, int, int)+0x13d>	100058d5: R_386_PC32	strcpy
100058d9:	58                   	pop    eax
100058da:	5a                   	pop    edx
100058db:	8d 84 24 38 01 00 00 	lea    eax,[esp+0x138]
100058e2:	50                   	push   eax
100058e3:	8d 44 24 2c          	lea    eax,[esp+0x2c]
100058e7:	50                   	push   eax
100058e8:	e8 fc ff ff ff       	call   100058e9 <NIContext::NIContext(Video*, int, int, int, int)+0x151>	100058e9: R_386_PC32	strcat
100058ed:	c7 04 24 14 01 00 00 	mov    DWORD PTR [esp],0x114
100058f4:	e8 fc ff ff ff       	call   100058f5 <NIContext::NIContext(Video*, int, int, int, int)+0x15d>	100058f5: R_386_PC32	malloc
100058f9:	83 c4 0c             	add    esp,0xc
100058fc:	89 c7                	mov    edi,eax
100058fe:	ff 35 00 00 00 00    	push   DWORD PTR ds:0x0	10005900: R_386_32	kernelProcess
10005904:	8d 44 24 28          	lea    eax,[esp+0x28]
10005908:	50                   	push   eax
10005909:	57                   	push   edi
1000590a:	e8 fc ff ff ff       	call   1000590b <NIContext::NIContext(Video*, int, int, int, int)+0x173>	1000590b: R_386_PC32	File::File(char const*, Process*)
1000590f:	83 c4 10             	add    esp,0x10
10005912:	85 ff                	test   edi,edi
10005914:	0f 84 3e ff ff ff    	je     10005858 <NIContext::NIContext(Video*, int, int, int, int)+0xc0>
1000591a:	50                   	push   eax
1000591b:	50                   	push   eax
1000591c:	6a 01                	push   0x1
1000591e:	57                   	push   edi
1000591f:	e8 fc ff ff ff       	call   10005920 <NIContext::NIContext(Video*, int, int, int, int)+0x188>	10005920: R_386_PC32	File::open(FileOpenMode)
10005924:	83 c4 10             	add    esp,0x10
10005927:	85 c0                	test   eax,eax
10005929:	74 11                	je     1000593c <NIContext::NIContext(Video*, int, int, int, int)+0x1a4>
1000592b:	83 ec 0c             	sub    esp,0xc
1000592e:	8b 07                	mov    eax,DWORD PTR [edi]
10005930:	57                   	push   edi
10005931:	ff 50 08             	call   DWORD PTR [eax+0x8]
10005934:	83 c4 10             	add    esp,0x10
10005937:	e9 1c ff ff ff       	jmp    10005858 <NIContext::NIContext(Video*, int, int, int, int)+0xc0>
1000593c:	50                   	push   eax
1000593d:	8d 44 24 17          	lea    eax,[esp+0x17]
10005941:	50                   	push   eax
10005942:	8d 44 24 20          	lea    eax,[esp+0x20]
10005946:	50                   	push   eax
10005947:	57                   	push   edi
10005948:	e8 fc ff ff ff       	call   10005949 <NIContext::NIContext(Video*, int, int, int, int)+0x1b1>	10005949: R_386_PC32	File::stat(unsigned long long*, bool*)
1000594d:	83 c4 10             	add    esp,0x10
10005950:	80 7c 24 13 00       	cmp    BYTE PTR [esp+0x13],0x0
10005955:	74 19                	je     10005970 <NIContext::NIContext(Video*, int, int, int, int)+0x1d8>
10005957:	83 ec 0c             	sub    esp,0xc
1000595a:	57                   	push   edi
1000595b:	e8 fc ff ff ff       	call   1000595c <NIContext::NIContext(Video*, int, int, int, int)+0x1c4>	1000595c: R_386_PC32	File::close()
10005960:	8b 07                	mov    eax,DWORD PTR [edi]
10005962:	89 3c 24             	mov    DWORD PTR [esp],edi
10005965:	ff 50 08             	call   DWORD PTR [eax+0x8]
10005968:	83 c4 10             	add    esp,0x10
1000596b:	e9 e8 fe ff ff       	jmp    10005858 <NIContext::NIContext(Video*, int, int, int, int)+0xc0>
10005970:	8b 54 24 1c          	mov    edx,DWORD PTR [esp+0x1c]
10005974:	8b 44 24 18          	mov    eax,DWORD PTR [esp+0x18]
10005978:	89 54 24 0c          	mov    DWORD PTR [esp+0xc],edx
1000597c:	89 44 24 08          	mov    DWORD PTR [esp+0x8],eax
10005980:	83 ec 0c             	sub    esp,0xc
10005983:	ff 74 24 14          	push   DWORD PTR [esp+0x14]
10005987:	e8 fc ff ff ff       	call   10005988 <NIContext::NIContext(Video*, int, int, int, int)+0x1f0>	10005988: R_386_PC32	malloc
1000598c:	89 44 24 14          	mov    DWORD PTR [esp+0x14],eax
10005990:	58                   	pop    eax
10005991:	8b 07                	mov    eax,DWORD PTR [edi]
10005993:	8d 4c 24 20          	lea    ecx,[esp+0x20]
10005997:	51                   	push   ecx
10005998:	ff 74 24 14          	push   DWORD PTR [esp+0x14]
1000599c:	ff 74 24 20          	push   DWORD PTR [esp+0x20]
100059a0:	ff 74 24 20          	push   DWORD PTR [esp+0x20]
100059a4:	57                   	push   edi
100059a5:	ff 50 0c             	call   DWORD PTR [eax+0xc]
100059a8:	89 44 24 28          	mov    DWORD PTR [esp+0x28],eax
100059ac:	83 c4 1c             	add    esp,0x1c
100059af:	ff 74 24 20          	push   DWORD PTR [esp+0x20]
100059b3:	ff 74 24 20          	push   DWORD PTR [esp+0x20]
100059b7:	68 f3 67 00 10       	push   0x100067f3	100059b8: R_386_32	.text
100059bc:	e8 fc ff ff ff       	call   100059bd <NIContext::NIContext(Video*, int, int, int, int)+0x225>	100059bd: R_386_PC32	Dbg::kprintf(char const*, ...)
100059c1:	83 c4 10             	add    esp,0x10
100059c4:	8b 44 24 08          	mov    eax,DWORD PTR [esp+0x8]
100059c8:	85 c0                	test   eax,eax
100059ca:	75 15                	jne    100059e1 <NIContext::NIContext(Video*, int, int, int, int)+0x249>
100059cc:	8b 44 24 14          	mov    eax,DWORD PTR [esp+0x14]
100059d0:	89 c1                	mov    ecx,eax
100059d2:	c1 f9 1f             	sar    ecx,0x1f
100059d5:	3b 4c 24 1c          	cmp    ecx,DWORD PTR [esp+0x1c]
100059d9:	75 06                	jne    100059e1 <NIContext::NIContext(Video*, int, int, int, int)+0x249>
100059db:	3b 44 24 18          	cmp    eax,DWORD PTR [esp+0x18]
100059df:	74 23                	je     10005a04 <NIContext::NIContext(Video*, int, int, int, int)+0x26c>
100059e1:	83 ec 0c             	sub    esp,0xc
100059e4:	57                   	push   edi
100059e5:	e8 fc ff ff ff       	call   100059e6 <NIContext::NIContext(Video*, int, int, int, int)+0x24e>	100059e6: R_386_PC32	File::close()
100059ea:	59                   	pop    ecx
100059eb:	ff 74 24 10          	push   DWORD PTR [esp+0x10]
100059ef:	e8 fc ff ff ff       	call   100059f0 <NIContext::NIContext(Video*, int, int, int, int)+0x258>	100059f0: R_386_PC32	free
100059f4:	8b 07                	mov    eax,DWORD PTR [edi]
100059f6:	89 3c 24             	mov    DWORD PTR [esp],edi
100059f9:	ff 50 08             	call   DWORD PTR [eax+0x8]
100059fc:	83 c4 10             	add    esp,0x10
100059ff:	e9 54 fe ff ff       	jmp    10005858 <NIContext::NIContext(Video*, int, int, int, int)+0xc0>
10005a04:	50                   	push   eax
10005a05:	50                   	push   eax
10005a06:	8d 44 24 28          	lea    eax,[esp+0x28]
10005a0a:	50                   	push   eax
10005a0b:	68 07 68 00 10       	push   0x10006807	10005a0c: R_386_32	.text
10005a10:	e8 fc ff ff ff       	call   10005a11 <NIContext::NIContext(Video*, int, int, int, int)+0x279>	10005a11: R_386_PC32	Dbg::kprintf(char const*, ...)
10005a15:	5a                   	pop    edx
10005a16:	59                   	pop    ecx
10005a17:	ff 74 24 0c          	push   DWORD PTR [esp+0xc]
10005a1b:	68 00 00 00 00       	push   0x0	10005a1c: R_386_32	ssfn_ctx
10005a20:	e8 fc ff ff ff       	call   10005a21 <NIContext::NIContext(Video*, int, int, int, int)+0x289>	10005a21: R_386_PC32	ssfn_load
10005a25:	5e                   	pop    esi
10005a26:	5a                   	pop    edx
10005a27:	50                   	push   eax
10005a28:	68 18 68 00 10       	push   0x10006818	10005a29: R_386_32	.text
10005a2d:	e8 fc ff ff ff       	call   10005a2e <NIContext::NIContext(Video*, int, int, int, int)+0x296>	10005a2e: R_386_PC32	Dbg::kprintf(char const*, ...)
10005a32:	89 3c 24             	mov    DWORD PTR [esp],edi
10005a35:	e8 fc ff ff ff       	call   10005a36 <NIContext::NIContext(Video*, int, int, int, int)+0x29e>	10005a36: R_386_PC32	File::close()
10005a3a:	8b 07                	mov    eax,DWORD PTR [edi]
10005a3c:	89 3c 24             	mov    DWORD PTR [esp],edi
10005a3f:	ff 50 08             	call   DWORD PTR [eax+0x8]
10005a42:	83 c4 10             	add    esp,0x10
10005a45:	83 ec 0c             	sub    esp,0xc
10005a48:	53                   	push   ebx
10005a49:	e8 fc ff ff ff       	call   10005a4a <NIContext::NIContext(Video*, int, int, int, int)+0x2b2>	10005a4a: R_386_PC32	Directory::close()
10005a4e:	89 1c 24             	mov    DWORD PTR [esp],ebx
10005a51:	8b 03                	mov    eax,DWORD PTR [ebx]
10005a53:	ff 50 08             	call   DWORD PTR [eax+0x8]
10005a56:	c7 04 24 10 00 00 00 	mov    DWORD PTR [esp],0x10
10005a5d:	6a 00                	push   0x0
10005a5f:	6a 00                	push   0x0
10005a61:	68 ff 00 00 00       	push   0xff
10005a66:	68 00 00 00 00       	push   0x0	10005a67: R_386_32	ssfn_ctx
10005a6b:	e8 fc ff ff ff       	call   10005a6c <NIContext::NIContext(Video*, int, int, int, int)+0x2d4>	10005a6c: R_386_PC32	ssfn_select
10005a70:	81 c4 50 02 00 00    	add    esp,0x250
10005a76:	5b                   	pop    ebx
10005a77:	5e                   	pop    esi
10005a78:	5f                   	pop    edi
10005a79:	c3                   	ret    

10005a7a <clipdrawHandleMouse(int, int, int, int)>:
10005a7a:	55                   	push   ebp
10005a7b:	89 e5                	mov    ebp,esp
10005a7d:	83 ec 08             	sub    esp,0x8
10005a80:	a1 00 00 00 00       	mov    eax,ds:0x0	10005a81: R_386_32	mouseDesktop
10005a85:	83 ec 0c             	sub    esp,0xc
10005a88:	ff 75 14             	push   DWORD PTR [ebp+0x14]
10005a8b:	ff 75 10             	push   DWORD PTR [ebp+0x10]
10005a8e:	ff 75 0c             	push   DWORD PTR [ebp+0xc]
10005a91:	ff 75 08             	push   DWORD PTR [ebp+0x8]
10005a94:	50                   	push   eax
10005a95:	e8 fc ff ff ff       	call   10005a96 <clipdrawHandleMouse(int, int, int, int)+0x1c>	10005a96: R_386_PC32	NIDesktop::handleMouse(int, int, int, int)
10005a9a:	83 c4 20             	add    esp,0x20
10005a9d:	90                   	nop
10005a9e:	c9                   	leave  
10005a9f:	c3                   	ret    

10005aa0 <NIDesktop::NIDesktop(NIContext*)>:
10005aa0:	53                   	push   ebx
10005aa1:	83 ec 14             	sub    esp,0x14
10005aa4:	8b 5c 24 1c          	mov    ebx,DWORD PTR [esp+0x1c]
10005aa8:	8b 44 24 20          	mov    eax,DWORD PTR [esp+0x20]
10005aac:	c7 43 08 1e 00 00 00 	mov    DWORD PTR [ebx+0x8],0x1e
10005ab3:	89 43 04             	mov    DWORD PTR [ebx+0x4],eax
10005ab6:	c7 43 0c 1e 00 00 00 	mov    DWORD PTR [ebx+0xc],0x1e
10005abd:	c7 43 10 00 00 00 00 	mov    DWORD PTR [ebx+0x10],0x0
10005ac4:	6a 08                	push   0x8
10005ac6:	e8 fc ff ff ff       	call   10005ac7 <NIDesktop::NIDesktop(NIContext*)+0x27>	10005ac7: R_386_PC32	malloc
10005acb:	89 03                	mov    DWORD PTR [ebx],eax
10005acd:	c7 00 00 00 00 00    	mov    DWORD PTR [eax],0x0
10005ad3:	c7 40 04 00 00 00 00 	mov    DWORD PTR [eax+0x4],0x0
10005ada:	89 1d 00 00 00 00    	mov    DWORD PTR ds:0x0,ebx	10005adc: R_386_32	mouseDesktop
10005ae0:	c7 05 00 00 00 00 00 00 00 00 	mov    DWORD PTR ds:0x0,0x0	10005ae2: R_386_32	guiMouseHandler
	10005ae6: R_386_32	clipdrawHandleMouse(int, int, int, int)
10005aea:	83 c4 18             	add    esp,0x18
10005aed:	5b                   	pop    ebx
10005aee:	c3                   	ret    
10005aef:	90                   	nop

10005af0 <NIDesktop::getLastNode()>:
10005af0:	55                   	push   ebp
10005af1:	89 e5                	mov    ebp,esp
10005af3:	83 ec 10             	sub    esp,0x10
10005af6:	8b 45 08             	mov    eax,DWORD PTR [ebp+0x8]
10005af9:	8b 00                	mov    eax,DWORD PTR [eax]
10005afb:	89 45 fc             	mov    DWORD PTR [ebp-0x4],eax
10005afe:	8b 45 fc             	mov    eax,DWORD PTR [ebp-0x4]
10005b01:	8b 00                	mov    eax,DWORD PTR [eax]
10005b03:	85 c0                	test   eax,eax
10005b05:	74 0a                	je     10005b11 <NIDesktop::getLastNode()+0x21>
10005b07:	8b 45 fc             	mov    eax,DWORD PTR [ebp-0x4]
10005b0a:	8b 00                	mov    eax,DWORD PTR [eax]
10005b0c:	89 45 fc             	mov    DWORD PTR [ebp-0x4],eax
10005b0f:	eb ed                	jmp    10005afe <NIDesktop::getLastNode()+0xe>
10005b11:	8b 45 fc             	mov    eax,DWORD PTR [ebp-0x4]
10005b14:	c9                   	leave  
10005b15:	c3                   	ret    

10005b16 <NIDesktop::addWindow(NIWindow*)>:
10005b16:	55                   	push   ebp
10005b17:	89 e5                	mov    ebp,esp
10005b19:	83 ec 18             	sub    esp,0x18
10005b1c:	ff 75 08             	push   DWORD PTR [ebp+0x8]
10005b1f:	e8 fc ff ff ff       	call   10005b20 <NIDesktop::addWindow(NIWindow*)+0xa>	10005b20: R_386_PC32	NIDesktop::getLastNode()
10005b24:	83 c4 04             	add    esp,0x4
10005b27:	89 45 f4             	mov    DWORD PTR [ebp-0xc],eax
10005b2a:	8b 45 f4             	mov    eax,DWORD PTR [ebp-0xc]
10005b2d:	8b 55 0c             	mov    edx,DWORD PTR [ebp+0xc]
10005b30:	89 50 04             	mov    DWORD PTR [eax+0x4],edx
10005b33:	c7 45 f0 08 00 00 00 	mov    DWORD PTR [ebp-0x10],0x8
10005b3a:	83 ec 0c             	sub    esp,0xc
10005b3d:	ff 75 f0             	push   DWORD PTR [ebp-0x10]
10005b40:	e8 fc ff ff ff       	call   10005b41 <NIDesktop::addWindow(NIWindow*)+0x2b>	10005b41: R_386_PC32	malloc
10005b45:	83 c4 10             	add    esp,0x10
10005b48:	89 c2                	mov    edx,eax
10005b4a:	8b 45 f4             	mov    eax,DWORD PTR [ebp-0xc]
10005b4d:	89 10                	mov    DWORD PTR [eax],edx
10005b4f:	8b 45 f4             	mov    eax,DWORD PTR [ebp-0xc]
10005b52:	8b 00                	mov    eax,DWORD PTR [eax]
10005b54:	89 45 f4             	mov    DWORD PTR [ebp-0xc],eax
10005b57:	8b 45 f4             	mov    eax,DWORD PTR [ebp-0xc]
10005b5a:	c7 40 04 00 00 00 00 	mov    DWORD PTR [eax+0x4],0x0
10005b61:	8b 45 f4             	mov    eax,DWORD PTR [ebp-0xc]
10005b64:	c7 00 00 00 00 00    	mov    DWORD PTR [eax],0x0
10005b6a:	90                   	nop
10005b6b:	c9                   	leave  
10005b6c:	c3                   	ret    
10005b6d:	90                   	nop

10005b6e <NIDesktop::raiseWindow(NIWindow*)>:
10005b6e:	55                   	push   ebp
10005b6f:	89 e5                	mov    ebp,esp
10005b71:	83 ec 18             	sub    esp,0x18
10005b74:	83 ec 08             	sub    esp,0x8
10005b77:	ff 75 0c             	push   DWORD PTR [ebp+0xc]
10005b7a:	ff 75 08             	push   DWORD PTR [ebp+0x8]
10005b7d:	e8 fc ff ff ff       	call   10005b7e <NIDesktop::raiseWindow(NIWindow*)+0x10>	10005b7e: R_386_PC32	NIDesktop::deleteWindow(NIWindow*)
10005b82:	83 c4 10             	add    esp,0x10
10005b85:	c7 45 f0 08 00 00 00 	mov    DWORD PTR [ebp-0x10],0x8
10005b8c:	83 ec 0c             	sub    esp,0xc
10005b8f:	ff 75 f0             	push   DWORD PTR [ebp-0x10]
10005b92:	e8 fc ff ff ff       	call   10005b93 <NIDesktop::raiseWindow(NIWindow*)+0x25>	10005b93: R_386_PC32	malloc
10005b97:	83 c4 10             	add    esp,0x10
10005b9a:	89 45 f4             	mov    DWORD PTR [ebp-0xc],eax
10005b9d:	8b 45 08             	mov    eax,DWORD PTR [ebp+0x8]
10005ba0:	8b 10                	mov    edx,DWORD PTR [eax]
10005ba2:	8b 45 f4             	mov    eax,DWORD PTR [ebp-0xc]
10005ba5:	89 10                	mov    DWORD PTR [eax],edx
10005ba7:	8b 45 f4             	mov    eax,DWORD PTR [ebp-0xc]
10005baa:	8b 55 0c             	mov    edx,DWORD PTR [ebp+0xc]
10005bad:	89 50 04             	mov    DWORD PTR [eax+0x4],edx
10005bb0:	8b 45 08             	mov    eax,DWORD PTR [ebp+0x8]
10005bb3:	8b 55 f4             	mov    edx,DWORD PTR [ebp-0xc]
10005bb6:	89 10                	mov    DWORD PTR [eax],edx
10005bb8:	90                   	nop
10005bb9:	c9                   	leave  
10005bba:	c3                   	ret    
10005bbb:	90                   	nop

10005bbc <NIDesktop::deleteWindow(NIWindow*)>:
10005bbc:	55                   	push   ebp
10005bbd:	89 e5                	mov    ebp,esp
10005bbf:	83 ec 10             	sub    esp,0x10
10005bc2:	8b 45 08             	mov    eax,DWORD PTR [ebp+0x8]
10005bc5:	8b 00                	mov    eax,DWORD PTR [eax]
10005bc7:	89 45 fc             	mov    DWORD PTR [ebp-0x4],eax
10005bca:	8b 45 fc             	mov    eax,DWORD PTR [ebp-0x4]
10005bcd:	8b 00                	mov    eax,DWORD PTR [eax]
10005bcf:	85 c0                	test   eax,eax
10005bd1:	74 37                	je     10005c0a <NIDesktop::deleteWindow(NIWindow*)+0x4e>
10005bd3:	8b 45 fc             	mov    eax,DWORD PTR [ebp-0x4]
10005bd6:	8b 40 04             	mov    eax,DWORD PTR [eax+0x4]
10005bd9:	39 45 0c             	cmp    DWORD PTR [ebp+0xc],eax
10005bdc:	75 21                	jne    10005bff <NIDesktop::deleteWindow(NIWindow*)+0x43>
10005bde:	8b 45 fc             	mov    eax,DWORD PTR [ebp-0x4]
10005be1:	c7 40 04 00 00 00 00 	mov    DWORD PTR [eax+0x4],0x0
10005be8:	8b 45 fc             	mov    eax,DWORD PTR [ebp-0x4]
10005beb:	8b 00                	mov    eax,DWORD PTR [eax]
10005bed:	85 c0                	test   eax,eax
10005bef:	74 18                	je     10005c09 <NIDesktop::deleteWindow(NIWindow*)+0x4d>
10005bf1:	8b 45 fc             	mov    eax,DWORD PTR [ebp-0x4]
10005bf4:	8b 00                	mov    eax,DWORD PTR [eax]
10005bf6:	8b 10                	mov    edx,DWORD PTR [eax]
10005bf8:	8b 45 fc             	mov    eax,DWORD PTR [ebp-0x4]
10005bfb:	89 10                	mov    DWORD PTR [eax],edx
10005bfd:	eb 0a                	jmp    10005c09 <NIDesktop::deleteWindow(NIWindow*)+0x4d>
10005bff:	8b 45 fc             	mov    eax,DWORD PTR [ebp-0x4]
10005c02:	8b 00                	mov    eax,DWORD PTR [eax]
10005c04:	89 45 fc             	mov    DWORD PTR [ebp-0x4],eax
10005c07:	eb c1                	jmp    10005bca <NIDesktop::deleteWindow(NIWindow*)+0xe>
10005c09:	90                   	nop
10005c0a:	c9                   	leave  
10005c0b:	c3                   	ret    

10005c0c <NIDesktop::rangeRefresh(int, int, int, int)>:
10005c0c:	55                   	push   ebp
10005c0d:	89 e5                	mov    ebp,esp
10005c0f:	83 ec 18             	sub    esp,0x18
10005c12:	8b 45 0c             	mov    eax,DWORD PTR [ebp+0xc]
10005c15:	89 45 f4             	mov    DWORD PTR [ebp-0xc],eax
10005c18:	8b 45 f4             	mov    eax,DWORD PTR [ebp-0xc]
10005c1b:	3b 45 10             	cmp    eax,DWORD PTR [ebp+0x10]
10005c1e:	7d 19                	jge    10005c39 <NIDesktop::rangeRefresh(int, int, int, int)+0x2d>
10005c20:	ff 75 18             	push   DWORD PTR [ebp+0x18]
10005c23:	ff 75 14             	push   DWORD PTR [ebp+0x14]
10005c26:	ff 75 f4             	push   DWORD PTR [ebp-0xc]
10005c29:	ff 75 08             	push   DWORD PTR [ebp+0x8]
10005c2c:	e8 fc ff ff ff       	call   10005c2d <NIDesktop::rangeRefresh(int, int, int, int)+0x21>	10005c2d: R_386_PC32	NIDesktop::renderScanline(int, int, int)
10005c31:	83 c4 10             	add    esp,0x10
10005c34:	ff 45 f4             	inc    DWORD PTR [ebp-0xc]
10005c37:	eb df                	jmp    10005c18 <NIDesktop::rangeRefresh(int, int, int, int)+0xc>
10005c39:	90                   	nop
10005c3a:	c9                   	leave  
10005c3b:	c3                   	ret    

10005c3c <NIDesktop::completeRefresh()>:
10005c3c:	55                   	push   ebp
10005c3d:	89 e5                	mov    ebp,esp
10005c3f:	56                   	push   esi
10005c40:	53                   	push   ebx
10005c41:	83 ec 10             	sub    esp,0x10
10005c44:	c7 45 f4 00 00 00 00 	mov    DWORD PTR [ebp-0xc],0x0
10005c4b:	8b 45 08             	mov    eax,DWORD PTR [ebp+0x8]
10005c4e:	8b 40 04             	mov    eax,DWORD PTR [eax+0x4]
10005c51:	8b 80 10 04 00 00    	mov    eax,DWORD PTR [eax+0x410]
10005c57:	39 45 f4             	cmp    DWORD PTR [ebp-0xc],eax
10005c5a:	7d 22                	jge    10005c7e <NIDesktop::completeRefresh()+0x42>
10005c5c:	8b 45 08             	mov    eax,DWORD PTR [ebp+0x8]
10005c5f:	8b 40 04             	mov    eax,DWORD PTR [eax+0x4]
10005c62:	8b 80 0c 04 00 00    	mov    eax,DWORD PTR [eax+0x40c]
10005c68:	50                   	push   eax
10005c69:	6a 00                	push   0x0
10005c6b:	ff 75 f4             	push   DWORD PTR [ebp-0xc]
10005c6e:	ff 75 08             	push   DWORD PTR [ebp+0x8]
10005c71:	e8 fc ff ff ff       	call   10005c72 <NIDesktop::completeRefresh()+0x36>	10005c72: R_386_PC32	NIDesktop::renderScanline(int, int, int)
10005c76:	83 c4 10             	add    esp,0x10
10005c79:	ff 45 f4             	inc    DWORD PTR [ebp-0xc]
10005c7c:	eb cd                	jmp    10005c4b <NIDesktop::completeRefresh()+0xf>
10005c7e:	8b 45 08             	mov    eax,DWORD PTR [ebp+0x8]
10005c81:	8b 40 04             	mov    eax,DWORD PTR [eax+0x4]
10005c84:	8b 90 08 04 00 00    	mov    edx,DWORD PTR [eax+0x408]
10005c8a:	8b 45 08             	mov    eax,DWORD PTR [ebp+0x8]
10005c8d:	8b 40 04             	mov    eax,DWORD PTR [eax+0x4]
10005c90:	8b 80 08 04 00 00    	mov    eax,DWORD PTR [eax+0x408]
10005c96:	8b 00                	mov    eax,DWORD PTR [eax]
10005c98:	83 c0 30             	add    eax,0x30
10005c9b:	8b 00                	mov    eax,DWORD PTR [eax]
10005c9d:	8b 4d 08             	mov    ecx,DWORD PTR [ebp+0x8]
10005ca0:	8b 49 10             	mov    ecx,DWORD PTR [ecx+0x10]
10005ca3:	8d b1 00 00 00 00    	lea    esi,[ecx+0x0]	10005ca5: R_386_32	___mouse_data
10005ca9:	8b 4d 08             	mov    ecx,DWORD PTR [ebp+0x8]
10005cac:	8b 59 0c             	mov    ebx,DWORD PTR [ecx+0xc]
10005caf:	8b 4d 08             	mov    ecx,DWORD PTR [ebp+0x8]
10005cb2:	8b 49 08             	mov    ecx,DWORD PTR [ecx+0x8]
10005cb5:	83 ec 0c             	sub    esp,0xc
10005cb8:	6a 00                	push   0x0
10005cba:	56                   	push   esi
10005cbb:	53                   	push   ebx
10005cbc:	51                   	push   ecx
10005cbd:	52                   	push   edx
10005cbe:	ff d0                	call   eax
10005cc0:	83 c4 20             	add    esp,0x20
10005cc3:	90                   	nop
10005cc4:	8d 65 f8             	lea    esp,[ebp-0x8]
10005cc7:	5b                   	pop    ebx
10005cc8:	5e                   	pop    esi
10005cc9:	5d                   	pop    ebp
10005cca:	c3                   	ret    
10005ccb:	90                   	nop

10005ccc <NIDesktop::handleMouse(int, int, int, int)>:
10005ccc:	55                   	push   ebp
10005ccd:	89 e5                	mov    ebp,esp
10005ccf:	56                   	push   esi
10005cd0:	53                   	push   ebx
10005cd1:	8b 45 08             	mov    eax,DWORD PTR [ebp+0x8]
10005cd4:	8b 40 08             	mov    eax,DWORD PTR [eax+0x8]
10005cd7:	8d 58 20             	lea    ebx,[eax+0x20]
10005cda:	8b 45 08             	mov    eax,DWORD PTR [ebp+0x8]
10005cdd:	8b 50 08             	mov    edx,DWORD PTR [eax+0x8]
10005ce0:	8b 45 08             	mov    eax,DWORD PTR [ebp+0x8]
10005ce3:	8b 40 0c             	mov    eax,DWORD PTR [eax+0xc]
10005ce6:	8d 48 20             	lea    ecx,[eax+0x20]
10005ce9:	8b 45 08             	mov    eax,DWORD PTR [ebp+0x8]
10005cec:	8b 40 0c             	mov    eax,DWORD PTR [eax+0xc]
10005cef:	83 ec 0c             	sub    esp,0xc
10005cf2:	53                   	push   ebx
10005cf3:	52                   	push   edx
10005cf4:	51                   	push   ecx
10005cf5:	50                   	push   eax
10005cf6:	ff 75 08             	push   DWORD PTR [ebp+0x8]
10005cf9:	e8 fc ff ff ff       	call   10005cfa <NIDesktop::handleMouse(int, int, int, int)+0x2e>	10005cfa: R_386_PC32	NIDesktop::rangeRefresh(int, int, int, int)
10005cfe:	83 c4 20             	add    esp,0x20
10005d01:	8b 45 08             	mov    eax,DWORD PTR [ebp+0x8]
10005d04:	8b 50 08             	mov    edx,DWORD PTR [eax+0x8]
10005d07:	8b 45 0c             	mov    eax,DWORD PTR [ebp+0xc]
10005d0a:	01 c2                	add    edx,eax
10005d0c:	8b 45 08             	mov    eax,DWORD PTR [ebp+0x8]
10005d0f:	89 50 08             	mov    DWORD PTR [eax+0x8],edx
10005d12:	8b 45 08             	mov    eax,DWORD PTR [ebp+0x8]
10005d15:	8b 50 0c             	mov    edx,DWORD PTR [eax+0xc]
10005d18:	8b 45 10             	mov    eax,DWORD PTR [ebp+0x10]
10005d1b:	01 c2                	add    edx,eax
10005d1d:	8b 45 08             	mov    eax,DWORD PTR [ebp+0x8]
10005d20:	89 50 0c             	mov    DWORD PTR [eax+0xc],edx
10005d23:	8b 45 08             	mov    eax,DWORD PTR [ebp+0x8]
10005d26:	8b 40 08             	mov    eax,DWORD PTR [eax+0x8]
10005d29:	85 c0                	test   eax,eax
10005d2b:	79 0a                	jns    10005d37 <NIDesktop::handleMouse(int, int, int, int)+0x6b>
10005d2d:	8b 45 08             	mov    eax,DWORD PTR [ebp+0x8]
10005d30:	c7 40 08 00 00 00 00 	mov    DWORD PTR [eax+0x8],0x0
10005d37:	8b 45 08             	mov    eax,DWORD PTR [ebp+0x8]
10005d3a:	8b 40 0c             	mov    eax,DWORD PTR [eax+0xc]
10005d3d:	85 c0                	test   eax,eax
10005d3f:	79 0a                	jns    10005d4b <NIDesktop::handleMouse(int, int, int, int)+0x7f>
10005d41:	8b 45 08             	mov    eax,DWORD PTR [ebp+0x8]
10005d44:	c7 40 0c 00 00 00 00 	mov    DWORD PTR [eax+0xc],0x0
10005d4b:	8b 45 08             	mov    eax,DWORD PTR [ebp+0x8]
10005d4e:	8b 40 04             	mov    eax,DWORD PTR [eax+0x4]
10005d51:	8b 90 0c 04 00 00    	mov    edx,DWORD PTR [eax+0x40c]
10005d57:	8b 45 08             	mov    eax,DWORD PTR [ebp+0x8]
10005d5a:	8b 40 08             	mov    eax,DWORD PTR [eax+0x8]
10005d5d:	39 c2                	cmp    edx,eax
10005d5f:	7f 15                	jg     10005d76 <NIDesktop::handleMouse(int, int, int, int)+0xaa>
10005d61:	8b 45 08             	mov    eax,DWORD PTR [ebp+0x8]
10005d64:	8b 40 04             	mov    eax,DWORD PTR [eax+0x4]
10005d67:	8b 80 0c 04 00 00    	mov    eax,DWORD PTR [eax+0x40c]
10005d6d:	8d 50 ff             	lea    edx,[eax-0x1]
10005d70:	8b 45 08             	mov    eax,DWORD PTR [ebp+0x8]
10005d73:	89 50 08             	mov    DWORD PTR [eax+0x8],edx
10005d76:	8b 45 08             	mov    eax,DWORD PTR [ebp+0x8]
10005d79:	8b 40 04             	mov    eax,DWORD PTR [eax+0x4]
10005d7c:	8b 90 10 04 00 00    	mov    edx,DWORD PTR [eax+0x410]
10005d82:	8b 45 08             	mov    eax,DWORD PTR [ebp+0x8]
10005d85:	8b 40 0c             	mov    eax,DWORD PTR [eax+0xc]
10005d88:	39 c2                	cmp    edx,eax
10005d8a:	7f 15                	jg     10005da1 <NIDesktop::handleMouse(int, int, int, int)+0xd5>
10005d8c:	8b 45 08             	mov    eax,DWORD PTR [ebp+0x8]
10005d8f:	8b 40 04             	mov    eax,DWORD PTR [eax+0x4]
10005d92:	8b 80 10 04 00 00    	mov    eax,DWORD PTR [eax+0x410]
10005d98:	8d 50 ff             	lea    edx,[eax-0x1]
10005d9b:	8b 45 08             	mov    eax,DWORD PTR [ebp+0x8]
10005d9e:	89 50 0c             	mov    DWORD PTR [eax+0xc],edx
10005da1:	8b 45 08             	mov    eax,DWORD PTR [ebp+0x8]
10005da4:	8b 40 04             	mov    eax,DWORD PTR [eax+0x4]
10005da7:	8b 90 08 04 00 00    	mov    edx,DWORD PTR [eax+0x408]
10005dad:	8b 45 08             	mov    eax,DWORD PTR [ebp+0x8]
10005db0:	8b 40 04             	mov    eax,DWORD PTR [eax+0x4]
10005db3:	8b 80 08 04 00 00    	mov    eax,DWORD PTR [eax+0x408]
10005db9:	8b 00                	mov    eax,DWORD PTR [eax]
10005dbb:	83 c0 30             	add    eax,0x30
10005dbe:	8b 00                	mov    eax,DWORD PTR [eax]
10005dc0:	8b 4d 08             	mov    ecx,DWORD PTR [ebp+0x8]
10005dc3:	8b 49 10             	mov    ecx,DWORD PTR [ecx+0x10]
10005dc6:	8d b1 00 00 00 00    	lea    esi,[ecx+0x0]	10005dc8: R_386_32	___mouse_data
10005dcc:	8b 4d 08             	mov    ecx,DWORD PTR [ebp+0x8]
10005dcf:	8b 59 0c             	mov    ebx,DWORD PTR [ecx+0xc]
10005dd2:	8b 4d 08             	mov    ecx,DWORD PTR [ebp+0x8]
10005dd5:	8b 49 08             	mov    ecx,DWORD PTR [ecx+0x8]
10005dd8:	83 ec 0c             	sub    esp,0xc
10005ddb:	6a 00                	push   0x0
10005ddd:	56                   	push   esi
10005dde:	53                   	push   ebx
10005ddf:	51                   	push   ecx
10005de0:	52                   	push   edx
10005de1:	ff d0                	call   eax
10005de3:	83 c4 20             	add    esp,0x20
10005de6:	90                   	nop
10005de7:	8d 65 f8             	lea    esp,[ebp-0x8]
10005dea:	5b                   	pop    ebx
10005deb:	5e                   	pop    esi
10005dec:	5d                   	pop    ebp
10005ded:	c3                   	ret    

10005dee <NIDesktop::renderScanline(int, int, int)>:
10005dee:	55                   	push   ebp
10005def:	89 e5                	mov    ebp,esp
10005df1:	53                   	push   ebx
10005df2:	83 ec 24             	sub    esp,0x24
10005df5:	83 ec 04             	sub    esp,0x4
10005df8:	68 00 08 00 00       	push   0x800
10005dfd:	6a 00                	push   0x0
10005dff:	68 00 00 00 00       	push   0x0	10005e00: R_386_32	render
10005e04:	e8 fc ff ff ff       	call   10005e05 <NIDesktop::renderScanline(int, int, int)+0x17>	10005e05: R_386_PC32	memset
10005e09:	83 c4 10             	add    esp,0x10
10005e0c:	8b 45 14             	mov    eax,DWORD PTR [ebp+0x14]
10005e0f:	2b 45 10             	sub    eax,DWORD PTR [ebp+0x10]
10005e12:	89 45 f4             	mov    DWORD PTR [ebp-0xc],eax
10005e15:	8b 45 08             	mov    eax,DWORD PTR [ebp+0x8]
10005e18:	8b 00                	mov    eax,DWORD PTR [eax]
10005e1a:	89 45 f0             	mov    DWORD PTR [ebp-0x10],eax
10005e1d:	8b 45 f0             	mov    eax,DWORD PTR [ebp-0x10]
10005e20:	8b 00                	mov    eax,DWORD PTR [eax]
10005e22:	85 c0                	test   eax,eax
10005e24:	0f 84 2d 01 00 00    	je     10005f57 <NIDesktop::renderScanline(int, int, int)+0x169>
10005e2a:	83 7d f0 00          	cmp    DWORD PTR [ebp-0x10],0x0
10005e2e:	0f 84 1f 01 00 00    	je     10005f53 <NIDesktop::renderScanline(int, int, int)+0x165>
10005e34:	8b 45 f0             	mov    eax,DWORD PTR [ebp-0x10]
10005e37:	8b 40 04             	mov    eax,DWORD PTR [eax+0x4]
10005e3a:	89 45 e4             	mov    DWORD PTR [ebp-0x1c],eax
10005e3d:	83 7d e4 00          	cmp    DWORD PTR [ebp-0x1c],0x0
10005e41:	0f 84 0f 01 00 00    	je     10005f56 <NIDesktop::renderScanline(int, int, int)+0x168>
10005e47:	8b 45 e4             	mov    eax,DWORD PTR [ebp-0x1c]
10005e4a:	8b 40 18             	mov    eax,DWORD PTR [eax+0x18]
10005e4d:	39 45 0c             	cmp    DWORD PTR [ebp+0xc],eax
10005e50:	0f 8c f0 00 00 00    	jl     10005f46 <NIDesktop::renderScanline(int, int, int)+0x158>
10005e56:	8b 45 e4             	mov    eax,DWORD PTR [ebp-0x1c]
10005e59:	8b 50 18             	mov    edx,DWORD PTR [eax+0x18]
10005e5c:	8b 45 e4             	mov    eax,DWORD PTR [ebp-0x1c]
10005e5f:	8b 40 20             	mov    eax,DWORD PTR [eax+0x20]
10005e62:	01 d0                	add    eax,edx
10005e64:	39 45 0c             	cmp    DWORD PTR [ebp+0xc],eax
10005e67:	0f 8d d9 00 00 00    	jge    10005f46 <NIDesktop::renderScanline(int, int, int)+0x158>
10005e6d:	8b 45 e4             	mov    eax,DWORD PTR [ebp-0x1c]
10005e70:	8b 50 10             	mov    edx,DWORD PTR [eax+0x10]
10005e73:	8b 45 e4             	mov    eax,DWORD PTR [ebp-0x1c]
10005e76:	8b 40 18             	mov    eax,DWORD PTR [eax+0x18]
10005e79:	8b 4d 0c             	mov    ecx,DWORD PTR [ebp+0xc]
10005e7c:	29 c1                	sub    ecx,eax
10005e7e:	89 c8                	mov    eax,ecx
10005e80:	c1 e0 03             	shl    eax,0x3
10005e83:	01 d0                	add    eax,edx
10005e85:	8b 00                	mov    eax,DWORD PTR [eax]
10005e87:	0f b7 c0             	movzx  eax,ax
10005e8a:	89 45 e0             	mov    DWORD PTR [ebp-0x20],eax
10005e8d:	8b 45 e4             	mov    eax,DWORD PTR [ebp-0x1c]
10005e90:	8b 50 10             	mov    edx,DWORD PTR [eax+0x10]
10005e93:	8b 45 e4             	mov    eax,DWORD PTR [ebp-0x1c]
10005e96:	8b 40 18             	mov    eax,DWORD PTR [eax+0x18]
10005e99:	8b 4d 0c             	mov    ecx,DWORD PTR [ebp+0xc]
10005e9c:	29 c1                	sub    ecx,eax
10005e9e:	89 c8                	mov    eax,ecx
10005ea0:	c1 e0 03             	shl    eax,0x3
10005ea3:	01 d0                	add    eax,edx
10005ea5:	66 8b 40 02          	mov    ax,WORD PTR [eax+0x2]
10005ea9:	0f b7 c0             	movzx  eax,ax
10005eac:	89 45 dc             	mov    DWORD PTR [ebp-0x24],eax
10005eaf:	8b 45 e4             	mov    eax,DWORD PTR [ebp-0x1c]
10005eb2:	8b 50 14             	mov    edx,DWORD PTR [eax+0x14]
10005eb5:	8b 45 e0             	mov    eax,DWORD PTR [ebp-0x20]
10005eb8:	01 d0                	add    eax,edx
10005eba:	89 45 ec             	mov    DWORD PTR [ebp-0x14],eax
10005ebd:	8b 45 e4             	mov    eax,DWORD PTR [ebp-0x1c]
10005ec0:	8b 50 14             	mov    edx,DWORD PTR [eax+0x14]
10005ec3:	8b 45 e4             	mov    eax,DWORD PTR [ebp-0x1c]
10005ec6:	8b 40 1c             	mov    eax,DWORD PTR [eax+0x1c]
10005ec9:	01 d0                	add    eax,edx
10005ecb:	2b 45 dc             	sub    eax,DWORD PTR [ebp-0x24]
10005ece:	39 45 ec             	cmp    DWORD PTR [ebp-0x14],eax
10005ed1:	7d 73                	jge    10005f46 <NIDesktop::renderScanline(int, int, int)+0x158>
10005ed3:	8b 45 ec             	mov    eax,DWORD PTR [ebp-0x14]
10005ed6:	05 00 00 00 00       	add    eax,0x0	10005ed7: R_386_32	render
10005edb:	8a 00                	mov    al,BYTE PTR [eax]
10005edd:	84 c0                	test   al,al
10005edf:	75 5d                	jne    10005f3e <NIDesktop::renderScanline(int, int, int)+0x150>
10005ee1:	8b 45 ec             	mov    eax,DWORD PTR [ebp-0x14]
10005ee4:	3b 45 10             	cmp    eax,DWORD PTR [ebp+0x10]
10005ee7:	7c 55                	jl     10005f3e <NIDesktop::renderScanline(int, int, int)+0x150>
10005ee9:	8b 45 ec             	mov    eax,DWORD PTR [ebp-0x14]
10005eec:	3b 45 14             	cmp    eax,DWORD PTR [ebp+0x14]
10005eef:	7d 4d                	jge    10005f3e <NIDesktop::renderScanline(int, int, int)+0x150>
10005ef1:	8b 45 ec             	mov    eax,DWORD PTR [ebp-0x14]
10005ef4:	05 00 00 00 00       	add    eax,0x0	10005ef5: R_386_32	render
10005ef9:	c6 00 01             	mov    BYTE PTR [eax],0x1
10005efc:	8b 45 e4             	mov    eax,DWORD PTR [ebp-0x1c]
10005eff:	8b 50 10             	mov    edx,DWORD PTR [eax+0x10]
10005f02:	8b 45 e4             	mov    eax,DWORD PTR [ebp-0x1c]
10005f05:	8b 40 18             	mov    eax,DWORD PTR [eax+0x18]
10005f08:	8b 4d 0c             	mov    ecx,DWORD PTR [ebp+0xc]
10005f0b:	29 c1                	sub    ecx,eax
10005f0d:	89 c8                	mov    eax,ecx
10005f0f:	c1 e0 03             	shl    eax,0x3
10005f12:	01 d0                	add    eax,edx
10005f14:	8b 50 04             	mov    edx,DWORD PTR [eax+0x4]
10005f17:	8b 45 e4             	mov    eax,DWORD PTR [ebp-0x1c]
10005f1a:	8b 40 14             	mov    eax,DWORD PTR [eax+0x14]
10005f1d:	8b 4d ec             	mov    ecx,DWORD PTR [ebp-0x14]
10005f20:	29 c1                	sub    ecx,eax
10005f22:	89 c8                	mov    eax,ecx
10005f24:	c1 e0 02             	shl    eax,0x2
10005f27:	01 d0                	add    eax,edx
10005f29:	8b 10                	mov    edx,DWORD PTR [eax]
10005f2b:	8b 45 ec             	mov    eax,DWORD PTR [ebp-0x14]
10005f2e:	89 14 85 00 00 00 00 	mov    DWORD PTR [eax*4+0x0],edx	10005f31: R_386_32	renderData
10005f35:	ff 4d f4             	dec    DWORD PTR [ebp-0xc]
10005f38:	83 7d f4 00          	cmp    DWORD PTR [ebp-0xc],0x0
10005f3c:	74 5c                	je     10005f9a <NIDesktop::renderScanline(int, int, int)+0x1ac>
10005f3e:	ff 45 ec             	inc    DWORD PTR [ebp-0x14]
10005f41:	e9 77 ff ff ff       	jmp    10005ebd <NIDesktop::renderScanline(int, int, int)+0xcf>
10005f46:	8b 45 f0             	mov    eax,DWORD PTR [ebp-0x10]
10005f49:	8b 00                	mov    eax,DWORD PTR [eax]
10005f4b:	89 45 f0             	mov    DWORD PTR [ebp-0x10],eax
10005f4e:	e9 ca fe ff ff       	jmp    10005e1d <NIDesktop::renderScanline(int, int, int)+0x2f>
10005f53:	90                   	nop
10005f54:	eb 01                	jmp    10005f57 <NIDesktop::renderScanline(int, int, int)+0x169>
10005f56:	90                   	nop
10005f57:	8b 45 10             	mov    eax,DWORD PTR [ebp+0x10]
10005f5a:	89 45 e8             	mov    DWORD PTR [ebp-0x18],eax
10005f5d:	8b 45 e8             	mov    eax,DWORD PTR [ebp-0x18]
10005f60:	3b 45 14             	cmp    eax,DWORD PTR [ebp+0x14]
10005f63:	7d 38                	jge    10005f9d <NIDesktop::renderScanline(int, int, int)+0x1af>
10005f65:	8b 45 e8             	mov    eax,DWORD PTR [ebp-0x18]
10005f68:	05 00 00 00 00       	add    eax,0x0	10005f69: R_386_32	render
10005f6d:	8a 00                	mov    al,BYTE PTR [eax]
10005f6f:	84 c0                	test   al,al
10005f71:	75 22                	jne    10005f95 <NIDesktop::renderScanline(int, int, int)+0x1a7>
10005f73:	8b 45 e8             	mov    eax,DWORD PTR [ebp-0x18]
10005f76:	05 00 00 00 00       	add    eax,0x0	10005f77: R_386_32	render
10005f7b:	c6 00 01             	mov    BYTE PTR [eax],0x1
10005f7e:	8b 45 e8             	mov    eax,DWORD PTR [ebp-0x18]
10005f81:	c7 04 85 00 00 00 00 ff 80 55 00 	mov    DWORD PTR [eax*4+0x0],0x5580ff	10005f84: R_386_32	renderData
10005f8c:	ff 4d f4             	dec    DWORD PTR [ebp-0xc]
10005f8f:	83 7d f4 00          	cmp    DWORD PTR [ebp-0xc],0x0
10005f93:	74 0b                	je     10005fa0 <NIDesktop::renderScanline(int, int, int)+0x1b2>
10005f95:	ff 45 e8             	inc    DWORD PTR [ebp-0x18]
10005f98:	eb c3                	jmp    10005f5d <NIDesktop::renderScanline(int, int, int)+0x16f>
10005f9a:	90                   	nop
10005f9b:	eb 04                	jmp    10005fa1 <NIDesktop::renderScanline(int, int, int)+0x1b3>
10005f9d:	90                   	nop
10005f9e:	eb 01                	jmp    10005fa1 <NIDesktop::renderScanline(int, int, int)+0x1b3>
10005fa0:	90                   	nop
10005fa1:	8b 45 08             	mov    eax,DWORD PTR [ebp+0x8]
10005fa4:	8b 40 04             	mov    eax,DWORD PTR [eax+0x4]
10005fa7:	8b 90 08 04 00 00    	mov    edx,DWORD PTR [eax+0x408]
10005fad:	8b 45 08             	mov    eax,DWORD PTR [ebp+0x8]
10005fb0:	8b 40 04             	mov    eax,DWORD PTR [eax+0x4]
10005fb3:	8b 80 08 04 00 00    	mov    eax,DWORD PTR [eax+0x408]
10005fb9:	8b 00                	mov    eax,DWORD PTR [eax]
10005fbb:	83 c0 3c             	add    eax,0x3c
10005fbe:	8b 00                	mov    eax,DWORD PTR [eax]
10005fc0:	8b 4d 14             	mov    ecx,DWORD PTR [ebp+0x14]
10005fc3:	2b 4d 10             	sub    ecx,DWORD PTR [ebp+0x10]
10005fc6:	8b 5d 10             	mov    ebx,DWORD PTR [ebp+0x10]
10005fc9:	c1 e3 02             	shl    ebx,0x2
10005fcc:	81 c3 00 00 00 00    	add    ebx,0x0	10005fce: R_386_32	renderData
10005fd2:	83 ec 08             	sub    esp,0x8
10005fd5:	6a 01                	push   0x1
10005fd7:	51                   	push   ecx
10005fd8:	ff 75 0c             	push   DWORD PTR [ebp+0xc]
10005fdb:	ff 75 10             	push   DWORD PTR [ebp+0x10]
10005fde:	53                   	push   ebx
10005fdf:	52                   	push   edx
10005fe0:	ff d0                	call   eax
10005fe2:	83 c4 20             	add    esp,0x20
10005fe5:	90                   	nop
10005fe6:	8b 5d fc             	mov    ebx,DWORD PTR [ebp-0x4]
10005fe9:	c9                   	leave  
10005fea:	c3                   	ret    
10005feb:	90                   	nop

10005fec <NIWindow::changeContext(NIContext*, int, int)>:
10005fec:	55                   	push   ebp
10005fed:	89 e5                	mov    ebp,esp
10005fef:	83 ec 08             	sub    esp,0x8
10005ff2:	83 ec 0c             	sub    esp,0xc
10005ff5:	ff 75 08             	push   DWORD PTR [ebp+0x8]
10005ff8:	e8 fc ff ff ff       	call   10005ff9 <NIWindow::changeContext(NIContext*, int, int)+0xd>	10005ff9: R_386_PC32	NIWindow::invalidate()
10005ffd:	83 c4 10             	add    esp,0x10
10006000:	8b 45 08             	mov    eax,DWORD PTR [ebp+0x8]
10006003:	8b 55 0c             	mov    edx,DWORD PTR [ebp+0xc]
10006006:	89 10                	mov    DWORD PTR [eax],edx
10006008:	8b 45 08             	mov    eax,DWORD PTR [ebp+0x8]
1000600b:	8b 55 10             	mov    edx,DWORD PTR [ebp+0x10]
1000600e:	89 50 14             	mov    DWORD PTR [eax+0x14],edx
10006011:	8b 45 08             	mov    eax,DWORD PTR [ebp+0x8]
10006014:	8b 55 14             	mov    edx,DWORD PTR [ebp+0x14]
10006017:	89 50 18             	mov    DWORD PTR [eax+0x18],edx
1000601a:	8b 45 08             	mov    eax,DWORD PTR [ebp+0x8]
1000601d:	8b 00                	mov    eax,DWORD PTR [eax]
1000601f:	8b 80 18 04 00 00    	mov    eax,DWORD PTR [eax+0x418]
10006025:	83 f8 08             	cmp    eax,0x8
10006028:	7f 0c                	jg     10006036 <NIWindow::changeContext(NIContext*, int, int)+0x4a>
1000602a:	8b 45 08             	mov    eax,DWORD PTR [ebp+0x8]
1000602d:	c7 40 04 01 00 00 00 	mov    DWORD PTR [eax+0x4],0x1
10006034:	eb 26                	jmp    1000605c <NIWindow::changeContext(NIContext*, int, int)+0x70>
10006036:	8b 45 08             	mov    eax,DWORD PTR [ebp+0x8]
10006039:	8b 00                	mov    eax,DWORD PTR [eax]
1000603b:	8b 80 18 04 00 00    	mov    eax,DWORD PTR [eax+0x418]
10006041:	83 f8 10             	cmp    eax,0x10
10006044:	7f 0c                	jg     10006052 <NIWindow::changeContext(NIContext*, int, int)+0x66>
10006046:	8b 45 08             	mov    eax,DWORD PTR [ebp+0x8]
10006049:	c7 40 04 02 00 00 00 	mov    DWORD PTR [eax+0x4],0x2
10006050:	eb 0a                	jmp    1000605c <NIWindow::changeContext(NIContext*, int, int)+0x70>
10006052:	8b 45 08             	mov    eax,DWORD PTR [ebp+0x8]
10006055:	c7 40 04 04 00 00 00 	mov    DWORD PTR [eax+0x4],0x4
1000605c:	83 ec 0c             	sub    esp,0xc
1000605f:	ff 75 08             	push   DWORD PTR [ebp+0x8]
10006062:	e8 fc ff ff ff       	call   10006063 <NIWindow::changeContext(NIContext*, int, int)+0x77>	10006063: R_386_PC32	NIWindow::rerender()
10006067:	83 c4 10             	add    esp,0x10
1000606a:	90                   	nop
1000606b:	c9                   	leave  
1000606c:	c3                   	ret    
1000606d:	90                   	nop

1000606e <NIWindow::NIWindow(NIContext*, int, int, int, int)>:
1000606e:	8b 44 24 04          	mov    eax,DWORD PTR [esp+0x4]
10006072:	8b 54 24 14          	mov    edx,DWORD PTR [esp+0x14]
10006076:	c6 40 08 00          	mov    BYTE PTR [eax+0x8],0x0
1000607a:	89 50 1c             	mov    DWORD PTR [eax+0x1c],edx
1000607d:	c7 40 10 00 00 00 00 	mov    DWORD PTR [eax+0x10],0x0
10006084:	8b 54 24 18          	mov    edx,DWORD PTR [esp+0x18]
10006088:	c7 40 0c 00 00 00 00 	mov    DWORD PTR [eax+0xc],0x0
1000608f:	89 50 20             	mov    DWORD PTR [eax+0x20],edx
10006092:	e9 55 ff ff ff       	jmp    10005fec <NIWindow::changeContext(NIContext*, int, int)>
10006097:	90                   	nop

10006098 <NIWindow::SHADOW_TEST()>:
10006098:	55                   	push   ebp
10006099:	89 e5                	mov    ebp,esp
1000609b:	53                   	push   ebx
1000609c:	83 ec 34             	sub    esp,0x34
1000609f:	83 ec 0c             	sub    esp,0xc
100060a2:	ff 75 08             	push   DWORD PTR [ebp+0x8]
100060a5:	e8 fc ff ff ff       	call   100060a6 <NIWindow::SHADOW_TEST()+0xe>	100060a6: R_386_PC32	NIWindow::request()
100060aa:	83 c4 10             	add    esp,0x10
100060ad:	8b 45 08             	mov    eax,DWORD PTR [ebp+0x8]
100060b0:	8b 50 0c             	mov    edx,DWORD PTR [eax+0xc]
100060b3:	8b 45 08             	mov    eax,DWORD PTR [ebp+0x8]
100060b6:	8b 40 20             	mov    eax,DWORD PTR [eax+0x20]
100060b9:	39 c2                	cmp    edx,eax
100060bb:	74 10                	je     100060cd <NIWindow::SHADOW_TEST()+0x35>
100060bd:	83 ec 0c             	sub    esp,0xc
100060c0:	68 27 68 00 10       	push   0x10006827	100060c1: R_386_32	.text
100060c5:	e8 fc ff ff ff       	call   100060c6 <NIWindow::SHADOW_TEST()+0x2e>	100060c6: R_386_PC32	KePanic(char const*)
100060ca:	83 c4 10             	add    esp,0x10
100060cd:	8b 45 08             	mov    eax,DWORD PTR [ebp+0x8]
100060d0:	8b 40 04             	mov    eax,DWORD PTR [eax+0x4]
100060d3:	83 f8 04             	cmp    eax,0x4
100060d6:	0f 85 d0 01 00 00    	jne    100062ac <NIWindow::SHADOW_TEST()+0x214>
100060dc:	c7 45 f4 00 00 00 00 	mov    DWORD PTR [ebp-0xc],0x0
100060e3:	8b 45 08             	mov    eax,DWORD PTR [ebp+0x8]
100060e6:	8b 40 20             	mov    eax,DWORD PTR [eax+0x20]
100060e9:	39 45 f4             	cmp    DWORD PTR [ebp-0xc],eax
100060ec:	0f 8d ba 01 00 00    	jge    100062ac <NIWindow::SHADOW_TEST()+0x214>
100060f2:	8b 45 08             	mov    eax,DWORD PTR [ebp+0x8]
100060f5:	8b 40 10             	mov    eax,DWORD PTR [eax+0x10]
100060f8:	8b 55 f4             	mov    edx,DWORD PTR [ebp-0xc]
100060fb:	c1 e2 03             	shl    edx,0x3
100060fe:	01 d0                	add    eax,edx
10006100:	8b 00                	mov    eax,DWORD PTR [eax]
10006102:	0f b7 c0             	movzx  eax,ax
10006105:	89 45 e0             	mov    DWORD PTR [ebp-0x20],eax
10006108:	8b 45 08             	mov    eax,DWORD PTR [ebp+0x8]
1000610b:	8b 40 10             	mov    eax,DWORD PTR [eax+0x10]
1000610e:	8b 55 f4             	mov    edx,DWORD PTR [ebp-0xc]
10006111:	c1 e2 03             	shl    edx,0x3
10006114:	01 d0                	add    eax,edx
10006116:	66 8b 40 02          	mov    ax,WORD PTR [eax+0x2]
1000611a:	0f b7 c0             	movzx  eax,ax
1000611d:	89 45 dc             	mov    DWORD PTR [ebp-0x24],eax
10006120:	8b 45 e0             	mov    eax,DWORD PTR [ebp-0x20]
10006123:	89 45 f0             	mov    DWORD PTR [ebp-0x10],eax
10006126:	8b 45 08             	mov    eax,DWORD PTR [ebp+0x8]
10006129:	8b 40 1c             	mov    eax,DWORD PTR [eax+0x1c]
1000612c:	2b 45 dc             	sub    eax,DWORD PTR [ebp-0x24]
1000612f:	39 45 f0             	cmp    DWORD PTR [ebp-0x10],eax
10006132:	0f 8d 6c 01 00 00    	jge    100062a4 <NIWindow::SHADOW_TEST()+0x20c>
10006138:	83 7d f4 05          	cmp    DWORD PTR [ebp-0xc],0x5
1000613c:	7e 2e                	jle    1000616c <NIWindow::SHADOW_TEST()+0xd4>
1000613e:	8b 45 08             	mov    eax,DWORD PTR [ebp+0x8]
10006141:	8b 40 20             	mov    eax,DWORD PTR [eax+0x20]
10006144:	83 e8 05             	sub    eax,0x5
10006147:	39 45 f4             	cmp    DWORD PTR [ebp-0xc],eax
1000614a:	7d 20                	jge    1000616c <NIWindow::SHADOW_TEST()+0xd4>
1000614c:	8b 45 e0             	mov    eax,DWORD PTR [ebp-0x20]
1000614f:	83 c0 05             	add    eax,0x5
10006152:	39 45 f0             	cmp    DWORD PTR [ebp-0x10],eax
10006155:	7e 15                	jle    1000616c <NIWindow::SHADOW_TEST()+0xd4>
10006157:	8b 45 08             	mov    eax,DWORD PTR [ebp+0x8]
1000615a:	8b 40 1c             	mov    eax,DWORD PTR [eax+0x1c]
1000615d:	2b 45 dc             	sub    eax,DWORD PTR [ebp-0x24]
10006160:	83 e8 05             	sub    eax,0x5
10006163:	39 45 f0             	cmp    DWORD PTR [ebp-0x10],eax
10006166:	0f 8c 2c 01 00 00    	jl     10006298 <NIWindow::SHADOW_TEST()+0x200>
1000616c:	8b 45 f4             	mov    eax,DWORD PTR [ebp-0xc]
1000616f:	8d 58 05             	lea    ebx,[eax+0x5]
10006172:	b8 ea 01 00 00       	mov    eax,0x1ea
10006177:	99                   	cdq    
10006178:	f7 fb                	idiv   ebx
1000617a:	89 45 d8             	mov    DWORD PTR [ebp-0x28],eax
1000617d:	8b 45 08             	mov    eax,DWORD PTR [ebp+0x8]
10006180:	8b 40 20             	mov    eax,DWORD PTR [eax+0x20]
10006183:	2b 45 dc             	sub    eax,DWORD PTR [ebp-0x24]
10006186:	2b 45 f4             	sub    eax,DWORD PTR [ebp-0xc]
10006189:	8d 48 04             	lea    ecx,[eax+0x4]
1000618c:	b8 ea 01 00 00       	mov    eax,0x1ea
10006191:	99                   	cdq    
10006192:	f7 f9                	idiv   ecx
10006194:	89 45 d4             	mov    DWORD PTR [ebp-0x2c],eax
10006197:	8b 45 d8             	mov    eax,DWORD PTR [ebp-0x28]
1000619a:	3b 45 d4             	cmp    eax,DWORD PTR [ebp-0x2c]
1000619d:	7e 05                	jle    100061a4 <NIWindow::SHADOW_TEST()+0x10c>
1000619f:	8b 45 d8             	mov    eax,DWORD PTR [ebp-0x28]
100061a2:	eb 03                	jmp    100061a7 <NIWindow::SHADOW_TEST()+0x10f>
100061a4:	8b 45 d4             	mov    eax,DWORD PTR [ebp-0x2c]
100061a7:	89 45 ec             	mov    DWORD PTR [ebp-0x14],eax
100061aa:	83 7d ec 09          	cmp    DWORD PTR [ebp-0x14],0x9
100061ae:	7f 07                	jg     100061b7 <NIWindow::SHADOW_TEST()+0x11f>
100061b0:	c7 45 ec 0a 00 00 00 	mov    DWORD PTR [ebp-0x14],0xa
100061b7:	8b 45 ec             	mov    eax,DWORD PTR [ebp-0x14]
100061ba:	0f af 45 ec          	imul   eax,DWORD PTR [ebp-0x14]
100061be:	c1 e0 03             	shl    eax,0x3
100061c1:	89 45 d0             	mov    DWORD PTR [ebp-0x30],eax
100061c4:	8b 45 f0             	mov    eax,DWORD PTR [ebp-0x10]
100061c7:	8d 58 05             	lea    ebx,[eax+0x5]
100061ca:	b8 ea 01 00 00       	mov    eax,0x1ea
100061cf:	99                   	cdq    
100061d0:	f7 fb                	idiv   ebx
100061d2:	89 45 cc             	mov    DWORD PTR [ebp-0x34],eax
100061d5:	8b 45 08             	mov    eax,DWORD PTR [ebp+0x8]
100061d8:	8b 40 1c             	mov    eax,DWORD PTR [eax+0x1c]
100061db:	2b 45 dc             	sub    eax,DWORD PTR [ebp-0x24]
100061de:	2b 45 f0             	sub    eax,DWORD PTR [ebp-0x10]
100061e1:	8d 48 04             	lea    ecx,[eax+0x4]
100061e4:	b8 ea 01 00 00       	mov    eax,0x1ea
100061e9:	99                   	cdq    
100061ea:	f7 f9                	idiv   ecx
100061ec:	89 45 c8             	mov    DWORD PTR [ebp-0x38],eax
100061ef:	8b 45 cc             	mov    eax,DWORD PTR [ebp-0x34]
100061f2:	3b 45 c8             	cmp    eax,DWORD PTR [ebp-0x38]
100061f5:	7e 05                	jle    100061fc <NIWindow::SHADOW_TEST()+0x164>
100061f7:	8b 45 cc             	mov    eax,DWORD PTR [ebp-0x34]
100061fa:	eb 03                	jmp    100061ff <NIWindow::SHADOW_TEST()+0x167>
100061fc:	8b 45 c8             	mov    eax,DWORD PTR [ebp-0x38]
100061ff:	89 45 e8             	mov    DWORD PTR [ebp-0x18],eax
10006202:	83 7d e8 09          	cmp    DWORD PTR [ebp-0x18],0x9
10006206:	7f 07                	jg     1000620f <NIWindow::SHADOW_TEST()+0x177>
10006208:	c7 45 e8 0a 00 00 00 	mov    DWORD PTR [ebp-0x18],0xa
1000620f:	8b 45 e8             	mov    eax,DWORD PTR [ebp-0x18]
10006212:	0f af 45 e8          	imul   eax,DWORD PTR [ebp-0x18]
10006216:	8d 14 c5 00 00 00 00 	lea    edx,[eax*8+0x0]
1000621d:	8b 45 d0             	mov    eax,DWORD PTR [ebp-0x30]
10006220:	01 c2                	add    edx,eax
10006222:	8b 45 e8             	mov    eax,DWORD PTR [ebp-0x18]
10006225:	0f af 45 ec          	imul   eax,DWORD PTR [ebp-0x14]
10006229:	01 d0                	add    eax,edx
1000622b:	c1 f8 08             	sar    eax,0x8
1000622e:	89 45 e4             	mov    DWORD PTR [ebp-0x1c],eax
10006231:	83 7d e4 66          	cmp    DWORD PTR [ebp-0x1c],0x66
10006235:	7e 0e                	jle    10006245 <NIWindow::SHADOW_TEST()+0x1ad>
10006237:	8b 45 e4             	mov    eax,DWORD PTR [ebp-0x1c]
1000623a:	83 e8 66             	sub    eax,0x66
1000623d:	d1 f8                	sar    eax,1
1000623f:	83 c0 66             	add    eax,0x66
10006242:	89 45 e4             	mov    DWORD PTR [ebp-0x1c],eax
10006245:	83 7d e4 73          	cmp    DWORD PTR [ebp-0x1c],0x73
10006249:	7e 0f                	jle    1000625a <NIWindow::SHADOW_TEST()+0x1c2>
1000624b:	8b 45 e4             	mov    eax,DWORD PTR [ebp-0x1c]
1000624e:	83 e8 73             	sub    eax,0x73
10006251:	c1 f8 02             	sar    eax,0x2
10006254:	83 c0 73             	add    eax,0x73
10006257:	89 45 e4             	mov    DWORD PTR [ebp-0x1c],eax
1000625a:	83 7d e4 7f          	cmp    DWORD PTR [ebp-0x1c],0x7f
1000625e:	7f 3b                	jg     1000629b <NIWindow::SHADOW_TEST()+0x203>
10006260:	83 7d e4 09          	cmp    DWORD PTR [ebp-0x1c],0x9
10006264:	7f 07                	jg     1000626d <NIWindow::SHADOW_TEST()+0x1d5>
10006266:	c7 45 e4 0a 00 00 00 	mov    DWORD PTR [ebp-0x1c],0xa
1000626d:	8b 45 08             	mov    eax,DWORD PTR [ebp+0x8]
10006270:	8b 00                	mov    eax,DWORD PTR [eax]
10006272:	8b 55 08             	mov    edx,DWORD PTR [ebp+0x8]
10006275:	8b 4a 18             	mov    ecx,DWORD PTR [edx+0x18]
10006278:	8b 55 f4             	mov    edx,DWORD PTR [ebp-0xc]
1000627b:	01 d1                	add    ecx,edx
1000627d:	8b 55 08             	mov    edx,DWORD PTR [ebp+0x8]
10006280:	8b 5a 14             	mov    ebx,DWORD PTR [edx+0x14]
10006283:	8b 55 f0             	mov    edx,DWORD PTR [ebp-0x10]
10006286:	01 da                	add    edx,ebx
10006288:	ff 75 e4             	push   DWORD PTR [ebp-0x1c]
1000628b:	51                   	push   ecx
1000628c:	52                   	push   edx
1000628d:	50                   	push   eax
1000628e:	e8 fc ff ff ff       	call   1000628f <NIWindow::SHADOW_TEST()+0x1f7>	1000628f: R_386_PC32	NIContext::drvDarken4(int, int, int)
10006293:	83 c4 10             	add    esp,0x10
10006296:	eb 04                	jmp    1000629c <NIWindow::SHADOW_TEST()+0x204>
10006298:	90                   	nop
10006299:	eb 01                	jmp    1000629c <NIWindow::SHADOW_TEST()+0x204>
1000629b:	90                   	nop
1000629c:	ff 45 f0             	inc    DWORD PTR [ebp-0x10]
1000629f:	e9 82 fe ff ff       	jmp    10006126 <NIWindow::SHADOW_TEST()+0x8e>
100062a4:	ff 45 f4             	inc    DWORD PTR [ebp-0xc]
100062a7:	e9 37 fe ff ff       	jmp    100060e3 <NIWindow::SHADOW_TEST()+0x4b>
100062ac:	90                   	nop
100062ad:	8b 5d fc             	mov    ebx,DWORD PTR [ebp-0x4]
100062b0:	c9                   	leave  
100062b1:	c3                   	ret    

100062b2 <NIWindow::realdraw()>:
100062b2:	55                   	push   ebp
100062b3:	89 e5                	mov    ebp,esp
100062b5:	56                   	push   esi
100062b6:	53                   	push   ebx
100062b7:	83 ec 10             	sub    esp,0x10
100062ba:	83 ec 0c             	sub    esp,0xc
100062bd:	ff 75 08             	push   DWORD PTR [ebp+0x8]
100062c0:	e8 fc ff ff ff       	call   100062c1 <NIWindow::realdraw()+0xf>	100062c1: R_386_PC32	NIWindow::request()
100062c5:	83 c4 10             	add    esp,0x10
100062c8:	8b 45 08             	mov    eax,DWORD PTR [ebp+0x8]
100062cb:	8b 50 0c             	mov    edx,DWORD PTR [eax+0xc]
100062ce:	8b 45 08             	mov    eax,DWORD PTR [ebp+0x8]
100062d1:	8b 40 20             	mov    eax,DWORD PTR [eax+0x20]
100062d4:	39 c2                	cmp    edx,eax
100062d6:	74 10                	je     100062e8 <NIWindow::realdraw()+0x36>
100062d8:	83 ec 0c             	sub    esp,0xc
100062db:	68 27 68 00 10       	push   0x10006827	100062dc: R_386_32	.text
100062e0:	e8 fc ff ff ff       	call   100062e1 <NIWindow::realdraw()+0x2f>	100062e1: R_386_PC32	KePanic(char const*)
100062e5:	83 c4 10             	add    esp,0x10
100062e8:	8b 45 08             	mov    eax,DWORD PTR [ebp+0x8]
100062eb:	8b 40 04             	mov    eax,DWORD PTR [eax+0x4]
100062ee:	83 f8 04             	cmp    eax,0x4
100062f1:	0f 85 a7 00 00 00    	jne    1000639e <NIWindow::realdraw()+0xec>
100062f7:	c7 45 f4 00 00 00 00 	mov    DWORD PTR [ebp-0xc],0x0
100062fe:	8b 45 08             	mov    eax,DWORD PTR [ebp+0x8]
10006301:	8b 40 20             	mov    eax,DWORD PTR [eax+0x20]
10006304:	39 45 f4             	cmp    DWORD PTR [ebp-0xc],eax
10006307:	0f 8d 91 00 00 00    	jge    1000639e <NIWindow::realdraw()+0xec>
1000630d:	8b 45 08             	mov    eax,DWORD PTR [ebp+0x8]
10006310:	8b 40 10             	mov    eax,DWORD PTR [eax+0x10]
10006313:	8b 55 f4             	mov    edx,DWORD PTR [ebp-0xc]
10006316:	c1 e2 03             	shl    edx,0x3
10006319:	01 d0                	add    eax,edx
1000631b:	8b 00                	mov    eax,DWORD PTR [eax]
1000631d:	0f b7 c0             	movzx  eax,ax
10006320:	89 45 ec             	mov    DWORD PTR [ebp-0x14],eax
10006323:	8b 45 08             	mov    eax,DWORD PTR [ebp+0x8]
10006326:	8b 40 10             	mov    eax,DWORD PTR [eax+0x10]
10006329:	8b 55 f4             	mov    edx,DWORD PTR [ebp-0xc]
1000632c:	c1 e2 03             	shl    edx,0x3
1000632f:	01 d0                	add    eax,edx
10006331:	66 8b 40 02          	mov    ax,WORD PTR [eax+0x2]
10006335:	0f b7 c0             	movzx  eax,ax
10006338:	89 45 e8             	mov    DWORD PTR [ebp-0x18],eax
1000633b:	8b 45 ec             	mov    eax,DWORD PTR [ebp-0x14]
1000633e:	89 45 f0             	mov    DWORD PTR [ebp-0x10],eax
10006341:	8b 45 08             	mov    eax,DWORD PTR [ebp+0x8]
10006344:	8b 40 1c             	mov    eax,DWORD PTR [eax+0x1c]
10006347:	2b 45 e8             	sub    eax,DWORD PTR [ebp-0x18]
1000634a:	39 45 f0             	cmp    DWORD PTR [ebp-0x10],eax
1000634d:	7d 47                	jge    10006396 <NIWindow::realdraw()+0xe4>
1000634f:	8b 45 08             	mov    eax,DWORD PTR [ebp+0x8]
10006352:	8b 00                	mov    eax,DWORD PTR [eax]
10006354:	8b 55 08             	mov    edx,DWORD PTR [ebp+0x8]
10006357:	8b 52 10             	mov    edx,DWORD PTR [edx+0x10]
1000635a:	8b 4d f4             	mov    ecx,DWORD PTR [ebp-0xc]
1000635d:	c1 e1 03             	shl    ecx,0x3
10006360:	01 ca                	add    edx,ecx
10006362:	8b 52 04             	mov    edx,DWORD PTR [edx+0x4]
10006365:	8b 4d f0             	mov    ecx,DWORD PTR [ebp-0x10]
10006368:	c1 e1 02             	shl    ecx,0x2
1000636b:	01 ca                	add    edx,ecx
1000636d:	8b 12                	mov    edx,DWORD PTR [edx]
1000636f:	8b 4d 08             	mov    ecx,DWORD PTR [ebp+0x8]
10006372:	8b 59 18             	mov    ebx,DWORD PTR [ecx+0x18]
10006375:	8b 4d f4             	mov    ecx,DWORD PTR [ebp-0xc]
10006378:	01 cb                	add    ebx,ecx
1000637a:	8b 4d 08             	mov    ecx,DWORD PTR [ebp+0x8]
1000637d:	8b 71 14             	mov    esi,DWORD PTR [ecx+0x14]
10006380:	8b 4d f0             	mov    ecx,DWORD PTR [ebp-0x10]
10006383:	01 f1                	add    ecx,esi
10006385:	52                   	push   edx
10006386:	53                   	push   ebx
10006387:	51                   	push   ecx
10006388:	50                   	push   eax
10006389:	e8 fc ff ff ff       	call   1000638a <NIWindow::realdraw()+0xd8>	1000638a: R_386_PC32	NIContext::drvPutpixel4(int, int, unsigned int)
1000638e:	83 c4 10             	add    esp,0x10
10006391:	ff 45 f0             	inc    DWORD PTR [ebp-0x10]
10006394:	eb ab                	jmp    10006341 <NIWindow::realdraw()+0x8f>
10006396:	ff 45 f4             	inc    DWORD PTR [ebp-0xc]
10006399:	e9 60 ff ff ff       	jmp    100062fe <NIWindow::realdraw()+0x4c>
1000639e:	90                   	nop
1000639f:	8d 65 f8             	lea    esp,[ebp-0x8]
100063a2:	5b                   	pop    ebx
100063a3:	5e                   	pop    esi
100063a4:	5d                   	pop    ebp
100063a5:	c3                   	ret    

100063a6 <NIWindow::rerender()>:
100063a6:	55                   	push   ebp
100063a7:	89 e5                	mov    ebp,esp
100063a9:	53                   	push   ebx
100063aa:	83 ec 14             	sub    esp,0x14
100063ad:	c6 45 eb 00          	mov    BYTE PTR [ebp-0x15],0x0
100063b1:	8b 45 08             	mov    eax,DWORD PTR [ebp+0x8]
100063b4:	8a 40 08             	mov    al,BYTE PTR [eax+0x8]
100063b7:	84 c0                	test   al,al
100063b9:	74 0e                	je     100063c9 <NIWindow::rerender()+0x23>
100063bb:	83 ec 0c             	sub    esp,0xc
100063be:	ff 75 08             	push   DWORD PTR [ebp+0x8]
100063c1:	e8 fc ff ff ff       	call   100063c2 <NIWindow::rerender()+0x1c>	100063c2: R_386_PC32	NIWindow::invalidate()
100063c6:	83 c4 10             	add    esp,0x10
100063c9:	8b 45 08             	mov    eax,DWORD PTR [ebp+0x8]
100063cc:	8b 50 20             	mov    edx,DWORD PTR [eax+0x20]
100063cf:	8b 45 08             	mov    eax,DWORD PTR [ebp+0x8]
100063d2:	89 50 0c             	mov    DWORD PTR [eax+0xc],edx
100063d5:	8b 45 08             	mov    eax,DWORD PTR [ebp+0x8]
100063d8:	8b 40 0c             	mov    eax,DWORD PTR [eax+0xc]
100063db:	c1 e0 03             	shl    eax,0x3
100063de:	83 ec 0c             	sub    esp,0xc
100063e1:	50                   	push   eax
100063e2:	e8 fc ff ff ff       	call   100063e3 <NIWindow::rerender()+0x3d>	100063e3: R_386_PC32	malloc
100063e7:	83 c4 10             	add    esp,0x10
100063ea:	89 c2                	mov    edx,eax
100063ec:	8b 45 08             	mov    eax,DWORD PTR [ebp+0x8]
100063ef:	89 50 10             	mov    DWORD PTR [eax+0x10],edx
100063f2:	c7 45 f4 00 00 00 00 	mov    DWORD PTR [ebp-0xc],0x0
100063f9:	8b 45 08             	mov    eax,DWORD PTR [ebp+0x8]
100063fc:	8b 40 0c             	mov    eax,DWORD PTR [eax+0xc]
100063ff:	39 45 f4             	cmp    DWORD PTR [ebp-0xc],eax
10006402:	0f 8d f0 00 00 00    	jge    100064f8 <NIWindow::rerender()+0x152>
10006408:	83 7d f4 06          	cmp    DWORD PTR [ebp-0xc],0x6
1000640c:	7f 39                	jg     10006447 <NIWindow::rerender()+0xa1>
1000640e:	8b 45 f4             	mov    eax,DWORD PTR [ebp-0xc]
10006411:	8b 14 85 00 00 00 00 	mov    edx,DWORD PTR [eax*4+0x0]	10006414: R_386_32	curveLookup7
10006418:	8b 45 08             	mov    eax,DWORD PTR [ebp+0x8]
1000641b:	8b 40 10             	mov    eax,DWORD PTR [eax+0x10]
1000641e:	8b 4d f4             	mov    ecx,DWORD PTR [ebp-0xc]
10006421:	c1 e1 03             	shl    ecx,0x3
10006424:	01 c8                	add    eax,ecx
10006426:	66 89 10             	mov    WORD PTR [eax],dx
10006429:	8b 45 f4             	mov    eax,DWORD PTR [ebp-0xc]
1000642c:	8b 14 85 00 00 00 00 	mov    edx,DWORD PTR [eax*4+0x0]	1000642f: R_386_32	curveLookup7
10006433:	8b 45 08             	mov    eax,DWORD PTR [ebp+0x8]
10006436:	8b 40 10             	mov    eax,DWORD PTR [eax+0x10]
10006439:	8b 4d f4             	mov    ecx,DWORD PTR [ebp-0xc]
1000643c:	c1 e1 03             	shl    ecx,0x3
1000643f:	01 c8                	add    eax,ecx
10006441:	66 89 50 02          	mov    WORD PTR [eax+0x2],dx
10006445:	eb 7a                	jmp    100064c1 <NIWindow::rerender()+0x11b>
10006447:	8b 45 08             	mov    eax,DWORD PTR [ebp+0x8]
1000644a:	8b 40 20             	mov    eax,DWORD PTR [eax+0x20]
1000644d:	83 e8 06             	sub    eax,0x6
10006450:	39 45 f4             	cmp    DWORD PTR [ebp-0xc],eax
10006453:	7c 45                	jl     1000649a <NIWindow::rerender()+0xf4>
10006455:	8b 45 08             	mov    eax,DWORD PTR [ebp+0x8]
10006458:	8b 40 20             	mov    eax,DWORD PTR [eax+0x20]
1000645b:	2b 45 f4             	sub    eax,DWORD PTR [ebp-0xc]
1000645e:	8b 14 85 00 00 00 00 	mov    edx,DWORD PTR [eax*4+0x0]	10006461: R_386_32	curveLookup7
10006465:	8b 45 08             	mov    eax,DWORD PTR [ebp+0x8]
10006468:	8b 40 10             	mov    eax,DWORD PTR [eax+0x10]
1000646b:	8b 4d f4             	mov    ecx,DWORD PTR [ebp-0xc]
1000646e:	c1 e1 03             	shl    ecx,0x3
10006471:	01 c8                	add    eax,ecx
10006473:	66 89 10             	mov    WORD PTR [eax],dx
10006476:	8b 45 08             	mov    eax,DWORD PTR [ebp+0x8]
10006479:	8b 40 20             	mov    eax,DWORD PTR [eax+0x20]
1000647c:	2b 45 f4             	sub    eax,DWORD PTR [ebp-0xc]
1000647f:	8b 14 85 00 00 00 00 	mov    edx,DWORD PTR [eax*4+0x0]	10006482: R_386_32	curveLookup7
10006486:	8b 45 08             	mov    eax,DWORD PTR [ebp+0x8]
10006489:	8b 40 10             	mov    eax,DWORD PTR [eax+0x10]
1000648c:	8b 4d f4             	mov    ecx,DWORD PTR [ebp-0xc]
1000648f:	c1 e1 03             	shl    ecx,0x3
10006492:	01 c8                	add    eax,ecx
10006494:	66 89 50 02          	mov    WORD PTR [eax+0x2],dx
10006498:	eb 27                	jmp    100064c1 <NIWindow::rerender()+0x11b>
1000649a:	8b 45 08             	mov    eax,DWORD PTR [ebp+0x8]
1000649d:	8b 40 10             	mov    eax,DWORD PTR [eax+0x10]
100064a0:	8b 55 f4             	mov    edx,DWORD PTR [ebp-0xc]
100064a3:	c1 e2 03             	shl    edx,0x3
100064a6:	01 d0                	add    eax,edx
100064a8:	66 c7 00 00 00       	mov    WORD PTR [eax],0x0
100064ad:	8b 45 08             	mov    eax,DWORD PTR [ebp+0x8]
100064b0:	8b 40 10             	mov    eax,DWORD PTR [eax+0x10]
100064b3:	8b 55 f4             	mov    edx,DWORD PTR [ebp-0xc]
100064b6:	c1 e2 03             	shl    edx,0x3
100064b9:	01 d0                	add    eax,edx
100064bb:	66 c7 40 02 00 00    	mov    WORD PTR [eax+0x2],0x0
100064c1:	8b 45 08             	mov    eax,DWORD PTR [ebp+0x8]
100064c4:	8b 50 1c             	mov    edx,DWORD PTR [eax+0x1c]
100064c7:	8b 45 08             	mov    eax,DWORD PTR [ebp+0x8]
100064ca:	8b 40 04             	mov    eax,DWORD PTR [eax+0x4]
100064cd:	0f af c2             	imul   eax,edx
100064d0:	89 c2                	mov    edx,eax
100064d2:	8b 45 08             	mov    eax,DWORD PTR [ebp+0x8]
100064d5:	8b 40 10             	mov    eax,DWORD PTR [eax+0x10]
100064d8:	8b 4d f4             	mov    ecx,DWORD PTR [ebp-0xc]
100064db:	c1 e1 03             	shl    ecx,0x3
100064de:	8d 1c 08             	lea    ebx,[eax+ecx*1]
100064e1:	83 ec 0c             	sub    esp,0xc
100064e4:	52                   	push   edx
100064e5:	e8 fc ff ff ff       	call   100064e6 <NIWindow::rerender()+0x140>	100064e6: R_386_PC32	malloc
100064ea:	83 c4 10             	add    esp,0x10
100064ed:	89 43 04             	mov    DWORD PTR [ebx+0x4],eax
100064f0:	ff 45 f4             	inc    DWORD PTR [ebp-0xc]
100064f3:	e9 01 ff ff ff       	jmp    100063f9 <NIWindow::rerender()+0x53>
100064f8:	c7 45 f0 00 00 00 00 	mov    DWORD PTR [ebp-0x10],0x0
100064ff:	8b 45 08             	mov    eax,DWORD PTR [ebp+0x8]
10006502:	8b 40 20             	mov    eax,DWORD PTR [eax+0x20]
10006505:	39 45 f0             	cmp    DWORD PTR [ebp-0x10],eax
10006508:	7d 40                	jge    1000654a <NIWindow::rerender()+0x1a4>
1000650a:	c7 45 ec 00 00 00 00 	mov    DWORD PTR [ebp-0x14],0x0
10006511:	8b 45 08             	mov    eax,DWORD PTR [ebp+0x8]
10006514:	8b 40 1c             	mov    eax,DWORD PTR [eax+0x1c]
10006517:	39 45 ec             	cmp    DWORD PTR [ebp-0x14],eax
1000651a:	7d 29                	jge    10006545 <NIWindow::rerender()+0x19f>
1000651c:	83 7d f0 19          	cmp    DWORD PTR [ebp-0x10],0x19
10006520:	7e 07                	jle    10006529 <NIWindow::rerender()+0x183>
10006522:	b8 d4 d4 d4 00       	mov    eax,0xd4d4d4
10006527:	eb 05                	jmp    1000652e <NIWindow::rerender()+0x188>
10006529:	b8 ff ff ff 00       	mov    eax,0xffffff
1000652e:	50                   	push   eax
1000652f:	ff 75 f0             	push   DWORD PTR [ebp-0x10]
10006532:	ff 75 ec             	push   DWORD PTR [ebp-0x14]
10006535:	ff 75 08             	push   DWORD PTR [ebp+0x8]
10006538:	e8 fc ff ff ff       	call   10006539 <NIWindow::rerender()+0x193>	10006539: R_386_PC32	NIWindow::putpixel(int, int, unsigned int)
1000653d:	83 c4 10             	add    esp,0x10
10006540:	ff 45 ec             	inc    DWORD PTR [ebp-0x14]
10006543:	eb cc                	jmp    10006511 <NIWindow::rerender()+0x16b>
10006545:	ff 45 f0             	inc    DWORD PTR [ebp-0x10]
10006548:	eb b5                	jmp    100064ff <NIWindow::rerender()+0x159>
1000654a:	90                   	nop
1000654b:	8b 5d fc             	mov    ebx,DWORD PTR [ebp-0x4]
1000654e:	c9                   	leave  
1000654f:	c3                   	ret    

10006550 <NIWindow::invalidate()>:
10006550:	55                   	push   ebp
10006551:	89 e5                	mov    ebp,esp
10006553:	83 ec 18             	sub    esp,0x18
10006556:	8b 45 08             	mov    eax,DWORD PTR [ebp+0x8]
10006559:	8a 40 08             	mov    al,BYTE PTR [eax+0x8]
1000655c:	84 c0                	test   al,al
1000655e:	74 50                	je     100065b0 <NIWindow::invalidate()+0x60>
10006560:	8b 45 08             	mov    eax,DWORD PTR [ebp+0x8]
10006563:	8b 40 10             	mov    eax,DWORD PTR [eax+0x10]
10006566:	85 c0                	test   eax,eax
10006568:	74 46                	je     100065b0 <NIWindow::invalidate()+0x60>
1000656a:	c7 45 f4 00 00 00 00 	mov    DWORD PTR [ebp-0xc],0x0
10006571:	8b 45 08             	mov    eax,DWORD PTR [ebp+0x8]
10006574:	8b 40 0c             	mov    eax,DWORD PTR [eax+0xc]
10006577:	39 45 f4             	cmp    DWORD PTR [ebp-0xc],eax
1000657a:	7d 22                	jge    1000659e <NIWindow::invalidate()+0x4e>
1000657c:	8b 45 08             	mov    eax,DWORD PTR [ebp+0x8]
1000657f:	8b 40 10             	mov    eax,DWORD PTR [eax+0x10]
10006582:	8b 55 f4             	mov    edx,DWORD PTR [ebp-0xc]
10006585:	c1 e2 03             	shl    edx,0x3
10006588:	01 d0                	add    eax,edx
1000658a:	8b 40 04             	mov    eax,DWORD PTR [eax+0x4]
1000658d:	83 ec 0c             	sub    esp,0xc
10006590:	50                   	push   eax
10006591:	e8 fc ff ff ff       	call   10006592 <NIWindow::invalidate()+0x42>	10006592: R_386_PC32	free
10006596:	83 c4 10             	add    esp,0x10
10006599:	ff 45 f4             	inc    DWORD PTR [ebp-0xc]
1000659c:	eb d3                	jmp    10006571 <NIWindow::invalidate()+0x21>
1000659e:	8b 45 08             	mov    eax,DWORD PTR [ebp+0x8]
100065a1:	8b 40 10             	mov    eax,DWORD PTR [eax+0x10]
100065a4:	83 ec 0c             	sub    esp,0xc
100065a7:	50                   	push   eax
100065a8:	e8 fc ff ff ff       	call   100065a9 <NIWindow::invalidate()+0x59>	100065a9: R_386_PC32	free
100065ad:	83 c4 10             	add    esp,0x10
100065b0:	8b 45 08             	mov    eax,DWORD PTR [ebp+0x8]
100065b3:	c7 40 10 00 00 00 00 	mov    DWORD PTR [eax+0x10],0x0
100065ba:	8b 45 08             	mov    eax,DWORD PTR [ebp+0x8]
100065bd:	c7 40 0c 00 00 00 00 	mov    DWORD PTR [eax+0xc],0x0
100065c4:	8b 45 08             	mov    eax,DWORD PTR [ebp+0x8]
100065c7:	c6 40 08 00          	mov    BYTE PTR [eax+0x8],0x0
100065cb:	90                   	nop
100065cc:	c9                   	leave  
100065cd:	c3                   	ret    

100065ce <NIWindow::request()>:
100065ce:	55                   	push   ebp
100065cf:	89 e5                	mov    ebp,esp
100065d1:	83 ec 08             	sub    esp,0x8
100065d4:	8b 45 08             	mov    eax,DWORD PTR [ebp+0x8]
100065d7:	8a 40 08             	mov    al,BYTE PTR [eax+0x8]
100065da:	83 f0 01             	xor    eax,0x1
100065dd:	84 c0                	test   al,al
100065df:	74 0e                	je     100065ef <NIWindow::request()+0x21>
100065e1:	83 ec 0c             	sub    esp,0xc
100065e4:	ff 75 08             	push   DWORD PTR [ebp+0x8]
100065e7:	e8 fc ff ff ff       	call   100065e8 <NIWindow::request()+0x1a>	100065e8: R_386_PC32	NIWindow::rerender()
100065ec:	83 c4 10             	add    esp,0x10
100065ef:	90                   	nop
100065f0:	c9                   	leave  
100065f1:	c3                   	ret    

100065f2 <NIWindow::putpixel(int, int, unsigned int)>:
100065f2:	55                   	push   ebp
100065f3:	89 e5                	mov    ebp,esp
100065f5:	8b 45 08             	mov    eax,DWORD PTR [ebp+0x8]
100065f8:	8b 40 04             	mov    eax,DWORD PTR [eax+0x4]
100065fb:	83 f8 04             	cmp    eax,0x4
100065fe:	75 20                	jne    10006620 <NIWindow::putpixel(int, int, unsigned int)+0x2e>
10006600:	8b 45 08             	mov    eax,DWORD PTR [ebp+0x8]
10006603:	8b 40 10             	mov    eax,DWORD PTR [eax+0x10]
10006606:	8b 55 10             	mov    edx,DWORD PTR [ebp+0x10]
10006609:	c1 e2 03             	shl    edx,0x3
1000660c:	01 d0                	add    eax,edx
1000660e:	8b 40 04             	mov    eax,DWORD PTR [eax+0x4]
10006611:	8b 55 0c             	mov    edx,DWORD PTR [ebp+0xc]
10006614:	c1 e2 02             	shl    edx,0x2
10006617:	01 c2                	add    edx,eax
10006619:	8b 45 14             	mov    eax,DWORD PTR [ebp+0x14]
1000661c:	89 02                	mov    DWORD PTR [edx],eax
1000661e:	eb 46                	jmp    10006666 <NIWindow::putpixel(int, int, unsigned int)+0x74>
10006620:	8b 45 08             	mov    eax,DWORD PTR [ebp+0x8]
10006623:	8b 40 04             	mov    eax,DWORD PTR [eax+0x4]
10006626:	83 f8 02             	cmp    eax,0x2
10006629:	75 20                	jne    1000664b <NIWindow::putpixel(int, int, unsigned int)+0x59>
1000662b:	8b 45 08             	mov    eax,DWORD PTR [ebp+0x8]
1000662e:	8b 40 10             	mov    eax,DWORD PTR [eax+0x10]
10006631:	8b 55 10             	mov    edx,DWORD PTR [ebp+0x10]
10006634:	c1 e2 03             	shl    edx,0x3
10006637:	01 d0                	add    eax,edx
10006639:	8b 50 04             	mov    edx,DWORD PTR [eax+0x4]
1000663c:	8b 45 0c             	mov    eax,DWORD PTR [ebp+0xc]
1000663f:	01 c0                	add    eax,eax
10006641:	01 d0                	add    eax,edx
10006643:	8b 55 14             	mov    edx,DWORD PTR [ebp+0x14]
10006646:	66 89 10             	mov    WORD PTR [eax],dx
10006649:	eb 1b                	jmp    10006666 <NIWindow::putpixel(int, int, unsigned int)+0x74>
1000664b:	8b 45 08             	mov    eax,DWORD PTR [ebp+0x8]
1000664e:	8b 40 10             	mov    eax,DWORD PTR [eax+0x10]
10006651:	8b 55 10             	mov    edx,DWORD PTR [ebp+0x10]
10006654:	c1 e2 03             	shl    edx,0x3
10006657:	01 d0                	add    eax,edx
10006659:	8b 50 04             	mov    edx,DWORD PTR [eax+0x4]
1000665c:	8b 45 0c             	mov    eax,DWORD PTR [ebp+0xc]
1000665f:	01 d0                	add    eax,edx
10006661:	8b 55 14             	mov    edx,DWORD PTR [ebp+0x14]
10006664:	88 10                	mov    BYTE PTR [eax],dl
10006666:	90                   	nop
10006667:	5d                   	pop    ebp
10006668:	c3                   	ret    
10006669:	66 90                	xchg   ax,ax
1000666b:	90                   	nop

1000666c <PHYS_RAM_TABLE_SIZE>:
1000666c:	13 05 00 00                                         ....

10006670 <PHYS_HIGHEST_UNUSED_ADDRESS>:
10006670:	24 05 00 00                                         $...

10006674 <PHYS_RAM_TABLE>:
10006674:	00 06 00 00                                         ....

10006678 <PHYS_DMA_MEMORY_1>:
10006678:	00 00 01 00                                         ....

1000667c <PHYS_PHYS_PAGE_BITMAP>:
1000667c:	00 00 02 00                                         ....

10006680 <PHYS_VIRT_PAGE_BITMAP>:
10006680:	00 00 04 00                                         ....

10006684 <PHYS_DMA_MEMORY_2>:
10006684:	00 00 06 00                                         ....

10006688 <PHYS_ALLOCED_VIRT_PAGES>:
10006688:	00 00 10 00                                         ....

1000668c <PHYS_KRNL_PAGE_DIRECTORY>:
1000668c:	00 10 00 00                                         ....

10006690 <VIRT_KERNEL_BASE>:
10006690:	00 00 00 c0                                         ....

10006694 <VIRT_LOW_MEGS>:
10006694:	00 00 00 c2                                         ....

10006698 <VIRT_CPU_SPECIFIC>:
10006698:	00 00 40 c2                                         ..@.

1000669c <VIRT_RECURSIVE_SPOT_1>:
1000669c:	00 00 80 c2                                         ....

100066a0 <VIRT_RECURSIVE_SPOT_2>:
100066a0:	00 00 c0 c2                                         ....

100066a4 <VIRT_DMA_MEMORY_1>:
100066a4:	00 00 01 c2                                         ....

100066a8 <SIZE_DMA_MEMORY_1>:
100066a8:	00 00 01 00                                         ....

100066ac <VIRT_DMA_MEMORY_2>:
100066ac:	00 00 06 c2                                         ....

100066b0 <SIZE_DMA_MEMORY_2>:
100066b0:	00 00 02 00                                         ....

100066b4 <VIRT_KRNL_PAGE_DIRECTORY>:
100066b4:	00 10 00 c2                                         ....

100066b8 <VIRT_PHYS_PAGE_BITMAP>:
100066b8:	00 00 02 c2                                         ....

100066bc <SIZE_PHYS_PAGE_BITMAP>:
100066bc:	00 00 02 00                                         ....

100066c0 <VIRT_VIRT_PAGE_BITMAP>:
100066c0:	00 00 04 c2                                         ....

100066c4 <SIZE_VIRT_PAGE_BITMAP>:
100066c4:	00 80 00 00                                         ....

100066c8 <VIRT_RAM_TABLE>:
100066c8:	00 06 00 c2                                         ....

100066cc <VIRT_RAM_TABLE_SIZE>:
100066cc:	13 05 00 c2                                         ....

100066d0 <VIRT_HIGHEST_UNUSED_ADDRESS>:
100066d0:	24 05 00 c2                                         $...

100066d4 <SIZE_APP_STACK_USER>:
100066d4:	00 00 18 00                                         ....

100066d8 <SIZE_APP_STACK_KRNL>:
100066d8:	00 00 08 00                                         ....

100066dc <SIZE_APP_STACK_TOTAL>:
100066dc:	00 00 20 00                                         .. .

100066e0 <VIRT_APP_DATA>:
100066e0:	00 00 00 10                                         ....

100066e4 <VIRT_APP_STACK_USER_TOP>:
100066e4:	00 00 00 02                                         ....

100066e8 <VIRT_APP_STACK_KRNL_TOP>:
100066e8:	00 00 e8 01                                         ....

100066ec <VIRT_HEAP_MIN>:
100066ec:	00 00 00 c8                                         ....

100066f0 <VIRT_HEAP_MAX>:
100066f0:	ff ff ff ef                                         ....

100066f4 <VIRT_SBRK_MIN>:
100066f4:	00 00 00 f0                                         ....

100066f8 <VIRT_SBRK_MAX>:
100066f8:	00 00 c0 ff                                         ....

100066fc <VIRT_ALLOCED_VIRT_PAGES>:
100066fc:	00 00 10 c2                                         ....

10006700 <VIRT_ACPI_DRIVER>:
10006700:	00 40 48 c2                                         .@H.

10006704 <TERMINAL_KEYBUFFER_IN_SIZE>:
10006704:	80 00 00 00                                         ....

10006708 <TERMINAL_KEYBUFFER_OUT_SIZE>:
10006708:	80 00 00 00 00 4d 65 6d 6f 72 79 20 61 6c 6c 6f     .....Memory allo
10006718:	63 61 74 69 6f 6e 20 65 72 72 6f 72 00 42 61 64     cation error.Bad
10006728:	20 66 69 6c 65 20 66 6f 72 6d 61 74 00 4e 6f 20      file format.No 
10006738:	66 6f 6e 74 20 66 61 63 65 20 66 6f 75 6e 64 00     font face found.
10006748:	49 6e 76 61 6c 69 64 20 69 6e 70 75 74 20 76 61     Invalid input va
10006758:	6c 75 65 00 49 6e 76 61 6c 69 64 20 73 74 79 6c     lue.Invalid styl
10006768:	65 00 49 6e 76 61 6c 69 64 20 73 69 7a 65 00 47     e.Invalid size.G
10006778:	6c 79 70 68 20 6e 6f 74 20 66 6f 75 6e 64 00 53     lyph not found.S
10006788:	46 4e 43 00 53 46 4e 32 00 32 4e 46 53 00 4e 49     FNC.SFN2.2NFS.NI
10006798:	43 6f 6e 74 65 78 74 3a 3a 64 72 76 52 65 6e 64     Context::drvRend
100067a8:	65 72 54 54 46 34 00 43 3a 2f 42 61 6e 61 6e 61     erTTF4.C:/Banana
100067b8:	2f 46 6f 6e 74 73 2f 53 46 4e 00 43 41 4e 4e 4f     /Fonts/SFN.CANNO
100067c8:	54 20 4c 4f 41 44 20 46 4f 4e 54 20 44 49 52 45     T LOAD FONT DIRE
100067d8:	43 54 4f 52 59 00 43 3a 2f 42 61 6e 61 6e 61 2f     CTORY.C:/Banana/
100067e8:	46 6f 6e 74 73 2f 53 46 4e 2f 00 66 6f 6e 74 20     Fonts/SFN/.font 
100067f8:	69 73 20 6f 66 20 73 69 7a 65 20 25 64 0a 00 4c     is of size %d..L
10006808:	6f 61 64 65 64 20 66 6f 6e 74 3a 20 25 73 0a 00     oaded font: %s..
10006818:	53 53 46 4e 5f 52 45 53 20 3d 20 25 64 0a 00 41     SSFN_RES = %d..A
10006828:	53 53 45 52 54 49 4f 4e 20 46 41 49 4c 55 52 45     SSERTION FAILURE
10006838:	20 28 41 29 2e 00                                    (A)..
