
packages/banana/32/0001/regedit.exe:     file format elf32-i386


Disassembly of section .text:

10000000 <_start>:
10000000:	55                   	push   ebp
10000001:	89 e5                	mov    ebp,esp
10000003:	83 ec 28             	sub    esp,0x28
10000006:	e8 be 00 00 00       	call   100000c9 <_init_signal>
1000000b:	e8 11 32 00 00       	call   10003221 <_environ_setup>
10000010:	6a 00                	push   0x0
10000012:	6a 00                	push   0x0
10000014:	6a 00                	push   0x0
10000016:	6a 19                	push   0x19
10000018:	e8 63 31 00 00       	call   10003180 <SystemCall>
1000001d:	83 c4 10             	add    esp,0x10
10000020:	89 45 f0             	mov    DWORD PTR [ebp-0x10],eax
10000023:	8b 45 f0             	mov    eax,DWORD PTR [ebp-0x10]
10000026:	83 c0 02             	add    eax,0x2
10000029:	c1 e0 02             	shl    eax,0x2
1000002c:	83 ec 0c             	sub    esp,0xc
1000002f:	50                   	push   eax
10000030:	e8 5f 03 00 00       	call   10000394 <malloc>
10000035:	83 c4 10             	add    esp,0x10
10000038:	89 45 ec             	mov    DWORD PTR [ebp-0x14],eax
1000003b:	c7 45 f4 00 00 00 00 	mov    DWORD PTR [ebp-0xc],0x0
10000042:	eb 55                	jmp    10000099 <_start+0x99>
10000044:	83 ec 08             	sub    esp,0x8
10000047:	6a 01                	push   0x1
10000049:	68 00 02 00 00       	push   0x200
1000004e:	e8 45 02 00 00       	call   10000298 <calloc>
10000053:	83 c4 10             	add    esp,0x10
10000056:	89 c2                	mov    edx,eax
10000058:	8b 45 f4             	mov    eax,DWORD PTR [ebp-0xc]
1000005b:	8d 0c 85 00 00 00 00 	lea    ecx,[eax*4+0x0]
10000062:	8b 45 ec             	mov    eax,DWORD PTR [ebp-0x14]
10000065:	01 c8                	add    eax,ecx
10000067:	89 10                	mov    DWORD PTR [eax],edx
10000069:	8b 45 f4             	mov    eax,DWORD PTR [ebp-0xc]
1000006c:	8d 14 85 00 00 00 00 	lea    edx,[eax*4+0x0]
10000073:	8b 45 ec             	mov    eax,DWORD PTR [ebp-0x14]
10000076:	01 d0                	add    eax,edx
10000078:	8b 00                	mov    eax,DWORD PTR [eax]
1000007a:	89 c2                	mov    edx,eax
1000007c:	8b 45 f4             	mov    eax,DWORD PTR [ebp-0xc]
1000007f:	52                   	push   edx
10000080:	6a 00                	push   0x0
10000082:	50                   	push   eax
10000083:	6a 1a                	push   0x1a
10000085:	e8 f6 30 00 00       	call   10003180 <SystemCall>
1000008a:	83 c4 10             	add    esp,0x10
1000008d:	89 45 e8             	mov    DWORD PTR [ebp-0x18],eax
10000090:	83 7d e8 00          	cmp    DWORD PTR [ebp-0x18],0x0
10000094:	75 0d                	jne    100000a3 <_start+0xa3>
10000096:	ff 45 f4             	inc    DWORD PTR [ebp-0xc]
10000099:	8b 45 f4             	mov    eax,DWORD PTR [ebp-0xc]
1000009c:	3b 45 f0             	cmp    eax,DWORD PTR [ebp-0x10]
1000009f:	7c a3                	jl     10000044 <_start+0x44>
100000a1:	eb 01                	jmp    100000a4 <_start+0xa4>
100000a3:	90                   	nop
100000a4:	83 ec 08             	sub    esp,0x8
100000a7:	ff 75 ec             	push   DWORD PTR [ebp-0x14]
100000aa:	ff 75 f0             	push   DWORD PTR [ebp-0x10]
100000ad:	e8 c3 d1 00 00       	call   1000d275 <main>
100000b2:	83 c4 10             	add    esp,0x10
100000b5:	89 45 e4             	mov    DWORD PTR [ebp-0x1c],eax
100000b8:	83 ec 0c             	sub    esp,0xc
100000bb:	ff 75 e4             	push   DWORD PTR [ebp-0x1c]
100000be:	e8 9d 02 00 00       	call   10000360 <exit>
100000c3:	83 c4 10             	add    esp,0x10
100000c6:	90                   	nop
100000c7:	c9                   	leave  
100000c8:	c3                   	ret    

100000c9 <_init_signal>:
100000c9:	55                   	push   ebp
100000ca:	89 e5                	mov    ebp,esp
100000cc:	83 ec 18             	sub    esp,0x18
100000cf:	c7 45 f4 00 00 00 00 	mov    DWORD PTR [ebp-0xc],0x0
100000d6:	eb 13                	jmp    100000eb <_init_signal+0x22>
100000d8:	83 ec 08             	sub    esp,0x8
100000db:	6a 00                	push   0x0
100000dd:	ff 75 f4             	push   DWORD PTR [ebp-0xc]
100000e0:	e8 75 36 00 00       	call   1000375a <signal>
100000e5:	83 c4 10             	add    esp,0x10
100000e8:	ff 45 f4             	inc    DWORD PTR [ebp-0xc]
100000eb:	83 7d f4 10          	cmp    DWORD PTR [ebp-0xc],0x10
100000ef:	7e e7                	jle    100000d8 <_init_signal+0xf>
100000f1:	90                   	nop
100000f2:	c9                   	leave  
100000f3:	c3                   	ret    

100000f4 <deregister_tm_clones>:
100000f4:	b8 3c ea 00 10       	mov    eax,0x1000ea3c
100000f9:	3d 3c ea 00 10       	cmp    eax,0x1000ea3c
100000fe:	74 1c                	je     1000011c <deregister_tm_clones+0x28>
10000100:	b8 00 00 00 00       	mov    eax,0x0
10000105:	85 c0                	test   eax,eax
10000107:	74 13                	je     1000011c <deregister_tm_clones+0x28>
10000109:	55                   	push   ebp
1000010a:	89 e5                	mov    ebp,esp
1000010c:	83 ec 14             	sub    esp,0x14
1000010f:	68 3c ea 00 10       	push   0x1000ea3c
10000114:	ff d0                	call   eax
10000116:	83 c4 10             	add    esp,0x10
10000119:	c9                   	leave  
1000011a:	c3                   	ret    
1000011b:	90                   	nop
1000011c:	c3                   	ret    
1000011d:	8d 76 00             	lea    esi,[esi+0x0]

10000120 <register_tm_clones>:
10000120:	b8 3c ea 00 10       	mov    eax,0x1000ea3c
10000125:	2d 3c ea 00 10       	sub    eax,0x1000ea3c
1000012a:	c1 f8 02             	sar    eax,0x2
1000012d:	89 c2                	mov    edx,eax
1000012f:	c1 ea 1f             	shr    edx,0x1f
10000132:	01 d0                	add    eax,edx
10000134:	d1 f8                	sar    eax,1
10000136:	74 1c                	je     10000154 <register_tm_clones+0x34>
10000138:	ba 00 00 00 00       	mov    edx,0x0
1000013d:	85 d2                	test   edx,edx
1000013f:	74 13                	je     10000154 <register_tm_clones+0x34>
10000141:	55                   	push   ebp
10000142:	89 e5                	mov    ebp,esp
10000144:	83 ec 10             	sub    esp,0x10
10000147:	50                   	push   eax
10000148:	68 3c ea 00 10       	push   0x1000ea3c
1000014d:	ff d2                	call   edx
1000014f:	83 c4 10             	add    esp,0x10
10000152:	c9                   	leave  
10000153:	c3                   	ret    
10000154:	c3                   	ret    
10000155:	8d 76 00             	lea    esi,[esi+0x0]

10000158 <__do_global_dtors_aux>:
10000158:	80 3d 14 f2 00 10 00 	cmp    BYTE PTR ds:0x1000f214,0x0
1000015f:	75 63                	jne    100001c4 <__do_global_dtors_aux+0x6c>
10000161:	55                   	push   ebp
10000162:	89 e5                	mov    ebp,esp
10000164:	56                   	push   esi
10000165:	53                   	push   ebx
10000166:	bb 38 ea 00 10       	mov    ebx,0x1000ea38
1000016b:	81 eb 34 ea 00 10    	sub    ebx,0x1000ea34
10000171:	c1 fb 02             	sar    ebx,0x2
10000174:	4b                   	dec    ebx
10000175:	be 34 ea 00 10       	mov    esi,0x1000ea34
1000017a:	a1 18 f2 00 10       	mov    eax,ds:0x1000f218
1000017f:	39 d8                	cmp    eax,ebx
10000181:	73 13                	jae    10000196 <__do_global_dtors_aux+0x3e>
10000183:	90                   	nop
10000184:	40                   	inc    eax
10000185:	a3 18 f2 00 10       	mov    ds:0x1000f218,eax
1000018a:	ff 14 86             	call   DWORD PTR [esi+eax*4]
1000018d:	a1 18 f2 00 10       	mov    eax,ds:0x1000f218
10000192:	39 d8                	cmp    eax,ebx
10000194:	72 ee                	jb     10000184 <__do_global_dtors_aux+0x2c>
10000196:	e8 59 ff ff ff       	call   100000f4 <deregister_tm_clones>
1000019b:	b8 00 00 00 00       	mov    eax,0x0
100001a0:	85 c0                	test   eax,eax
100001a2:	74 10                	je     100001b4 <__do_global_dtors_aux+0x5c>
100001a4:	83 ec 0c             	sub    esp,0xc
100001a7:	68 58 00 01 10       	push   0x10010058
100001ac:	e8 4f fe ff ef       	call   0 <_start-0x10000000>
100001b1:	83 c4 10             	add    esp,0x10
100001b4:	c6 05 14 f2 00 10 01 	mov    BYTE PTR ds:0x1000f214,0x1
100001bb:	8d 65 f8             	lea    esp,[ebp-0x8]
100001be:	5b                   	pop    ebx
100001bf:	5e                   	pop    esi
100001c0:	5d                   	pop    ebp
100001c1:	c3                   	ret    
100001c2:	66 90                	xchg   ax,ax
100001c4:	c3                   	ret    
100001c5:	8d 76 00             	lea    esi,[esi+0x0]

100001c8 <frame_dummy>:
100001c8:	b8 00 00 00 00       	mov    eax,0x0
100001cd:	85 c0                	test   eax,eax
100001cf:	74 1f                	je     100001f0 <frame_dummy+0x28>
100001d1:	55                   	push   ebp
100001d2:	89 e5                	mov    ebp,esp
100001d4:	83 ec 10             	sub    esp,0x10
100001d7:	68 1c f2 00 10       	push   0x1000f21c
100001dc:	68 58 00 01 10       	push   0x10010058
100001e1:	e8 1a fe ff ef       	call   0 <_start-0x10000000>
100001e6:	83 c4 10             	add    esp,0x10
100001e9:	c9                   	leave  
100001ea:	e9 31 ff ff ff       	jmp    10000120 <register_tm_clones>
100001ef:	90                   	nop
100001f0:	e9 2b ff ff ff       	jmp    10000120 <register_tm_clones>

100001f5 <regtree>:
100001f5:	55                   	push   ebp
100001f6:	89 e5                	mov    ebp,esp
100001f8:	57                   	push   edi
100001f9:	56                   	push   esi
100001fa:	53                   	push   ebx
100001fb:	83 ec 5c             	sub    esp,0x5c
100001fe:	8b 5d 0c             	mov    ebx,DWORD PTR [ebp+0xc]
10000201:	85 db                	test   ebx,ebx
10000203:	0f 8e 87 00 00 00    	jle    10000290 <regtree+0x9b>
10000209:	8d 75 b6             	lea    esi,[ebp-0x4a]
1000020c:	b9 32 00 00 00       	mov    ecx,0x32
10000211:	31 c0                	xor    eax,eax
10000213:	89 f7                	mov    edi,esi
10000215:	f3 aa                	rep stos BYTE PTR es:[edi],al
10000217:	56                   	push   esi
10000218:	53                   	push   ebx
10000219:	ff 75 08             	push   DWORD PTR [ebp+0x8]
1000021c:	6a 39                	push   0x39
1000021e:	e8 5d 2f 00 00       	call   10003180 <SystemCall>
10000223:	89 45 a4             	mov    DWORD PTR [ebp-0x5c],eax
10000226:	83 c4 10             	add    esp,0x10
10000229:	31 ff                	xor    edi,edi
1000022b:	3b 7d 10             	cmp    edi,DWORD PTR [ebp+0x10]
1000022e:	7d 10                	jge    10000240 <regtree+0x4b>
10000230:	83 ec 0c             	sub    esp,0xc
10000233:	6a 20                	push   0x20
10000235:	e8 12 0a 00 00       	call   10000c4c <putchar>
1000023a:	47                   	inc    edi
1000023b:	83 c4 10             	add    esp,0x10
1000023e:	eb eb                	jmp    1000022b <regtree+0x36>
10000240:	50                   	push   eax
10000241:	50                   	push   eax
10000242:	56                   	push   esi
10000243:	68 bd 93 00 10       	push   0x100093bd
10000248:	e8 c7 09 00 00       	call   10000c14 <printf>
1000024d:	83 c4 10             	add    esp,0x10
10000250:	83 7d a4 4e          	cmp    DWORD PTR [ebp-0x5c],0x4e
10000254:	75 23                	jne    10000279 <regtree+0x84>
10000256:	6a 00                	push   0x0
10000258:	53                   	push   ebx
10000259:	ff 75 08             	push   DWORD PTR [ebp+0x8]
1000025c:	6a 37                	push   0x37
1000025e:	e8 1d 2f 00 00       	call   10003180 <SystemCall>
10000263:	83 c4 0c             	add    esp,0xc
10000266:	8b 55 10             	mov    edx,DWORD PTR [ebp+0x10]
10000269:	83 c2 04             	add    edx,0x4
1000026c:	52                   	push   edx
1000026d:	50                   	push   eax
1000026e:	ff 75 08             	push   DWORD PTR [ebp+0x8]
10000271:	e8 7f ff ff ff       	call   100001f5 <regtree>
10000276:	83 c4 10             	add    esp,0x10
10000279:	6a 00                	push   0x0
1000027b:	53                   	push   ebx
1000027c:	ff 75 08             	push   DWORD PTR [ebp+0x8]
1000027f:	6a 38                	push   0x38
10000281:	e8 fa 2e 00 00       	call   10003180 <SystemCall>
10000286:	89 c3                	mov    ebx,eax
10000288:	83 c4 10             	add    esp,0x10
1000028b:	e9 71 ff ff ff       	jmp    10000201 <regtree+0xc>
10000290:	8d 65 f4             	lea    esp,[ebp-0xc]
10000293:	5b                   	pop    ebx
10000294:	5e                   	pop    esi
10000295:	5f                   	pop    edi
10000296:	5d                   	pop    ebp
10000297:	c3                   	ret    

10000298 <calloc>:
10000298:	83 ec 10             	sub    esp,0x10
1000029b:	ff 74 24 18          	push   DWORD PTR [esp+0x18]
1000029f:	ff 74 24 18          	push   DWORD PTR [esp+0x18]
100002a3:	ff 35 20 e0 00 10    	push   DWORD PTR ds:0x1000e020
100002a9:	e8 06 00 00 00       	call   100002b4 <_calloc_r>
100002ae:	83 c4 1c             	add    esp,0x1c
100002b1:	c3                   	ret    
100002b2:	66 90                	xchg   ax,ax

100002b4 <_calloc_r>:
100002b4:	53                   	push   ebx
100002b5:	83 ec 10             	sub    esp,0x10
100002b8:	8b 44 24 20          	mov    eax,DWORD PTR [esp+0x20]
100002bc:	0f af 44 24 1c       	imul   eax,DWORD PTR [esp+0x1c]
100002c1:	50                   	push   eax
100002c2:	ff 74 24 1c          	push   DWORD PTR [esp+0x1c]
100002c6:	e8 f9 00 00 00       	call   100003c4 <_malloc_r>
100002cb:	89 c3                	mov    ebx,eax
100002cd:	83 c4 10             	add    esp,0x10
100002d0:	85 c0                	test   eax,eax
100002d2:	74 29                	je     100002fd <_calloc_r+0x49>
100002d4:	8b 40 fc             	mov    eax,DWORD PTR [eax-0x4]
100002d7:	83 e0 fc             	and    eax,0xfffffffc
100002da:	83 e8 04             	sub    eax,0x4
100002dd:	83 f8 24             	cmp    eax,0x24
100002e0:	77 4e                	ja     10000330 <_calloc_r+0x7c>
100002e2:	83 f8 13             	cmp    eax,0x13
100002e5:	77 1d                	ja     10000304 <_calloc_r+0x50>
100002e7:	89 d8                	mov    eax,ebx
100002e9:	c7 00 00 00 00 00    	mov    DWORD PTR [eax],0x0
100002ef:	c7 40 04 00 00 00 00 	mov    DWORD PTR [eax+0x4],0x0
100002f6:	c7 40 08 00 00 00 00 	mov    DWORD PTR [eax+0x8],0x0
100002fd:	89 d8                	mov    eax,ebx
100002ff:	83 c4 08             	add    esp,0x8
10000302:	5b                   	pop    ebx
10000303:	c3                   	ret    
10000304:	c7 03 00 00 00 00    	mov    DWORD PTR [ebx],0x0
1000030a:	c7 43 04 00 00 00 00 	mov    DWORD PTR [ebx+0x4],0x0
10000311:	83 f8 1b             	cmp    eax,0x1b
10000314:	76 2e                	jbe    10000344 <_calloc_r+0x90>
10000316:	c7 43 08 00 00 00 00 	mov    DWORD PTR [ebx+0x8],0x0
1000031d:	c7 43 0c 00 00 00 00 	mov    DWORD PTR [ebx+0xc],0x0
10000324:	83 f8 24             	cmp    eax,0x24
10000327:	74 23                	je     1000034c <_calloc_r+0x98>
10000329:	8d 43 10             	lea    eax,[ebx+0x10]
1000032c:	eb bb                	jmp    100002e9 <_calloc_r+0x35>
1000032e:	66 90                	xchg   ax,ax
10000330:	52                   	push   edx
10000331:	50                   	push   eax
10000332:	6a 00                	push   0x0
10000334:	53                   	push   ebx
10000335:	e8 28 08 00 00       	call   10000b62 <memset>
1000033a:	83 c4 10             	add    esp,0x10
1000033d:	89 d8                	mov    eax,ebx
1000033f:	83 c4 08             	add    esp,0x8
10000342:	5b                   	pop    ebx
10000343:	c3                   	ret    
10000344:	8d 43 08             	lea    eax,[ebx+0x8]
10000347:	eb a0                	jmp    100002e9 <_calloc_r+0x35>
10000349:	8d 76 00             	lea    esi,[esi+0x0]
1000034c:	c7 43 10 00 00 00 00 	mov    DWORD PTR [ebx+0x10],0x0
10000353:	8d 43 18             	lea    eax,[ebx+0x18]
10000356:	c7 43 14 00 00 00 00 	mov    DWORD PTR [ebx+0x14],0x0
1000035d:	eb 8a                	jmp    100002e9 <_calloc_r+0x35>
1000035f:	90                   	nop

10000360 <exit>:
10000360:	53                   	push   ebx
10000361:	83 ec 10             	sub    esp,0x10
10000364:	8b 5c 24 18          	mov    ebx,DWORD PTR [esp+0x18]
10000368:	6a 00                	push   0x0
1000036a:	53                   	push   ebx
1000036b:	e8 68 38 00 00       	call   10003bd8 <__call_exitprocs>
10000370:	8b 15 e8 c9 00 10    	mov    edx,DWORD PTR ds:0x1000c9e8
10000376:	8b 42 3c             	mov    eax,DWORD PTR [edx+0x3c]
10000379:	83 c4 10             	add    esp,0x10
1000037c:	85 c0                	test   eax,eax
1000037e:	74 09                	je     10000389 <exit+0x29>
10000380:	83 ec 0c             	sub    esp,0xc
10000383:	52                   	push   edx
10000384:	ff d0                	call   eax
10000386:	83 c4 10             	add    esp,0x10
10000389:	83 ec 0c             	sub    esp,0xc
1000038c:	53                   	push   ebx
1000038d:	e8 47 2e 00 00       	call   100031d9 <_exit>
10000392:	66 90                	xchg   ax,ax

10000394 <malloc>:
10000394:	83 ec 14             	sub    esp,0x14
10000397:	ff 74 24 18          	push   DWORD PTR [esp+0x18]
1000039b:	ff 35 20 e0 00 10    	push   DWORD PTR ds:0x1000e020
100003a1:	e8 1e 00 00 00       	call   100003c4 <_malloc_r>
100003a6:	83 c4 1c             	add    esp,0x1c
100003a9:	c3                   	ret    
100003aa:	66 90                	xchg   ax,ax

100003ac <free>:
100003ac:	83 ec 14             	sub    esp,0x14
100003af:	ff 74 24 18          	push   DWORD PTR [esp+0x18]
100003b3:	ff 35 20 e0 00 10    	push   DWORD PTR ds:0x1000e020
100003b9:	e8 82 54 00 00       	call   10005840 <_free_r>
100003be:	83 c4 1c             	add    esp,0x1c
100003c1:	c3                   	ret    
100003c2:	66 90                	xchg   ax,ax

100003c4 <_malloc_r>:
100003c4:	55                   	push   ebp
100003c5:	57                   	push   edi
100003c6:	56                   	push   esi
100003c7:	53                   	push   ebx
100003c8:	83 ec 1c             	sub    esp,0x1c
100003cb:	8b 54 24 34          	mov    edx,DWORD PTR [esp+0x34]
100003cf:	8d 42 0b             	lea    eax,[edx+0xb]
100003d2:	83 f8 16             	cmp    eax,0x16
100003d5:	77 71                	ja     10000448 <_malloc_r+0x84>
100003d7:	83 fa 10             	cmp    edx,0x10
100003da:	0f 87 30 02 00 00    	ja     10000610 <_malloc_r+0x24c>
100003e0:	83 ec 0c             	sub    esp,0xc
100003e3:	ff 74 24 3c          	push   DWORD PTR [esp+0x3c]
100003e7:	e8 00 08 00 00       	call   10000bec <__malloc_lock>
100003ec:	83 c4 10             	add    esp,0x10
100003ef:	b8 18 00 00 00       	mov    eax,0x18
100003f4:	ba 02 00 00 00       	mov    edx,0x2
100003f9:	bd 10 00 00 00       	mov    ebp,0x10
100003fe:	8b 98 a4 e4 00 10    	mov    ebx,DWORD PTR [eax+0x1000e4a4]
10000404:	8d 88 98 e4 00 10    	lea    ecx,[eax+0x1000e498]
1000040a:	05 a0 e4 00 10       	add    eax,0x1000e4a0
1000040f:	39 cb                	cmp    ebx,ecx
10000411:	0f 84 21 02 00 00    	je     10000638 <_malloc_r+0x274>
10000417:	8b 43 04             	mov    eax,DWORD PTR [ebx+0x4]
1000041a:	83 e0 fc             	and    eax,0xfffffffc
1000041d:	8b 53 0c             	mov    edx,DWORD PTR [ebx+0xc]
10000420:	8b 4b 08             	mov    ecx,DWORD PTR [ebx+0x8]
10000423:	89 51 0c             	mov    DWORD PTR [ecx+0xc],edx
10000426:	89 4a 08             	mov    DWORD PTR [edx+0x8],ecx
10000429:	83 4c 03 04 01       	or     DWORD PTR [ebx+eax*1+0x4],0x1
1000042e:	83 ec 0c             	sub    esp,0xc
10000431:	ff 74 24 3c          	push   DWORD PTR [esp+0x3c]
10000435:	e8 b6 07 00 00       	call   10000bf0 <__malloc_unlock>
1000043a:	8d 43 08             	lea    eax,[ebx+0x8]
1000043d:	83 c4 10             	add    esp,0x10
10000440:	83 c4 1c             	add    esp,0x1c
10000443:	5b                   	pop    ebx
10000444:	5e                   	pop    esi
10000445:	5f                   	pop    edi
10000446:	5d                   	pop    ebp
10000447:	c3                   	ret    
10000448:	83 e0 f8             	and    eax,0xfffffff8
1000044b:	89 c5                	mov    ebp,eax
1000044d:	0f 88 bd 01 00 00    	js     10000610 <_malloc_r+0x24c>
10000453:	39 c2                	cmp    edx,eax
10000455:	0f 87 b5 01 00 00    	ja     10000610 <_malloc_r+0x24c>
1000045b:	83 ec 0c             	sub    esp,0xc
1000045e:	ff 74 24 3c          	push   DWORD PTR [esp+0x3c]
10000462:	e8 85 07 00 00       	call   10000bec <__malloc_lock>
10000467:	83 c4 10             	add    esp,0x10
1000046a:	81 fd f7 01 00 00    	cmp    ebp,0x1f7
10000470:	0f 86 92 04 00 00    	jbe    10000908 <_malloc_r+0x544>
10000476:	89 e8                	mov    eax,ebp
10000478:	c1 e8 09             	shr    eax,0x9
1000047b:	0f 84 a3 01 00 00    	je     10000624 <_malloc_r+0x260>
10000481:	83 f8 04             	cmp    eax,0x4
10000484:	0f 87 ca 03 00 00    	ja     10000854 <_malloc_r+0x490>
1000048a:	89 e8                	mov    eax,ebp
1000048c:	c1 e8 06             	shr    eax,0x6
1000048f:	8d 70 38             	lea    esi,[eax+0x38]
10000492:	8d 78 39             	lea    edi,[eax+0x39]
10000495:	8d 04 fd 00 00 00 00 	lea    eax,[edi*8+0x0]
1000049c:	8d 88 98 e4 00 10    	lea    ecx,[eax+0x1000e498]
100004a2:	8b 98 a4 e4 00 10    	mov    ebx,DWORD PTR [eax+0x1000e4a4]
100004a8:	39 d9                	cmp    ecx,ebx
100004aa:	75 13                	jne    100004bf <_malloc_r+0xfb>
100004ac:	eb 22                	jmp    100004d0 <_malloc_r+0x10c>
100004ae:	66 90                	xchg   ax,ax
100004b0:	85 d2                	test   edx,edx
100004b2:	0f 89 65 ff ff ff    	jns    1000041d <_malloc_r+0x59>
100004b8:	8b 5b 0c             	mov    ebx,DWORD PTR [ebx+0xc]
100004bb:	39 d9                	cmp    ecx,ebx
100004bd:	74 11                	je     100004d0 <_malloc_r+0x10c>
100004bf:	8b 43 04             	mov    eax,DWORD PTR [ebx+0x4]
100004c2:	83 e0 fc             	and    eax,0xfffffffc
100004c5:	89 c2                	mov    edx,eax
100004c7:	29 ea                	sub    edx,ebp
100004c9:	83 fa 0f             	cmp    edx,0xf
100004cc:	7e e2                	jle    100004b0 <_malloc_r+0xec>
100004ce:	89 f7                	mov    edi,esi
100004d0:	8b 1d b0 e4 00 10    	mov    ebx,DWORD PTR ds:0x1000e4b0
100004d6:	81 fb a8 e4 00 10    	cmp    ebx,0x1000e4a8
100004dc:	0f 84 76 01 00 00    	je     10000658 <_malloc_r+0x294>
100004e2:	8b 53 04             	mov    edx,DWORD PTR [ebx+0x4]
100004e5:	83 e2 fc             	and    edx,0xfffffffc
100004e8:	89 d0                	mov    eax,edx
100004ea:	29 e8                	sub    eax,ebp
100004ec:	83 f8 0f             	cmp    eax,0xf
100004ef:	0f 8f 33 04 00 00    	jg     10000928 <_malloc_r+0x564>
100004f5:	c7 05 b4 e4 00 10 a8 e4 00 10 	mov    DWORD PTR ds:0x1000e4b4,0x1000e4a8
100004ff:	c7 05 b0 e4 00 10 a8 e4 00 10 	mov    DWORD PTR ds:0x1000e4b0,0x1000e4a8
10000509:	85 c0                	test   eax,eax
1000050b:	0f 89 0b 04 00 00    	jns    1000091c <_malloc_r+0x558>
10000511:	89 d0                	mov    eax,edx
10000513:	81 fa ff 01 00 00    	cmp    edx,0x1ff
10000519:	0f 87 d5 02 00 00    	ja     100007f4 <_malloc_r+0x430>
1000051f:	c1 e8 03             	shr    eax,0x3
10000522:	89 c1                	mov    ecx,eax
10000524:	c1 f9 02             	sar    ecx,0x2
10000527:	ba 01 00 00 00       	mov    edx,0x1
1000052c:	d3 e2                	shl    edx,cl
1000052e:	0b 15 a4 e4 00 10    	or     edx,DWORD PTR ds:0x1000e4a4
10000534:	89 15 a4 e4 00 10    	mov    DWORD PTR ds:0x1000e4a4,edx
1000053a:	8d 04 c5 08 00 00 00 	lea    eax,[eax*8+0x8]
10000541:	8b 88 a0 e4 00 10    	mov    ecx,DWORD PTR [eax+0x1000e4a0]
10000547:	8d b0 98 e4 00 10    	lea    esi,[eax+0x1000e498]
1000054d:	89 73 0c             	mov    DWORD PTR [ebx+0xc],esi
10000550:	89 4b 08             	mov    DWORD PTR [ebx+0x8],ecx
10000553:	89 98 a0 e4 00 10    	mov    DWORD PTR [eax+0x1000e4a0],ebx
10000559:	89 59 0c             	mov    DWORD PTR [ecx+0xc],ebx
1000055c:	89 f9                	mov    ecx,edi
1000055e:	c1 f9 02             	sar    ecx,0x2
10000561:	b8 01 00 00 00       	mov    eax,0x1
10000566:	d3 e0                	shl    eax,cl
10000568:	89 c1                	mov    ecx,eax
1000056a:	39 d0                	cmp    eax,edx
1000056c:	0f 87 f2 00 00 00    	ja     10000664 <_malloc_r+0x2a0>
10000572:	85 d0                	test   eax,edx
10000574:	75 17                	jne    1000058d <_malloc_r+0x1c9>
10000576:	89 f8                	mov    eax,edi
10000578:	83 e0 fc             	and    eax,0xfffffffc
1000057b:	8d 78 04             	lea    edi,[eax+0x4]
1000057e:	01 c9                	add    ecx,ecx
10000580:	85 d1                	test   ecx,edx
10000582:	75 09                	jne    1000058d <_malloc_r+0x1c9>
10000584:	83 c7 04             	add    edi,0x4
10000587:	01 c9                	add    ecx,ecx
10000589:	85 d1                	test   ecx,edx
1000058b:	74 f7                	je     10000584 <_malloc_r+0x1c0>
1000058d:	8d 04 fd a0 e4 00 10 	lea    eax,[edi*8+0x1000e4a0]
10000594:	89 44 24 08          	mov    DWORD PTR [esp+0x8],eax
10000598:	89 c6                	mov    esi,eax
1000059a:	89 7c 24 04          	mov    DWORD PTR [esp+0x4],edi
1000059e:	8b 5e 0c             	mov    ebx,DWORD PTR [esi+0xc]
100005a1:	39 de                	cmp    esi,ebx
100005a3:	75 1a                	jne    100005bf <_malloc_r+0x1fb>
100005a5:	e9 d6 02 00 00       	jmp    10000880 <_malloc_r+0x4bc>
100005aa:	66 90                	xchg   ax,ax
100005ac:	85 d2                	test   edx,edx
100005ae:	0f 89 3c 03 00 00    	jns    100008f0 <_malloc_r+0x52c>
100005b4:	8b 5b 0c             	mov    ebx,DWORD PTR [ebx+0xc]
100005b7:	39 de                	cmp    esi,ebx
100005b9:	0f 84 c1 02 00 00    	je     10000880 <_malloc_r+0x4bc>
100005bf:	8b 43 04             	mov    eax,DWORD PTR [ebx+0x4]
100005c2:	83 e0 fc             	and    eax,0xfffffffc
100005c5:	89 c2                	mov    edx,eax
100005c7:	29 ea                	sub    edx,ebp
100005c9:	83 fa 0f             	cmp    edx,0xf
100005cc:	7e de                	jle    100005ac <_malloc_r+0x1e8>
100005ce:	8d 0c 2b             	lea    ecx,[ebx+ebp*1]
100005d1:	89 ee                	mov    esi,ebp
100005d3:	83 ce 01             	or     esi,0x1
100005d6:	89 73 04             	mov    DWORD PTR [ebx+0x4],esi
100005d9:	8b 73 0c             	mov    esi,DWORD PTR [ebx+0xc]
100005dc:	8b 7b 08             	mov    edi,DWORD PTR [ebx+0x8]
100005df:	89 77 0c             	mov    DWORD PTR [edi+0xc],esi
100005e2:	89 7e 08             	mov    DWORD PTR [esi+0x8],edi
100005e5:	89 0d b4 e4 00 10    	mov    DWORD PTR ds:0x1000e4b4,ecx
100005eb:	89 0d b0 e4 00 10    	mov    DWORD PTR ds:0x1000e4b0,ecx
100005f1:	c7 41 0c a8 e4 00 10 	mov    DWORD PTR [ecx+0xc],0x1000e4a8
100005f8:	c7 41 08 a8 e4 00 10 	mov    DWORD PTR [ecx+0x8],0x1000e4a8
100005ff:	89 d6                	mov    esi,edx
10000601:	83 ce 01             	or     esi,0x1
10000604:	89 71 04             	mov    DWORD PTR [ecx+0x4],esi
10000607:	89 14 03             	mov    DWORD PTR [ebx+eax*1],edx
1000060a:	e9 1f fe ff ff       	jmp    1000042e <_malloc_r+0x6a>
1000060f:	90                   	nop
10000610:	8b 44 24 30          	mov    eax,DWORD PTR [esp+0x30]
10000614:	c7 00 0c 00 00 00    	mov    DWORD PTR [eax],0xc
1000061a:	31 c0                	xor    eax,eax
1000061c:	83 c4 1c             	add    esp,0x1c
1000061f:	5b                   	pop    ebx
10000620:	5e                   	pop    esi
10000621:	5f                   	pop    edi
10000622:	5d                   	pop    ebp
10000623:	c3                   	ret    
10000624:	b8 00 02 00 00       	mov    eax,0x200
10000629:	bf 40 00 00 00       	mov    edi,0x40
1000062e:	be 3f 00 00 00       	mov    esi,0x3f
10000633:	e9 64 fe ff ff       	jmp    1000049c <_malloc_r+0xd8>
10000638:	8b 58 0c             	mov    ebx,DWORD PTR [eax+0xc]
1000063b:	39 d8                	cmp    eax,ebx
1000063d:	0f 85 d4 fd ff ff    	jne    10000417 <_malloc_r+0x53>
10000643:	8d 7a 02             	lea    edi,[edx+0x2]
10000646:	8b 1d b0 e4 00 10    	mov    ebx,DWORD PTR ds:0x1000e4b0
1000064c:	81 fb a8 e4 00 10    	cmp    ebx,0x1000e4a8
10000652:	0f 85 8a fe ff ff    	jne    100004e2 <_malloc_r+0x11e>
10000658:	8b 15 a4 e4 00 10    	mov    edx,DWORD PTR ds:0x1000e4a4
1000065e:	e9 f9 fe ff ff       	jmp    1000055c <_malloc_r+0x198>
10000663:	90                   	nop
10000664:	8b 1d a8 e4 00 10    	mov    ebx,DWORD PTR ds:0x1000e4a8
1000066a:	8b 43 04             	mov    eax,DWORD PTR [ebx+0x4]
1000066d:	83 e0 fc             	and    eax,0xfffffffc
10000670:	89 44 24 04          	mov    DWORD PTR [esp+0x4],eax
10000674:	39 e8                	cmp    eax,ebp
10000676:	72 0b                	jb     10000683 <_malloc_r+0x2bf>
10000678:	29 e8                	sub    eax,ebp
1000067a:	83 f8 0f             	cmp    eax,0xf
1000067d:	0f 8f 55 01 00 00    	jg     100007d8 <_malloc_r+0x414>
10000683:	8b 44 24 04          	mov    eax,DWORD PTR [esp+0x4]
10000687:	8d 34 03             	lea    esi,[ebx+eax*1]
1000068a:	8b 3d 70 f2 00 10    	mov    edi,DWORD PTR ds:0x1000f270
10000690:	01 ef                	add    edi,ebp
10000692:	83 3d 80 e4 00 10 ff 	cmp    DWORD PTR ds:0x1000e480,0xffffffff
10000699:	0f 84 27 03 00 00    	je     100009c6 <_malloc_r+0x602>
1000069f:	81 c7 0f 10 00 00    	add    edi,0x100f
100006a5:	81 e7 00 f0 ff ff    	and    edi,0xfffff000
100006ab:	83 ec 08             	sub    esp,0x8
100006ae:	57                   	push   edi
100006af:	ff 74 24 3c          	push   DWORD PTR [esp+0x3c]
100006b3:	e8 58 06 00 00       	call   10000d10 <_sbrk_r>
100006b8:	89 c2                	mov    edx,eax
100006ba:	83 c4 10             	add    esp,0x10
100006bd:	83 f8 ff             	cmp    eax,0xffffffff
100006c0:	0f 84 ba 02 00 00    	je     10000980 <_malloc_r+0x5bc>
100006c6:	39 c6                	cmp    esi,eax
100006c8:	0f 87 a6 02 00 00    	ja     10000974 <_malloc_r+0x5b0>
100006ce:	a1 40 f2 00 10       	mov    eax,ds:0x1000f240
100006d3:	01 f8                	add    eax,edi
100006d5:	89 c1                	mov    ecx,eax
100006d7:	a3 40 f2 00 10       	mov    ds:0x1000f240,eax
100006dc:	39 d6                	cmp    esi,edx
100006de:	0f 84 8b 03 00 00    	je     10000a6f <_malloc_r+0x6ab>
100006e4:	83 3d 80 e4 00 10 ff 	cmp    DWORD PTR ds:0x1000e480,0xffffffff
100006eb:	0f 84 9f 03 00 00    	je     10000a90 <_malloc_r+0x6cc>
100006f1:	89 d0                	mov    eax,edx
100006f3:	29 f0                	sub    eax,esi
100006f5:	01 c8                	add    eax,ecx
100006f7:	a3 40 f2 00 10       	mov    ds:0x1000f240,eax
100006fc:	89 d1                	mov    ecx,edx
100006fe:	83 e1 07             	and    ecx,0x7
10000701:	0f 84 e2 02 00 00    	je     100009e9 <_malloc_r+0x625>
10000707:	89 d0                	mov    eax,edx
10000709:	29 c8                	sub    eax,ecx
1000070b:	8d 50 08             	lea    edx,[eax+0x8]
1000070e:	01 d7                	add    edi,edx
10000710:	89 54 24 0c          	mov    DWORD PTR [esp+0xc],edx
10000714:	b8 08 10 00 00       	mov    eax,0x1008
10000719:	29 c8                	sub    eax,ecx
1000071b:	89 4c 24 08          	mov    DWORD PTR [esp+0x8],ecx
1000071f:	29 f8                	sub    eax,edi
10000721:	25 ff 0f 00 00       	and    eax,0xfff
10000726:	89 c6                	mov    esi,eax
10000728:	83 ec 08             	sub    esp,0x8
1000072b:	50                   	push   eax
1000072c:	ff 74 24 3c          	push   DWORD PTR [esp+0x3c]
10000730:	e8 db 05 00 00       	call   10000d10 <_sbrk_r>
10000735:	83 c4 10             	add    esp,0x10
10000738:	83 f8 ff             	cmp    eax,0xffffffff
1000073b:	8b 4c 24 08          	mov    ecx,DWORD PTR [esp+0x8]
1000073f:	8b 54 24 0c          	mov    edx,DWORD PTR [esp+0xc]
10000743:	0f 84 9e 03 00 00    	je     10000ae7 <_malloc_r+0x723>
10000749:	29 d0                	sub    eax,edx
1000074b:	8d 3c 30             	lea    edi,[eax+esi*1]
1000074e:	a1 40 f2 00 10       	mov    eax,ds:0x1000f240
10000753:	01 f0                	add    eax,esi
10000755:	a3 40 f2 00 10       	mov    ds:0x1000f240,eax
1000075a:	89 15 a8 e4 00 10    	mov    DWORD PTR ds:0x1000e4a8,edx
10000760:	83 cf 01             	or     edi,0x1
10000763:	89 7a 04             	mov    DWORD PTR [edx+0x4],edi
10000766:	81 fb a0 e4 00 10    	cmp    ebx,0x1000e4a0
1000076c:	0f 84 29 03 00 00    	je     10000a9b <_malloc_r+0x6d7>
10000772:	83 7c 24 04 0f       	cmp    DWORD PTR [esp+0x4],0xf
10000777:	0f 86 25 03 00 00    	jbe    10000aa2 <_malloc_r+0x6de>
1000077d:	8b 4c 24 04          	mov    ecx,DWORD PTR [esp+0x4]
10000781:	83 e9 0c             	sub    ecx,0xc
10000784:	89 ce                	mov    esi,ecx
10000786:	83 e6 f8             	and    esi,0xfffffff8
10000789:	8b 4b 04             	mov    ecx,DWORD PTR [ebx+0x4]
1000078c:	83 e1 01             	and    ecx,0x1
1000078f:	09 f1                	or     ecx,esi
10000791:	89 4b 04             	mov    DWORD PTR [ebx+0x4],ecx
10000794:	c7 44 33 04 05 00 00 00 	mov    DWORD PTR [ebx+esi*1+0x4],0x5
1000079c:	c7 44 33 08 05 00 00 00 	mov    DWORD PTR [ebx+esi*1+0x8],0x5
100007a4:	83 fe 0f             	cmp    esi,0xf
100007a7:	0f 87 47 03 00 00    	ja     10000af4 <_malloc_r+0x730>
100007ad:	8b 7a 04             	mov    edi,DWORD PTR [edx+0x4]
100007b0:	89 d3                	mov    ebx,edx
100007b2:	39 05 6c f2 00 10    	cmp    DWORD PTR ds:0x1000f26c,eax
100007b8:	73 05                	jae    100007bf <_malloc_r+0x3fb>
100007ba:	a3 6c f2 00 10       	mov    ds:0x1000f26c,eax
100007bf:	39 05 68 f2 00 10    	cmp    DWORD PTR ds:0x1000f268,eax
100007c5:	0f 83 be 01 00 00    	jae    10000989 <_malloc_r+0x5c5>
100007cb:	a3 68 f2 00 10       	mov    ds:0x1000f268,eax
100007d0:	e9 b4 01 00 00       	jmp    10000989 <_malloc_r+0x5c5>
100007d5:	8d 76 00             	lea    esi,[esi+0x0]
100007d8:	89 ea                	mov    edx,ebp
100007da:	83 ca 01             	or     edx,0x1
100007dd:	89 53 04             	mov    DWORD PTR [ebx+0x4],edx
100007e0:	8d 14 2b             	lea    edx,[ebx+ebp*1]
100007e3:	89 15 a8 e4 00 10    	mov    DWORD PTR ds:0x1000e4a8,edx
100007e9:	83 c8 01             	or     eax,0x1
100007ec:	89 42 04             	mov    DWORD PTR [edx+0x4],eax
100007ef:	e9 3a fc ff ff       	jmp    1000042e <_malloc_r+0x6a>
100007f4:	c1 e8 09             	shr    eax,0x9
100007f7:	83 f8 04             	cmp    eax,0x4
100007fa:	0f 86 60 01 00 00    	jbe    10000960 <_malloc_r+0x59c>
10000800:	83 f8 14             	cmp    eax,0x14
10000803:	0f 87 14 02 00 00    	ja     10000a1d <_malloc_r+0x659>
10000809:	8d 48 5b             	lea    ecx,[eax+0x5b]
1000080c:	8d 04 c5 e0 02 00 00 	lea    eax,[eax*8+0x2e0]
10000813:	8d b0 98 e4 00 10    	lea    esi,[eax+0x1000e498]
10000819:	8b 80 a0 e4 00 10    	mov    eax,DWORD PTR [eax+0x1000e4a0]
1000081f:	39 c6                	cmp    esi,eax
10000821:	0f 84 a7 01 00 00    	je     100009ce <_malloc_r+0x60a>
10000827:	90                   	nop
10000828:	8b 48 04             	mov    ecx,DWORD PTR [eax+0x4]
1000082b:	83 e1 fc             	and    ecx,0xfffffffc
1000082e:	39 d1                	cmp    ecx,edx
10000830:	76 07                	jbe    10000839 <_malloc_r+0x475>
10000832:	8b 40 08             	mov    eax,DWORD PTR [eax+0x8]
10000835:	39 c6                	cmp    esi,eax
10000837:	75 ef                	jne    10000828 <_malloc_r+0x464>
10000839:	8b 70 0c             	mov    esi,DWORD PTR [eax+0xc]
1000083c:	8b 15 a4 e4 00 10    	mov    edx,DWORD PTR ds:0x1000e4a4
10000842:	89 73 0c             	mov    DWORD PTR [ebx+0xc],esi
10000845:	89 43 08             	mov    DWORD PTR [ebx+0x8],eax
10000848:	89 5e 08             	mov    DWORD PTR [esi+0x8],ebx
1000084b:	89 58 0c             	mov    DWORD PTR [eax+0xc],ebx
1000084e:	e9 09 fd ff ff       	jmp    1000055c <_malloc_r+0x198>
10000853:	90                   	nop
10000854:	83 f8 14             	cmp    eax,0x14
10000857:	0f 86 57 01 00 00    	jbe    100009b4 <_malloc_r+0x5f0>
1000085d:	83 f8 54             	cmp    eax,0x54
10000860:	0f 87 d4 01 00 00    	ja     10000a3a <_malloc_r+0x676>
10000866:	89 e8                	mov    eax,ebp
10000868:	c1 e8 0c             	shr    eax,0xc
1000086b:	8d 70 6e             	lea    esi,[eax+0x6e]
1000086e:	8d 78 6f             	lea    edi,[eax+0x6f]
10000871:	8d 04 fd 00 00 00 00 	lea    eax,[edi*8+0x0]
10000878:	e9 1f fc ff ff       	jmp    1000049c <_malloc_r+0xd8>
1000087d:	8d 76 00             	lea    esi,[esi+0x0]
10000880:	83 c6 08             	add    esi,0x8
10000883:	ff 44 24 04          	inc    DWORD PTR [esp+0x4]
10000887:	8b 44 24 04          	mov    eax,DWORD PTR [esp+0x4]
1000088b:	a8 03                	test   al,0x3
1000088d:	0f 85 0b fd ff ff    	jne    1000059e <_malloc_r+0x1da>
10000893:	8b 44 24 08          	mov    eax,DWORD PTR [esp+0x8]
10000897:	eb 0d                	jmp    100008a6 <_malloc_r+0x4e2>
10000899:	4f                   	dec    edi
1000089a:	83 e8 08             	sub    eax,0x8
1000089d:	39 40 08             	cmp    DWORD PTR [eax+0x8],eax
100008a0:	0f 85 b2 02 00 00    	jne    10000b58 <_malloc_r+0x794>
100008a6:	f7 c7 03 00 00 00    	test   edi,0x3
100008ac:	75 eb                	jne    10000899 <_malloc_r+0x4d5>
100008ae:	89 c8                	mov    eax,ecx
100008b0:	f7 d0                	not    eax
100008b2:	23 05 a4 e4 00 10    	and    eax,DWORD PTR ds:0x1000e4a4
100008b8:	a3 a4 e4 00 10       	mov    ds:0x1000e4a4,eax
100008bd:	01 c9                	add    ecx,ecx
100008bf:	39 c1                	cmp    ecx,eax
100008c1:	0f 87 9d fd ff ff    	ja     10000664 <_malloc_r+0x2a0>
100008c7:	85 c9                	test   ecx,ecx
100008c9:	0f 84 95 fd ff ff    	je     10000664 <_malloc_r+0x2a0>
100008cf:	85 c1                	test   ecx,eax
100008d1:	75 11                	jne    100008e4 <_malloc_r+0x520>
100008d3:	8b 54 24 04          	mov    edx,DWORD PTR [esp+0x4]
100008d7:	83 c2 04             	add    edx,0x4
100008da:	01 c9                	add    ecx,ecx
100008dc:	85 c1                	test   ecx,eax
100008de:	74 f7                	je     100008d7 <_malloc_r+0x513>
100008e0:	89 54 24 04          	mov    DWORD PTR [esp+0x4],edx
100008e4:	8b 7c 24 04          	mov    edi,DWORD PTR [esp+0x4]
100008e8:	e9 a0 fc ff ff       	jmp    1000058d <_malloc_r+0x1c9>
100008ed:	8d 76 00             	lea    esi,[esi+0x0]
100008f0:	83 4c 03 04 01       	or     DWORD PTR [ebx+eax*1+0x4],0x1
100008f5:	8b 43 0c             	mov    eax,DWORD PTR [ebx+0xc]
100008f8:	8b 53 08             	mov    edx,DWORD PTR [ebx+0x8]
100008fb:	89 42 0c             	mov    DWORD PTR [edx+0xc],eax
100008fe:	89 50 08             	mov    DWORD PTR [eax+0x8],edx
10000901:	e9 28 fb ff ff       	jmp    1000042e <_malloc_r+0x6a>
10000906:	66 90                	xchg   ax,ax
10000908:	89 ea                	mov    edx,ebp
1000090a:	c1 ea 03             	shr    edx,0x3
1000090d:	8d 04 d5 08 00 00 00 	lea    eax,[edx*8+0x8]
10000914:	e9 e5 fa ff ff       	jmp    100003fe <_malloc_r+0x3a>
10000919:	8d 76 00             	lea    esi,[esi+0x0]
1000091c:	83 4c 13 04 01       	or     DWORD PTR [ebx+edx*1+0x4],0x1
10000921:	e9 08 fb ff ff       	jmp    1000042e <_malloc_r+0x6a>
10000926:	66 90                	xchg   ax,ax
10000928:	8d 0c 2b             	lea    ecx,[ebx+ebp*1]
1000092b:	89 ee                	mov    esi,ebp
1000092d:	83 ce 01             	or     esi,0x1
10000930:	89 73 04             	mov    DWORD PTR [ebx+0x4],esi
10000933:	89 0d b4 e4 00 10    	mov    DWORD PTR ds:0x1000e4b4,ecx
10000939:	89 0d b0 e4 00 10    	mov    DWORD PTR ds:0x1000e4b0,ecx
1000093f:	c7 41 0c a8 e4 00 10 	mov    DWORD PTR [ecx+0xc],0x1000e4a8
10000946:	c7 41 08 a8 e4 00 10 	mov    DWORD PTR [ecx+0x8],0x1000e4a8
1000094d:	89 c6                	mov    esi,eax
1000094f:	83 ce 01             	or     esi,0x1
10000952:	89 71 04             	mov    DWORD PTR [ecx+0x4],esi
10000955:	89 04 13             	mov    DWORD PTR [ebx+edx*1],eax
10000958:	e9 d1 fa ff ff       	jmp    1000042e <_malloc_r+0x6a>
1000095d:	8d 76 00             	lea    esi,[esi+0x0]
10000960:	89 d0                	mov    eax,edx
10000962:	c1 e8 06             	shr    eax,0x6
10000965:	8d 48 38             	lea    ecx,[eax+0x38]
10000968:	8d 04 c5 c8 01 00 00 	lea    eax,[eax*8+0x1c8]
1000096f:	e9 9f fe ff ff       	jmp    10000813 <_malloc_r+0x44f>
10000974:	81 fb a0 e4 00 10    	cmp    ebx,0x1000e4a0
1000097a:	0f 84 dc 00 00 00    	je     10000a5c <_malloc_r+0x698>
10000980:	8b 1d a8 e4 00 10    	mov    ebx,DWORD PTR ds:0x1000e4a8
10000986:	8b 7b 04             	mov    edi,DWORD PTR [ebx+0x4]
10000989:	83 e7 fc             	and    edi,0xfffffffc
1000098c:	89 f8                	mov    eax,edi
1000098e:	29 e8                	sub    eax,ebp
10000990:	39 ef                	cmp    edi,ebp
10000992:	72 09                	jb     1000099d <_malloc_r+0x5d9>
10000994:	83 f8 0f             	cmp    eax,0xf
10000997:	0f 8f 3b fe ff ff    	jg     100007d8 <_malloc_r+0x414>
1000099d:	83 ec 0c             	sub    esp,0xc
100009a0:	ff 74 24 3c          	push   DWORD PTR [esp+0x3c]
100009a4:	e8 47 02 00 00       	call   10000bf0 <__malloc_unlock>
100009a9:	83 c4 10             	add    esp,0x10
100009ac:	31 c0                	xor    eax,eax
100009ae:	e9 69 fc ff ff       	jmp    1000061c <_malloc_r+0x258>
100009b3:	90                   	nop
100009b4:	8d 70 5b             	lea    esi,[eax+0x5b]
100009b7:	8d 78 5c             	lea    edi,[eax+0x5c]
100009ba:	8d 04 fd 00 00 00 00 	lea    eax,[edi*8+0x0]
100009c1:	e9 d6 fa ff ff       	jmp    1000049c <_malloc_r+0xd8>
100009c6:	83 c7 10             	add    edi,0x10
100009c9:	e9 dd fc ff ff       	jmp    100006ab <_malloc_r+0x2e7>
100009ce:	c1 f9 02             	sar    ecx,0x2
100009d1:	ba 01 00 00 00       	mov    edx,0x1
100009d6:	d3 e2                	shl    edx,cl
100009d8:	0b 15 a4 e4 00 10    	or     edx,DWORD PTR ds:0x1000e4a4
100009de:	89 15 a4 e4 00 10    	mov    DWORD PTR ds:0x1000e4a4,edx
100009e4:	e9 59 fe ff ff       	jmp    10000842 <_malloc_r+0x47e>
100009e9:	8d 04 3a             	lea    eax,[edx+edi*1]
100009ec:	89 54 24 08          	mov    DWORD PTR [esp+0x8],edx
100009f0:	f7 d8                	neg    eax
100009f2:	25 ff 0f 00 00       	and    eax,0xfff
100009f7:	89 c6                	mov    esi,eax
100009f9:	83 ec 08             	sub    esp,0x8
100009fc:	50                   	push   eax
100009fd:	ff 74 24 3c          	push   DWORD PTR [esp+0x3c]
10000a01:	e8 0a 03 00 00       	call   10000d10 <_sbrk_r>
10000a06:	83 c4 10             	add    esp,0x10
10000a09:	83 f8 ff             	cmp    eax,0xffffffff
10000a0c:	8b 54 24 08          	mov    edx,DWORD PTR [esp+0x8]
10000a10:	0f 85 33 fd ff ff    	jne    10000749 <_malloc_r+0x385>
10000a16:	31 f6                	xor    esi,esi
10000a18:	e9 31 fd ff ff       	jmp    1000074e <_malloc_r+0x38a>
10000a1d:	83 f8 54             	cmp    eax,0x54
10000a20:	0f 87 88 00 00 00    	ja     10000aae <_malloc_r+0x6ea>
10000a26:	89 d0                	mov    eax,edx
10000a28:	c1 e8 0c             	shr    eax,0xc
10000a2b:	8d 48 6e             	lea    ecx,[eax+0x6e]
10000a2e:	8d 04 c5 78 03 00 00 	lea    eax,[eax*8+0x378]
10000a35:	e9 d9 fd ff ff       	jmp    10000813 <_malloc_r+0x44f>
10000a3a:	3d 54 01 00 00       	cmp    eax,0x154
10000a3f:	0f 87 84 00 00 00    	ja     10000ac9 <_malloc_r+0x705>
10000a45:	89 e8                	mov    eax,ebp
10000a47:	c1 e8 0f             	shr    eax,0xf
10000a4a:	8d 70 77             	lea    esi,[eax+0x77]
10000a4d:	8d 78 78             	lea    edi,[eax+0x78]
10000a50:	8d 04 fd 00 00 00 00 	lea    eax,[edi*8+0x0]
10000a57:	e9 40 fa ff ff       	jmp    1000049c <_malloc_r+0xd8>
10000a5c:	8b 0d 40 f2 00 10    	mov    ecx,DWORD PTR ds:0x1000f240
10000a62:	01 f9                	add    ecx,edi
10000a64:	89 0d 40 f2 00 10    	mov    DWORD PTR ds:0x1000f240,ecx
10000a6a:	e9 75 fc ff ff       	jmp    100006e4 <_malloc_r+0x320>
10000a6f:	f7 c6 ff 0f 00 00    	test   esi,0xfff
10000a75:	0f 85 69 fc ff ff    	jne    100006e4 <_malloc_r+0x320>
10000a7b:	8b 1d a8 e4 00 10    	mov    ebx,DWORD PTR ds:0x1000e4a8
10000a81:	03 7c 24 04          	add    edi,DWORD PTR [esp+0x4]
10000a85:	83 cf 01             	or     edi,0x1
10000a88:	89 7b 04             	mov    DWORD PTR [ebx+0x4],edi
10000a8b:	e9 22 fd ff ff       	jmp    100007b2 <_malloc_r+0x3ee>
10000a90:	89 15 80 e4 00 10    	mov    DWORD PTR ds:0x1000e480,edx
10000a96:	e9 61 fc ff ff       	jmp    100006fc <_malloc_r+0x338>
10000a9b:	89 d3                	mov    ebx,edx
10000a9d:	e9 10 fd ff ff       	jmp    100007b2 <_malloc_r+0x3ee>
10000aa2:	c7 42 04 01 00 00 00 	mov    DWORD PTR [edx+0x4],0x1
10000aa9:	e9 ef fe ff ff       	jmp    1000099d <_malloc_r+0x5d9>
10000aae:	3d 54 01 00 00       	cmp    eax,0x154
10000ab3:	77 65                	ja     10000b1a <_malloc_r+0x756>
10000ab5:	89 d0                	mov    eax,edx
10000ab7:	c1 e8 0f             	shr    eax,0xf
10000aba:	8d 48 77             	lea    ecx,[eax+0x77]
10000abd:	8d 04 c5 c0 03 00 00 	lea    eax,[eax*8+0x3c0]
10000ac4:	e9 4a fd ff ff       	jmp    10000813 <_malloc_r+0x44f>
10000ac9:	3d 54 05 00 00       	cmp    eax,0x554
10000ace:	77 65                	ja     10000b35 <_malloc_r+0x771>
10000ad0:	89 e8                	mov    eax,ebp
10000ad2:	c1 e8 12             	shr    eax,0x12
10000ad5:	8d 70 7c             	lea    esi,[eax+0x7c]
10000ad8:	8d 78 7d             	lea    edi,[eax+0x7d]
10000adb:	8d 04 fd 00 00 00 00 	lea    eax,[edi*8+0x0]
10000ae2:	e9 b5 f9 ff ff       	jmp    1000049c <_malloc_r+0xd8>
10000ae7:	8d 7c 0f f8          	lea    edi,[edi+ecx*1-0x8]
10000aeb:	29 d7                	sub    edi,edx
10000aed:	31 f6                	xor    esi,esi
10000aef:	e9 5a fc ff ff       	jmp    1000074e <_malloc_r+0x38a>
10000af4:	83 ec 08             	sub    esp,0x8
10000af7:	83 c3 08             	add    ebx,0x8
10000afa:	53                   	push   ebx
10000afb:	ff 74 24 3c          	push   DWORD PTR [esp+0x3c]
10000aff:	e8 3c 4d 00 00       	call   10005840 <_free_r>
10000b04:	a1 40 f2 00 10       	mov    eax,ds:0x1000f240
10000b09:	8b 1d a8 e4 00 10    	mov    ebx,DWORD PTR ds:0x1000e4a8
10000b0f:	8b 7b 04             	mov    edi,DWORD PTR [ebx+0x4]
10000b12:	83 c4 10             	add    esp,0x10
10000b15:	e9 98 fc ff ff       	jmp    100007b2 <_malloc_r+0x3ee>
10000b1a:	3d 54 05 00 00       	cmp    eax,0x554
10000b1f:	77 28                	ja     10000b49 <_malloc_r+0x785>
10000b21:	89 d0                	mov    eax,edx
10000b23:	c1 e8 12             	shr    eax,0x12
10000b26:	8d 48 7c             	lea    ecx,[eax+0x7c]
10000b29:	8d 04 c5 e8 03 00 00 	lea    eax,[eax*8+0x3e8]
10000b30:	e9 de fc ff ff       	jmp    10000813 <_malloc_r+0x44f>
10000b35:	b8 f8 03 00 00       	mov    eax,0x3f8
10000b3a:	bf 7f 00 00 00       	mov    edi,0x7f
10000b3f:	be 7e 00 00 00       	mov    esi,0x7e
10000b44:	e9 53 f9 ff ff       	jmp    1000049c <_malloc_r+0xd8>
10000b49:	b8 f8 03 00 00       	mov    eax,0x3f8
10000b4e:	b9 7e 00 00 00       	mov    ecx,0x7e
10000b53:	e9 bb fc ff ff       	jmp    10000813 <_malloc_r+0x44f>
10000b58:	a1 a4 e4 00 10       	mov    eax,ds:0x1000e4a4
10000b5d:	e9 5b fd ff ff       	jmp    100008bd <_malloc_r+0x4f9>

10000b62 <memset>:
10000b62:	55                   	push   ebp
10000b63:	89 e5                	mov    ebp,esp
10000b65:	57                   	push   edi
10000b66:	8b 7d 08             	mov    edi,DWORD PTR [ebp+0x8]
10000b69:	0f b6 45 0c          	movzx  eax,BYTE PTR [ebp+0xc]
10000b6d:	8b 4d 10             	mov    ecx,DWORD PTR [ebp+0x10]
10000b70:	fc                   	cld    
10000b71:	83 f9 10             	cmp    ecx,0x10
10000b74:	76 69                	jbe    10000bdf <memset+0x7d>
10000b76:	f7 c7 07 00 00 00    	test   edi,0x7
10000b7c:	74 4c                	je     10000bca <memset+0x68>
10000b7e:	88 07                	mov    BYTE PTR [edi],al
10000b80:	47                   	inc    edi
10000b81:	49                   	dec    ecx
10000b82:	f7 c7 07 00 00 00    	test   edi,0x7
10000b88:	74 40                	je     10000bca <memset+0x68>
10000b8a:	88 07                	mov    BYTE PTR [edi],al
10000b8c:	47                   	inc    edi
10000b8d:	49                   	dec    ecx
10000b8e:	f7 c7 07 00 00 00    	test   edi,0x7
10000b94:	74 34                	je     10000bca <memset+0x68>
10000b96:	88 07                	mov    BYTE PTR [edi],al
10000b98:	47                   	inc    edi
10000b99:	49                   	dec    ecx
10000b9a:	f7 c7 07 00 00 00    	test   edi,0x7
10000ba0:	74 28                	je     10000bca <memset+0x68>
10000ba2:	88 07                	mov    BYTE PTR [edi],al
10000ba4:	47                   	inc    edi
10000ba5:	49                   	dec    ecx
10000ba6:	f7 c7 07 00 00 00    	test   edi,0x7
10000bac:	74 1c                	je     10000bca <memset+0x68>
10000bae:	88 07                	mov    BYTE PTR [edi],al
10000bb0:	47                   	inc    edi
10000bb1:	49                   	dec    ecx
10000bb2:	f7 c7 07 00 00 00    	test   edi,0x7
10000bb8:	74 10                	je     10000bca <memset+0x68>
10000bba:	88 07                	mov    BYTE PTR [edi],al
10000bbc:	47                   	inc    edi
10000bbd:	49                   	dec    ecx
10000bbe:	f7 c7 07 00 00 00    	test   edi,0x7
10000bc4:	74 04                	je     10000bca <memset+0x68>
10000bc6:	88 07                	mov    BYTE PTR [edi],al
10000bc8:	47                   	inc    edi
10000bc9:	49                   	dec    ecx
10000bca:	88 c4                	mov    ah,al
10000bcc:	89 c2                	mov    edx,eax
10000bce:	c1 e2 10             	shl    edx,0x10
10000bd1:	09 d0                	or     eax,edx
10000bd3:	89 ca                	mov    edx,ecx
10000bd5:	c1 e9 02             	shr    ecx,0x2
10000bd8:	83 e2 03             	and    edx,0x3
10000bdb:	f3 ab                	rep stos DWORD PTR es:[edi],eax
10000bdd:	89 d1                	mov    ecx,edx
10000bdf:	f3 aa                	rep stos BYTE PTR es:[edi],al
10000be1:	8b 45 08             	mov    eax,DWORD PTR [ebp+0x8]
10000be4:	8d 65 fc             	lea    esp,[ebp-0x4]
10000be7:	5f                   	pop    edi
10000be8:	c9                   	leave  
10000be9:	c3                   	ret    
10000bea:	66 90                	xchg   ax,ax

10000bec <__malloc_lock>:
10000bec:	c3                   	ret    
10000bed:	8d 76 00             	lea    esi,[esi+0x0]

10000bf0 <__malloc_unlock>:
10000bf0:	c3                   	ret    
10000bf1:	66 90                	xchg   ax,ax
10000bf3:	90                   	nop

10000bf4 <_printf_r>:
10000bf4:	83 ec 0c             	sub    esp,0xc
10000bf7:	8b 44 24 10          	mov    eax,DWORD PTR [esp+0x10]
10000bfb:	8d 54 24 18          	lea    edx,[esp+0x18]
10000bff:	52                   	push   edx
10000c00:	ff 74 24 18          	push   DWORD PTR [esp+0x18]
10000c04:	ff 70 08             	push   DWORD PTR [eax+0x8]
10000c07:	50                   	push   eax
10000c08:	e8 1f 02 00 00       	call   10000e2c <_vfprintf_r>
10000c0d:	83 c4 1c             	add    esp,0x1c
10000c10:	c3                   	ret    
10000c11:	8d 76 00             	lea    esi,[esi+0x0]

10000c14 <printf>:
10000c14:	83 ec 0c             	sub    esp,0xc
10000c17:	a1 20 e0 00 10       	mov    eax,ds:0x1000e020
10000c1c:	8d 54 24 14          	lea    edx,[esp+0x14]
10000c20:	52                   	push   edx
10000c21:	ff 74 24 14          	push   DWORD PTR [esp+0x14]
10000c25:	ff 70 08             	push   DWORD PTR [eax+0x8]
10000c28:	50                   	push   eax
10000c29:	e8 fe 01 00 00       	call   10000e2c <_vfprintf_r>
10000c2e:	83 c4 1c             	add    esp,0x1c
10000c31:	c3                   	ret    
10000c32:	66 90                	xchg   ax,ax

10000c34 <_putchar_r>:
10000c34:	83 ec 10             	sub    esp,0x10
10000c37:	8b 44 24 14          	mov    eax,DWORD PTR [esp+0x14]
10000c3b:	ff 70 08             	push   DWORD PTR [eax+0x8]
10000c3e:	ff 74 24 1c          	push   DWORD PTR [esp+0x1c]
10000c42:	50                   	push   eax
10000c43:	e8 48 64 00 00       	call   10007090 <_putc_r>
10000c48:	83 c4 1c             	add    esp,0x1c
10000c4b:	c3                   	ret    

10000c4c <putchar>:
10000c4c:	83 ec 10             	sub    esp,0x10
10000c4f:	a1 20 e0 00 10       	mov    eax,ds:0x1000e020
10000c54:	ff 70 08             	push   DWORD PTR [eax+0x8]
10000c57:	ff 74 24 18          	push   DWORD PTR [esp+0x18]
10000c5b:	50                   	push   eax
10000c5c:	e8 2f 64 00 00       	call   10007090 <_putc_r>
10000c61:	83 c4 1c             	add    esp,0x1c
10000c64:	c3                   	ret    
10000c65:	66 90                	xchg   ax,ax
10000c67:	90                   	nop

10000c68 <_puts_r>:
10000c68:	56                   	push   esi
10000c69:	53                   	push   ebx
10000c6a:	83 ec 30             	sub    esp,0x30
10000c6d:	8b 74 24 3c          	mov    esi,DWORD PTR [esp+0x3c]
10000c71:	8b 5c 24 40          	mov    ebx,DWORD PTR [esp+0x40]
10000c75:	53                   	push   ebx
10000c76:	e8 35 01 00 00       	call   10000db0 <strlen>
10000c7b:	89 5c 24 20          	mov    DWORD PTR [esp+0x20],ebx
10000c7f:	89 44 24 24          	mov    DWORD PTR [esp+0x24],eax
10000c83:	c7 44 24 28 c0 93 00 10 	mov    DWORD PTR [esp+0x28],0x100093c0
10000c8b:	c7 44 24 2c 01 00 00 00 	mov    DWORD PTR [esp+0x2c],0x1
10000c93:	40                   	inc    eax
10000c94:	89 44 24 1c          	mov    DWORD PTR [esp+0x1c],eax
10000c98:	8d 44 24 20          	lea    eax,[esp+0x20]
10000c9c:	89 44 24 14          	mov    DWORD PTR [esp+0x14],eax
10000ca0:	c7 44 24 18 02 00 00 00 	mov    DWORD PTR [esp+0x18],0x2
10000ca8:	8b 5e 08             	mov    ebx,DWORD PTR [esi+0x8]
10000cab:	83 c4 10             	add    esp,0x10
10000cae:	8b 56 38             	mov    edx,DWORD PTR [esi+0x38]
10000cb1:	85 d2                	test   edx,edx
10000cb3:	74 33                	je     10000ce8 <_puts_r+0x80>
10000cb5:	8b 43 0c             	mov    eax,DWORD PTR [ebx+0xc]
10000cb8:	f6 c4 20             	test   ah,0x20
10000cbb:	75 0e                	jne    10000ccb <_puts_r+0x63>
10000cbd:	80 cc 20             	or     ah,0x20
10000cc0:	66 89 43 0c          	mov    WORD PTR [ebx+0xc],ax
10000cc4:	81 63 64 ff df ff ff 	and    DWORD PTR [ebx+0x64],0xffffdfff
10000ccb:	50                   	push   eax
10000ccc:	8d 44 24 08          	lea    eax,[esp+0x8]
10000cd0:	50                   	push   eax
10000cd1:	53                   	push   ebx
10000cd2:	56                   	push   esi
10000cd3:	e8 38 4e 00 00       	call   10005b10 <__sfvwrite_r>
10000cd8:	83 f8 01             	cmp    eax,0x1
10000cdb:	19 c0                	sbb    eax,eax
10000cdd:	83 e0 0b             	and    eax,0xb
10000ce0:	48                   	dec    eax
10000ce1:	83 c4 34             	add    esp,0x34
10000ce4:	5b                   	pop    ebx
10000ce5:	5e                   	pop    esi
10000ce6:	c3                   	ret    
10000ce7:	90                   	nop
10000ce8:	83 ec 0c             	sub    esp,0xc
10000ceb:	56                   	push   esi
10000cec:	e8 27 4a 00 00       	call   10005718 <__sinit>
10000cf1:	83 c4 10             	add    esp,0x10
10000cf4:	eb bf                	jmp    10000cb5 <_puts_r+0x4d>
10000cf6:	66 90                	xchg   ax,ax

10000cf8 <puts>:
10000cf8:	83 ec 14             	sub    esp,0x14
10000cfb:	ff 74 24 18          	push   DWORD PTR [esp+0x18]
10000cff:	ff 35 20 e0 00 10    	push   DWORD PTR ds:0x1000e020
10000d05:	e8 5e ff ff ff       	call   10000c68 <_puts_r>
10000d0a:	83 c4 1c             	add    esp,0x1c
10000d0d:	c3                   	ret    
10000d0e:	66 90                	xchg   ax,ax

10000d10 <_sbrk_r>:
10000d10:	83 ec 18             	sub    esp,0x18
10000d13:	c7 05 10 f2 00 10 00 00 00 00 	mov    DWORD PTR ds:0x1000f210,0x0
10000d1d:	ff 74 24 20          	push   DWORD PTR [esp+0x20]
10000d21:	e8 20 29 00 00       	call   10003646 <sbrk>
10000d26:	83 c4 10             	add    esp,0x10
10000d29:	83 f8 ff             	cmp    eax,0xffffffff
10000d2c:	74 06                	je     10000d34 <_sbrk_r+0x24>
10000d2e:	83 c4 0c             	add    esp,0xc
10000d31:	c3                   	ret    
10000d32:	66 90                	xchg   ax,ax
10000d34:	8b 15 10 f2 00 10    	mov    edx,DWORD PTR ds:0x1000f210
10000d3a:	85 d2                	test   edx,edx
10000d3c:	74 f0                	je     10000d2e <_sbrk_r+0x1e>
10000d3e:	8b 4c 24 10          	mov    ecx,DWORD PTR [esp+0x10]
10000d42:	89 11                	mov    DWORD PTR [ecx],edx
10000d44:	83 c4 0c             	add    esp,0xc
10000d47:	c3                   	ret    

10000d48 <strcmp>:
10000d48:	53                   	push   ebx
10000d49:	8b 44 24 08          	mov    eax,DWORD PTR [esp+0x8]
10000d4d:	8b 54 24 0c          	mov    edx,DWORD PTR [esp+0xc]
10000d51:	89 c1                	mov    ecx,eax
10000d53:	09 d1                	or     ecx,edx
10000d55:	83 e1 03             	and    ecx,0x3
10000d58:	75 06                	jne    10000d60 <strcmp+0x18>
10000d5a:	8b 08                	mov    ecx,DWORD PTR [eax]
10000d5c:	39 0a                	cmp    DWORD PTR [edx],ecx
10000d5e:	74 30                	je     10000d90 <strcmp+0x48>
10000d60:	8a 08                	mov    cl,BYTE PTR [eax]
10000d62:	84 c9                	test   cl,cl
10000d64:	74 12                	je     10000d78 <strcmp+0x30>
10000d66:	38 0a                	cmp    BYTE PTR [edx],cl
10000d68:	74 06                	je     10000d70 <strcmp+0x28>
10000d6a:	eb 3c                	jmp    10000da8 <strcmp+0x60>
10000d6c:	3a 0a                	cmp    cl,BYTE PTR [edx]
10000d6e:	75 38                	jne    10000da8 <strcmp+0x60>
10000d70:	40                   	inc    eax
10000d71:	42                   	inc    edx
10000d72:	8a 08                	mov    cl,BYTE PTR [eax]
10000d74:	84 c9                	test   cl,cl
10000d76:	75 f4                	jne    10000d6c <strcmp+0x24>
10000d78:	31 c0                	xor    eax,eax
10000d7a:	0f b6 12             	movzx  edx,BYTE PTR [edx]
10000d7d:	29 d0                	sub    eax,edx
10000d7f:	5b                   	pop    ebx
10000d80:	c3                   	ret    
10000d81:	8d 76 00             	lea    esi,[esi+0x0]
10000d84:	83 c0 04             	add    eax,0x4
10000d87:	83 c2 04             	add    edx,0x4
10000d8a:	8b 08                	mov    ecx,DWORD PTR [eax]
10000d8c:	3b 0a                	cmp    ecx,DWORD PTR [edx]
10000d8e:	75 d0                	jne    10000d60 <strcmp+0x18>
10000d90:	8d 99 ff fe fe fe    	lea    ebx,[ecx-0x1010101]
10000d96:	f7 d1                	not    ecx
10000d98:	21 d9                	and    ecx,ebx
10000d9a:	81 e1 80 80 80 80    	and    ecx,0x80808080
10000da0:	74 e2                	je     10000d84 <strcmp+0x3c>
10000da2:	31 c0                	xor    eax,eax
10000da4:	5b                   	pop    ebx
10000da5:	c3                   	ret    
10000da6:	66 90                	xchg   ax,ax
10000da8:	0f b6 c1             	movzx  eax,cl
10000dab:	eb cd                	jmp    10000d7a <strcmp+0x32>
10000dad:	66 90                	xchg   ax,ax
10000daf:	90                   	nop

10000db0 <strlen>:
10000db0:	55                   	push   ebp
10000db1:	89 e5                	mov    ebp,esp
10000db3:	57                   	push   edi
10000db4:	8b 55 08             	mov    edx,DWORD PTR [ebp+0x8]
10000db7:	89 d7                	mov    edi,edx
10000db9:	f7 c7 03 00 00 00    	test   edi,0x3
10000dbf:	74 25                	je     10000de6 <L5>
10000dc1:	8a 0f                	mov    cl,BYTE PTR [edi]
10000dc3:	47                   	inc    edi
10000dc4:	84 c9                	test   cl,cl
10000dc6:	74 56                	je     10000e1e <L15>
10000dc8:	f7 c7 03 00 00 00    	test   edi,0x3
10000dce:	74 16                	je     10000de6 <L5>
10000dd0:	8a 0f                	mov    cl,BYTE PTR [edi]
10000dd2:	47                   	inc    edi
10000dd3:	84 c9                	test   cl,cl
10000dd5:	74 47                	je     10000e1e <L15>
10000dd7:	f7 c7 03 00 00 00    	test   edi,0x3
10000ddd:	74 07                	je     10000de6 <L5>
10000ddf:	8a 0f                	mov    cl,BYTE PTR [edi]
10000de1:	47                   	inc    edi
10000de2:	84 c9                	test   cl,cl
10000de4:	74 38                	je     10000e1e <L15>

10000de6 <L5>:
10000de6:	83 ef 04             	sub    edi,0x4
10000de9:	8d b4 26 00 00 00 00 	lea    esi,[esi+eiz*1+0x0]

10000df0 <L10>:
10000df0:	83 c7 04             	add    edi,0x4
10000df3:	8b 0f                	mov    ecx,DWORD PTR [edi]
10000df5:	8d 81 ff fe fe fe    	lea    eax,[ecx-0x1010101]
10000dfb:	f7 d1                	not    ecx
10000dfd:	21 c8                	and    eax,ecx
10000dff:	a9 80 80 80 80       	test   eax,0x80808080
10000e04:	74 ea                	je     10000df0 <L10>
10000e06:	f7 d1                	not    ecx
10000e08:	47                   	inc    edi
10000e09:	84 c9                	test   cl,cl
10000e0b:	74 11                	je     10000e1e <L15>
10000e0d:	47                   	inc    edi
10000e0e:	c1 e9 08             	shr    ecx,0x8
10000e11:	84 c9                	test   cl,cl
10000e13:	74 09                	je     10000e1e <L15>
10000e15:	47                   	inc    edi
10000e16:	c1 e9 08             	shr    ecx,0x8
10000e19:	84 c9                	test   cl,cl
10000e1b:	74 01                	je     10000e1e <L15>
10000e1d:	47                   	inc    edi

10000e1e <L15>:
10000e1e:	29 d7                	sub    edi,edx
10000e20:	8d 47 ff             	lea    eax,[edi-0x1]
10000e23:	8d 65 fc             	lea    esp,[ebp-0x4]
10000e26:	5f                   	pop    edi
10000e27:	c9                   	leave  
10000e28:	c3                   	ret    
10000e29:	66 90                	xchg   ax,ax
10000e2b:	90                   	nop

10000e2c <_vfprintf_r>:
10000e2c:	55                   	push   ebp
10000e2d:	57                   	push   edi
10000e2e:	56                   	push   esi
10000e2f:	53                   	push   ebx
10000e30:	81 ec 08 01 00 00    	sub    esp,0x108
10000e36:	ff b4 24 1c 01 00 00 	push   DWORD PTR [esp+0x11c]
10000e3d:	e8 ce 51 00 00       	call   10006010 <_localeconv_r>
10000e42:	8b 00                	mov    eax,DWORD PTR [eax]
10000e44:	89 44 24 58          	mov    DWORD PTR [esp+0x58],eax
10000e48:	89 04 24             	mov    DWORD PTR [esp],eax
10000e4b:	e8 60 ff ff ff       	call   10000db0 <strlen>
10000e50:	89 44 24 50          	mov    DWORD PTR [esp+0x50],eax
10000e54:	83 c4 10             	add    esp,0x10
10000e57:	8b 9c 24 10 01 00 00 	mov    ebx,DWORD PTR [esp+0x110]
10000e5e:	85 db                	test   ebx,ebx
10000e60:	74 12                	je     10000e74 <_vfprintf_r+0x48>
10000e62:	8b 84 24 10 01 00 00 	mov    eax,DWORD PTR [esp+0x110]
10000e69:	8b 48 38             	mov    ecx,DWORD PTR [eax+0x38]
10000e6c:	85 c9                	test   ecx,ecx
10000e6e:	0f 84 2f 0a 00 00    	je     100018a3 <_vfprintf_r+0xa77>
10000e74:	8b 84 24 14 01 00 00 	mov    eax,DWORD PTR [esp+0x114]
10000e7b:	8b 40 0c             	mov    eax,DWORD PTR [eax+0xc]
10000e7e:	f6 c4 20             	test   ah,0x20
10000e81:	75 15                	jne    10000e98 <_vfprintf_r+0x6c>
10000e83:	80 cc 20             	or     ah,0x20
10000e86:	8b 8c 24 14 01 00 00 	mov    ecx,DWORD PTR [esp+0x114]
10000e8d:	66 89 41 0c          	mov    WORD PTR [ecx+0xc],ax
10000e91:	81 61 64 ff df ff ff 	and    DWORD PTR [ecx+0x64],0xffffdfff
10000e98:	a8 08                	test   al,0x8
10000e9a:	0f 84 34 01 00 00    	je     10000fd4 <_vfprintf_r+0x1a8>
10000ea0:	8b 8c 24 14 01 00 00 	mov    ecx,DWORD PTR [esp+0x114]
10000ea7:	8b 51 10             	mov    edx,DWORD PTR [ecx+0x10]
10000eaa:	85 d2                	test   edx,edx
10000eac:	0f 84 22 01 00 00    	je     10000fd4 <_vfprintf_r+0x1a8>
10000eb2:	83 e0 1a             	and    eax,0x1a
10000eb5:	66 83 f8 0a          	cmp    ax,0xa
10000eb9:	0f 84 4d 01 00 00    	je     1000100c <_vfprintf_r+0x1e0>
10000ebf:	8d 84 24 b0 00 00 00 	lea    eax,[esp+0xb0]
10000ec6:	89 44 24 7c          	mov    DWORD PTR [esp+0x7c],eax
10000eca:	c7 84 24 84 00 00 00 00 00 00 00 	mov    DWORD PTR [esp+0x84],0x0
10000ed5:	c7 84 24 80 00 00 00 00 00 00 00 	mov    DWORD PTR [esp+0x80],0x0
10000ee0:	c7 44 24 34 00 00 00 00 	mov    DWORD PTR [esp+0x34],0x0
10000ee8:	d9 ee                	fldz   
10000eea:	dd 5c 24 38          	fstp   QWORD PTR [esp+0x38]
10000eee:	89 c5                	mov    ebp,eax
10000ef0:	c7 44 24 44 00 00 00 00 	mov    DWORD PTR [esp+0x44],0x0
10000ef8:	c7 44 24 4c 00 00 00 00 	mov    DWORD PTR [esp+0x4c],0x0
10000f00:	c7 44 24 24 00 00 00 00 	mov    DWORD PTR [esp+0x24],0x0
10000f08:	8b 84 24 18 01 00 00 	mov    eax,DWORD PTR [esp+0x118]
10000f0f:	8a 00                	mov    al,BYTE PTR [eax]
10000f11:	84 c0                	test   al,al
10000f13:	0f 84 7a 01 00 00    	je     10001093 <_vfprintf_r+0x267>
10000f19:	3c 25                	cmp    al,0x25
10000f1b:	0f 84 08 14 00 00    	je     10002329 <_vfprintf_r+0x14fd>
10000f21:	8b 9c 24 18 01 00 00 	mov    ebx,DWORD PTR [esp+0x118]
10000f28:	eb 0c                	jmp    10000f36 <_vfprintf_r+0x10a>
10000f2a:	66 90                	xchg   ax,ax
10000f2c:	3c 25                	cmp    al,0x25
10000f2e:	0f 84 1c 01 00 00    	je     10001050 <_vfprintf_r+0x224>
10000f34:	89 f3                	mov    ebx,esi
10000f36:	8d 73 01             	lea    esi,[ebx+0x1]
10000f39:	8a 43 01             	mov    al,BYTE PTR [ebx+0x1]
10000f3c:	84 c0                	test   al,al
10000f3e:	75 ec                	jne    10000f2c <_vfprintf_r+0x100>
10000f40:	89 f7                	mov    edi,esi
10000f42:	2b bc 24 18 01 00 00 	sub    edi,DWORD PTR [esp+0x118]
10000f49:	0f 84 44 01 00 00    	je     10001093 <_vfprintf_r+0x267>
10000f4f:	8b 84 24 18 01 00 00 	mov    eax,DWORD PTR [esp+0x118]
10000f56:	89 45 00             	mov    DWORD PTR [ebp+0x0],eax
10000f59:	89 7d 04             	mov    DWORD PTR [ebp+0x4],edi
10000f5c:	01 bc 24 84 00 00 00 	add    DWORD PTR [esp+0x84],edi
10000f63:	8b 84 24 80 00 00 00 	mov    eax,DWORD PTR [esp+0x80]
10000f6a:	40                   	inc    eax
10000f6b:	89 84 24 80 00 00 00 	mov    DWORD PTR [esp+0x80],eax
10000f72:	83 f8 07             	cmp    eax,0x7
10000f75:	0f 8f e9 00 00 00    	jg     10001064 <_vfprintf_r+0x238>
10000f7b:	83 c5 08             	add    ebp,0x8
10000f7e:	01 7c 24 24          	add    DWORD PTR [esp+0x24],edi
10000f82:	80 7b 01 00          	cmp    BYTE PTR [ebx+0x1],0x0
10000f86:	0f 84 07 01 00 00    	je     10001093 <_vfprintf_r+0x267>
10000f8c:	8d 46 01             	lea    eax,[esi+0x1]
10000f8f:	c6 44 24 61 00       	mov    BYTE PTR [esp+0x61],0x0
10000f94:	31 d2                	xor    edx,edx
10000f96:	31 c9                	xor    ecx,ecx
10000f98:	be ff ff ff ff       	mov    esi,0xffffffff
10000f9d:	c7 44 24 1c 00 00 00 00 	mov    DWORD PTR [esp+0x1c],0x0
10000fa5:	c7 44 24 18 00 00 00 00 	mov    DWORD PTR [esp+0x18],0x0
10000fad:	8d 58 01             	lea    ebx,[eax+0x1]
10000fb0:	0f be 38             	movsx  edi,BYTE PTR [eax]
10000fb3:	8d 47 e0             	lea    eax,[edi-0x20]
10000fb6:	83 f8 58             	cmp    eax,0x58
10000fb9:	0f 87 95 01 00 00    	ja     10001154 <_vfprintf_r+0x328>
10000fbf:	ff 24 85 28 ca 00 10 	jmp    DWORD PTR [eax*4+0x1000ca28]
10000fc6:	66 90                	xchg   ax,ax
10000fc8:	83 4c 24 18 10       	or     DWORD PTR [esp+0x18],0x10
10000fcd:	89 d8                	mov    eax,ebx
10000fcf:	eb dc                	jmp    10000fad <_vfprintf_r+0x181>
10000fd1:	8d 76 00             	lea    esi,[esi+0x0]
10000fd4:	83 ec 08             	sub    esp,0x8
10000fd7:	ff b4 24 1c 01 00 00 	push   DWORD PTR [esp+0x11c]
10000fde:	ff b4 24 1c 01 00 00 	push   DWORD PTR [esp+0x11c]
10000fe5:	e8 7a 20 00 00       	call   10003064 <__swsetup_r>
10000fea:	83 c4 10             	add    esp,0x10
10000fed:	85 c0                	test   eax,eax
10000fef:	0f 85 95 1e 00 00    	jne    10002e8a <_vfprintf_r+0x205e>
10000ff5:	8b 84 24 14 01 00 00 	mov    eax,DWORD PTR [esp+0x114]
10000ffc:	8b 40 0c             	mov    eax,DWORD PTR [eax+0xc]
10000fff:	83 e0 1a             	and    eax,0x1a
10001002:	66 83 f8 0a          	cmp    ax,0xa
10001006:	0f 85 b3 fe ff ff    	jne    10000ebf <_vfprintf_r+0x93>
1000100c:	8b 84 24 14 01 00 00 	mov    eax,DWORD PTR [esp+0x114]
10001013:	66 83 78 0e 00       	cmp    WORD PTR [eax+0xe],0x0
10001018:	0f 88 a1 fe ff ff    	js     10000ebf <_vfprintf_r+0x93>
1000101e:	83 ec 0c             	sub    esp,0xc
10001021:	ff b4 24 28 01 00 00 	push   DWORD PTR [esp+0x128]
10001028:	8b 8c 24 28 01 00 00 	mov    ecx,DWORD PTR [esp+0x128]
1000102f:	8b 94 24 24 01 00 00 	mov    edx,DWORD PTR [esp+0x124]
10001036:	8b 84 24 20 01 00 00 	mov    eax,DWORD PTR [esp+0x120]
1000103d:	e8 7a 1f 00 00       	call   10002fbc <__sbprintf>
10001042:	89 44 24 34          	mov    DWORD PTR [esp+0x34],eax
10001046:	83 c4 10             	add    esp,0x10
10001049:	e9 83 00 00 00       	jmp    100010d1 <_vfprintf_r+0x2a5>
1000104e:	66 90                	xchg   ax,ax
10001050:	89 f7                	mov    edi,esi
10001052:	2b bc 24 18 01 00 00 	sub    edi,DWORD PTR [esp+0x118]
10001059:	0f 84 2d ff ff ff    	je     10000f8c <_vfprintf_r+0x160>
1000105f:	e9 eb fe ff ff       	jmp    10000f4f <_vfprintf_r+0x123>
10001064:	55                   	push   ebp
10001065:	8d 84 24 80 00 00 00 	lea    eax,[esp+0x80]
1000106c:	50                   	push   eax
1000106d:	ff b4 24 1c 01 00 00 	push   DWORD PTR [esp+0x11c]
10001074:	ff b4 24 1c 01 00 00 	push   DWORD PTR [esp+0x11c]
1000107b:	e8 0c 69 00 00       	call   1000798c <__sprint_r>
10001080:	83 c4 10             	add    esp,0x10
10001083:	85 c0                	test   eax,eax
10001085:	75 39                	jne    100010c0 <_vfprintf_r+0x294>
10001087:	8d ac 24 b0 00 00 00 	lea    ebp,[esp+0xb0]
1000108e:	e9 eb fe ff ff       	jmp    10000f7e <_vfprintf_r+0x152>
10001093:	8b 94 24 84 00 00 00 	mov    edx,DWORD PTR [esp+0x84]
1000109a:	85 d2                	test   edx,edx
1000109c:	74 22                	je     100010c0 <_vfprintf_r+0x294>
1000109e:	50                   	push   eax
1000109f:	8d 84 24 80 00 00 00 	lea    eax,[esp+0x80]
100010a6:	50                   	push   eax
100010a7:	ff b4 24 1c 01 00 00 	push   DWORD PTR [esp+0x11c]
100010ae:	ff b4 24 1c 01 00 00 	push   DWORD PTR [esp+0x11c]
100010b5:	e8 d2 68 00 00       	call   1000798c <__sprint_r>
100010ba:	83 c4 10             	add    esp,0x10
100010bd:	8d 76 00             	lea    esi,[esi+0x0]
100010c0:	8b 84 24 14 01 00 00 	mov    eax,DWORD PTR [esp+0x114]
100010c7:	f6 40 0c 40          	test   BYTE PTR [eax+0xc],0x40
100010cb:	0f 85 b9 1d 00 00    	jne    10002e8a <_vfprintf_r+0x205e>
100010d1:	8b 44 24 24          	mov    eax,DWORD PTR [esp+0x24]
100010d5:	81 c4 fc 00 00 00    	add    esp,0xfc
100010db:	5b                   	pop    ebx
100010dc:	5e                   	pop    esi
100010dd:	5f                   	pop    edi
100010de:	5d                   	pop    ebp
100010df:	c3                   	ret    
100010e0:	8b 84 24 1c 01 00 00 	mov    eax,DWORD PTR [esp+0x11c]
100010e7:	83 c0 04             	add    eax,0x4
100010ea:	8b bc 24 1c 01 00 00 	mov    edi,DWORD PTR [esp+0x11c]
100010f1:	8b 3f                	mov    edi,DWORD PTR [edi]
100010f3:	89 7c 24 1c          	mov    DWORD PTR [esp+0x1c],edi
100010f7:	85 ff                	test   edi,edi
100010f9:	0f 89 54 12 00 00    	jns    10002353 <_vfprintf_r+0x1527>
100010ff:	f7 df                	neg    edi
10001101:	89 7c 24 1c          	mov    DWORD PTR [esp+0x1c],edi
10001105:	89 84 24 1c 01 00 00 	mov    DWORD PTR [esp+0x11c],eax
1000110c:	83 4c 24 18 04       	or     DWORD PTR [esp+0x18],0x4
10001111:	89 d8                	mov    eax,ebx
10001113:	e9 95 fe ff ff       	jmp    10000fad <_vfprintf_r+0x181>
10001118:	b2 01                	mov    dl,0x1
1000111a:	b1 2b                	mov    cl,0x2b
1000111c:	89 d8                	mov    eax,ebx
1000111e:	e9 8a fe ff ff       	jmp    10000fad <_vfprintf_r+0x181>
10001123:	8d 47 d0             	lea    eax,[edi-0x30]
10001126:	89 74 24 0c          	mov    DWORD PTR [esp+0xc],esi
1000112a:	31 f6                	xor    esi,esi
1000112c:	8d 34 b6             	lea    esi,[esi+esi*4]
1000112f:	01 f6                	add    esi,esi
10001131:	01 c6                	add    esi,eax
10001133:	43                   	inc    ebx
10001134:	0f be 7b ff          	movsx  edi,BYTE PTR [ebx-0x1]
10001138:	8d 47 d0             	lea    eax,[edi-0x30]
1000113b:	83 f8 09             	cmp    eax,0x9
1000113e:	76 ec                	jbe    1000112c <_vfprintf_r+0x300>
10001140:	89 74 24 1c          	mov    DWORD PTR [esp+0x1c],esi
10001144:	8b 74 24 0c          	mov    esi,DWORD PTR [esp+0xc]
10001148:	8d 47 e0             	lea    eax,[edi-0x20]
1000114b:	83 f8 58             	cmp    eax,0x58
1000114e:	0f 86 6b fe ff ff    	jbe    10000fbf <_vfprintf_r+0x193>
10001154:	89 9c 24 18 01 00 00 	mov    DWORD PTR [esp+0x118],ebx
1000115b:	84 d2                	test   dl,dl
1000115d:	0f 85 8c 1c 00 00    	jne    10002def <_vfprintf_r+0x1fc3>
10001163:	85 ff                	test   edi,edi
10001165:	0f 84 28 ff ff ff    	je     10001093 <_vfprintf_r+0x267>
1000116b:	89 f8                	mov    eax,edi
1000116d:	88 84 24 88 00 00 00 	mov    BYTE PTR [esp+0x88],al
10001174:	c6 44 24 61 00       	mov    BYTE PTR [esp+0x61],0x0
10001179:	c7 44 24 10 01 00 00 00 	mov    DWORD PTR [esp+0x10],0x1
10001181:	c7 44 24 20 01 00 00 00 	mov    DWORD PTR [esp+0x20],0x1
10001189:	8d 84 24 88 00 00 00 	lea    eax,[esp+0x88]
10001190:	89 44 24 28          	mov    DWORD PTR [esp+0x28],eax
10001194:	e9 bd 04 00 00       	jmp    10001656 <_vfprintf_r+0x82a>
10001199:	83 4c 24 18 01       	or     DWORD PTR [esp+0x18],0x1
1000119e:	89 d8                	mov    eax,ebx
100011a0:	e9 08 fe ff ff       	jmp    10000fad <_vfprintf_r+0x181>
100011a5:	84 c9                	test   cl,cl
100011a7:	0f 85 20 fe ff ff    	jne    10000fcd <_vfprintf_r+0x1a1>
100011ad:	b2 01                	mov    dl,0x1
100011af:	b1 20                	mov    cl,0x20
100011b1:	89 d8                	mov    eax,ebx
100011b3:	e9 f5 fd ff ff       	jmp    10000fad <_vfprintf_r+0x181>
100011b8:	89 9c 24 18 01 00 00 	mov    DWORD PTR [esp+0x118],ebx
100011bf:	84 d2                	test   dl,dl
100011c1:	0f 85 d6 1b 00 00    	jne    10002d9d <_vfprintf_r+0x1f71>
100011c7:	8b 84 24 1c 01 00 00 	mov    eax,DWORD PTR [esp+0x11c]
100011ce:	8b 08                	mov    ecx,DWORD PTR [eax]
100011d0:	83 c0 04             	add    eax,0x4
100011d3:	f6 44 24 18 10       	test   BYTE PTR [esp+0x18],0x10
100011d8:	0f 85 42 03 00 00    	jne    10001520 <_vfprintf_r+0x6f4>
100011de:	f6 44 24 18 40       	test   BYTE PTR [esp+0x18],0x40
100011e3:	0f 84 c1 11 00 00    	je     100023aa <_vfprintf_r+0x157e>
100011e9:	0f b7 c9             	movzx  ecx,cx
100011ec:	89 84 24 1c 01 00 00 	mov    DWORD PTR [esp+0x11c],eax
100011f3:	b8 01 00 00 00       	mov    eax,0x1
100011f8:	e9 bb 01 00 00       	jmp    100013b8 <_vfprintf_r+0x58c>
100011fd:	89 9c 24 18 01 00 00 	mov    DWORD PTR [esp+0x118],ebx
10001204:	8b 84 24 1c 01 00 00 	mov    eax,DWORD PTR [esp+0x11c]
1000120b:	8d 50 04             	lea    edx,[eax+0x4]
1000120e:	8b 00                	mov    eax,DWORD PTR [eax]
10001210:	89 44 24 28          	mov    DWORD PTR [esp+0x28],eax
10001214:	c6 44 24 61 00       	mov    BYTE PTR [esp+0x61],0x0
10001219:	85 c0                	test   eax,eax
1000121b:	0f 84 59 12 00 00    	je     1000247a <_vfprintf_r+0x164e>
10001221:	89 54 24 0c          	mov    DWORD PTR [esp+0xc],edx
10001225:	83 fe ff             	cmp    esi,0xffffffff
10001228:	0f 84 13 13 00 00    	je     10002541 <_vfprintf_r+0x1715>
1000122e:	51                   	push   ecx
1000122f:	56                   	push   esi
10001230:	6a 00                	push   0x0
10001232:	ff 74 24 34          	push   DWORD PTR [esp+0x34]
10001236:	e8 35 4f 00 00       	call   10006170 <memchr>
1000123b:	83 c4 10             	add    esp,0x10
1000123e:	85 c0                	test   eax,eax
10001240:	8b 54 24 0c          	mov    edx,DWORD PTR [esp+0xc]
10001244:	0f 84 29 1b 00 00    	je     10002d73 <_vfprintf_r+0x1f47>
1000124a:	2b 44 24 28          	sub    eax,DWORD PTR [esp+0x28]
1000124e:	89 44 24 20          	mov    DWORD PTR [esp+0x20],eax
10001252:	8a 5c 24 61          	mov    bl,BYTE PTR [esp+0x61]
10001256:	89 44 24 10          	mov    DWORD PTR [esp+0x10],eax
1000125a:	0f 88 08 13 00 00    	js     10002568 <_vfprintf_r+0x173c>
10001260:	89 94 24 1c 01 00 00 	mov    DWORD PTR [esp+0x11c],edx
10001267:	8b 44 24 18          	mov    eax,DWORD PTR [esp+0x18]
1000126b:	89 44 24 0c          	mov    DWORD PTR [esp+0xc],eax
1000126f:	31 f6                	xor    esi,esi
10001271:	c7 44 24 30 00 00 00 00 	mov    DWORD PTR [esp+0x30],0x0
10001279:	e9 a6 00 00 00       	jmp    10001324 <_vfprintf_r+0x4f8>
1000127e:	89 9c 24 18 01 00 00 	mov    DWORD PTR [esp+0x118],ebx
10001285:	84 d2                	test   dl,dl
10001287:	0f 85 8f 1b 00 00    	jne    10002e1c <_vfprintf_r+0x1ff0>
1000128d:	83 4c 24 18 10       	or     DWORD PTR [esp+0x18],0x10
10001292:	8b 84 24 1c 01 00 00 	mov    eax,DWORD PTR [esp+0x11c]
10001299:	83 c0 04             	add    eax,0x4
1000129c:	8b 8c 24 1c 01 00 00 	mov    ecx,DWORD PTR [esp+0x11c]
100012a3:	8b 11                	mov    edx,DWORD PTR [ecx]
100012a5:	89 d1                	mov    ecx,edx
100012a7:	89 84 24 1c 01 00 00 	mov    DWORD PTR [esp+0x11c],eax
100012ae:	85 d2                	test   edx,edx
100012b0:	0f 88 dc 02 00 00    	js     10001592 <_vfprintf_r+0x766>
100012b6:	8a 5c 24 61          	mov    bl,BYTE PTR [esp+0x61]
100012ba:	83 fe ff             	cmp    esi,0xffffffff
100012bd:	74 1d                	je     100012dc <_vfprintf_r+0x4b0>
100012bf:	8b 44 24 18          	mov    eax,DWORD PTR [esp+0x18]
100012c3:	24 7f                	and    al,0x7f
100012c5:	89 44 24 0c          	mov    DWORD PTR [esp+0xc],eax
100012c9:	85 c9                	test   ecx,ecx
100012cb:	0f 84 04 0f 00 00    	je     100021d5 <_vfprintf_r+0x13a9>
100012d1:	8b 44 24 0c          	mov    eax,DWORD PTR [esp+0xc]
100012d5:	89 44 24 18          	mov    DWORD PTR [esp+0x18],eax
100012d9:	8d 76 00             	lea    esi,[esi+0x0]
100012dc:	83 f9 09             	cmp    ecx,0x9
100012df:	0f 87 59 15 00 00    	ja     1000283e <_vfprintf_r+0x1a12>
100012e5:	83 c1 30             	add    ecx,0x30
100012e8:	88 8c 24 af 00 00 00 	mov    BYTE PTR [esp+0xaf],cl
100012ef:	8b 44 24 18          	mov    eax,DWORD PTR [esp+0x18]
100012f3:	89 44 24 0c          	mov    DWORD PTR [esp+0xc],eax
100012f7:	c7 44 24 20 01 00 00 00 	mov    DWORD PTR [esp+0x20],0x1
100012ff:	8d 84 24 af 00 00 00 	lea    eax,[esp+0xaf]
10001306:	89 44 24 28          	mov    DWORD PTR [esp+0x28],eax
1000130a:	66 90                	xchg   ax,ax
1000130c:	89 74 24 10          	mov    DWORD PTR [esp+0x10],esi
10001310:	8b 44 24 20          	mov    eax,DWORD PTR [esp+0x20]
10001314:	39 c6                	cmp    esi,eax
10001316:	7d 04                	jge    1000131c <_vfprintf_r+0x4f0>
10001318:	89 44 24 10          	mov    DWORD PTR [esp+0x10],eax
1000131c:	c7 44 24 30 00 00 00 00 	mov    DWORD PTR [esp+0x30],0x0
10001324:	84 db                	test   bl,bl
10001326:	0f 84 3c 03 00 00    	je     10001668 <_vfprintf_r+0x83c>
1000132c:	ff 44 24 10          	inc    DWORD PTR [esp+0x10]
10001330:	e9 33 03 00 00       	jmp    10001668 <_vfprintf_r+0x83c>
10001335:	81 4c 24 18 80 00 00 00 	or     DWORD PTR [esp+0x18],0x80
1000133d:	89 d8                	mov    eax,ebx
1000133f:	e9 69 fc ff ff       	jmp    10000fad <_vfprintf_r+0x181>
10001344:	8d 73 01             	lea    esi,[ebx+0x1]
10001347:	0f be 3b             	movsx  edi,BYTE PTR [ebx]
1000134a:	83 ff 2a             	cmp    edi,0x2a
1000134d:	0f 84 e2 0f 00 00    	je     10002335 <_vfprintf_r+0x1509>
10001353:	8d 47 d0             	lea    eax,[edi-0x30]
10001356:	89 f3                	mov    ebx,esi
10001358:	31 f6                	xor    esi,esi
1000135a:	83 f8 09             	cmp    eax,0x9
1000135d:	0f 87 50 fc ff ff    	ja     10000fb3 <_vfprintf_r+0x187>
10001363:	90                   	nop
10001364:	8d 34 b6             	lea    esi,[esi+esi*4]
10001367:	01 f6                	add    esi,esi
10001369:	01 c6                	add    esi,eax
1000136b:	43                   	inc    ebx
1000136c:	0f be 7b ff          	movsx  edi,BYTE PTR [ebx-0x1]
10001370:	8d 47 d0             	lea    eax,[edi-0x30]
10001373:	83 f8 09             	cmp    eax,0x9
10001376:	76 ec                	jbe    10001364 <_vfprintf_r+0x538>
10001378:	e9 36 fc ff ff       	jmp    10000fb3 <_vfprintf_r+0x187>
1000137d:	89 9c 24 18 01 00 00 	mov    DWORD PTR [esp+0x118],ebx
10001384:	8b 84 24 1c 01 00 00 	mov    eax,DWORD PTR [esp+0x11c]
1000138b:	8b 08                	mov    ecx,DWORD PTR [eax]
1000138d:	83 4c 24 18 02       	or     DWORD PTR [esp+0x18],0x2
10001392:	66 c7 44 24 62 30 78 	mov    WORD PTR [esp+0x62],0x7830
10001399:	83 c0 04             	add    eax,0x4
1000139c:	89 84 24 1c 01 00 00 	mov    DWORD PTR [esp+0x11c],eax
100013a3:	c7 44 24 44 0d ca 00 10 	mov    DWORD PTR [esp+0x44],0x1000ca0d
100013ab:	b8 02 00 00 00       	mov    eax,0x2
100013b0:	bf 78 00 00 00       	mov    edi,0x78
100013b5:	8d 76 00             	lea    esi,[esi+0x0]
100013b8:	c6 44 24 61 00       	mov    BYTE PTR [esp+0x61],0x0
100013bd:	31 db                	xor    ebx,ebx
100013bf:	83 fe ff             	cmp    esi,0xffffffff
100013c2:	0f 84 e4 01 00 00    	je     100015ac <_vfprintf_r+0x780>
100013c8:	8b 54 24 18          	mov    edx,DWORD PTR [esp+0x18]
100013cc:	80 e2 7f             	and    dl,0x7f
100013cf:	89 54 24 0c          	mov    DWORD PTR [esp+0xc],edx
100013d3:	85 c9                	test   ecx,ecx
100013d5:	0f 85 e9 09 00 00    	jne    10001dc4 <_vfprintf_r+0xf98>
100013db:	85 f6                	test   esi,esi
100013dd:	0f 85 0f 0c 00 00    	jne    10001ff2 <_vfprintf_r+0x11c6>
100013e3:	85 c0                	test   eax,eax
100013e5:	0f 85 f2 0d 00 00    	jne    100021dd <_vfprintf_r+0x13b1>
100013eb:	8b 44 24 18          	mov    eax,DWORD PTR [esp+0x18]
100013ef:	83 e0 01             	and    eax,0x1
100013f2:	89 44 24 20          	mov    DWORD PTR [esp+0x20],eax
100013f6:	0f 84 65 0f 00 00    	je     10002361 <_vfprintf_r+0x1535>
100013fc:	c6 84 24 af 00 00 00 30 	mov    BYTE PTR [esp+0xaf],0x30
10001404:	8d 84 24 af 00 00 00 	lea    eax,[esp+0xaf]
1000140b:	89 44 24 28          	mov    DWORD PTR [esp+0x28],eax
1000140f:	e9 f8 fe ff ff       	jmp    1000130c <_vfprintf_r+0x4e0>
10001414:	89 9c 24 18 01 00 00 	mov    DWORD PTR [esp+0x118],ebx
1000141b:	84 d2                	test   dl,dl
1000141d:	0f 85 d5 19 00 00    	jne    10002df8 <_vfprintf_r+0x1fcc>
10001423:	8b 84 24 1c 01 00 00 	mov    eax,DWORD PTR [esp+0x11c]
1000142a:	8b 08                	mov    ecx,DWORD PTR [eax]
1000142c:	83 c0 04             	add    eax,0x4
1000142f:	f6 44 24 18 10       	test   BYTE PTR [esp+0x18],0x10
10001434:	0f 85 52 04 00 00    	jne    1000188c <_vfprintf_r+0xa60>
1000143a:	f6 44 24 18 40       	test   BYTE PTR [esp+0x18],0x40
1000143f:	0f 84 57 0f 00 00    	je     1000239c <_vfprintf_r+0x1570>
10001445:	0f b7 c9             	movzx  ecx,cx
10001448:	89 84 24 1c 01 00 00 	mov    DWORD PTR [esp+0x11c],eax
1000144f:	31 c0                	xor    eax,eax
10001451:	e9 62 ff ff ff       	jmp    100013b8 <_vfprintf_r+0x58c>
10001456:	89 9c 24 18 01 00 00 	mov    DWORD PTR [esp+0x118],ebx
1000145d:	84 d2                	test   dl,dl
1000145f:	0f 85 78 19 00 00    	jne    10002ddd <_vfprintf_r+0x1fb1>
10001465:	8b 84 24 1c 01 00 00 	mov    eax,DWORD PTR [esp+0x11c]
1000146c:	83 c0 04             	add    eax,0x4
1000146f:	f6 44 24 18 10       	test   BYTE PTR [esp+0x18],0x10
10001474:	0f 85 4c 04 00 00    	jne    100018c6 <_vfprintf_r+0xa9a>
1000147a:	f6 44 24 18 40       	test   BYTE PTR [esp+0x18],0x40
1000147f:	0f 84 41 04 00 00    	je     100018c6 <_vfprintf_r+0xa9a>
10001485:	8b 8c 24 1c 01 00 00 	mov    ecx,DWORD PTR [esp+0x11c]
1000148c:	8b 11                	mov    edx,DWORD PTR [ecx]
1000148e:	8b 4c 24 24          	mov    ecx,DWORD PTR [esp+0x24]
10001492:	66 89 0a             	mov    WORD PTR [edx],cx
10001495:	89 84 24 1c 01 00 00 	mov    DWORD PTR [esp+0x11c],eax
1000149c:	e9 67 fa ff ff       	jmp    10000f08 <_vfprintf_r+0xdc>
100014a1:	89 9c 24 18 01 00 00 	mov    DWORD PTR [esp+0x118],ebx
100014a8:	84 d2                	test   dl,dl
100014aa:	0f 85 5a 19 00 00    	jne    10002e0a <_vfprintf_r+0x1fde>
100014b0:	c7 44 24 44 0d ca 00 10 	mov    DWORD PTR [esp+0x44],0x1000ca0d
100014b8:	8b 84 24 1c 01 00 00 	mov    eax,DWORD PTR [esp+0x11c]
100014bf:	8b 08                	mov    ecx,DWORD PTR [eax]
100014c1:	83 84 24 1c 01 00 00 04 	add    DWORD PTR [esp+0x11c],0x4
100014c9:	8b 44 24 18          	mov    eax,DWORD PTR [esp+0x18]
100014cd:	a8 10                	test   al,0x10
100014cf:	75 08                	jne    100014d9 <_vfprintf_r+0x6ad>
100014d1:	a8 40                	test   al,0x40
100014d3:	0f 85 bb 0e 00 00    	jne    10002394 <_vfprintf_r+0x1568>
100014d9:	8b 5c 24 18          	mov    ebx,DWORD PTR [esp+0x18]
100014dd:	f6 c3 01             	test   bl,0x1
100014e0:	0f 84 d6 03 00 00    	je     100018bc <_vfprintf_r+0xa90>
100014e6:	85 c9                	test   ecx,ecx
100014e8:	0f 84 ce 03 00 00    	je     100018bc <_vfprintf_r+0xa90>
100014ee:	c6 44 24 62 30       	mov    BYTE PTR [esp+0x62],0x30
100014f3:	89 f8                	mov    eax,edi
100014f5:	88 44 24 63          	mov    BYTE PTR [esp+0x63],al
100014f9:	83 cb 02             	or     ebx,0x2
100014fc:	89 5c 24 18          	mov    DWORD PTR [esp+0x18],ebx
10001500:	b8 02 00 00 00       	mov    eax,0x2
10001505:	e9 ae fe ff ff       	jmp    100013b8 <_vfprintf_r+0x58c>
1000150a:	89 9c 24 18 01 00 00 	mov    DWORD PTR [esp+0x118],ebx
10001511:	83 4c 24 18 10       	or     DWORD PTR [esp+0x18],0x10
10001516:	8b 84 24 1c 01 00 00 	mov    eax,DWORD PTR [esp+0x11c]
1000151d:	83 c0 04             	add    eax,0x4
10001520:	8b 8c 24 1c 01 00 00 	mov    ecx,DWORD PTR [esp+0x11c]
10001527:	8b 09                	mov    ecx,DWORD PTR [ecx]
10001529:	89 84 24 1c 01 00 00 	mov    DWORD PTR [esp+0x11c],eax
10001530:	b8 01 00 00 00       	mov    eax,0x1
10001535:	e9 7e fe ff ff       	jmp    100013b8 <_vfprintf_r+0x58c>
1000153a:	83 4c 24 18 40       	or     DWORD PTR [esp+0x18],0x40
1000153f:	89 d8                	mov    eax,ebx
10001541:	e9 67 fa ff ff       	jmp    10000fad <_vfprintf_r+0x181>
10001546:	89 9c 24 18 01 00 00 	mov    DWORD PTR [esp+0x118],ebx
1000154d:	84 d2                	test   dl,dl
1000154f:	0f 85 be 18 00 00    	jne    10002e13 <_vfprintf_r+0x1fe7>
10001555:	8b 84 24 1c 01 00 00 	mov    eax,DWORD PTR [esp+0x11c]
1000155c:	83 c0 04             	add    eax,0x4
1000155f:	f6 44 24 18 10       	test   BYTE PTR [esp+0x18],0x10
10001564:	0f 85 32 fd ff ff    	jne    1000129c <_vfprintf_r+0x470>
1000156a:	8b 8c 24 1c 01 00 00 	mov    ecx,DWORD PTR [esp+0x11c]
10001571:	8b 09                	mov    ecx,DWORD PTR [ecx]
10001573:	f6 44 24 18 40       	test   BYTE PTR [esp+0x18],0x40
10001578:	0f 84 08 0e 00 00    	je     10002386 <_vfprintf_r+0x155a>
1000157e:	0f bf c9             	movsx  ecx,cx
10001581:	89 ca                	mov    edx,ecx
10001583:	89 84 24 1c 01 00 00 	mov    DWORD PTR [esp+0x11c],eax
1000158a:	85 d2                	test   edx,edx
1000158c:	0f 89 24 fd ff ff    	jns    100012b6 <_vfprintf_r+0x48a>
10001592:	f7 d9                	neg    ecx
10001594:	c6 44 24 61 2d       	mov    BYTE PTR [esp+0x61],0x2d
10001599:	b3 2d                	mov    bl,0x2d
1000159b:	b8 01 00 00 00       	mov    eax,0x1
100015a0:	83 fe ff             	cmp    esi,0xffffffff
100015a3:	0f 85 1f fe ff ff    	jne    100013c8 <_vfprintf_r+0x59c>
100015a9:	8d 76 00             	lea    esi,[esi+0x0]
100015ac:	83 f8 01             	cmp    eax,0x1
100015af:	0f 84 27 fd ff ff    	je     100012dc <_vfprintf_r+0x4b0>
100015b5:	83 f8 02             	cmp    eax,0x2
100015b8:	0f 84 4e 0a 00 00    	je     1000200c <_vfprintf_r+0x11e0>
100015be:	8d 94 24 b0 00 00 00 	lea    edx,[esp+0xb0]
100015c5:	89 7c 24 0c          	mov    DWORD PTR [esp+0xc],edi
100015c9:	eb 03                	jmp    100015ce <_vfprintf_r+0x7a2>
100015cb:	90                   	nop
100015cc:	89 fa                	mov    edx,edi
100015ce:	8d 7a ff             	lea    edi,[edx-0x1]
100015d1:	88 c8                	mov    al,cl
100015d3:	83 e0 07             	and    eax,0x7
100015d6:	83 c0 30             	add    eax,0x30
100015d9:	88 42 ff             	mov    BYTE PTR [edx-0x1],al
100015dc:	c1 e9 03             	shr    ecx,0x3
100015df:	75 eb                	jne    100015cc <_vfprintf_r+0x7a0>
100015e1:	89 7c 24 28          	mov    DWORD PTR [esp+0x28],edi
100015e5:	8b 7c 24 0c          	mov    edi,DWORD PTR [esp+0xc]
100015e9:	8b 4c 24 18          	mov    ecx,DWORD PTR [esp+0x18]
100015ed:	f6 c1 01             	test   cl,0x1
100015f0:	0f 85 02 0d 00 00    	jne    100022f8 <_vfprintf_r+0x14cc>
100015f6:	8d 94 24 b0 00 00 00 	lea    edx,[esp+0xb0]
100015fd:	2b 54 24 28          	sub    edx,DWORD PTR [esp+0x28]
10001601:	89 54 24 20          	mov    DWORD PTR [esp+0x20],edx
10001605:	89 4c 24 0c          	mov    DWORD PTR [esp+0xc],ecx
10001609:	e9 fe fc ff ff       	jmp    1000130c <_vfprintf_r+0x4e0>
1000160e:	89 9c 24 18 01 00 00 	mov    DWORD PTR [esp+0x118],ebx
10001615:	8b 84 24 1c 01 00 00 	mov    eax,DWORD PTR [esp+0x11c]
1000161c:	8b 00                	mov    eax,DWORD PTR [eax]
1000161e:	88 84 24 88 00 00 00 	mov    BYTE PTR [esp+0x88],al
10001625:	c6 44 24 61 00       	mov    BYTE PTR [esp+0x61],0x0
1000162a:	8b 84 24 1c 01 00 00 	mov    eax,DWORD PTR [esp+0x11c]
10001631:	83 c0 04             	add    eax,0x4
10001634:	89 84 24 1c 01 00 00 	mov    DWORD PTR [esp+0x11c],eax
1000163b:	c7 44 24 10 01 00 00 00 	mov    DWORD PTR [esp+0x10],0x1
10001643:	c7 44 24 20 01 00 00 00 	mov    DWORD PTR [esp+0x20],0x1
1000164b:	8d 84 24 88 00 00 00 	lea    eax,[esp+0x88]
10001652:	89 44 24 28          	mov    DWORD PTR [esp+0x28],eax
10001656:	8b 44 24 18          	mov    eax,DWORD PTR [esp+0x18]
1000165a:	89 44 24 0c          	mov    DWORD PTR [esp+0xc],eax
1000165e:	31 f6                	xor    esi,esi
10001660:	c7 44 24 30 00 00 00 00 	mov    DWORD PTR [esp+0x30],0x0
10001668:	8b 44 24 0c          	mov    eax,DWORD PTR [esp+0xc]
1000166c:	83 e0 02             	and    eax,0x2
1000166f:	89 44 24 18          	mov    DWORD PTR [esp+0x18],eax
10001673:	74 05                	je     1000167a <_vfprintf_r+0x84e>
10001675:	83 44 24 10 02       	add    DWORD PTR [esp+0x10],0x2
1000167a:	8b 94 24 84 00 00 00 	mov    edx,DWORD PTR [esp+0x84]
10001681:	8b 44 24 0c          	mov    eax,DWORD PTR [esp+0xc]
10001685:	25 84 00 00 00       	and    eax,0x84
1000168a:	89 44 24 2c          	mov    DWORD PTR [esp+0x2c],eax
1000168e:	75 10                	jne    100016a0 <_vfprintf_r+0x874>
10001690:	8b 5c 24 1c          	mov    ebx,DWORD PTR [esp+0x1c]
10001694:	2b 5c 24 10          	sub    ebx,DWORD PTR [esp+0x10]
10001698:	85 db                	test   ebx,ebx
1000169a:	0f 8f 34 07 00 00    	jg     10001dd4 <_vfprintf_r+0xfa8>
100016a0:	80 7c 24 61 00       	cmp    BYTE PTR [esp+0x61],0x0
100016a5:	74 31                	je     100016d8 <_vfprintf_r+0x8ac>
100016a7:	8d 44 24 61          	lea    eax,[esp+0x61]
100016ab:	89 45 00             	mov    DWORD PTR [ebp+0x0],eax
100016ae:	c7 45 04 01 00 00 00 	mov    DWORD PTR [ebp+0x4],0x1
100016b5:	42                   	inc    edx
100016b6:	89 94 24 84 00 00 00 	mov    DWORD PTR [esp+0x84],edx
100016bd:	8b 84 24 80 00 00 00 	mov    eax,DWORD PTR [esp+0x80]
100016c4:	40                   	inc    eax
100016c5:	89 84 24 80 00 00 00 	mov    DWORD PTR [esp+0x80],eax
100016cc:	83 f8 07             	cmp    eax,0x7
100016cf:	0f 8f cb 07 00 00    	jg     10001ea0 <_vfprintf_r+0x1074>
100016d5:	83 c5 08             	add    ebp,0x8
100016d8:	8b 44 24 18          	mov    eax,DWORD PTR [esp+0x18]
100016dc:	85 c0                	test   eax,eax
100016de:	74 33                	je     10001713 <_vfprintf_r+0x8e7>
100016e0:	8d 44 24 62          	lea    eax,[esp+0x62]
100016e4:	89 45 00             	mov    DWORD PTR [ebp+0x0],eax
100016e7:	c7 45 04 02 00 00 00 	mov    DWORD PTR [ebp+0x4],0x2
100016ee:	83 c2 02             	add    edx,0x2
100016f1:	89 94 24 84 00 00 00 	mov    DWORD PTR [esp+0x84],edx
100016f8:	8b 84 24 80 00 00 00 	mov    eax,DWORD PTR [esp+0x80]
100016ff:	40                   	inc    eax
10001700:	89 84 24 80 00 00 00 	mov    DWORD PTR [esp+0x80],eax
10001707:	83 f8 07             	cmp    eax,0x7
1000170a:	0f 8f cc 07 00 00    	jg     10001edc <_vfprintf_r+0x10b0>
10001710:	83 c5 08             	add    ebp,0x8
10001713:	81 7c 24 2c 80 00 00 00 	cmp    DWORD PTR [esp+0x2c],0x80
1000171b:	0f 84 ff 02 00 00    	je     10001a20 <_vfprintf_r+0xbf4>
10001721:	2b 74 24 20          	sub    esi,DWORD PTR [esp+0x20]
10001725:	85 f6                	test   esi,esi
10001727:	0f 8f d7 03 00 00    	jg     10001b04 <_vfprintf_r+0xcd8>
1000172d:	f7 44 24 0c 00 01 00 00 	test   DWORD PTR [esp+0xc],0x100
10001735:	0f 85 a9 01 00 00    	jne    100018e4 <_vfprintf_r+0xab8>
1000173b:	8b 44 24 28          	mov    eax,DWORD PTR [esp+0x28]
1000173f:	89 45 00             	mov    DWORD PTR [ebp+0x0],eax
10001742:	8b 44 24 20          	mov    eax,DWORD PTR [esp+0x20]
10001746:	89 45 04             	mov    DWORD PTR [ebp+0x4],eax
10001749:	01 c2                	add    edx,eax
1000174b:	89 94 24 84 00 00 00 	mov    DWORD PTR [esp+0x84],edx
10001752:	8b 84 24 80 00 00 00 	mov    eax,DWORD PTR [esp+0x80]
10001759:	40                   	inc    eax
1000175a:	89 84 24 80 00 00 00 	mov    DWORD PTR [esp+0x80],eax
10001761:	83 f8 07             	cmp    eax,0x7
10001764:	0f 8f 2a 05 00 00    	jg     10001c94 <_vfprintf_r+0xe68>
1000176a:	83 c5 08             	add    ebp,0x8
1000176d:	f6 44 24 0c 04       	test   BYTE PTR [esp+0xc],0x4
10001772:	74 10                	je     10001784 <_vfprintf_r+0x958>
10001774:	8b 74 24 1c          	mov    esi,DWORD PTR [esp+0x1c]
10001778:	2b 74 24 10          	sub    esi,DWORD PTR [esp+0x10]
1000177c:	85 f6                	test   esi,esi
1000177e:	0f 8f 94 07 00 00    	jg     10001f18 <_vfprintf_r+0x10ec>
10001784:	8b 44 24 1c          	mov    eax,DWORD PTR [esp+0x1c]
10001788:	8b 4c 24 10          	mov    ecx,DWORD PTR [esp+0x10]
1000178c:	39 c8                	cmp    eax,ecx
1000178e:	7d 02                	jge    10001792 <_vfprintf_r+0x966>
10001790:	89 c8                	mov    eax,ecx
10001792:	01 44 24 24          	add    DWORD PTR [esp+0x24],eax
10001796:	85 d2                	test   edx,edx
10001798:	0f 85 26 04 00 00    	jne    10001bc4 <_vfprintf_r+0xd98>
1000179e:	c7 84 24 80 00 00 00 00 00 00 00 	mov    DWORD PTR [esp+0x80],0x0
100017a9:	8d ac 24 b0 00 00 00 	lea    ebp,[esp+0xb0]
100017b0:	e9 53 f7 ff ff       	jmp    10000f08 <_vfprintf_r+0xdc>
100017b5:	89 9c 24 18 01 00 00 	mov    DWORD PTR [esp+0x118],ebx
100017bc:	84 d2                	test   dl,dl
100017be:	0f 85 22 16 00 00    	jne    10002de6 <_vfprintf_r+0x1fba>
100017c4:	c7 44 24 44 fc c9 00 10 	mov    DWORD PTR [esp+0x44],0x1000c9fc
100017cc:	e9 e7 fc ff ff       	jmp    100014b8 <_vfprintf_r+0x68c>
100017d1:	83 4c 24 18 08       	or     DWORD PTR [esp+0x18],0x8
100017d6:	89 d8                	mov    eax,ebx
100017d8:	e9 d0 f7 ff ff       	jmp    10000fad <_vfprintf_r+0x181>
100017dd:	89 9c 24 18 01 00 00 	mov    DWORD PTR [esp+0x118],ebx
100017e4:	84 d2                	test   dl,dl
100017e6:	0f 85 15 16 00 00    	jne    10002e01 <_vfprintf_r+0x1fd5>
100017ec:	8b 84 24 1c 01 00 00 	mov    eax,DWORD PTR [esp+0x11c]
100017f3:	f6 44 24 18 08       	test   BYTE PTR [esp+0x18],0x8
100017f8:	0f 85 73 0b 00 00    	jne    10002371 <_vfprintf_r+0x1545>
100017fe:	dd 00                	fld    QWORD PTR [eax]
10001800:	dd 5c 24 38          	fstp   QWORD PTR [esp+0x38]
10001804:	83 c0 08             	add    eax,0x8
10001807:	89 84 24 1c 01 00 00 	mov    DWORD PTR [esp+0x11c],eax
1000180e:	dd 05 b0 cb 00 10    	fld    QWORD PTR ds:0x1000cbb0
10001814:	dd 44 24 38          	fld    QWORD PTR [esp+0x38]
10001818:	d9 e1                	fabs   
1000181a:	da e9                	fucompp 
1000181c:	df e0                	fnstsw ax
1000181e:	f6 c4 45             	test   ah,0x45
10001821:	0f 85 17 0e 00 00    	jne    1000263e <_vfprintf_r+0x1812>
10001827:	d9 ee                	fldz   
10001829:	dc 5c 24 38          	fcomp  QWORD PTR [esp+0x38]
1000182d:	df e0                	fnstsw ax
1000182f:	f6 c4 45             	test   ah,0x45
10001832:	0f 84 94 12 00 00    	je     10002acc <_vfprintf_r+0x1ca0>
10001838:	8a 5c 24 61          	mov    bl,BYTE PTR [esp+0x61]
1000183c:	83 ff 47             	cmp    edi,0x47
1000183f:	0f 8e 8d 11 00 00    	jle    100029d2 <_vfprintf_r+0x1ba6>
10001845:	c7 44 24 28 f0 c9 00 10 	mov    DWORD PTR [esp+0x28],0x1000c9f0
1000184d:	8b 44 24 18          	mov    eax,DWORD PTR [esp+0x18]
10001851:	24 7f                	and    al,0x7f
10001853:	89 44 24 0c          	mov    DWORD PTR [esp+0xc],eax
10001857:	c7 44 24 10 03 00 00 00 	mov    DWORD PTR [esp+0x10],0x3
1000185f:	c7 44 24 20 03 00 00 00 	mov    DWORD PTR [esp+0x20],0x3
10001867:	31 f6                	xor    esi,esi
10001869:	c7 44 24 30 00 00 00 00 	mov    DWORD PTR [esp+0x30],0x0
10001871:	e9 ae fa ff ff       	jmp    10001324 <_vfprintf_r+0x4f8>
10001876:	89 9c 24 18 01 00 00 	mov    DWORD PTR [esp+0x118],ebx
1000187d:	83 4c 24 18 10       	or     DWORD PTR [esp+0x18],0x10
10001882:	8b 84 24 1c 01 00 00 	mov    eax,DWORD PTR [esp+0x11c]
10001889:	83 c0 04             	add    eax,0x4
1000188c:	8b 8c 24 1c 01 00 00 	mov    ecx,DWORD PTR [esp+0x11c]
10001893:	8b 09                	mov    ecx,DWORD PTR [ecx]
10001895:	89 84 24 1c 01 00 00 	mov    DWORD PTR [esp+0x11c],eax
1000189c:	31 c0                	xor    eax,eax
1000189e:	e9 15 fb ff ff       	jmp    100013b8 <_vfprintf_r+0x58c>
100018a3:	83 ec 0c             	sub    esp,0xc
100018a6:	ff b4 24 1c 01 00 00 	push   DWORD PTR [esp+0x11c]
100018ad:	e8 66 3e 00 00       	call   10005718 <__sinit>
100018b2:	83 c4 10             	add    esp,0x10
100018b5:	e9 ba f5 ff ff       	jmp    10000e74 <_vfprintf_r+0x48>
100018ba:	66 90                	xchg   ax,ax
100018bc:	b8 02 00 00 00       	mov    eax,0x2
100018c1:	e9 f2 fa ff ff       	jmp    100013b8 <_vfprintf_r+0x58c>
100018c6:	8b 8c 24 1c 01 00 00 	mov    ecx,DWORD PTR [esp+0x11c]
100018cd:	8b 11                	mov    edx,DWORD PTR [ecx]
100018cf:	8b 4c 24 24          	mov    ecx,DWORD PTR [esp+0x24]
100018d3:	89 0a                	mov    DWORD PTR [edx],ecx
100018d5:	89 84 24 1c 01 00 00 	mov    DWORD PTR [esp+0x11c],eax
100018dc:	e9 27 f6 ff ff       	jmp    10000f08 <_vfprintf_r+0xdc>
100018e1:	8d 76 00             	lea    esi,[esi+0x0]
100018e4:	83 ff 65             	cmp    edi,0x65
100018e7:	0f 8e e3 03 00 00    	jle    10001cd0 <_vfprintf_r+0xea4>
100018ed:	d9 ee                	fldz   
100018ef:	dd 44 24 38          	fld    QWORD PTR [esp+0x38]
100018f3:	da e9                	fucompp 
100018f5:	df e0                	fnstsw ax
100018f7:	80 e4 45             	and    ah,0x45
100018fa:	80 f4 40             	xor    ah,0x40
100018fd:	0f 85 4d 07 00 00    	jne    10002050 <_vfprintf_r+0x1224>
10001903:	c7 45 00 25 ca 00 10 	mov    DWORD PTR [ebp+0x0],0x1000ca25
1000190a:	c7 45 04 01 00 00 00 	mov    DWORD PTR [ebp+0x4],0x1
10001911:	42                   	inc    edx
10001912:	89 94 24 84 00 00 00 	mov    DWORD PTR [esp+0x84],edx
10001919:	8b 84 24 80 00 00 00 	mov    eax,DWORD PTR [esp+0x80]
10001920:	40                   	inc    eax
10001921:	89 84 24 80 00 00 00 	mov    DWORD PTR [esp+0x80],eax
10001928:	83 f8 07             	cmp    eax,0x7
1000192b:	0f 8f da 0e 00 00    	jg     1000280b <_vfprintf_r+0x19df>
10001931:	83 c5 08             	add    ebp,0x8
10001934:	8b 44 24 34          	mov    eax,DWORD PTR [esp+0x34]
10001938:	39 44 24 64          	cmp    DWORD PTR [esp+0x64],eax
1000193c:	7c 13                	jl     10001951 <_vfprintf_r+0xb25>
1000193e:	f6 44 24 0c 01       	test   BYTE PTR [esp+0xc],0x1
10001943:	75 0c                	jne    10001951 <_vfprintf_r+0xb25>
10001945:	8b 94 24 84 00 00 00 	mov    edx,DWORD PTR [esp+0x84]
1000194c:	e9 1c fe ff ff       	jmp    1000176d <_vfprintf_r+0x941>
10001951:	8b 44 24 48          	mov    eax,DWORD PTR [esp+0x48]
10001955:	89 45 00             	mov    DWORD PTR [ebp+0x0],eax
10001958:	8b 44 24 40          	mov    eax,DWORD PTR [esp+0x40]
1000195c:	89 45 04             	mov    DWORD PTR [ebp+0x4],eax
1000195f:	8b 94 24 84 00 00 00 	mov    edx,DWORD PTR [esp+0x84]
10001966:	01 c2                	add    edx,eax
10001968:	89 94 24 84 00 00 00 	mov    DWORD PTR [esp+0x84],edx
1000196f:	8b 84 24 80 00 00 00 	mov    eax,DWORD PTR [esp+0x80]
10001976:	40                   	inc    eax
10001977:	89 84 24 80 00 00 00 	mov    DWORD PTR [esp+0x80],eax
1000197e:	83 f8 07             	cmp    eax,0x7
10001981:	0f 8f b9 0a 00 00    	jg     10002440 <_vfprintf_r+0x1614>
10001987:	83 c5 08             	add    ebp,0x8
1000198a:	8b 44 24 34          	mov    eax,DWORD PTR [esp+0x34]
1000198e:	8d 58 ff             	lea    ebx,[eax-0x1]
10001991:	85 db                	test   ebx,ebx
10001993:	0f 8e d4 fd ff ff    	jle    1000176d <_vfprintf_r+0x941>
10001999:	8b 84 24 80 00 00 00 	mov    eax,DWORD PTR [esp+0x80]
100019a0:	83 fb 10             	cmp    ebx,0x10
100019a3:	0f 8e 51 0e 00 00    	jle    100027fa <_vfprintf_r+0x19ce>
100019a9:	8d 74 24 7c          	lea    esi,[esp+0x7c]
100019ad:	8b bc 24 10 01 00 00 	mov    edi,DWORD PTR [esp+0x110]
100019b4:	eb 11                	jmp    100019c7 <_vfprintf_r+0xb9b>
100019b6:	66 90                	xchg   ax,ax
100019b8:	83 c5 08             	add    ebp,0x8
100019bb:	83 eb 10             	sub    ebx,0x10
100019be:	83 fb 10             	cmp    ebx,0x10
100019c1:	0f 8e 33 0e 00 00    	jle    100027fa <_vfprintf_r+0x19ce>
100019c7:	c7 45 00 8c cb 00 10 	mov    DWORD PTR [ebp+0x0],0x1000cb8c
100019ce:	c7 45 04 10 00 00 00 	mov    DWORD PTR [ebp+0x4],0x10
100019d5:	83 c2 10             	add    edx,0x10
100019d8:	89 94 24 84 00 00 00 	mov    DWORD PTR [esp+0x84],edx
100019df:	40                   	inc    eax
100019e0:	89 84 24 80 00 00 00 	mov    DWORD PTR [esp+0x80],eax
100019e7:	83 f8 07             	cmp    eax,0x7
100019ea:	7e cc                	jle    100019b8 <_vfprintf_r+0xb8c>
100019ec:	50                   	push   eax
100019ed:	56                   	push   esi
100019ee:	ff b4 24 1c 01 00 00 	push   DWORD PTR [esp+0x11c]
100019f5:	57                   	push   edi
100019f6:	e8 91 5f 00 00       	call   1000798c <__sprint_r>
100019fb:	83 c4 10             	add    esp,0x10
100019fe:	85 c0                	test   eax,eax
10001a00:	0f 85 ba f6 ff ff    	jne    100010c0 <_vfprintf_r+0x294>
10001a06:	8b 94 24 84 00 00 00 	mov    edx,DWORD PTR [esp+0x84]
10001a0d:	8b 84 24 80 00 00 00 	mov    eax,DWORD PTR [esp+0x80]
10001a14:	8d ac 24 b0 00 00 00 	lea    ebp,[esp+0xb0]
10001a1b:	eb 9e                	jmp    100019bb <_vfprintf_r+0xb8f>
10001a1d:	8d 76 00             	lea    esi,[esi+0x0]
10001a20:	8b 5c 24 1c          	mov    ebx,DWORD PTR [esp+0x1c]
10001a24:	2b 5c 24 10          	sub    ebx,DWORD PTR [esp+0x10]
10001a28:	85 db                	test   ebx,ebx
10001a2a:	0f 8e f1 fc ff ff    	jle    10001721 <_vfprintf_r+0x8f5>
10001a30:	8b 84 24 80 00 00 00 	mov    eax,DWORD PTR [esp+0x80]
10001a37:	83 fb 10             	cmp    ebx,0x10
10001a3a:	0f 8e 8e 00 00 00    	jle    10001ace <_vfprintf_r+0xca2>
10001a40:	89 7c 24 18          	mov    DWORD PTR [esp+0x18],edi
10001a44:	89 74 24 2c          	mov    DWORD PTR [esp+0x2c],esi
10001a48:	89 de                	mov    esi,ebx
10001a4a:	8b 9c 24 10 01 00 00 	mov    ebx,DWORD PTR [esp+0x110]
10001a51:	8b bc 24 14 01 00 00 	mov    edi,DWORD PTR [esp+0x114]
10001a58:	eb 0d                	jmp    10001a67 <_vfprintf_r+0xc3b>
10001a5a:	66 90                	xchg   ax,ax
10001a5c:	83 c5 08             	add    ebp,0x8
10001a5f:	83 ee 10             	sub    esi,0x10
10001a62:	83 fe 10             	cmp    esi,0x10
10001a65:	7e 5d                	jle    10001ac4 <_vfprintf_r+0xc98>
10001a67:	c7 45 00 8c cb 00 10 	mov    DWORD PTR [ebp+0x0],0x1000cb8c
10001a6e:	c7 45 04 10 00 00 00 	mov    DWORD PTR [ebp+0x4],0x10
10001a75:	83 c2 10             	add    edx,0x10
10001a78:	89 94 24 84 00 00 00 	mov    DWORD PTR [esp+0x84],edx
10001a7f:	40                   	inc    eax
10001a80:	89 84 24 80 00 00 00 	mov    DWORD PTR [esp+0x80],eax
10001a87:	83 f8 07             	cmp    eax,0x7
10001a8a:	7e d0                	jle    10001a5c <_vfprintf_r+0xc30>
10001a8c:	50                   	push   eax
10001a8d:	8d 84 24 80 00 00 00 	lea    eax,[esp+0x80]
10001a94:	50                   	push   eax
10001a95:	57                   	push   edi
10001a96:	53                   	push   ebx
10001a97:	e8 f0 5e 00 00       	call   1000798c <__sprint_r>
10001a9c:	83 c4 10             	add    esp,0x10
10001a9f:	85 c0                	test   eax,eax
10001aa1:	0f 85 19 f6 ff ff    	jne    100010c0 <_vfprintf_r+0x294>
10001aa7:	8b 94 24 84 00 00 00 	mov    edx,DWORD PTR [esp+0x84]
10001aae:	8b 84 24 80 00 00 00 	mov    eax,DWORD PTR [esp+0x80]
10001ab5:	8d ac 24 b0 00 00 00 	lea    ebp,[esp+0xb0]
10001abc:	83 ee 10             	sub    esi,0x10
10001abf:	83 fe 10             	cmp    esi,0x10
10001ac2:	7f a3                	jg     10001a67 <_vfprintf_r+0xc3b>
10001ac4:	8b 7c 24 18          	mov    edi,DWORD PTR [esp+0x18]
10001ac8:	89 f3                	mov    ebx,esi
10001aca:	8b 74 24 2c          	mov    esi,DWORD PTR [esp+0x2c]
10001ace:	c7 45 00 8c cb 00 10 	mov    DWORD PTR [ebp+0x0],0x1000cb8c
10001ad5:	89 5d 04             	mov    DWORD PTR [ebp+0x4],ebx
10001ad8:	01 da                	add    edx,ebx
10001ada:	89 94 24 84 00 00 00 	mov    DWORD PTR [esp+0x84],edx
10001ae1:	40                   	inc    eax
10001ae2:	89 84 24 80 00 00 00 	mov    DWORD PTR [esp+0x80],eax
10001ae9:	83 f8 07             	cmp    eax,0x7
10001aec:	0f 8f ac 0d 00 00    	jg     1000289e <_vfprintf_r+0x1a72>
10001af2:	83 c5 08             	add    ebp,0x8
10001af5:	2b 74 24 20          	sub    esi,DWORD PTR [esp+0x20]
10001af9:	85 f6                	test   esi,esi
10001afb:	0f 8e 2c fc ff ff    	jle    1000172d <_vfprintf_r+0x901>
10001b01:	8d 76 00             	lea    esi,[esi+0x0]
10001b04:	8b 84 24 80 00 00 00 	mov    eax,DWORD PTR [esp+0x80]
10001b0b:	83 fe 10             	cmp    esi,0x10
10001b0e:	0f 8e 81 00 00 00    	jle    10001b95 <_vfprintf_r+0xd69>
10001b14:	8d 5c 24 7c          	lea    ebx,[esp+0x7c]
10001b18:	89 7c 24 18          	mov    DWORD PTR [esp+0x18],edi
10001b1c:	89 f7                	mov    edi,esi
10001b1e:	8b b4 24 10 01 00 00 	mov    esi,DWORD PTR [esp+0x110]
10001b25:	eb 0c                	jmp    10001b33 <_vfprintf_r+0xd07>
10001b27:	90                   	nop
10001b28:	83 c5 08             	add    ebp,0x8
10001b2b:	83 ef 10             	sub    edi,0x10
10001b2e:	83 ff 10             	cmp    edi,0x10
10001b31:	7e 5c                	jle    10001b8f <_vfprintf_r+0xd63>
10001b33:	c7 45 00 8c cb 00 10 	mov    DWORD PTR [ebp+0x0],0x1000cb8c
10001b3a:	c7 45 04 10 00 00 00 	mov    DWORD PTR [ebp+0x4],0x10
10001b41:	83 c2 10             	add    edx,0x10
10001b44:	89 94 24 84 00 00 00 	mov    DWORD PTR [esp+0x84],edx
10001b4b:	40                   	inc    eax
10001b4c:	89 84 24 80 00 00 00 	mov    DWORD PTR [esp+0x80],eax
10001b53:	83 f8 07             	cmp    eax,0x7
10001b56:	7e d0                	jle    10001b28 <_vfprintf_r+0xcfc>
10001b58:	55                   	push   ebp
10001b59:	53                   	push   ebx
10001b5a:	ff b4 24 1c 01 00 00 	push   DWORD PTR [esp+0x11c]
10001b61:	56                   	push   esi
10001b62:	e8 25 5e 00 00       	call   1000798c <__sprint_r>
10001b67:	83 c4 10             	add    esp,0x10
10001b6a:	85 c0                	test   eax,eax
10001b6c:	0f 85 4e f5 ff ff    	jne    100010c0 <_vfprintf_r+0x294>
10001b72:	8b 94 24 84 00 00 00 	mov    edx,DWORD PTR [esp+0x84]
10001b79:	8b 84 24 80 00 00 00 	mov    eax,DWORD PTR [esp+0x80]
10001b80:	8d ac 24 b0 00 00 00 	lea    ebp,[esp+0xb0]
10001b87:	83 ef 10             	sub    edi,0x10
10001b8a:	83 ff 10             	cmp    edi,0x10
10001b8d:	7f a4                	jg     10001b33 <_vfprintf_r+0xd07>
10001b8f:	89 fe                	mov    esi,edi
10001b91:	8b 7c 24 18          	mov    edi,DWORD PTR [esp+0x18]
10001b95:	c7 45 00 8c cb 00 10 	mov    DWORD PTR [ebp+0x0],0x1000cb8c
10001b9c:	89 75 04             	mov    DWORD PTR [ebp+0x4],esi
10001b9f:	01 f2                	add    edx,esi
10001ba1:	89 94 24 84 00 00 00 	mov    DWORD PTR [esp+0x84],edx
10001ba8:	40                   	inc    eax
10001ba9:	89 84 24 80 00 00 00 	mov    DWORD PTR [esp+0x80],eax
10001bb0:	83 f8 07             	cmp    eax,0x7
10001bb3:	0f 8f 05 07 00 00    	jg     100022be <_vfprintf_r+0x1492>
10001bb9:	83 c5 08             	add    ebp,0x8
10001bbc:	e9 6c fb ff ff       	jmp    1000172d <_vfprintf_r+0x901>
10001bc1:	8d 76 00             	lea    esi,[esi+0x0]
10001bc4:	51                   	push   ecx
10001bc5:	8d 84 24 80 00 00 00 	lea    eax,[esp+0x80]
10001bcc:	50                   	push   eax
10001bcd:	ff b4 24 1c 01 00 00 	push   DWORD PTR [esp+0x11c]
10001bd4:	ff b4 24 1c 01 00 00 	push   DWORD PTR [esp+0x11c]
10001bdb:	e8 ac 5d 00 00       	call   1000798c <__sprint_r>
10001be0:	83 c4 10             	add    esp,0x10
10001be3:	85 c0                	test   eax,eax
10001be5:	0f 84 b3 fb ff ff    	je     1000179e <_vfprintf_r+0x972>
10001beb:	e9 d0 f4 ff ff       	jmp    100010c0 <_vfprintf_r+0x294>
10001bf0:	c7 45 00 25 ca 00 10 	mov    DWORD PTR [ebp+0x0],0x1000ca25
10001bf7:	c7 45 04 01 00 00 00 	mov    DWORD PTR [ebp+0x4],0x1
10001bfe:	42                   	inc    edx
10001bff:	89 94 24 84 00 00 00 	mov    DWORD PTR [esp+0x84],edx
10001c06:	8b 84 24 80 00 00 00 	mov    eax,DWORD PTR [esp+0x80]
10001c0d:	40                   	inc    eax
10001c0e:	89 84 24 80 00 00 00 	mov    DWORD PTR [esp+0x80],eax
10001c15:	83 f8 07             	cmp    eax,0x7
10001c18:	0f 8f f8 0e 00 00    	jg     10002b16 <_vfprintf_r+0x1cea>
10001c1e:	83 c5 08             	add    ebp,0x8
10001c21:	85 c9                	test   ecx,ecx
10001c23:	0f 85 af 0c 00 00    	jne    100028d8 <_vfprintf_r+0x1aac>
10001c29:	8b 44 24 0c          	mov    eax,DWORD PTR [esp+0xc]
10001c2d:	83 e0 01             	and    eax,0x1
10001c30:	0b 44 24 34          	or     eax,DWORD PTR [esp+0x34]
10001c34:	0f 84 33 fb ff ff    	je     1000176d <_vfprintf_r+0x941>
10001c3a:	8b 44 24 48          	mov    eax,DWORD PTR [esp+0x48]
10001c3e:	89 45 00             	mov    DWORD PTR [ebp+0x0],eax
10001c41:	8b 44 24 40          	mov    eax,DWORD PTR [esp+0x40]
10001c45:	89 45 04             	mov    DWORD PTR [ebp+0x4],eax
10001c48:	01 c2                	add    edx,eax
10001c4a:	89 94 24 84 00 00 00 	mov    DWORD PTR [esp+0x84],edx
10001c51:	8b 84 24 80 00 00 00 	mov    eax,DWORD PTR [esp+0x80]
10001c58:	40                   	inc    eax
10001c59:	89 84 24 80 00 00 00 	mov    DWORD PTR [esp+0x80],eax
10001c60:	83 f8 07             	cmp    eax,0x7
10001c63:	0f 8f 3c 0f 00 00    	jg     10002ba5 <_vfprintf_r+0x1d79>
10001c69:	83 c5 08             	add    ebp,0x8
10001c6c:	8b 4c 24 28          	mov    ecx,DWORD PTR [esp+0x28]
10001c70:	89 4d 00             	mov    DWORD PTR [ebp+0x0],ecx
10001c73:	8b 4c 24 34          	mov    ecx,DWORD PTR [esp+0x34]
10001c77:	89 4d 04             	mov    DWORD PTR [ebp+0x4],ecx
10001c7a:	01 ca                	add    edx,ecx
10001c7c:	89 94 24 84 00 00 00 	mov    DWORD PTR [esp+0x84],edx
10001c83:	40                   	inc    eax
10001c84:	89 84 24 80 00 00 00 	mov    DWORD PTR [esp+0x80],eax
10001c8b:	83 f8 07             	cmp    eax,0x7
10001c8e:	0f 8e d6 fa ff ff    	jle    1000176a <_vfprintf_r+0x93e>
10001c94:	50                   	push   eax
10001c95:	8d 84 24 80 00 00 00 	lea    eax,[esp+0x80]
10001c9c:	50                   	push   eax
10001c9d:	ff b4 24 1c 01 00 00 	push   DWORD PTR [esp+0x11c]
10001ca4:	ff b4 24 1c 01 00 00 	push   DWORD PTR [esp+0x11c]
10001cab:	e8 dc 5c 00 00       	call   1000798c <__sprint_r>
10001cb0:	83 c4 10             	add    esp,0x10
10001cb3:	85 c0                	test   eax,eax
10001cb5:	0f 85 05 f4 ff ff    	jne    100010c0 <_vfprintf_r+0x294>
10001cbb:	8b 94 24 84 00 00 00 	mov    edx,DWORD PTR [esp+0x84]
10001cc2:	8d ac 24 b0 00 00 00 	lea    ebp,[esp+0xb0]
10001cc9:	e9 9f fa ff ff       	jmp    1000176d <_vfprintf_r+0x941>
10001cce:	66 90                	xchg   ax,ax
10001cd0:	42                   	inc    edx
10001cd1:	8b 84 24 80 00 00 00 	mov    eax,DWORD PTR [esp+0x80]
10001cd8:	8d 48 01             	lea    ecx,[eax+0x1]
10001cdb:	8d 5d 08             	lea    ebx,[ebp+0x8]
10001cde:	83 7c 24 34 01       	cmp    DWORD PTR [esp+0x34],0x1
10001ce3:	0f 8e 0e 05 00 00    	jle    100021f7 <_vfprintf_r+0x13cb>
10001ce9:	8b 44 24 28          	mov    eax,DWORD PTR [esp+0x28]
10001ced:	89 45 00             	mov    DWORD PTR [ebp+0x0],eax
10001cf0:	c7 45 04 01 00 00 00 	mov    DWORD PTR [ebp+0x4],0x1
10001cf7:	89 94 24 84 00 00 00 	mov    DWORD PTR [esp+0x84],edx
10001cfe:	89 8c 24 80 00 00 00 	mov    DWORD PTR [esp+0x80],ecx
10001d05:	83 f9 07             	cmp    ecx,0x7
10001d08:	0f 8f b5 08 00 00    	jg     100025c3 <_vfprintf_r+0x1797>
10001d0e:	8b 44 24 48          	mov    eax,DWORD PTR [esp+0x48]
10001d12:	89 03                	mov    DWORD PTR [ebx],eax
10001d14:	8b 44 24 40          	mov    eax,DWORD PTR [esp+0x40]
10001d18:	89 43 04             	mov    DWORD PTR [ebx+0x4],eax
10001d1b:	01 c2                	add    edx,eax
10001d1d:	89 94 24 84 00 00 00 	mov    DWORD PTR [esp+0x84],edx
10001d24:	41                   	inc    ecx
10001d25:	89 8c 24 80 00 00 00 	mov    DWORD PTR [esp+0x80],ecx
10001d2c:	83 f9 07             	cmp    ecx,0x7
10001d2f:	0f 8f 4d 08 00 00    	jg     10002582 <_vfprintf_r+0x1756>
10001d35:	83 c3 08             	add    ebx,0x8
10001d38:	8d 79 01             	lea    edi,[ecx+0x1]
10001d3b:	89 7c 24 18          	mov    DWORD PTR [esp+0x18],edi
10001d3f:	8d 6b 08             	lea    ebp,[ebx+0x8]
10001d42:	8b 74 24 34          	mov    esi,DWORD PTR [esp+0x34]
10001d46:	4e                   	dec    esi
10001d47:	d9 ee                	fldz   
10001d49:	dd 44 24 38          	fld    QWORD PTR [esp+0x38]
10001d4d:	da e9                	fucompp 
10001d4f:	df e0                	fnstsw ax
10001d51:	80 e4 45             	and    ah,0x45
10001d54:	80 fc 40             	cmp    ah,0x40
10001d57:	0f 84 d9 04 00 00    	je     10002236 <_vfprintf_r+0x140a>
10001d5d:	8b 7c 24 28          	mov    edi,DWORD PTR [esp+0x28]
10001d61:	47                   	inc    edi
10001d62:	89 3b                	mov    DWORD PTR [ebx],edi
10001d64:	89 73 04             	mov    DWORD PTR [ebx+0x4],esi
10001d67:	01 f2                	add    edx,esi
10001d69:	89 94 24 84 00 00 00 	mov    DWORD PTR [esp+0x84],edx
10001d70:	8b 44 24 18          	mov    eax,DWORD PTR [esp+0x18]
10001d74:	89 84 24 80 00 00 00 	mov    DWORD PTR [esp+0x80],eax
10001d7b:	83 f8 07             	cmp    eax,0x7
10001d7e:	0f 8f 68 06 00 00    	jg     100023ec <_vfprintf_r+0x15c0>
10001d84:	8d 41 02             	lea    eax,[ecx+0x2]
10001d87:	89 44 24 18          	mov    DWORD PTR [esp+0x18],eax
10001d8b:	8d 43 10             	lea    eax,[ebx+0x10]
10001d8e:	89 eb                	mov    ebx,ebp
10001d90:	89 c5                	mov    ebp,eax
10001d92:	8d 44 24 6d          	lea    eax,[esp+0x6d]
10001d96:	89 03                	mov    DWORD PTR [ebx],eax
10001d98:	8b 44 24 4c          	mov    eax,DWORD PTR [esp+0x4c]
10001d9c:	89 43 04             	mov    DWORD PTR [ebx+0x4],eax
10001d9f:	01 c2                	add    edx,eax
10001da1:	89 94 24 84 00 00 00 	mov    DWORD PTR [esp+0x84],edx
10001da8:	8b 44 24 18          	mov    eax,DWORD PTR [esp+0x18]
10001dac:	89 84 24 80 00 00 00 	mov    DWORD PTR [esp+0x80],eax
10001db3:	83 f8 07             	cmp    eax,0x7
10001db6:	0f 8e b1 f9 ff ff    	jle    1000176d <_vfprintf_r+0x941>
10001dbc:	e9 d3 fe ff ff       	jmp    10001c94 <_vfprintf_r+0xe68>
10001dc1:	8d 76 00             	lea    esi,[esi+0x0]
10001dc4:	8b 54 24 0c          	mov    edx,DWORD PTR [esp+0xc]
10001dc8:	89 54 24 18          	mov    DWORD PTR [esp+0x18],edx
10001dcc:	e9 db f7 ff ff       	jmp    100015ac <_vfprintf_r+0x780>
10001dd1:	8d 76 00             	lea    esi,[esi+0x0]
10001dd4:	8b 84 24 80 00 00 00 	mov    eax,DWORD PTR [esp+0x80]
10001ddb:	83 fb 10             	cmp    ebx,0x10
10001dde:	0f 8e 8e 00 00 00    	jle    10001e72 <_vfprintf_r+0x1046>
10001de4:	89 7c 24 50          	mov    DWORD PTR [esp+0x50],edi
10001de8:	89 74 24 54          	mov    DWORD PTR [esp+0x54],esi
10001dec:	89 de                	mov    esi,ebx
10001dee:	8b 9c 24 10 01 00 00 	mov    ebx,DWORD PTR [esp+0x110]
10001df5:	8b bc 24 14 01 00 00 	mov    edi,DWORD PTR [esp+0x114]
10001dfc:	eb 0d                	jmp    10001e0b <_vfprintf_r+0xfdf>
10001dfe:	66 90                	xchg   ax,ax
10001e00:	83 c5 08             	add    ebp,0x8
10001e03:	83 ee 10             	sub    esi,0x10
10001e06:	83 fe 10             	cmp    esi,0x10
10001e09:	7e 5d                	jle    10001e68 <_vfprintf_r+0x103c>
10001e0b:	c7 45 00 9c cb 00 10 	mov    DWORD PTR [ebp+0x0],0x1000cb9c
10001e12:	c7 45 04 10 00 00 00 	mov    DWORD PTR [ebp+0x4],0x10
10001e19:	83 c2 10             	add    edx,0x10
10001e1c:	89 94 24 84 00 00 00 	mov    DWORD PTR [esp+0x84],edx
10001e23:	40                   	inc    eax
10001e24:	89 84 24 80 00 00 00 	mov    DWORD PTR [esp+0x80],eax
10001e2b:	83 f8 07             	cmp    eax,0x7
10001e2e:	7e d0                	jle    10001e00 <_vfprintf_r+0xfd4>
10001e30:	52                   	push   edx
10001e31:	8d 84 24 80 00 00 00 	lea    eax,[esp+0x80]
10001e38:	50                   	push   eax
10001e39:	57                   	push   edi
10001e3a:	53                   	push   ebx
10001e3b:	e8 4c 5b 00 00       	call   1000798c <__sprint_r>
10001e40:	83 c4 10             	add    esp,0x10
10001e43:	85 c0                	test   eax,eax
10001e45:	0f 85 75 f2 ff ff    	jne    100010c0 <_vfprintf_r+0x294>
10001e4b:	8b 94 24 84 00 00 00 	mov    edx,DWORD PTR [esp+0x84]
10001e52:	8b 84 24 80 00 00 00 	mov    eax,DWORD PTR [esp+0x80]
10001e59:	8d ac 24 b0 00 00 00 	lea    ebp,[esp+0xb0]
10001e60:	83 ee 10             	sub    esi,0x10
10001e63:	83 fe 10             	cmp    esi,0x10
10001e66:	7f a3                	jg     10001e0b <_vfprintf_r+0xfdf>
10001e68:	8b 7c 24 50          	mov    edi,DWORD PTR [esp+0x50]
10001e6c:	89 f3                	mov    ebx,esi
10001e6e:	8b 74 24 54          	mov    esi,DWORD PTR [esp+0x54]
10001e72:	c7 45 00 9c cb 00 10 	mov    DWORD PTR [ebp+0x0],0x1000cb9c
10001e79:	89 5d 04             	mov    DWORD PTR [ebp+0x4],ebx
10001e7c:	01 da                	add    edx,ebx
10001e7e:	89 94 24 84 00 00 00 	mov    DWORD PTR [esp+0x84],edx
10001e85:	40                   	inc    eax
10001e86:	89 84 24 80 00 00 00 	mov    DWORD PTR [esp+0x80],eax
10001e8d:	83 f8 07             	cmp    eax,0x7
10001e90:	0f 8f 6e 07 00 00    	jg     10002604 <_vfprintf_r+0x17d8>
10001e96:	83 c5 08             	add    ebp,0x8
10001e99:	e9 02 f8 ff ff       	jmp    100016a0 <_vfprintf_r+0x874>
10001e9e:	66 90                	xchg   ax,ax
10001ea0:	50                   	push   eax
10001ea1:	8d 84 24 80 00 00 00 	lea    eax,[esp+0x80]
10001ea8:	50                   	push   eax
10001ea9:	ff b4 24 1c 01 00 00 	push   DWORD PTR [esp+0x11c]
10001eb0:	ff b4 24 1c 01 00 00 	push   DWORD PTR [esp+0x11c]
10001eb7:	e8 d0 5a 00 00       	call   1000798c <__sprint_r>
10001ebc:	83 c4 10             	add    esp,0x10
10001ebf:	85 c0                	test   eax,eax
10001ec1:	0f 85 f9 f1 ff ff    	jne    100010c0 <_vfprintf_r+0x294>
10001ec7:	8b 94 24 84 00 00 00 	mov    edx,DWORD PTR [esp+0x84]
10001ece:	8d ac 24 b0 00 00 00 	lea    ebp,[esp+0xb0]
10001ed5:	e9 fe f7 ff ff       	jmp    100016d8 <_vfprintf_r+0x8ac>
10001eda:	66 90                	xchg   ax,ax
10001edc:	50                   	push   eax
10001edd:	8d 84 24 80 00 00 00 	lea    eax,[esp+0x80]
10001ee4:	50                   	push   eax
10001ee5:	ff b4 24 1c 01 00 00 	push   DWORD PTR [esp+0x11c]
10001eec:	ff b4 24 1c 01 00 00 	push   DWORD PTR [esp+0x11c]
10001ef3:	e8 94 5a 00 00       	call   1000798c <__sprint_r>
10001ef8:	83 c4 10             	add    esp,0x10
10001efb:	85 c0                	test   eax,eax
10001efd:	0f 85 bd f1 ff ff    	jne    100010c0 <_vfprintf_r+0x294>
10001f03:	8b 94 24 84 00 00 00 	mov    edx,DWORD PTR [esp+0x84]
10001f0a:	8d ac 24 b0 00 00 00 	lea    ebp,[esp+0xb0]
10001f11:	e9 fd f7 ff ff       	jmp    10001713 <_vfprintf_r+0x8e7>
10001f16:	66 90                	xchg   ax,ax
10001f18:	8b 84 24 80 00 00 00 	mov    eax,DWORD PTR [esp+0x80]
10001f1f:	83 fe 10             	cmp    esi,0x10
10001f22:	7e 77                	jle    10001f9b <_vfprintf_r+0x116f>
10001f24:	8d 5c 24 7c          	lea    ebx,[esp+0x7c]
10001f28:	8b bc 24 10 01 00 00 	mov    edi,DWORD PTR [esp+0x110]
10001f2f:	eb 0e                	jmp    10001f3f <_vfprintf_r+0x1113>
10001f31:	8d 76 00             	lea    esi,[esi+0x0]
10001f34:	83 c5 08             	add    ebp,0x8
10001f37:	83 ee 10             	sub    esi,0x10
10001f3a:	83 fe 10             	cmp    esi,0x10
10001f3d:	7e 5c                	jle    10001f9b <_vfprintf_r+0x116f>
10001f3f:	c7 45 00 9c cb 00 10 	mov    DWORD PTR [ebp+0x0],0x1000cb9c
10001f46:	c7 45 04 10 00 00 00 	mov    DWORD PTR [ebp+0x4],0x10
10001f4d:	83 c2 10             	add    edx,0x10
10001f50:	89 94 24 84 00 00 00 	mov    DWORD PTR [esp+0x84],edx
10001f57:	40                   	inc    eax
10001f58:	89 84 24 80 00 00 00 	mov    DWORD PTR [esp+0x80],eax
10001f5f:	83 f8 07             	cmp    eax,0x7
10001f62:	7e d0                	jle    10001f34 <_vfprintf_r+0x1108>
10001f64:	55                   	push   ebp
10001f65:	53                   	push   ebx
10001f66:	ff b4 24 1c 01 00 00 	push   DWORD PTR [esp+0x11c]
10001f6d:	57                   	push   edi
10001f6e:	e8 19 5a 00 00       	call   1000798c <__sprint_r>
10001f73:	83 c4 10             	add    esp,0x10
10001f76:	85 c0                	test   eax,eax
10001f78:	0f 85 42 f1 ff ff    	jne    100010c0 <_vfprintf_r+0x294>
10001f7e:	8b 94 24 84 00 00 00 	mov    edx,DWORD PTR [esp+0x84]
10001f85:	8b 84 24 80 00 00 00 	mov    eax,DWORD PTR [esp+0x80]
10001f8c:	8d ac 24 b0 00 00 00 	lea    ebp,[esp+0xb0]
10001f93:	83 ee 10             	sub    esi,0x10
10001f96:	83 fe 10             	cmp    esi,0x10
10001f99:	7f a4                	jg     10001f3f <_vfprintf_r+0x1113>
10001f9b:	c7 45 00 9c cb 00 10 	mov    DWORD PTR [ebp+0x0],0x1000cb9c
10001fa2:	89 75 04             	mov    DWORD PTR [ebp+0x4],esi
10001fa5:	01 f2                	add    edx,esi
10001fa7:	89 94 24 84 00 00 00 	mov    DWORD PTR [esp+0x84],edx
10001fae:	40                   	inc    eax
10001faf:	89 84 24 80 00 00 00 	mov    DWORD PTR [esp+0x80],eax
10001fb6:	83 f8 07             	cmp    eax,0x7
10001fb9:	0f 8e c5 f7 ff ff    	jle    10001784 <_vfprintf_r+0x958>
10001fbf:	53                   	push   ebx
10001fc0:	8d 84 24 80 00 00 00 	lea    eax,[esp+0x80]
10001fc7:	50                   	push   eax
10001fc8:	ff b4 24 1c 01 00 00 	push   DWORD PTR [esp+0x11c]
10001fcf:	ff b4 24 1c 01 00 00 	push   DWORD PTR [esp+0x11c]
10001fd6:	e8 b1 59 00 00       	call   1000798c <__sprint_r>
10001fdb:	83 c4 10             	add    esp,0x10
10001fde:	85 c0                	test   eax,eax
10001fe0:	0f 85 da f0 ff ff    	jne    100010c0 <_vfprintf_r+0x294>
10001fe6:	8b 94 24 84 00 00 00 	mov    edx,DWORD PTR [esp+0x84]
10001fed:	e9 92 f7 ff ff       	jmp    10001784 <_vfprintf_r+0x958>
10001ff2:	83 f8 01             	cmp    eax,0x1
10001ff5:	0f 84 29 0c 00 00    	je     10002c24 <_vfprintf_r+0x1df8>
10001ffb:	83 f8 02             	cmp    eax,0x2
10001ffe:	8b 44 24 0c          	mov    eax,DWORD PTR [esp+0xc]
10002002:	89 44 24 18          	mov    DWORD PTR [esp+0x18],eax
10002006:	0f 85 b2 f5 ff ff    	jne    100015be <_vfprintf_r+0x792>
1000200c:	8d 84 24 b0 00 00 00 	lea    eax,[esp+0xb0]
10002013:	89 7c 24 0c          	mov    DWORD PTR [esp+0xc],edi
10002017:	8b 7c 24 44          	mov    edi,DWORD PTR [esp+0x44]
1000201b:	90                   	nop
1000201c:	48                   	dec    eax
1000201d:	89 ca                	mov    edx,ecx
1000201f:	83 e2 0f             	and    edx,0xf
10002022:	8a 14 17             	mov    dl,BYTE PTR [edi+edx*1]
10002025:	88 10                	mov    BYTE PTR [eax],dl
10002027:	c1 e9 04             	shr    ecx,0x4
1000202a:	75 f0                	jne    1000201c <_vfprintf_r+0x11f0>
1000202c:	89 44 24 28          	mov    DWORD PTR [esp+0x28],eax
10002030:	8b 7c 24 0c          	mov    edi,DWORD PTR [esp+0xc]
10002034:	8d 8c 24 b0 00 00 00 	lea    ecx,[esp+0xb0]
1000203b:	29 c1                	sub    ecx,eax
1000203d:	89 4c 24 20          	mov    DWORD PTR [esp+0x20],ecx
10002041:	8b 44 24 18          	mov    eax,DWORD PTR [esp+0x18]
10002045:	89 44 24 0c          	mov    DWORD PTR [esp+0xc],eax
10002049:	e9 be f2 ff ff       	jmp    1000130c <_vfprintf_r+0x4e0>
1000204e:	66 90                	xchg   ax,ax
10002050:	8b 4c 24 64          	mov    ecx,DWORD PTR [esp+0x64]
10002054:	85 c9                	test   ecx,ecx
10002056:	0f 8e 94 fb ff ff    	jle    10001bf0 <_vfprintf_r+0xdc4>
1000205c:	8b 44 24 30          	mov    eax,DWORD PTR [esp+0x30]
10002060:	89 c3                	mov    ebx,eax
10002062:	8b 4c 24 34          	mov    ecx,DWORD PTR [esp+0x34]
10002066:	39 c8                	cmp    eax,ecx
10002068:	0f 8f 4d 03 00 00    	jg     100023bb <_vfprintf_r+0x158f>
1000206e:	85 db                	test   ebx,ebx
10002070:	7e 2e                	jle    100020a0 <_vfprintf_r+0x1274>
10002072:	8b 44 24 28          	mov    eax,DWORD PTR [esp+0x28]
10002076:	89 45 00             	mov    DWORD PTR [ebp+0x0],eax
10002079:	89 5d 04             	mov    DWORD PTR [ebp+0x4],ebx
1000207c:	01 da                	add    edx,ebx
1000207e:	89 94 24 84 00 00 00 	mov    DWORD PTR [esp+0x84],edx
10002085:	8b 84 24 80 00 00 00 	mov    eax,DWORD PTR [esp+0x80]
1000208c:	40                   	inc    eax
1000208d:	89 84 24 80 00 00 00 	mov    DWORD PTR [esp+0x80],eax
10002094:	83 f8 07             	cmp    eax,0x7
10002097:	0f 8f 50 0c 00 00    	jg     10002ced <_vfprintf_r+0x1ec1>
1000209d:	83 c5 08             	add    ebp,0x8
100020a0:	85 db                	test   ebx,ebx
100020a2:	0f 88 91 03 00 00    	js     10002439 <_vfprintf_r+0x160d>
100020a8:	8b 44 24 30          	mov    eax,DWORD PTR [esp+0x30]
100020ac:	29 d8                	sub    eax,ebx
100020ae:	89 c3                	mov    ebx,eax
100020b0:	85 c0                	test   eax,eax
100020b2:	0f 8f eb 03 00 00    	jg     100024a3 <_vfprintf_r+0x1677>
100020b8:	8b 4c 24 64          	mov    ecx,DWORD PTR [esp+0x64]
100020bc:	3b 4c 24 34          	cmp    ecx,DWORD PTR [esp+0x34]
100020c0:	0f 8d 04 03 00 00    	jge    100023ca <_vfprintf_r+0x159e>
100020c6:	8b 44 24 48          	mov    eax,DWORD PTR [esp+0x48]
100020ca:	89 45 00             	mov    DWORD PTR [ebp+0x0],eax
100020cd:	8b 44 24 40          	mov    eax,DWORD PTR [esp+0x40]
100020d1:	89 45 04             	mov    DWORD PTR [ebp+0x4],eax
100020d4:	01 c2                	add    edx,eax
100020d6:	89 94 24 84 00 00 00 	mov    DWORD PTR [esp+0x84],edx
100020dd:	8b 84 24 80 00 00 00 	mov    eax,DWORD PTR [esp+0x80]
100020e4:	40                   	inc    eax
100020e5:	89 84 24 80 00 00 00 	mov    DWORD PTR [esp+0x80],eax
100020ec:	83 f8 07             	cmp    eax,0x7
100020ef:	0f 8f e3 09 00 00    	jg     10002ad8 <_vfprintf_r+0x1cac>
100020f5:	83 c5 08             	add    ebp,0x8
100020f8:	8b 74 24 34          	mov    esi,DWORD PTR [esp+0x34]
100020fc:	29 ce                	sub    esi,ecx
100020fe:	39 4c 24 30          	cmp    DWORD PTR [esp+0x30],ecx
10002102:	0f 8d 6d 04 00 00    	jge    10002575 <_vfprintf_r+0x1749>
10002108:	89 f3                	mov    ebx,esi
1000210a:	85 db                	test   ebx,ebx
1000210c:	7e 32                	jle    10002140 <_vfprintf_r+0x1314>
1000210e:	8b 44 24 28          	mov    eax,DWORD PTR [esp+0x28]
10002112:	03 44 24 30          	add    eax,DWORD PTR [esp+0x30]
10002116:	89 45 00             	mov    DWORD PTR [ebp+0x0],eax
10002119:	89 5d 04             	mov    DWORD PTR [ebp+0x4],ebx
1000211c:	01 da                	add    edx,ebx
1000211e:	89 94 24 84 00 00 00 	mov    DWORD PTR [esp+0x84],edx
10002125:	8b 84 24 80 00 00 00 	mov    eax,DWORD PTR [esp+0x80]
1000212c:	40                   	inc    eax
1000212d:	89 84 24 80 00 00 00 	mov    DWORD PTR [esp+0x80],eax
10002134:	83 f8 07             	cmp    eax,0x7
10002137:	0f 8f ea 0b 00 00    	jg     10002d27 <_vfprintf_r+0x1efb>
1000213d:	83 c5 08             	add    ebp,0x8
10002140:	85 db                	test   ebx,ebx
10002142:	79 02                	jns    10002146 <_vfprintf_r+0x131a>
10002144:	31 db                	xor    ebx,ebx
10002146:	29 de                	sub    esi,ebx
10002148:	89 f3                	mov    ebx,esi
1000214a:	85 f6                	test   esi,esi
1000214c:	0f 8e 1b f6 ff ff    	jle    1000176d <_vfprintf_r+0x941>
10002152:	8b 84 24 80 00 00 00 	mov    eax,DWORD PTR [esp+0x80]
10002159:	83 fe 10             	cmp    esi,0x10
1000215c:	0f 8e 98 06 00 00    	jle    100027fa <_vfprintf_r+0x19ce>
10002162:	8d 74 24 7c          	lea    esi,[esp+0x7c]
10002166:	8b bc 24 10 01 00 00 	mov    edi,DWORD PTR [esp+0x110]
1000216d:	eb 10                	jmp    1000217f <_vfprintf_r+0x1353>
1000216f:	90                   	nop
10002170:	83 c5 08             	add    ebp,0x8
10002173:	83 eb 10             	sub    ebx,0x10
10002176:	83 fb 10             	cmp    ebx,0x10
10002179:	0f 8e 7b 06 00 00    	jle    100027fa <_vfprintf_r+0x19ce>
1000217f:	c7 45 00 8c cb 00 10 	mov    DWORD PTR [ebp+0x0],0x1000cb8c
10002186:	c7 45 04 10 00 00 00 	mov    DWORD PTR [ebp+0x4],0x10
1000218d:	83 c2 10             	add    edx,0x10
10002190:	89 94 24 84 00 00 00 	mov    DWORD PTR [esp+0x84],edx
10002197:	40                   	inc    eax
10002198:	89 84 24 80 00 00 00 	mov    DWORD PTR [esp+0x80],eax
1000219f:	83 f8 07             	cmp    eax,0x7
100021a2:	7e cc                	jle    10002170 <_vfprintf_r+0x1344>
100021a4:	50                   	push   eax
100021a5:	56                   	push   esi
100021a6:	ff b4 24 1c 01 00 00 	push   DWORD PTR [esp+0x11c]
100021ad:	57                   	push   edi
100021ae:	e8 d9 57 00 00       	call   1000798c <__sprint_r>
100021b3:	83 c4 10             	add    esp,0x10
100021b6:	85 c0                	test   eax,eax
100021b8:	0f 85 02 ef ff ff    	jne    100010c0 <_vfprintf_r+0x294>
100021be:	8b 94 24 84 00 00 00 	mov    edx,DWORD PTR [esp+0x84]
100021c5:	8b 84 24 80 00 00 00 	mov    eax,DWORD PTR [esp+0x80]
100021cc:	8d ac 24 b0 00 00 00 	lea    ebp,[esp+0xb0]
100021d3:	eb 9e                	jmp    10002173 <_vfprintf_r+0x1347>
100021d5:	85 f6                	test   esi,esi
100021d7:	0f 85 47 0a 00 00    	jne    10002c24 <_vfprintf_r+0x1df8>
100021dd:	31 f6                	xor    esi,esi
100021df:	c7 44 24 20 00 00 00 00 	mov    DWORD PTR [esp+0x20],0x0
100021e7:	8d 84 24 b0 00 00 00 	lea    eax,[esp+0xb0]
100021ee:	89 44 24 28          	mov    DWORD PTR [esp+0x28],eax
100021f2:	e9 15 f1 ff ff       	jmp    1000130c <_vfprintf_r+0x4e0>
100021f7:	f6 44 24 0c 01       	test   BYTE PTR [esp+0xc],0x1
100021fc:	0f 85 e7 fa ff ff    	jne    10001ce9 <_vfprintf_r+0xebd>
10002202:	8b 7c 24 28          	mov    edi,DWORD PTR [esp+0x28]
10002206:	89 7d 00             	mov    DWORD PTR [ebp+0x0],edi
10002209:	c7 45 04 01 00 00 00 	mov    DWORD PTR [ebp+0x4],0x1
10002210:	89 94 24 84 00 00 00 	mov    DWORD PTR [esp+0x84],edx
10002217:	89 8c 24 80 00 00 00 	mov    DWORD PTR [esp+0x80],ecx
1000221e:	83 f9 07             	cmp    ecx,0x7
10002221:	0f 8f c5 01 00 00    	jg     100023ec <_vfprintf_r+0x15c0>
10002227:	83 c0 02             	add    eax,0x2
1000222a:	89 44 24 18          	mov    DWORD PTR [esp+0x18],eax
1000222e:	83 c5 10             	add    ebp,0x10
10002231:	e9 5c fb ff ff       	jmp    10001d92 <_vfprintf_r+0xf66>
10002236:	85 f6                	test   esi,esi
10002238:	0f 8e 54 fb ff ff    	jle    10001d92 <_vfprintf_r+0xf66>
1000223e:	83 fe 10             	cmp    esi,0x10
10002241:	0f 8e 28 0d 00 00    	jle    10002f6f <_vfprintf_r+0x2143>
10002247:	8d 6c 24 7c          	lea    ebp,[esp+0x7c]
1000224b:	89 d8                	mov    eax,ebx
1000224d:	8b 9c 24 14 01 00 00 	mov    ebx,DWORD PTR [esp+0x114]
10002254:	89 f9                	mov    ecx,edi
10002256:	8b bc 24 10 01 00 00 	mov    edi,DWORD PTR [esp+0x110]
1000225d:	eb 11                	jmp    10002270 <_vfprintf_r+0x1444>
1000225f:	90                   	nop
10002260:	83 c0 08             	add    eax,0x8
10002263:	83 ee 10             	sub    esi,0x10
10002266:	83 fe 10             	cmp    esi,0x10
10002269:	0f 8e 22 07 00 00    	jle    10002991 <_vfprintf_r+0x1b65>
1000226f:	41                   	inc    ecx
10002270:	c7 00 8c cb 00 10    	mov    DWORD PTR [eax],0x1000cb8c
10002276:	c7 40 04 10 00 00 00 	mov    DWORD PTR [eax+0x4],0x10
1000227d:	83 c2 10             	add    edx,0x10
10002280:	89 94 24 84 00 00 00 	mov    DWORD PTR [esp+0x84],edx
10002287:	89 8c 24 80 00 00 00 	mov    DWORD PTR [esp+0x80],ecx
1000228e:	83 f9 07             	cmp    ecx,0x7
10002291:	7e cd                	jle    10002260 <_vfprintf_r+0x1434>
10002293:	50                   	push   eax
10002294:	55                   	push   ebp
10002295:	53                   	push   ebx
10002296:	57                   	push   edi
10002297:	e8 f0 56 00 00       	call   1000798c <__sprint_r>
1000229c:	83 c4 10             	add    esp,0x10
1000229f:	85 c0                	test   eax,eax
100022a1:	0f 85 19 ee ff ff    	jne    100010c0 <_vfprintf_r+0x294>
100022a7:	8b 94 24 84 00 00 00 	mov    edx,DWORD PTR [esp+0x84]
100022ae:	8b 8c 24 80 00 00 00 	mov    ecx,DWORD PTR [esp+0x80]
100022b5:	8d 84 24 b0 00 00 00 	lea    eax,[esp+0xb0]
100022bc:	eb a5                	jmp    10002263 <_vfprintf_r+0x1437>
100022be:	53                   	push   ebx
100022bf:	8d 84 24 80 00 00 00 	lea    eax,[esp+0x80]
100022c6:	50                   	push   eax
100022c7:	ff b4 24 1c 01 00 00 	push   DWORD PTR [esp+0x11c]
100022ce:	ff b4 24 1c 01 00 00 	push   DWORD PTR [esp+0x11c]
100022d5:	e8 b2 56 00 00       	call   1000798c <__sprint_r>
100022da:	83 c4 10             	add    esp,0x10
100022dd:	85 c0                	test   eax,eax
100022df:	0f 85 db ed ff ff    	jne    100010c0 <_vfprintf_r+0x294>
100022e5:	8b 94 24 84 00 00 00 	mov    edx,DWORD PTR [esp+0x84]
100022ec:	8d ac 24 b0 00 00 00 	lea    ebp,[esp+0xb0]
100022f3:	e9 35 f4 ff ff       	jmp    1000172d <_vfprintf_r+0x901>
100022f8:	3c 30                	cmp    al,0x30
100022fa:	0f 84 25 02 00 00    	je     10002525 <_vfprintf_r+0x16f9>
10002300:	83 ea 02             	sub    edx,0x2
10002303:	8b 44 24 28          	mov    eax,DWORD PTR [esp+0x28]
10002307:	c6 40 ff 30          	mov    BYTE PTR [eax-0x1],0x30
1000230b:	8d 84 24 b0 00 00 00 	lea    eax,[esp+0xb0]
10002312:	29 d0                	sub    eax,edx
10002314:	89 44 24 20          	mov    DWORD PTR [esp+0x20],eax
10002318:	8b 44 24 18          	mov    eax,DWORD PTR [esp+0x18]
1000231c:	89 44 24 0c          	mov    DWORD PTR [esp+0xc],eax
10002320:	89 54 24 28          	mov    DWORD PTR [esp+0x28],edx
10002324:	e9 e3 ef ff ff       	jmp    1000130c <_vfprintf_r+0x4e0>
10002329:	8b b4 24 18 01 00 00 	mov    esi,DWORD PTR [esp+0x118]
10002330:	e9 57 ec ff ff       	jmp    10000f8c <_vfprintf_r+0x160>
10002335:	89 f3                	mov    ebx,esi
10002337:	8b 84 24 1c 01 00 00 	mov    eax,DWORD PTR [esp+0x11c]
1000233e:	83 c0 04             	add    eax,0x4
10002341:	8b bc 24 1c 01 00 00 	mov    edi,DWORD PTR [esp+0x11c]
10002348:	8b 37                	mov    esi,DWORD PTR [edi]
1000234a:	85 f6                	test   esi,esi
1000234c:	79 05                	jns    10002353 <_vfprintf_r+0x1527>
1000234e:	be ff ff ff ff       	mov    esi,0xffffffff
10002353:	89 84 24 1c 01 00 00 	mov    DWORD PTR [esp+0x11c],eax
1000235a:	89 d8                	mov    eax,ebx
1000235c:	e9 4c ec ff ff       	jmp    10000fad <_vfprintf_r+0x181>
10002361:	8d 84 24 b0 00 00 00 	lea    eax,[esp+0xb0]
10002368:	89 44 24 28          	mov    DWORD PTR [esp+0x28],eax
1000236c:	e9 9b ef ff ff       	jmp    1000130c <_vfprintf_r+0x4e0>
10002371:	db 28                	fld    TBYTE PTR [eax]
10002373:	dd 5c 24 38          	fstp   QWORD PTR [esp+0x38]
10002377:	83 c0 0c             	add    eax,0xc
1000237a:	89 84 24 1c 01 00 00 	mov    DWORD PTR [esp+0x11c],eax
10002381:	e9 88 f4 ff ff       	jmp    1000180e <_vfprintf_r+0x9e2>
10002386:	89 ca                	mov    edx,ecx
10002388:	89 84 24 1c 01 00 00 	mov    DWORD PTR [esp+0x11c],eax
1000238f:	e9 1a ef ff ff       	jmp    100012ae <_vfprintf_r+0x482>
10002394:	0f b7 c9             	movzx  ecx,cx
10002397:	e9 3d f1 ff ff       	jmp    100014d9 <_vfprintf_r+0x6ad>
1000239c:	89 84 24 1c 01 00 00 	mov    DWORD PTR [esp+0x11c],eax
100023a3:	31 c0                	xor    eax,eax
100023a5:	e9 0e f0 ff ff       	jmp    100013b8 <_vfprintf_r+0x58c>
100023aa:	89 84 24 1c 01 00 00 	mov    DWORD PTR [esp+0x11c],eax
100023b1:	b8 01 00 00 00       	mov    eax,0x1
100023b6:	e9 fd ef ff ff       	jmp    100013b8 <_vfprintf_r+0x58c>
100023bb:	89 cb                	mov    ebx,ecx
100023bd:	85 db                	test   ebx,ebx
100023bf:	0f 8f ad fc ff ff    	jg     10002072 <_vfprintf_r+0x1246>
100023c5:	e9 d6 fc ff ff       	jmp    100020a0 <_vfprintf_r+0x1274>
100023ca:	f6 44 24 0c 01       	test   BYTE PTR [esp+0xc],0x1
100023cf:	0f 85 f1 fc ff ff    	jne    100020c6 <_vfprintf_r+0x129a>
100023d5:	8b 74 24 34          	mov    esi,DWORD PTR [esp+0x34]
100023d9:	29 ce                	sub    esi,ecx
100023db:	3b 4c 24 30          	cmp    ecx,DWORD PTR [esp+0x30]
100023df:	0f 8e 90 01 00 00    	jle    10002575 <_vfprintf_r+0x1749>
100023e5:	89 f3                	mov    ebx,esi
100023e7:	e9 54 fd ff ff       	jmp    10002140 <_vfprintf_r+0x1314>
100023ec:	50                   	push   eax
100023ed:	8d 84 24 80 00 00 00 	lea    eax,[esp+0x80]
100023f4:	50                   	push   eax
100023f5:	ff b4 24 1c 01 00 00 	push   DWORD PTR [esp+0x11c]
100023fc:	ff b4 24 1c 01 00 00 	push   DWORD PTR [esp+0x11c]
10002403:	e8 84 55 00 00       	call   1000798c <__sprint_r>
10002408:	83 c4 10             	add    esp,0x10
1000240b:	85 c0                	test   eax,eax
1000240d:	0f 85 ad ec ff ff    	jne    100010c0 <_vfprintf_r+0x294>
10002413:	8b 94 24 84 00 00 00 	mov    edx,DWORD PTR [esp+0x84]
1000241a:	8b 84 24 80 00 00 00 	mov    eax,DWORD PTR [esp+0x80]
10002421:	40                   	inc    eax
10002422:	89 44 24 18          	mov    DWORD PTR [esp+0x18],eax
10002426:	8d ac 24 b8 00 00 00 	lea    ebp,[esp+0xb8]
1000242d:	8d 9c 24 b0 00 00 00 	lea    ebx,[esp+0xb0]
10002434:	e9 59 f9 ff ff       	jmp    10001d92 <_vfprintf_r+0xf66>
10002439:	31 db                	xor    ebx,ebx
1000243b:	e9 68 fc ff ff       	jmp    100020a8 <_vfprintf_r+0x127c>
10002440:	52                   	push   edx
10002441:	8d 84 24 80 00 00 00 	lea    eax,[esp+0x80]
10002448:	50                   	push   eax
10002449:	ff b4 24 1c 01 00 00 	push   DWORD PTR [esp+0x11c]
10002450:	ff b4 24 1c 01 00 00 	push   DWORD PTR [esp+0x11c]
10002457:	e8 30 55 00 00       	call   1000798c <__sprint_r>
1000245c:	83 c4 10             	add    esp,0x10
1000245f:	85 c0                	test   eax,eax
10002461:	0f 85 59 ec ff ff    	jne    100010c0 <_vfprintf_r+0x294>
10002467:	8b 94 24 84 00 00 00 	mov    edx,DWORD PTR [esp+0x84]
1000246e:	8d ac 24 b0 00 00 00 	lea    ebp,[esp+0xb0]
10002475:	e9 10 f5 ff ff       	jmp    1000198a <_vfprintf_r+0xb5e>
1000247a:	89 74 24 20          	mov    DWORD PTR [esp+0x20],esi
1000247e:	83 fe 06             	cmp    esi,0x6
10002481:	0f 87 d9 06 00 00    	ja     10002b60 <_vfprintf_r+0x1d34>
10002487:	8b 44 24 20          	mov    eax,DWORD PTR [esp+0x20]
1000248b:	89 44 24 10          	mov    DWORD PTR [esp+0x10],eax
1000248f:	89 94 24 1c 01 00 00 	mov    DWORD PTR [esp+0x11c],edx
10002496:	c7 44 24 28 1e ca 00 10 	mov    DWORD PTR [esp+0x28],0x1000ca1e
1000249e:	e9 b3 f1 ff ff       	jmp    10001656 <_vfprintf_r+0x82a>
100024a3:	8b 84 24 80 00 00 00 	mov    eax,DWORD PTR [esp+0x80]
100024aa:	83 fb 10             	cmp    ebx,0x10
100024ad:	0f 8e ed 05 00 00    	jle    10002aa0 <_vfprintf_r+0x1c74>
100024b3:	8d 74 24 7c          	lea    esi,[esp+0x7c]
100024b7:	8b bc 24 10 01 00 00 	mov    edi,DWORD PTR [esp+0x110]
100024be:	eb 0f                	jmp    100024cf <_vfprintf_r+0x16a3>
100024c0:	83 c5 08             	add    ebp,0x8
100024c3:	83 eb 10             	sub    ebx,0x10
100024c6:	83 fb 10             	cmp    ebx,0x10
100024c9:	0f 8e d1 05 00 00    	jle    10002aa0 <_vfprintf_r+0x1c74>
100024cf:	c7 45 00 8c cb 00 10 	mov    DWORD PTR [ebp+0x0],0x1000cb8c
100024d6:	c7 45 04 10 00 00 00 	mov    DWORD PTR [ebp+0x4],0x10
100024dd:	83 c2 10             	add    edx,0x10
100024e0:	89 94 24 84 00 00 00 	mov    DWORD PTR [esp+0x84],edx
100024e7:	40                   	inc    eax
100024e8:	89 84 24 80 00 00 00 	mov    DWORD PTR [esp+0x80],eax
100024ef:	83 f8 07             	cmp    eax,0x7
100024f2:	7e cc                	jle    100024c0 <_vfprintf_r+0x1694>
100024f4:	55                   	push   ebp
100024f5:	56                   	push   esi
100024f6:	ff b4 24 1c 01 00 00 	push   DWORD PTR [esp+0x11c]
100024fd:	57                   	push   edi
100024fe:	e8 89 54 00 00       	call   1000798c <__sprint_r>
10002503:	83 c4 10             	add    esp,0x10
10002506:	85 c0                	test   eax,eax
10002508:	0f 85 b2 eb ff ff    	jne    100010c0 <_vfprintf_r+0x294>
1000250e:	8b 94 24 84 00 00 00 	mov    edx,DWORD PTR [esp+0x84]
10002515:	8b 84 24 80 00 00 00 	mov    eax,DWORD PTR [esp+0x80]
1000251c:	8d ac 24 b0 00 00 00 	lea    ebp,[esp+0xb0]
10002523:	eb 9e                	jmp    100024c3 <_vfprintf_r+0x1697>
10002525:	8d 84 24 b0 00 00 00 	lea    eax,[esp+0xb0]
1000252c:	2b 44 24 28          	sub    eax,DWORD PTR [esp+0x28]
10002530:	89 44 24 20          	mov    DWORD PTR [esp+0x20],eax
10002534:	8b 44 24 18          	mov    eax,DWORD PTR [esp+0x18]
10002538:	89 44 24 0c          	mov    DWORD PTR [esp+0xc],eax
1000253c:	e9 cb ed ff ff       	jmp    1000130c <_vfprintf_r+0x4e0>
10002541:	83 ec 0c             	sub    esp,0xc
10002544:	ff 74 24 34          	push   DWORD PTR [esp+0x34]
10002548:	e8 63 e8 ff ff       	call   10000db0 <strlen>
1000254d:	89 44 24 30          	mov    DWORD PTR [esp+0x30],eax
10002551:	8a 5c 24 71          	mov    bl,BYTE PTR [esp+0x71]
10002555:	89 44 24 20          	mov    DWORD PTR [esp+0x20],eax
10002559:	83 c4 10             	add    esp,0x10
1000255c:	85 c0                	test   eax,eax
1000255e:	8b 54 24 0c          	mov    edx,DWORD PTR [esp+0xc]
10002562:	0f 89 f8 ec ff ff    	jns    10001260 <_vfprintf_r+0x434>
10002568:	c7 44 24 10 00 00 00 00 	mov    DWORD PTR [esp+0x10],0x0
10002570:	e9 eb ec ff ff       	jmp    10001260 <_vfprintf_r+0x434>
10002575:	8b 5c 24 34          	mov    ebx,DWORD PTR [esp+0x34]
10002579:	2b 5c 24 30          	sub    ebx,DWORD PTR [esp+0x30]
1000257d:	e9 88 fb ff ff       	jmp    1000210a <_vfprintf_r+0x12de>
10002582:	50                   	push   eax
10002583:	8d 84 24 80 00 00 00 	lea    eax,[esp+0x80]
1000258a:	50                   	push   eax
1000258b:	ff b4 24 1c 01 00 00 	push   DWORD PTR [esp+0x11c]
10002592:	ff b4 24 1c 01 00 00 	push   DWORD PTR [esp+0x11c]
10002599:	e8 ee 53 00 00       	call   1000798c <__sprint_r>
1000259e:	83 c4 10             	add    esp,0x10
100025a1:	85 c0                	test   eax,eax
100025a3:	0f 85 17 eb ff ff    	jne    100010c0 <_vfprintf_r+0x294>
100025a9:	8b 94 24 84 00 00 00 	mov    edx,DWORD PTR [esp+0x84]
100025b0:	8b 8c 24 80 00 00 00 	mov    ecx,DWORD PTR [esp+0x80]
100025b7:	8d 9c 24 b0 00 00 00 	lea    ebx,[esp+0xb0]
100025be:	e9 75 f7 ff ff       	jmp    10001d38 <_vfprintf_r+0xf0c>
100025c3:	50                   	push   eax
100025c4:	8d 84 24 80 00 00 00 	lea    eax,[esp+0x80]
100025cb:	50                   	push   eax
100025cc:	ff b4 24 1c 01 00 00 	push   DWORD PTR [esp+0x11c]
100025d3:	ff b4 24 1c 01 00 00 	push   DWORD PTR [esp+0x11c]
100025da:	e8 ad 53 00 00       	call   1000798c <__sprint_r>
100025df:	83 c4 10             	add    esp,0x10
100025e2:	85 c0                	test   eax,eax
100025e4:	0f 85 d6 ea ff ff    	jne    100010c0 <_vfprintf_r+0x294>
100025ea:	8b 94 24 84 00 00 00 	mov    edx,DWORD PTR [esp+0x84]
100025f1:	8b 8c 24 80 00 00 00 	mov    ecx,DWORD PTR [esp+0x80]
100025f8:	8d 9c 24 b0 00 00 00 	lea    ebx,[esp+0xb0]
100025ff:	e9 0a f7 ff ff       	jmp    10001d0e <_vfprintf_r+0xee2>
10002604:	50                   	push   eax
10002605:	8d 84 24 80 00 00 00 	lea    eax,[esp+0x80]
1000260c:	50                   	push   eax
1000260d:	ff b4 24 1c 01 00 00 	push   DWORD PTR [esp+0x11c]
10002614:	ff b4 24 1c 01 00 00 	push   DWORD PTR [esp+0x11c]
1000261b:	e8 6c 53 00 00       	call   1000798c <__sprint_r>
10002620:	83 c4 10             	add    esp,0x10
10002623:	85 c0                	test   eax,eax
10002625:	0f 85 95 ea ff ff    	jne    100010c0 <_vfprintf_r+0x294>
1000262b:	8b 94 24 84 00 00 00 	mov    edx,DWORD PTR [esp+0x84]
10002632:	8d ac 24 b0 00 00 00 	lea    ebp,[esp+0xb0]
10002639:	e9 62 f0 ff ff       	jmp    100016a0 <_vfprintf_r+0x874>
1000263e:	dd 44 24 38          	fld    QWORD PTR [esp+0x38]
10002642:	dd e8                	fucomp st(0)
10002644:	df e0                	fnstsw ax
10002646:	f6 c4 04             	test   ah,0x4
10002649:	0f 85 d4 08 00 00    	jne    10002f23 <_vfprintf_r+0x20f7>
1000264f:	89 fb                	mov    ebx,edi
10002651:	83 e3 df             	and    ebx,0xffffffdf
10002654:	83 fe ff             	cmp    esi,0xffffffff
10002657:	0f 84 0c 07 00 00    	je     10002d69 <_vfprintf_r+0x1f3d>
1000265d:	83 fb 47             	cmp    ebx,0x47
10002660:	0f 84 2d 05 00 00    	je     10002b93 <_vfprintf_r+0x1d67>
10002666:	8b 44 24 18          	mov    eax,DWORD PTR [esp+0x18]
1000266a:	80 cc 01             	or     ah,0x1
1000266d:	89 44 24 0c          	mov    DWORD PTR [esp+0xc],eax
10002671:	8b 44 24 3c          	mov    eax,DWORD PTR [esp+0x3c]
10002675:	dd 44 24 38          	fld    QWORD PTR [esp+0x38]
10002679:	85 c0                	test   eax,eax
1000267b:	0f 88 d3 04 00 00    	js     10002b54 <_vfprintf_r+0x1d28>
10002681:	c6 44 24 2c 00       	mov    BYTE PTR [esp+0x2c],0x0
10002686:	83 ff 66             	cmp    edi,0x66
10002689:	0f 84 50 03 00 00    	je     100029df <_vfprintf_r+0x1bb3>
1000268f:	83 ff 46             	cmp    edi,0x46
10002692:	0f 84 47 03 00 00    	je     100029df <_vfprintf_r+0x1bb3>
10002698:	83 fb 45             	cmp    ebx,0x45
1000269b:	0f 84 90 05 00 00    	je     10002c31 <_vfprintf_r+0x1e05>
100026a1:	8d 44 24 74          	lea    eax,[esp+0x74]
100026a5:	50                   	push   eax
100026a6:	8d 44 24 6c          	lea    eax,[esp+0x6c]
100026aa:	50                   	push   eax
100026ab:	8d 44 24 6c          	lea    eax,[esp+0x6c]
100026af:	50                   	push   eax
100026b0:	56                   	push   esi
100026b1:	6a 02                	push   0x2
100026b3:	83 ec 08             	sub    esp,0x8
100026b6:	dd 14 24             	fst    QWORD PTR [esp]
100026b9:	dd 5c 24 2c          	fstp   QWORD PTR [esp+0x2c]
100026bd:	ff b4 24 2c 01 00 00 	push   DWORD PTR [esp+0x12c]
100026c4:	e8 97 17 00 00       	call   10003e60 <_dtoa_r>
100026c9:	89 44 24 48          	mov    DWORD PTR [esp+0x48],eax
100026cd:	83 c4 20             	add    esp,0x20
100026d0:	89 f1                	mov    ecx,esi
100026d2:	83 ff 67             	cmp    edi,0x67
100026d5:	dd 44 24 10          	fld    QWORD PTR [esp+0x10]
100026d9:	0f 85 90 05 00 00    	jne    10002c6f <_vfprintf_r+0x1e43>
100026df:	f6 44 24 18 01       	test   BYTE PTR [esp+0x18],0x1
100026e4:	0f 85 8e 05 00 00    	jne    10002c78 <_vfprintf_r+0x1e4c>
100026ea:	dd d8                	fstp   st(0)
100026ec:	8b 44 24 74          	mov    eax,DWORD PTR [esp+0x74]
100026f0:	2b 44 24 28          	sub    eax,DWORD PTR [esp+0x28]
100026f4:	89 44 24 34          	mov    DWORD PTR [esp+0x34],eax
100026f8:	8b 44 24 64          	mov    eax,DWORD PTR [esp+0x64]
100026fc:	89 44 24 30          	mov    DWORD PTR [esp+0x30],eax
10002700:	83 fb 47             	cmp    ebx,0x47
10002703:	75 14                	jne    10002719 <_vfprintf_r+0x18ed>
10002705:	8b 44 24 30          	mov    eax,DWORD PTR [esp+0x30]
10002709:	83 f8 fd             	cmp    eax,0xfffffffd
1000270c:	7c 08                	jl     10002716 <_vfprintf_r+0x18ea>
1000270e:	39 f0                	cmp    eax,esi
10002710:	0f 8e 9c 05 00 00    	jle    10002cb2 <_vfprintf_r+0x1e86>
10002716:	83 ef 02             	sub    edi,0x2
10002719:	8b 5c 24 30          	mov    ebx,DWORD PTR [esp+0x30]
1000271d:	8d 4b ff             	lea    ecx,[ebx-0x1]
10002720:	89 4c 24 64          	mov    DWORD PTR [esp+0x64],ecx
10002724:	89 f8                	mov    eax,edi
10002726:	88 44 24 6d          	mov    BYTE PTR [esp+0x6d],al
1000272a:	85 c9                	test   ecx,ecx
1000272c:	0f 88 a1 07 00 00    	js     10002ed3 <_vfprintf_r+0x20a7>
10002732:	b0 2b                	mov    al,0x2b
10002734:	88 44 24 6e          	mov    BYTE PTR [esp+0x6e],al
10002738:	83 f9 09             	cmp    ecx,0x9
1000273b:	0f 8e 56 07 00 00    	jle    10002e97 <_vfprintf_r+0x206b>
10002741:	8d 5c 24 7b          	lea    ebx,[esp+0x7b]
10002745:	89 7c 24 10          	mov    DWORD PTR [esp+0x10],edi
10002749:	eb 04                	jmp    1000274f <_vfprintf_r+0x1923>
1000274b:	89 f3                	mov    ebx,esi
1000274d:	89 c1                	mov    ecx,eax
1000274f:	8d 73 ff             	lea    esi,[ebx-0x1]
10002752:	89 c8                	mov    eax,ecx
10002754:	bf 0a 00 00 00       	mov    edi,0xa
10002759:	99                   	cdq    
1000275a:	f7 ff                	idiv   edi
1000275c:	83 c2 30             	add    edx,0x30
1000275f:	88 53 ff             	mov    BYTE PTR [ebx-0x1],dl
10002762:	b8 67 66 66 66       	mov    eax,0x66666667
10002767:	f7 e9                	imul   ecx
10002769:	89 d0                	mov    eax,edx
1000276b:	c1 f8 02             	sar    eax,0x2
1000276e:	89 ca                	mov    edx,ecx
10002770:	c1 fa 1f             	sar    edx,0x1f
10002773:	29 d0                	sub    eax,edx
10002775:	83 f9 63             	cmp    ecx,0x63
10002778:	7f d1                	jg     1000274b <_vfprintf_r+0x191f>
1000277a:	8b 7c 24 10          	mov    edi,DWORD PTR [esp+0x10]
1000277e:	8d 48 30             	lea    ecx,[eax+0x30]
10002781:	88 4e ff             	mov    BYTE PTR [esi-0x1],cl
10002784:	8d 43 fe             	lea    eax,[ebx-0x2]
10002787:	8d 74 24 7b          	lea    esi,[esp+0x7b]
1000278b:	39 c6                	cmp    esi,eax
1000278d:	0f 86 f9 07 00 00    	jbe    10002f8c <_vfprintf_r+0x2160>
10002793:	29 de                	sub    esi,ebx
10002795:	ba ff ff ff ff       	mov    edx,0xffffffff
1000279a:	8d 44 24 6d          	lea    eax,[esp+0x6d]
1000279e:	eb 04                	jmp    100027a4 <_vfprintf_r+0x1978>
100027a0:	8a 0c 13             	mov    cl,BYTE PTR [ebx+edx*1]
100027a3:	42                   	inc    edx
100027a4:	88 4c 14 70          	mov    BYTE PTR [esp+edx*1+0x70],cl
100027a8:	39 d6                	cmp    esi,edx
100027aa:	75 f4                	jne    100027a0 <_vfprintf_r+0x1974>
100027ac:	8d 54 24 7d          	lea    edx,[esp+0x7d]
100027b0:	29 da                	sub    edx,ebx
100027b2:	8d 54 14 6f          	lea    edx,[esp+edx*1+0x6f]
100027b6:	29 c2                	sub    edx,eax
100027b8:	89 54 24 4c          	mov    DWORD PTR [esp+0x4c],edx
100027bc:	8b 4c 24 34          	mov    ecx,DWORD PTR [esp+0x34]
100027c0:	8b 44 24 4c          	mov    eax,DWORD PTR [esp+0x4c]
100027c4:	01 c8                	add    eax,ecx
100027c6:	89 44 24 20          	mov    DWORD PTR [esp+0x20],eax
100027ca:	49                   	dec    ecx
100027cb:	0f 8e 10 07 00 00    	jle    10002ee1 <_vfprintf_r+0x20b5>
100027d1:	8b 4c 24 40          	mov    ecx,DWORD PTR [esp+0x40]
100027d5:	01 4c 24 20          	add    DWORD PTR [esp+0x20],ecx
100027d9:	8b 44 24 20          	mov    eax,DWORD PTR [esp+0x20]
100027dd:	89 44 24 10          	mov    DWORD PTR [esp+0x10],eax
100027e1:	85 c0                	test   eax,eax
100027e3:	79 08                	jns    100027ed <_vfprintf_r+0x19c1>
100027e5:	c7 44 24 10 00 00 00 00 	mov    DWORD PTR [esp+0x10],0x0
100027ed:	c7 44 24 30 00 00 00 00 	mov    DWORD PTR [esp+0x30],0x0
100027f5:	e9 8f 02 00 00       	jmp    10002a89 <_vfprintf_r+0x1c5d>
100027fa:	c7 45 00 8c cb 00 10 	mov    DWORD PTR [ebp+0x0],0x1000cb8c
10002801:	89 5d 04             	mov    DWORD PTR [ebp+0x4],ebx
10002804:	01 da                	add    edx,ebx
10002806:	e9 71 f4 ff ff       	jmp    10001c7c <_vfprintf_r+0xe50>
1000280b:	51                   	push   ecx
1000280c:	8d 84 24 80 00 00 00 	lea    eax,[esp+0x80]
10002813:	50                   	push   eax
10002814:	ff b4 24 1c 01 00 00 	push   DWORD PTR [esp+0x11c]
1000281b:	ff b4 24 1c 01 00 00 	push   DWORD PTR [esp+0x11c]
10002822:	e8 65 51 00 00       	call   1000798c <__sprint_r>
10002827:	83 c4 10             	add    esp,0x10
1000282a:	85 c0                	test   eax,eax
1000282c:	0f 85 8e e8 ff ff    	jne    100010c0 <_vfprintf_r+0x294>
10002832:	8d ac 24 b0 00 00 00 	lea    ebp,[esp+0xb0]
10002839:	e9 f6 f0 ff ff       	jmp    10001934 <_vfprintf_r+0xb08>
1000283e:	8d 84 24 b0 00 00 00 	lea    eax,[esp+0xb0]
10002845:	89 7c 24 0c          	mov    DWORD PTR [esp+0xc],edi
10002849:	89 c7                	mov    edi,eax
1000284b:	88 5c 24 10          	mov    BYTE PTR [esp+0x10],bl
1000284f:	eb 05                	jmp    10002856 <_vfprintf_r+0x1a2a>
10002851:	8d 76 00             	lea    esi,[esi+0x0]
10002854:	89 d1                	mov    ecx,edx
10002856:	4f                   	dec    edi
10002857:	b8 cd cc cc cc       	mov    eax,0xcccccccd
1000285c:	f7 e1                	mul    ecx
1000285e:	c1 ea 03             	shr    edx,0x3
10002861:	8d 04 92             	lea    eax,[edx+edx*4]
10002864:	01 c0                	add    eax,eax
10002866:	89 cb                	mov    ebx,ecx
10002868:	29 c3                	sub    ebx,eax
1000286a:	89 d8                	mov    eax,ebx
1000286c:	83 c0 30             	add    eax,0x30
1000286f:	88 07                	mov    BYTE PTR [edi],al
10002871:	83 f9 09             	cmp    ecx,0x9
10002874:	77 de                	ja     10002854 <_vfprintf_r+0x1a28>
10002876:	89 f9                	mov    ecx,edi
10002878:	89 7c 24 28          	mov    DWORD PTR [esp+0x28],edi
1000287c:	8b 7c 24 0c          	mov    edi,DWORD PTR [esp+0xc]
10002880:	8a 5c 24 10          	mov    bl,BYTE PTR [esp+0x10]
10002884:	8d 84 24 b0 00 00 00 	lea    eax,[esp+0xb0]
1000288b:	29 c8                	sub    eax,ecx
1000288d:	89 44 24 20          	mov    DWORD PTR [esp+0x20],eax
10002891:	8b 44 24 18          	mov    eax,DWORD PTR [esp+0x18]
10002895:	89 44 24 0c          	mov    DWORD PTR [esp+0xc],eax
10002899:	e9 6e ea ff ff       	jmp    1000130c <_vfprintf_r+0x4e0>
1000289e:	50                   	push   eax
1000289f:	8d 84 24 80 00 00 00 	lea    eax,[esp+0x80]
100028a6:	50                   	push   eax
100028a7:	ff b4 24 1c 01 00 00 	push   DWORD PTR [esp+0x11c]
100028ae:	ff b4 24 1c 01 00 00 	push   DWORD PTR [esp+0x11c]
100028b5:	e8 d2 50 00 00       	call   1000798c <__sprint_r>
100028ba:	83 c4 10             	add    esp,0x10
100028bd:	85 c0                	test   eax,eax
100028bf:	0f 85 fb e7 ff ff    	jne    100010c0 <_vfprintf_r+0x294>
100028c5:	8b 94 24 84 00 00 00 	mov    edx,DWORD PTR [esp+0x84]
100028cc:	8d ac 24 b0 00 00 00 	lea    ebp,[esp+0xb0]
100028d3:	e9 49 ee ff ff       	jmp    10001721 <_vfprintf_r+0x8f5>
100028d8:	8b 44 24 48          	mov    eax,DWORD PTR [esp+0x48]
100028dc:	89 45 00             	mov    DWORD PTR [ebp+0x0],eax
100028df:	8b 44 24 40          	mov    eax,DWORD PTR [esp+0x40]
100028e3:	89 45 04             	mov    DWORD PTR [ebp+0x4],eax
100028e6:	01 c2                	add    edx,eax
100028e8:	89 94 24 84 00 00 00 	mov    DWORD PTR [esp+0x84],edx
100028ef:	8b 84 24 80 00 00 00 	mov    eax,DWORD PTR [esp+0x80]
100028f6:	40                   	inc    eax
100028f7:	89 84 24 80 00 00 00 	mov    DWORD PTR [esp+0x80],eax
100028fe:	83 f8 07             	cmp    eax,0x7
10002901:	0f 8f 9e 02 00 00    	jg     10002ba5 <_vfprintf_r+0x1d79>
10002907:	83 c5 08             	add    ebp,0x8
1000290a:	85 c9                	test   ecx,ecx
1000290c:	0f 89 5a f3 ff ff    	jns    10001c6c <_vfprintf_r+0xe40>
10002912:	89 cb                	mov    ebx,ecx
10002914:	f7 db                	neg    ebx
10002916:	83 f9 f0             	cmp    ecx,0xfffffff0
10002919:	0f 8d 06 05 00 00    	jge    10002e25 <_vfprintf_r+0x1ff9>
1000291f:	8d 74 24 7c          	lea    esi,[esp+0x7c]
10002923:	8b bc 24 10 01 00 00 	mov    edi,DWORD PTR [esp+0x110]
1000292a:	eb 0f                	jmp    1000293b <_vfprintf_r+0x1b0f>
1000292c:	83 c5 08             	add    ebp,0x8
1000292f:	83 eb 10             	sub    ebx,0x10
10002932:	83 fb 10             	cmp    ebx,0x10
10002935:	0f 8e ea 04 00 00    	jle    10002e25 <_vfprintf_r+0x1ff9>
1000293b:	c7 45 00 8c cb 00 10 	mov    DWORD PTR [ebp+0x0],0x1000cb8c
10002942:	c7 45 04 10 00 00 00 	mov    DWORD PTR [ebp+0x4],0x10
10002949:	83 c2 10             	add    edx,0x10
1000294c:	89 94 24 84 00 00 00 	mov    DWORD PTR [esp+0x84],edx
10002953:	40                   	inc    eax
10002954:	89 84 24 80 00 00 00 	mov    DWORD PTR [esp+0x80],eax
1000295b:	83 f8 07             	cmp    eax,0x7
1000295e:	7e cc                	jle    1000292c <_vfprintf_r+0x1b00>
10002960:	50                   	push   eax
10002961:	56                   	push   esi
10002962:	ff b4 24 1c 01 00 00 	push   DWORD PTR [esp+0x11c]
10002969:	57                   	push   edi
1000296a:	e8 1d 50 00 00       	call   1000798c <__sprint_r>
1000296f:	83 c4 10             	add    esp,0x10
10002972:	85 c0                	test   eax,eax
10002974:	0f 85 46 e7 ff ff    	jne    100010c0 <_vfprintf_r+0x294>
1000297a:	8b 94 24 84 00 00 00 	mov    edx,DWORD PTR [esp+0x84]
10002981:	8b 84 24 80 00 00 00 	mov    eax,DWORD PTR [esp+0x80]
10002988:	8d ac 24 b0 00 00 00 	lea    ebp,[esp+0xb0]
1000298f:	eb 9e                	jmp    1000292f <_vfprintf_r+0x1b03>
10002991:	89 c3                	mov    ebx,eax
10002993:	8d 41 01             	lea    eax,[ecx+0x1]
10002996:	89 44 24 18          	mov    DWORD PTR [esp+0x18],eax
1000299a:	8d 43 08             	lea    eax,[ebx+0x8]
1000299d:	c7 03 8c cb 00 10    	mov    DWORD PTR [ebx],0x1000cb8c
100029a3:	89 73 04             	mov    DWORD PTR [ebx+0x4],esi
100029a6:	01 f2                	add    edx,esi
100029a8:	89 94 24 84 00 00 00 	mov    DWORD PTR [esp+0x84],edx
100029af:	8b 4c 24 18          	mov    ecx,DWORD PTR [esp+0x18]
100029b3:	89 8c 24 80 00 00 00 	mov    DWORD PTR [esp+0x80],ecx
100029ba:	83 f9 07             	cmp    ecx,0x7
100029bd:	0f 8f 29 fa ff ff    	jg     100023ec <_vfprintf_r+0x15c0>
100029c3:	41                   	inc    ecx
100029c4:	89 4c 24 18          	mov    DWORD PTR [esp+0x18],ecx
100029c8:	8d 68 08             	lea    ebp,[eax+0x8]
100029cb:	89 c3                	mov    ebx,eax
100029cd:	e9 c0 f3 ff ff       	jmp    10001d92 <_vfprintf_r+0xf66>
100029d2:	c7 44 24 28 ec c9 00 10 	mov    DWORD PTR [esp+0x28],0x1000c9ec
100029da:	e9 6e ee ff ff       	jmp    1000184d <_vfprintf_r+0xa21>
100029df:	8d 44 24 74          	lea    eax,[esp+0x74]
100029e3:	50                   	push   eax
100029e4:	8d 44 24 6c          	lea    eax,[esp+0x6c]
100029e8:	50                   	push   eax
100029e9:	8d 44 24 6c          	lea    eax,[esp+0x6c]
100029ed:	50                   	push   eax
100029ee:	56                   	push   esi
100029ef:	6a 03                	push   0x3
100029f1:	83 ec 08             	sub    esp,0x8
100029f4:	dd 14 24             	fst    QWORD PTR [esp]
100029f7:	dd 5c 24 2c          	fstp   QWORD PTR [esp+0x2c]
100029fb:	ff b4 24 2c 01 00 00 	push   DWORD PTR [esp+0x12c]
10002a02:	e8 59 14 00 00       	call   10003e60 <_dtoa_r>
10002a07:	89 44 24 48          	mov    DWORD PTR [esp+0x48],eax
10002a0b:	8d 0c 30             	lea    ecx,[eax+esi*1]
10002a0e:	83 c4 20             	add    esp,0x20
10002a11:	dd 44 24 10          	fld    QWORD PTR [esp+0x10]
10002a15:	8b 44 24 28          	mov    eax,DWORD PTR [esp+0x28]
10002a19:	80 38 30             	cmp    BYTE PTR [eax],0x30
10002a1c:	0f 84 4b 01 00 00    	je     10002b6d <_vfprintf_r+0x1d41>
10002a22:	8b 44 24 64          	mov    eax,DWORD PTR [esp+0x64]
10002a26:	01 c1                	add    ecx,eax
10002a28:	d9 ee                	fldz   
10002a2a:	d9 c9                	fxch   st(1)
10002a2c:	da e9                	fucompp 
10002a2e:	df e0                	fnstsw ax
10002a30:	80 e4 45             	and    ah,0x45
10002a33:	80 fc 40             	cmp    ah,0x40
10002a36:	0f 85 45 02 00 00    	jne    10002c81 <_vfprintf_r+0x1e55>
10002a3c:	89 c8                	mov    eax,ecx
10002a3e:	2b 44 24 28          	sub    eax,DWORD PTR [esp+0x28]
10002a42:	89 44 24 34          	mov    DWORD PTR [esp+0x34],eax
10002a46:	8b 44 24 64          	mov    eax,DWORD PTR [esp+0x64]
10002a4a:	89 44 24 30          	mov    DWORD PTR [esp+0x30],eax
10002a4e:	83 fb 47             	cmp    ebx,0x47
10002a51:	0f 84 ae fc ff ff    	je     10002705 <_vfprintf_r+0x18d9>
10002a57:	83 ff 66             	cmp    edi,0x66
10002a5a:	0f 85 b9 fc ff ff    	jne    10002719 <_vfprintf_r+0x18ed>
10002a60:	8b 44 24 18          	mov    eax,DWORD PTR [esp+0x18]
10002a64:	83 e0 01             	and    eax,0x1
10002a67:	09 f0                	or     eax,esi
10002a69:	8b 4c 24 30          	mov    ecx,DWORD PTR [esp+0x30]
10002a6d:	85 c9                	test   ecx,ecx
10002a6f:	0f 8e d3 04 00 00    	jle    10002f48 <_vfprintf_r+0x211c>
10002a75:	85 c0                	test   eax,eax
10002a77:	0f 85 8e 04 00 00    	jne    10002f0b <_vfprintf_r+0x20df>
10002a7d:	8b 44 24 30          	mov    eax,DWORD PTR [esp+0x30]
10002a81:	89 44 24 10          	mov    DWORD PTR [esp+0x10],eax
10002a85:	89 44 24 20          	mov    DWORD PTR [esp+0x20],eax
10002a89:	80 7c 24 2c 00       	cmp    BYTE PTR [esp+0x2c],0x0
10002a8e:	0f 84 13 02 00 00    	je     10002ca7 <_vfprintf_r+0x1e7b>
10002a94:	c6 44 24 61 2d       	mov    BYTE PTR [esp+0x61],0x2d
10002a99:	31 f6                	xor    esi,esi
10002a9b:	e9 8c e8 ff ff       	jmp    1000132c <_vfprintf_r+0x500>
10002aa0:	c7 45 00 8c cb 00 10 	mov    DWORD PTR [ebp+0x0],0x1000cb8c
10002aa7:	89 5d 04             	mov    DWORD PTR [ebp+0x4],ebx
10002aaa:	01 da                	add    edx,ebx
10002aac:	89 94 24 84 00 00 00 	mov    DWORD PTR [esp+0x84],edx
10002ab3:	40                   	inc    eax
10002ab4:	89 84 24 80 00 00 00 	mov    DWORD PTR [esp+0x80],eax
10002abb:	83 f8 07             	cmp    eax,0x7
10002abe:	0f 8f 26 01 00 00    	jg     10002bea <_vfprintf_r+0x1dbe>
10002ac4:	83 c5 08             	add    ebp,0x8
10002ac7:	e9 ec f5 ff ff       	jmp    100020b8 <_vfprintf_r+0x128c>
10002acc:	c6 44 24 61 2d       	mov    BYTE PTR [esp+0x61],0x2d
10002ad1:	b3 2d                	mov    bl,0x2d
10002ad3:	e9 64 ed ff ff       	jmp    1000183c <_vfprintf_r+0xa10>
10002ad8:	51                   	push   ecx
10002ad9:	8d 84 24 80 00 00 00 	lea    eax,[esp+0x80]
10002ae0:	50                   	push   eax
10002ae1:	ff b4 24 1c 01 00 00 	push   DWORD PTR [esp+0x11c]
10002ae8:	ff b4 24 1c 01 00 00 	push   DWORD PTR [esp+0x11c]
10002aef:	e8 98 4e 00 00       	call   1000798c <__sprint_r>
10002af4:	83 c4 10             	add    esp,0x10
10002af7:	85 c0                	test   eax,eax
10002af9:	0f 85 c1 e5 ff ff    	jne    100010c0 <_vfprintf_r+0x294>
10002aff:	8b 4c 24 64          	mov    ecx,DWORD PTR [esp+0x64]
10002b03:	8b 94 24 84 00 00 00 	mov    edx,DWORD PTR [esp+0x84]
10002b0a:	8d ac 24 b0 00 00 00 	lea    ebp,[esp+0xb0]
10002b11:	e9 e2 f5 ff ff       	jmp    100020f8 <_vfprintf_r+0x12cc>
10002b16:	50                   	push   eax
10002b17:	8d 84 24 80 00 00 00 	lea    eax,[esp+0x80]
10002b1e:	50                   	push   eax
10002b1f:	ff b4 24 1c 01 00 00 	push   DWORD PTR [esp+0x11c]
10002b26:	ff b4 24 1c 01 00 00 	push   DWORD PTR [esp+0x11c]
10002b2d:	e8 5a 4e 00 00       	call   1000798c <__sprint_r>
10002b32:	83 c4 10             	add    esp,0x10
10002b35:	85 c0                	test   eax,eax
10002b37:	0f 85 83 e5 ff ff    	jne    100010c0 <_vfprintf_r+0x294>
10002b3d:	8b 4c 24 64          	mov    ecx,DWORD PTR [esp+0x64]
10002b41:	8b 94 24 84 00 00 00 	mov    edx,DWORD PTR [esp+0x84]
10002b48:	8d ac 24 b0 00 00 00 	lea    ebp,[esp+0xb0]
10002b4f:	e9 cd f0 ff ff       	jmp    10001c21 <_vfprintf_r+0xdf5>
10002b54:	d9 e0                	fchs   
10002b56:	c6 44 24 2c 2d       	mov    BYTE PTR [esp+0x2c],0x2d
10002b5b:	e9 26 fb ff ff       	jmp    10002686 <_vfprintf_r+0x185a>
10002b60:	c7 44 24 20 06 00 00 00 	mov    DWORD PTR [esp+0x20],0x6
10002b68:	e9 1a f9 ff ff       	jmp    10002487 <_vfprintf_r+0x165b>
10002b6d:	d9 ee                	fldz   
10002b6f:	d9 c9                	fxch   st(1)
10002b71:	dd e1                	fucom  st(1)
10002b73:	df e0                	fnstsw ax
10002b75:	dd d9                	fstp   st(1)
10002b77:	80 e4 45             	and    ah,0x45
10002b7a:	80 fc 40             	cmp    ah,0x40
10002b7d:	0f 84 9f fe ff ff    	je     10002a22 <_vfprintf_r+0x1bf6>
10002b83:	b8 01 00 00 00       	mov    eax,0x1
10002b88:	29 f0                	sub    eax,esi
10002b8a:	89 44 24 64          	mov    DWORD PTR [esp+0x64],eax
10002b8e:	e9 93 fe ff ff       	jmp    10002a26 <_vfprintf_r+0x1bfa>
10002b93:	85 f6                	test   esi,esi
10002b95:	0f 85 cb fa ff ff    	jne    10002666 <_vfprintf_r+0x183a>
10002b9b:	be 01 00 00 00       	mov    esi,0x1
10002ba0:	e9 c1 fa ff ff       	jmp    10002666 <_vfprintf_r+0x183a>
10002ba5:	50                   	push   eax
10002ba6:	8d 84 24 80 00 00 00 	lea    eax,[esp+0x80]
10002bad:	50                   	push   eax
10002bae:	ff b4 24 1c 01 00 00 	push   DWORD PTR [esp+0x11c]
10002bb5:	ff b4 24 1c 01 00 00 	push   DWORD PTR [esp+0x11c]
10002bbc:	e8 cb 4d 00 00       	call   1000798c <__sprint_r>
10002bc1:	83 c4 10             	add    esp,0x10
10002bc4:	85 c0                	test   eax,eax
10002bc6:	0f 85 f4 e4 ff ff    	jne    100010c0 <_vfprintf_r+0x294>
10002bcc:	8b 4c 24 64          	mov    ecx,DWORD PTR [esp+0x64]
10002bd0:	8b 94 24 84 00 00 00 	mov    edx,DWORD PTR [esp+0x84]
10002bd7:	8b 84 24 80 00 00 00 	mov    eax,DWORD PTR [esp+0x80]
10002bde:	8d ac 24 b0 00 00 00 	lea    ebp,[esp+0xb0]
10002be5:	e9 20 fd ff ff       	jmp    1000290a <_vfprintf_r+0x1ade>
10002bea:	53                   	push   ebx
10002beb:	8d 84 24 80 00 00 00 	lea    eax,[esp+0x80]
10002bf2:	50                   	push   eax
10002bf3:	ff b4 24 1c 01 00 00 	push   DWORD PTR [esp+0x11c]
10002bfa:	ff b4 24 1c 01 00 00 	push   DWORD PTR [esp+0x11c]
10002c01:	e8 86 4d 00 00       	call   1000798c <__sprint_r>
10002c06:	83 c4 10             	add    esp,0x10
10002c09:	85 c0                	test   eax,eax
10002c0b:	0f 85 af e4 ff ff    	jne    100010c0 <_vfprintf_r+0x294>
10002c11:	8b 94 24 84 00 00 00 	mov    edx,DWORD PTR [esp+0x84]
10002c18:	8d ac 24 b0 00 00 00 	lea    ebp,[esp+0xb0]
10002c1f:	e9 94 f4 ff ff       	jmp    100020b8 <_vfprintf_r+0x128c>
10002c24:	8b 44 24 0c          	mov    eax,DWORD PTR [esp+0xc]
10002c28:	89 44 24 18          	mov    DWORD PTR [esp+0x18],eax
10002c2c:	e9 b4 e6 ff ff       	jmp    100012e5 <_vfprintf_r+0x4b9>
10002c31:	8d 4e 01             	lea    ecx,[esi+0x1]
10002c34:	8d 44 24 74          	lea    eax,[esp+0x74]
10002c38:	50                   	push   eax
10002c39:	8d 44 24 6c          	lea    eax,[esp+0x6c]
10002c3d:	50                   	push   eax
10002c3e:	8d 44 24 6c          	lea    eax,[esp+0x6c]
10002c42:	50                   	push   eax
10002c43:	51                   	push   ecx
10002c44:	89 4c 24 30          	mov    DWORD PTR [esp+0x30],ecx
10002c48:	6a 02                	push   0x2
10002c4a:	83 ec 08             	sub    esp,0x8
10002c4d:	dd 14 24             	fst    QWORD PTR [esp]
10002c50:	dd 5c 24 2c          	fstp   QWORD PTR [esp+0x2c]
10002c54:	ff b4 24 2c 01 00 00 	push   DWORD PTR [esp+0x12c]
10002c5b:	e8 00 12 00 00       	call   10003e60 <_dtoa_r>
10002c60:	89 44 24 48          	mov    DWORD PTR [esp+0x48],eax
10002c64:	83 c4 20             	add    esp,0x20
10002c67:	dd 44 24 10          	fld    QWORD PTR [esp+0x10]
10002c6b:	8b 4c 24 20          	mov    ecx,DWORD PTR [esp+0x20]
10002c6f:	83 ff 47             	cmp    edi,0x47
10002c72:	0f 84 67 fa ff ff    	je     100026df <_vfprintf_r+0x18b3>
10002c78:	03 4c 24 28          	add    ecx,DWORD PTR [esp+0x28]
10002c7c:	e9 a7 fd ff ff       	jmp    10002a28 <_vfprintf_r+0x1bfc>
10002c81:	8b 44 24 74          	mov    eax,DWORD PTR [esp+0x74]
10002c85:	39 c8                	cmp    eax,ecx
10002c87:	0f 83 b1 fd ff ff    	jae    10002a3e <_vfprintf_r+0x1c12>
10002c8d:	8d 76 00             	lea    esi,[esi+0x0]
10002c90:	8d 50 01             	lea    edx,[eax+0x1]
10002c93:	89 54 24 74          	mov    DWORD PTR [esp+0x74],edx
10002c97:	c6 00 30             	mov    BYTE PTR [eax],0x30
10002c9a:	8b 44 24 74          	mov    eax,DWORD PTR [esp+0x74]
10002c9e:	39 c1                	cmp    ecx,eax
10002ca0:	77 ee                	ja     10002c90 <_vfprintf_r+0x1e64>
10002ca2:	e9 97 fd ff ff       	jmp    10002a3e <_vfprintf_r+0x1c12>
10002ca7:	8a 5c 24 61          	mov    bl,BYTE PTR [esp+0x61]
10002cab:	31 f6                	xor    esi,esi
10002cad:	e9 72 e6 ff ff       	jmp    10001324 <_vfprintf_r+0x4f8>
10002cb2:	8b 44 24 30          	mov    eax,DWORD PTR [esp+0x30]
10002cb6:	39 44 24 34          	cmp    DWORD PTR [esp+0x34],eax
10002cba:	0f 8f e6 00 00 00    	jg     10002da6 <_vfprintf_r+0x1f7a>
10002cc0:	f6 44 24 18 01       	test   BYTE PTR [esp+0x18],0x1
10002cc5:	0f 85 e5 01 00 00    	jne    10002eb0 <_vfprintf_r+0x2084>
10002ccb:	89 44 24 10          	mov    DWORD PTR [esp+0x10],eax
10002ccf:	85 c0                	test   eax,eax
10002cd1:	79 08                	jns    10002cdb <_vfprintf_r+0x1eaf>
10002cd3:	c7 44 24 10 00 00 00 00 	mov    DWORD PTR [esp+0x10],0x0
10002cdb:	8b 44 24 30          	mov    eax,DWORD PTR [esp+0x30]
10002cdf:	89 44 24 20          	mov    DWORD PTR [esp+0x20],eax
10002ce3:	bf 67 00 00 00       	mov    edi,0x67
10002ce8:	e9 9c fd ff ff       	jmp    10002a89 <_vfprintf_r+0x1c5d>
10002ced:	50                   	push   eax
10002cee:	8d 84 24 80 00 00 00 	lea    eax,[esp+0x80]
10002cf5:	50                   	push   eax
10002cf6:	ff b4 24 1c 01 00 00 	push   DWORD PTR [esp+0x11c]
10002cfd:	ff b4 24 1c 01 00 00 	push   DWORD PTR [esp+0x11c]
10002d04:	e8 83 4c 00 00       	call   1000798c <__sprint_r>
10002d09:	83 c4 10             	add    esp,0x10
10002d0c:	85 c0                	test   eax,eax
10002d0e:	0f 85 ac e3 ff ff    	jne    100010c0 <_vfprintf_r+0x294>
10002d14:	8b 94 24 84 00 00 00 	mov    edx,DWORD PTR [esp+0x84]
10002d1b:	8d ac 24 b0 00 00 00 	lea    ebp,[esp+0xb0]
10002d22:	e9 79 f3 ff ff       	jmp    100020a0 <_vfprintf_r+0x1274>
10002d27:	52                   	push   edx
10002d28:	8d 84 24 80 00 00 00 	lea    eax,[esp+0x80]
10002d2f:	50                   	push   eax
10002d30:	ff b4 24 1c 01 00 00 	push   DWORD PTR [esp+0x11c]
10002d37:	ff b4 24 1c 01 00 00 	push   DWORD PTR [esp+0x11c]
10002d3e:	e8 49 4c 00 00       	call   1000798c <__sprint_r>
10002d43:	83 c4 10             	add    esp,0x10
10002d46:	85 c0                	test   eax,eax
10002d48:	0f 85 72 e3 ff ff    	jne    100010c0 <_vfprintf_r+0x294>
10002d4e:	8b 74 24 34          	mov    esi,DWORD PTR [esp+0x34]
10002d52:	2b 74 24 64          	sub    esi,DWORD PTR [esp+0x64]
10002d56:	8b 94 24 84 00 00 00 	mov    edx,DWORD PTR [esp+0x84]
10002d5d:	8d ac 24 b0 00 00 00 	lea    ebp,[esp+0xb0]
10002d64:	e9 d7 f3 ff ff       	jmp    10002140 <_vfprintf_r+0x1314>
10002d69:	be 06 00 00 00       	mov    esi,0x6
10002d6e:	e9 f3 f8 ff ff       	jmp    10002666 <_vfprintf_r+0x183a>
10002d73:	8a 5c 24 61          	mov    bl,BYTE PTR [esp+0x61]
10002d77:	89 74 24 10          	mov    DWORD PTR [esp+0x10],esi
10002d7b:	89 94 24 1c 01 00 00 	mov    DWORD PTR [esp+0x11c],edx
10002d82:	89 74 24 20          	mov    DWORD PTR [esp+0x20],esi
10002d86:	8b 44 24 18          	mov    eax,DWORD PTR [esp+0x18]
10002d8a:	89 44 24 0c          	mov    DWORD PTR [esp+0xc],eax
10002d8e:	31 f6                	xor    esi,esi
10002d90:	c7 44 24 30 00 00 00 00 	mov    DWORD PTR [esp+0x30],0x0
10002d98:	e9 87 e5 ff ff       	jmp    10001324 <_vfprintf_r+0x4f8>
10002d9d:	88 4c 24 61          	mov    BYTE PTR [esp+0x61],cl
10002da1:	e9 21 e4 ff ff       	jmp    100011c7 <_vfprintf_r+0x39b>
10002da6:	8b 44 24 34          	mov    eax,DWORD PTR [esp+0x34]
10002daa:	03 44 24 40          	add    eax,DWORD PTR [esp+0x40]
10002dae:	89 44 24 20          	mov    DWORD PTR [esp+0x20],eax
10002db2:	8b 5c 24 30          	mov    ebx,DWORD PTR [esp+0x30]
10002db6:	85 db                	test   ebx,ebx
10002db8:	7f 0d                	jg     10002dc7 <_vfprintf_r+0x1f9b>
10002dba:	8b 44 24 20          	mov    eax,DWORD PTR [esp+0x20]
10002dbe:	2b 44 24 30          	sub    eax,DWORD PTR [esp+0x30]
10002dc2:	40                   	inc    eax
10002dc3:	89 44 24 20          	mov    DWORD PTR [esp+0x20],eax
10002dc7:	89 44 24 10          	mov    DWORD PTR [esp+0x10],eax
10002dcb:	85 c0                	test   eax,eax
10002dcd:	0f 88 f3 00 00 00    	js     10002ec6 <_vfprintf_r+0x209a>
10002dd3:	bf 67 00 00 00       	mov    edi,0x67
10002dd8:	e9 ac fc ff ff       	jmp    10002a89 <_vfprintf_r+0x1c5d>
10002ddd:	88 4c 24 61          	mov    BYTE PTR [esp+0x61],cl
10002de1:	e9 7f e6 ff ff       	jmp    10001465 <_vfprintf_r+0x639>
10002de6:	88 4c 24 61          	mov    BYTE PTR [esp+0x61],cl
10002dea:	e9 d5 e9 ff ff       	jmp    100017c4 <_vfprintf_r+0x998>
10002def:	88 4c 24 61          	mov    BYTE PTR [esp+0x61],cl
10002df3:	e9 6b e3 ff ff       	jmp    10001163 <_vfprintf_r+0x337>
10002df8:	88 4c 24 61          	mov    BYTE PTR [esp+0x61],cl
10002dfc:	e9 22 e6 ff ff       	jmp    10001423 <_vfprintf_r+0x5f7>
10002e01:	88 4c 24 61          	mov    BYTE PTR [esp+0x61],cl
10002e05:	e9 e2 e9 ff ff       	jmp    100017ec <_vfprintf_r+0x9c0>
10002e0a:	88 4c 24 61          	mov    BYTE PTR [esp+0x61],cl
10002e0e:	e9 9d e6 ff ff       	jmp    100014b0 <_vfprintf_r+0x684>
10002e13:	88 4c 24 61          	mov    BYTE PTR [esp+0x61],cl
10002e17:	e9 39 e7 ff ff       	jmp    10001555 <_vfprintf_r+0x729>
10002e1c:	88 4c 24 61          	mov    BYTE PTR [esp+0x61],cl
10002e20:	e9 68 e4 ff ff       	jmp    1000128d <_vfprintf_r+0x461>
10002e25:	c7 45 00 8c cb 00 10 	mov    DWORD PTR [ebp+0x0],0x1000cb8c
10002e2c:	89 5d 04             	mov    DWORD PTR [ebp+0x4],ebx
10002e2f:	01 da                	add    edx,ebx
10002e31:	89 94 24 84 00 00 00 	mov    DWORD PTR [esp+0x84],edx
10002e38:	40                   	inc    eax
10002e39:	89 84 24 80 00 00 00 	mov    DWORD PTR [esp+0x80],eax
10002e40:	83 f8 07             	cmp    eax,0x7
10002e43:	0f 8e 20 ee ff ff    	jle    10001c69 <_vfprintf_r+0xe3d>
10002e49:	50                   	push   eax
10002e4a:	8d 84 24 80 00 00 00 	lea    eax,[esp+0x80]
10002e51:	50                   	push   eax
10002e52:	ff b4 24 1c 01 00 00 	push   DWORD PTR [esp+0x11c]
10002e59:	ff b4 24 1c 01 00 00 	push   DWORD PTR [esp+0x11c]
10002e60:	e8 27 4b 00 00       	call   1000798c <__sprint_r>
10002e65:	83 c4 10             	add    esp,0x10
10002e68:	85 c0                	test   eax,eax
10002e6a:	0f 85 50 e2 ff ff    	jne    100010c0 <_vfprintf_r+0x294>
10002e70:	8b 94 24 84 00 00 00 	mov    edx,DWORD PTR [esp+0x84]
10002e77:	8b 84 24 80 00 00 00 	mov    eax,DWORD PTR [esp+0x80]
10002e7e:	8d ac 24 b0 00 00 00 	lea    ebp,[esp+0xb0]
10002e85:	e9 e2 ed ff ff       	jmp    10001c6c <_vfprintf_r+0xe40>
10002e8a:	c7 44 24 24 ff ff ff ff 	mov    DWORD PTR [esp+0x24],0xffffffff
10002e92:	e9 3a e2 ff ff       	jmp    100010d1 <_vfprintf_r+0x2a5>
10002e97:	c6 44 24 6f 30       	mov    BYTE PTR [esp+0x6f],0x30
10002e9c:	83 c1 30             	add    ecx,0x30
10002e9f:	88 4c 24 70          	mov    BYTE PTR [esp+0x70],cl
10002ea3:	c7 44 24 4c 04 00 00 00 	mov    DWORD PTR [esp+0x4c],0x4
10002eab:	e9 0c f9 ff ff       	jmp    100027bc <_vfprintf_r+0x1990>
10002eb0:	8b 44 24 30          	mov    eax,DWORD PTR [esp+0x30]
10002eb4:	03 44 24 40          	add    eax,DWORD PTR [esp+0x40]
10002eb8:	89 44 24 20          	mov    DWORD PTR [esp+0x20],eax
10002ebc:	89 44 24 10          	mov    DWORD PTR [esp+0x10],eax
10002ec0:	0f 89 0d ff ff ff    	jns    10002dd3 <_vfprintf_r+0x1fa7>
10002ec6:	c7 44 24 10 00 00 00 00 	mov    DWORD PTR [esp+0x10],0x0
10002ece:	e9 00 ff ff ff       	jmp    10002dd3 <_vfprintf_r+0x1fa7>
10002ed3:	b9 01 00 00 00       	mov    ecx,0x1
10002ed8:	29 d9                	sub    ecx,ebx
10002eda:	b0 2d                	mov    al,0x2d
10002edc:	e9 53 f8 ff ff       	jmp    10002734 <_vfprintf_r+0x1908>
10002ee1:	8b 4c 24 18          	mov    ecx,DWORD PTR [esp+0x18]
10002ee5:	83 e1 01             	and    ecx,0x1
10002ee8:	89 4c 24 30          	mov    DWORD PTR [esp+0x30],ecx
10002eec:	0f 85 df f8 ff ff    	jne    100027d1 <_vfprintf_r+0x19a5>
10002ef2:	89 44 24 10          	mov    DWORD PTR [esp+0x10],eax
10002ef6:	85 c0                	test   eax,eax
10002ef8:	0f 89 8b fb ff ff    	jns    10002a89 <_vfprintf_r+0x1c5d>
10002efe:	c7 44 24 10 00 00 00 00 	mov    DWORD PTR [esp+0x10],0x0
10002f06:	e9 7e fb ff ff       	jmp    10002a89 <_vfprintf_r+0x1c5d>
10002f0b:	8b 44 24 40          	mov    eax,DWORD PTR [esp+0x40]
10002f0f:	01 c8                	add    eax,ecx
10002f11:	01 f0                	add    eax,esi
10002f13:	89 44 24 20          	mov    DWORD PTR [esp+0x20],eax
10002f17:	89 44 24 10          	mov    DWORD PTR [esp+0x10],eax
10002f1b:	0f 89 68 fb ff ff    	jns    10002a89 <_vfprintf_r+0x1c5d>
10002f21:	eb db                	jmp    10002efe <_vfprintf_r+0x20d2>
10002f23:	dd 44 24 38          	fld    QWORD PTR [esp+0x38]
10002f27:	d9 e5                	fxam   
10002f29:	df e0                	fnstsw ax
10002f2b:	dd d8                	fstp   st(0)
10002f2d:	f6 c4 02             	test   ah,0x2
10002f30:	75 51                	jne    10002f83 <_vfprintf_r+0x2157>
10002f32:	8a 5c 24 61          	mov    bl,BYTE PTR [esp+0x61]
10002f36:	83 ff 47             	cmp    edi,0x47
10002f39:	7e 3b                	jle    10002f76 <_vfprintf_r+0x214a>
10002f3b:	c7 44 24 28 f8 c9 00 10 	mov    DWORD PTR [esp+0x28],0x1000c9f8
10002f43:	e9 05 e9 ff ff       	jmp    1000184d <_vfprintf_r+0xa21>
10002f48:	85 c0                	test   eax,eax
10002f4a:	75 15                	jne    10002f61 <_vfprintf_r+0x2135>
10002f4c:	c7 44 24 10 01 00 00 00 	mov    DWORD PTR [esp+0x10],0x1
10002f54:	c7 44 24 20 01 00 00 00 	mov    DWORD PTR [esp+0x20],0x1
10002f5c:	e9 28 fb ff ff       	jmp    10002a89 <_vfprintf_r+0x1c5d>
10002f61:	8b 44 24 40          	mov    eax,DWORD PTR [esp+0x40]
10002f65:	8d 44 06 01          	lea    eax,[esi+eax*1+0x1]
10002f69:	89 44 24 20          	mov    DWORD PTR [esp+0x20],eax
10002f6d:	eb 83                	jmp    10002ef2 <_vfprintf_r+0x20c6>
10002f6f:	89 e8                	mov    eax,ebp
10002f71:	e9 27 fa ff ff       	jmp    1000299d <_vfprintf_r+0x1b71>
10002f76:	c7 44 24 28 f4 c9 00 10 	mov    DWORD PTR [esp+0x28],0x1000c9f4
10002f7e:	e9 ca e8 ff ff       	jmp    1000184d <_vfprintf_r+0xa21>
10002f83:	c6 44 24 61 2d       	mov    BYTE PTR [esp+0x61],0x2d
10002f88:	b3 2d                	mov    bl,0x2d
10002f8a:	eb aa                	jmp    10002f36 <_vfprintf_r+0x210a>
10002f8c:	c7 44 24 4c 02 00 00 00 	mov    DWORD PTR [esp+0x4c],0x2
10002f94:	e9 23 f8 ff ff       	jmp    100027bc <_vfprintf_r+0x1990>
10002f99:	8d 76 00             	lea    esi,[esi+0x0]

10002f9c <vfprintf>:
10002f9c:	83 ec 0c             	sub    esp,0xc
10002f9f:	ff 74 24 18          	push   DWORD PTR [esp+0x18]
10002fa3:	ff 74 24 18          	push   DWORD PTR [esp+0x18]
10002fa7:	ff 74 24 18          	push   DWORD PTR [esp+0x18]
10002fab:	ff 35 20 e0 00 10    	push   DWORD PTR ds:0x1000e020
10002fb1:	e8 76 de ff ff       	call   10000e2c <_vfprintf_r>
10002fb6:	83 c4 1c             	add    esp,0x1c
10002fb9:	c3                   	ret    
10002fba:	66 90                	xchg   ax,ax

10002fbc <__sbprintf>:
10002fbc:	55                   	push   ebp
10002fbd:	57                   	push   edi
10002fbe:	56                   	push   esi
10002fbf:	53                   	push   ebx
10002fc0:	81 ec 7c 04 00 00    	sub    esp,0x47c
10002fc6:	89 c7                	mov    edi,eax
10002fc8:	89 d3                	mov    ebx,edx
10002fca:	8b 42 0c             	mov    eax,DWORD PTR [edx+0xc]
10002fcd:	83 e0 fd             	and    eax,0xfffffffd
10002fd0:	66 89 44 24 14       	mov    WORD PTR [esp+0x14],ax
10002fd5:	8b 42 64             	mov    eax,DWORD PTR [edx+0x64]
10002fd8:	89 44 24 6c          	mov    DWORD PTR [esp+0x6c],eax
10002fdc:	66 8b 42 0e          	mov    ax,WORD PTR [edx+0xe]
10002fe0:	66 89 44 24 16       	mov    WORD PTR [esp+0x16],ax
10002fe5:	8b 42 1c             	mov    eax,DWORD PTR [edx+0x1c]
10002fe8:	89 44 24 24          	mov    DWORD PTR [esp+0x24],eax
10002fec:	8b 42 24             	mov    eax,DWORD PTR [edx+0x24]
10002fef:	89 44 24 2c          	mov    DWORD PTR [esp+0x2c],eax
10002ff3:	8d 44 24 70          	lea    eax,[esp+0x70]
10002ff7:	89 44 24 08          	mov    DWORD PTR [esp+0x8],eax
10002ffb:	89 44 24 18          	mov    DWORD PTR [esp+0x18],eax
10002fff:	c7 44 24 10 00 04 00 00 	mov    DWORD PTR [esp+0x10],0x400
10003007:	c7 44 24 1c 00 04 00 00 	mov    DWORD PTR [esp+0x1c],0x400
1000300f:	c7 44 24 20 00 00 00 00 	mov    DWORD PTR [esp+0x20],0x0
10003017:	ff b4 24 90 04 00 00 	push   DWORD PTR [esp+0x490]
1000301e:	51                   	push   ecx
1000301f:	8d 6c 24 10          	lea    ebp,[esp+0x10]
10003023:	55                   	push   ebp
10003024:	57                   	push   edi
10003025:	e8 02 de ff ff       	call   10000e2c <_vfprintf_r>
1000302a:	89 c6                	mov    esi,eax
1000302c:	83 c4 10             	add    esp,0x10
1000302f:	85 c0                	test   eax,eax
10003031:	79 19                	jns    1000304c <__sbprintf+0x90>
10003033:	f6 44 24 14 40       	test   BYTE PTR [esp+0x14],0x40
10003038:	74 05                	je     1000303f <__sbprintf+0x83>
1000303a:	66 83 4b 0c 40       	or     WORD PTR [ebx+0xc],0x40
1000303f:	89 f0                	mov    eax,esi
10003041:	81 c4 7c 04 00 00    	add    esp,0x47c
10003047:	5b                   	pop    ebx
10003048:	5e                   	pop    esi
10003049:	5f                   	pop    edi
1000304a:	5d                   	pop    ebp
1000304b:	c3                   	ret    
1000304c:	83 ec 08             	sub    esp,0x8
1000304f:	55                   	push   ebp
10003050:	57                   	push   edi
10003051:	e8 52 23 00 00       	call   100053a8 <_fflush_r>
10003056:	83 c4 10             	add    esp,0x10
10003059:	85 c0                	test   eax,eax
1000305b:	74 d6                	je     10003033 <__sbprintf+0x77>
1000305d:	be ff ff ff ff       	mov    esi,0xffffffff
10003062:	eb cf                	jmp    10003033 <__sbprintf+0x77>

10003064 <__swsetup_r>:
10003064:	53                   	push   ebx
10003065:	83 ec 08             	sub    esp,0x8
10003068:	8b 5c 24 14          	mov    ebx,DWORD PTR [esp+0x14]
1000306c:	a1 20 e0 00 10       	mov    eax,ds:0x1000e020
10003071:	85 c0                	test   eax,eax
10003073:	74 07                	je     1000307c <__swsetup_r+0x18>
10003075:	8b 50 38             	mov    edx,DWORD PTR [eax+0x38]
10003078:	85 d2                	test   edx,edx
1000307a:	74 54                	je     100030d0 <__swsetup_r+0x6c>
1000307c:	8b 43 0c             	mov    eax,DWORD PTR [ebx+0xc]
1000307f:	a8 08                	test   al,0x8
10003081:	74 60                	je     100030e3 <__swsetup_r+0x7f>
10003083:	8b 53 10             	mov    edx,DWORD PTR [ebx+0x10]
10003086:	85 d2                	test   edx,edx
10003088:	74 6f                	je     100030f9 <__swsetup_r+0x95>
1000308a:	a8 01                	test   al,0x1
1000308c:	75 1a                	jne    100030a8 <__swsetup_r+0x44>
1000308e:	a8 02                	test   al,0x2
10003090:	0f 85 8e 00 00 00    	jne    10003124 <__swsetup_r+0xc0>
10003096:	8b 43 14             	mov    eax,DWORD PTR [ebx+0x14]
10003099:	89 43 08             	mov    DWORD PTR [ebx+0x8],eax
1000309c:	85 d2                	test   edx,edx
1000309e:	74 1b                	je     100030bb <__swsetup_r+0x57>
100030a0:	31 c0                	xor    eax,eax
100030a2:	83 c4 08             	add    esp,0x8
100030a5:	5b                   	pop    ebx
100030a6:	c3                   	ret    
100030a7:	90                   	nop
100030a8:	c7 43 08 00 00 00 00 	mov    DWORD PTR [ebx+0x8],0x0
100030af:	8b 43 14             	mov    eax,DWORD PTR [ebx+0x14]
100030b2:	f7 d8                	neg    eax
100030b4:	89 43 18             	mov    DWORD PTR [ebx+0x18],eax
100030b7:	85 d2                	test   edx,edx
100030b9:	75 e5                	jne    100030a0 <__swsetup_r+0x3c>
100030bb:	8b 43 0c             	mov    eax,DWORD PTR [ebx+0xc]
100030be:	a8 80                	test   al,0x80
100030c0:	74 de                	je     100030a0 <__swsetup_r+0x3c>
100030c2:	83 c8 40             	or     eax,0x40
100030c5:	66 89 43 0c          	mov    WORD PTR [ebx+0xc],ax
100030c9:	b8 ff ff ff ff       	mov    eax,0xffffffff
100030ce:	eb d2                	jmp    100030a2 <__swsetup_r+0x3e>
100030d0:	83 ec 0c             	sub    esp,0xc
100030d3:	50                   	push   eax
100030d4:	e8 3f 26 00 00       	call   10005718 <__sinit>
100030d9:	83 c4 10             	add    esp,0x10
100030dc:	8b 43 0c             	mov    eax,DWORD PTR [ebx+0xc]
100030df:	a8 08                	test   al,0x8
100030e1:	75 a0                	jne    10003083 <__swsetup_r+0x1f>
100030e3:	a8 10                	test   al,0x10
100030e5:	74 7e                	je     10003165 <__swsetup_r+0x101>
100030e7:	a8 04                	test   al,0x4
100030e9:	75 41                	jne    1000312c <__swsetup_r+0xc8>
100030eb:	8b 53 10             	mov    edx,DWORD PTR [ebx+0x10]
100030ee:	83 c8 08             	or     eax,0x8
100030f1:	66 89 43 0c          	mov    WORD PTR [ebx+0xc],ax
100030f5:	85 d2                	test   edx,edx
100030f7:	75 91                	jne    1000308a <__swsetup_r+0x26>
100030f9:	89 c1                	mov    ecx,eax
100030fb:	81 e1 80 02 00 00    	and    ecx,0x280
10003101:	66 81 f9 00 02       	cmp    cx,0x200
10003106:	74 82                	je     1000308a <__swsetup_r+0x26>
10003108:	83 ec 08             	sub    esp,0x8
1000310b:	53                   	push   ebx
1000310c:	ff 74 24 1c          	push   DWORD PTR [esp+0x1c]
10003110:	e8 9b 2f 00 00       	call   100060b0 <__smakebuf_r>
10003115:	8b 43 0c             	mov    eax,DWORD PTR [ebx+0xc]
10003118:	8b 53 10             	mov    edx,DWORD PTR [ebx+0x10]
1000311b:	83 c4 10             	add    esp,0x10
1000311e:	e9 67 ff ff ff       	jmp    1000308a <__swsetup_r+0x26>
10003123:	90                   	nop
10003124:	31 c0                	xor    eax,eax
10003126:	e9 6e ff ff ff       	jmp    10003099 <__swsetup_r+0x35>
1000312b:	90                   	nop
1000312c:	8b 53 30             	mov    edx,DWORD PTR [ebx+0x30]
1000312f:	85 d2                	test   edx,edx
10003131:	74 21                	je     10003154 <__swsetup_r+0xf0>
10003133:	8d 4b 40             	lea    ecx,[ebx+0x40]
10003136:	39 ca                	cmp    edx,ecx
10003138:	74 13                	je     1000314d <__swsetup_r+0xe9>
1000313a:	83 ec 08             	sub    esp,0x8
1000313d:	52                   	push   edx
1000313e:	ff 74 24 1c          	push   DWORD PTR [esp+0x1c]
10003142:	e8 f9 26 00 00       	call   10005840 <_free_r>
10003147:	8b 43 0c             	mov    eax,DWORD PTR [ebx+0xc]
1000314a:	83 c4 10             	add    esp,0x10
1000314d:	c7 43 30 00 00 00 00 	mov    DWORD PTR [ebx+0x30],0x0
10003154:	83 e0 db             	and    eax,0xffffffdb
10003157:	c7 43 04 00 00 00 00 	mov    DWORD PTR [ebx+0x4],0x0
1000315e:	8b 53 10             	mov    edx,DWORD PTR [ebx+0x10]
10003161:	89 13                	mov    DWORD PTR [ebx],edx
10003163:	eb 89                	jmp    100030ee <__swsetup_r+0x8a>
10003165:	8b 4c 24 10          	mov    ecx,DWORD PTR [esp+0x10]
10003169:	c7 01 09 00 00 00    	mov    DWORD PTR [ecx],0x9
1000316f:	83 c8 40             	or     eax,0x40
10003172:	66 89 43 0c          	mov    WORD PTR [ebx+0xc],ax
10003176:	b8 ff ff ff ff       	mov    eax,0xffffffff
1000317b:	e9 22 ff ff ff       	jmp    100030a2 <__swsetup_r+0x3e>

10003180 <SystemCall>:
10003180:	55                   	push   ebp
10003181:	89 e5                	mov    ebp,esp
10003183:	53                   	push   ebx
10003184:	83 ec 14             	sub    esp,0x14
10003187:	8b 45 08             	mov    eax,DWORD PTR [ebp+0x8]
1000318a:	8b 5d 0c             	mov    ebx,DWORD PTR [ebp+0xc]
1000318d:	8b 4d 10             	mov    ecx,DWORD PTR [ebp+0x10]
10003190:	8b 55 14             	mov    edx,DWORD PTR [ebp+0x14]
10003193:	cd 60                	int    0x60
10003195:	89 55 e8             	mov    DWORD PTR [ebp-0x18],edx
10003198:	89 45 ec             	mov    DWORD PTR [ebp-0x14],eax
1000319b:	8b 45 e8             	mov    eax,DWORD PTR [ebp-0x18]
1000319e:	89 45 f0             	mov    DWORD PTR [ebp-0x10],eax
100031a1:	c7 45 f4 00 00 00 00 	mov    DWORD PTR [ebp-0xc],0x0
100031a8:	8b 45 f0             	mov    eax,DWORD PTR [ebp-0x10]
100031ab:	8b 55 f4             	mov    edx,DWORD PTR [ebp-0xc]
100031ae:	89 c2                	mov    edx,eax
100031b0:	b8 00 00 00 00       	mov    eax,0x0
100031b5:	89 c1                	mov    ecx,eax
100031b7:	89 d3                	mov    ebx,edx
100031b9:	89 4d f0             	mov    DWORD PTR [ebp-0x10],ecx
100031bc:	89 5d f4             	mov    DWORD PTR [ebp-0xc],ebx
100031bf:	8b 45 ec             	mov    eax,DWORD PTR [ebp-0x14]
100031c2:	ba 00 00 00 00       	mov    edx,0x0
100031c7:	09 45 f0             	or     DWORD PTR [ebp-0x10],eax
100031ca:	09 55 f4             	or     DWORD PTR [ebp-0xc],edx
100031cd:	8b 45 f0             	mov    eax,DWORD PTR [ebp-0x10]
100031d0:	8b 55 f4             	mov    edx,DWORD PTR [ebp-0xc]
100031d3:	83 c4 14             	add    esp,0x14
100031d6:	5b                   	pop    ebx
100031d7:	5d                   	pop    ebp
100031d8:	c3                   	ret    

100031d9 <_exit>:
100031d9:	55                   	push   ebp
100031da:	89 e5                	mov    ebp,esp
100031dc:	8b 45 08             	mov    eax,DWORD PTR [ebp+0x8]
100031df:	6a 00                	push   0x0
100031e1:	6a 00                	push   0x0
100031e3:	50                   	push   eax
100031e4:	6a 01                	push   0x1
100031e6:	e8 95 ff ff ff       	call   10003180 <SystemCall>
100031eb:	83 c4 10             	add    esp,0x10
100031ee:	90                   	nop
100031ef:	c9                   	leave  
100031f0:	c3                   	ret    

100031f1 <close>:
100031f1:	55                   	push   ebp
100031f2:	89 e5                	mov    ebp,esp
100031f4:	83 7d 08 00          	cmp    DWORD PTR [ebp+0x8],0x0
100031f8:	74 0c                	je     10003206 <close+0x15>
100031fa:	83 7d 08 01          	cmp    DWORD PTR [ebp+0x8],0x1
100031fe:	74 06                	je     10003206 <close+0x15>
10003200:	83 7d 08 02          	cmp    DWORD PTR [ebp+0x8],0x2
10003204:	75 07                	jne    1000320d <close+0x1c>
10003206:	b8 00 00 00 00       	mov    eax,0x0
1000320b:	eb 12                	jmp    1000321f <close+0x2e>
1000320d:	8b 45 08             	mov    eax,DWORD PTR [ebp+0x8]
10003210:	6a 00                	push   0x0
10003212:	6a 00                	push   0x0
10003214:	50                   	push   eax
10003215:	6a 09                	push   0x9
10003217:	e8 64 ff ff ff       	call   10003180 <SystemCall>
1000321c:	83 c4 10             	add    esp,0x10
1000321f:	c9                   	leave  
10003220:	c3                   	ret    

10003221 <_environ_setup>:
10003221:	55                   	push   ebp
10003222:	89 e5                	mov    ebp,esp
10003224:	83 ec 18             	sub    esp,0x18
10003227:	c7 05 a8 e8 00 10 80 f2 00 10 	mov    DWORD PTR ds:0x1000e8a8,0x1000f280
10003231:	c7 45 f4 00 00 00 00 	mov    DWORD PTR [ebp-0xc],0x0
10003238:	eb 63                	jmp    1000329d <_environ_setup+0x7c>
1000323a:	8b 45 f4             	mov    eax,DWORD PTR [ebp-0xc]
1000323d:	6a 00                	push   0x0
1000323f:	6a 00                	push   0x0
10003241:	50                   	push   eax
10003242:	6a 21                	push   0x21
10003244:	e8 37 ff ff ff       	call   10003180 <SystemCall>
10003249:	83 c4 10             	add    esp,0x10
1000324c:	89 45 f0             	mov    DWORD PTR [ebp-0x10],eax
1000324f:	83 7d f0 00          	cmp    DWORD PTR [ebp-0x10],0x0
10003253:	74 50                	je     100032a5 <_environ_setup+0x84>
10003255:	83 ec 0c             	sub    esp,0xc
10003258:	ff 75 f0             	push   DWORD PTR [ebp-0x10]
1000325b:	e8 34 d1 ff ff       	call   10000394 <malloc>
10003260:	83 c4 10             	add    esp,0x10
10003263:	89 c2                	mov    edx,eax
10003265:	8b 45 f4             	mov    eax,DWORD PTR [ebp-0xc]
10003268:	89 14 85 80 f2 00 10 	mov    DWORD PTR [eax*4+0x1000f280],edx
1000326f:	8b 45 f4             	mov    eax,DWORD PTR [ebp-0xc]
10003272:	8b 04 85 80 f2 00 10 	mov    eax,DWORD PTR [eax*4+0x1000f280]
10003279:	89 c2                	mov    edx,eax
1000327b:	8b 45 f4             	mov    eax,DWORD PTR [ebp-0xc]
1000327e:	52                   	push   edx
1000327f:	6a 01                	push   0x1
10003281:	50                   	push   eax
10003282:	6a 21                	push   0x21
10003284:	e8 f7 fe ff ff       	call   10003180 <SystemCall>
10003289:	83 c4 10             	add    esp,0x10
1000328c:	8b 45 f4             	mov    eax,DWORD PTR [ebp-0xc]
1000328f:	8b 04 85 80 f2 00 10 	mov    eax,DWORD PTR [eax*4+0x1000f280]
10003296:	85 c0                	test   eax,eax
10003298:	74 0e                	je     100032a8 <_environ_setup+0x87>
1000329a:	ff 45 f4             	inc    DWORD PTR [ebp-0xc]
1000329d:	83 7d f4 7f          	cmp    DWORD PTR [ebp-0xc],0x7f
100032a1:	7e 97                	jle    1000323a <_environ_setup+0x19>
100032a3:	eb 04                	jmp    100032a9 <_environ_setup+0x88>
100032a5:	90                   	nop
100032a6:	eb 01                	jmp    100032a9 <_environ_setup+0x88>
100032a8:	90                   	nop
100032a9:	90                   	nop
100032aa:	c9                   	leave  
100032ab:	c3                   	ret    

100032ac <execve>:
100032ac:	55                   	push   ebp
100032ad:	89 e5                	mov    ebp,esp
100032af:	83 ec 08             	sub    esp,0x8
100032b2:	8b 4d 10             	mov    ecx,DWORD PTR [ebp+0x10]
100032b5:	8b 55 0c             	mov    edx,DWORD PTR [ebp+0xc]
100032b8:	8b 45 08             	mov    eax,DWORD PTR [ebp+0x8]
100032bb:	51                   	push   ecx
100032bc:	52                   	push   edx
100032bd:	50                   	push   eax
100032be:	6a 16                	push   0x16
100032c0:	e8 bb fe ff ff       	call   10003180 <SystemCall>
100032c5:	83 c4 10             	add    esp,0x10
100032c8:	e8 23 1f 00 00       	call   100051f0 <__errno>
100032cd:	c7 00 0c 00 00 00    	mov    DWORD PTR [eax],0xc
100032d3:	b8 ff ff ff ff       	mov    eax,0xffffffff
100032d8:	c9                   	leave  
100032d9:	c3                   	ret    

100032da <fork>:
100032da:	55                   	push   ebp
100032db:	89 e5                	mov    ebp,esp
100032dd:	6a 00                	push   0x0
100032df:	6a 00                	push   0x0
100032e1:	6a 00                	push   0x0
100032e3:	6a 15                	push   0x15
100032e5:	e8 96 fe ff ff       	call   10003180 <SystemCall>
100032ea:	83 c4 10             	add    esp,0x10
100032ed:	c9                   	leave  
100032ee:	c3                   	ret    

100032ef <fstat>:
100032ef:	55                   	push   ebp
100032f0:	89 e5                	mov    ebp,esp
100032f2:	83 ec 10             	sub    esp,0x10
100032f5:	83 7d 08 00          	cmp    DWORD PTR [ebp+0x8],0x0
100032f9:	74 0c                	je     10003307 <fstat+0x18>
100032fb:	83 7d 08 01          	cmp    DWORD PTR [ebp+0x8],0x1
100032ff:	74 06                	je     10003307 <fstat+0x18>
10003301:	83 7d 08 02          	cmp    DWORD PTR [ebp+0x8],0x2
10003305:	75 11                	jne    10003318 <fstat+0x29>
10003307:	8b 45 0c             	mov    eax,DWORD PTR [ebp+0xc]
1000330a:	c7 40 04 00 20 00 00 	mov    DWORD PTR [eax+0x4],0x2000
10003311:	b8 00 00 00 00       	mov    eax,0x0
10003316:	eb 36                	jmp    1000334e <fstat+0x5f>
10003318:	c7 45 f0 00 00 00 00 	mov    DWORD PTR [ebp-0x10],0x0
1000331f:	c7 45 f4 00 00 00 00 	mov    DWORD PTR [ebp-0xc],0x0
10003326:	8d 55 f0             	lea    edx,[ebp-0x10]
10003329:	8b 45 08             	mov    eax,DWORD PTR [ebp+0x8]
1000332c:	6a 00                	push   0x0
1000332e:	52                   	push   edx
1000332f:	50                   	push   eax
10003330:	6a 12                	push   0x12
10003332:	e8 49 fe ff ff       	call   10003180 <SystemCall>
10003337:	83 c4 10             	add    esp,0x10
1000333a:	89 45 fc             	mov    DWORD PTR [ebp-0x4],eax
1000333d:	8b 45 f0             	mov    eax,DWORD PTR [ebp-0x10]
10003340:	8b 55 f4             	mov    edx,DWORD PTR [ebp-0xc]
10003343:	89 c2                	mov    edx,eax
10003345:	8b 45 0c             	mov    eax,DWORD PTR [ebp+0xc]
10003348:	89 50 10             	mov    DWORD PTR [eax+0x10],edx
1000334b:	8b 45 fc             	mov    eax,DWORD PTR [ebp-0x4]
1000334e:	c9                   	leave  
1000334f:	c3                   	ret    

10003350 <getpid>:
10003350:	55                   	push   ebp
10003351:	89 e5                	mov    ebp,esp
10003353:	6a 00                	push   0x0
10003355:	6a 00                	push   0x0
10003357:	6a 00                	push   0x0
10003359:	6a 05                	push   0x5
1000335b:	e8 20 fe ff ff       	call   10003180 <SystemCall>
10003360:	83 c4 10             	add    esp,0x10
10003363:	c9                   	leave  
10003364:	c3                   	ret    

10003365 <isatty>:
10003365:	55                   	push   ebp
10003366:	89 e5                	mov    ebp,esp
10003368:	83 ec 18             	sub    esp,0x18
1000336b:	8b 45 08             	mov    eax,DWORD PTR [ebp+0x8]
1000336e:	6a 00                	push   0x0
10003370:	6a 00                	push   0x0
10003372:	50                   	push   eax
10003373:	6a 1d                	push   0x1d
10003375:	e8 06 fe ff ff       	call   10003180 <SystemCall>
1000337a:	83 c4 10             	add    esp,0x10
1000337d:	89 45 f4             	mov    DWORD PTR [ebp-0xc],eax
10003380:	83 7d f4 01          	cmp    DWORD PTR [ebp-0xc],0x1
10003384:	75 07                	jne    1000338d <isatty+0x28>
10003386:	b8 01 00 00 00       	mov    eax,0x1
1000338b:	eb 28                	jmp    100033b5 <isatty+0x50>
1000338d:	83 7d f4 00          	cmp    DWORD PTR [ebp-0xc],0x0
10003391:	75 12                	jne    100033a5 <isatty+0x40>
10003393:	e8 58 1e 00 00       	call   100051f0 <__errno>
10003398:	c7 00 19 00 00 00    	mov    DWORD PTR [eax],0x19
1000339e:	b8 00 00 00 00       	mov    eax,0x0
100033a3:	eb 10                	jmp    100033b5 <isatty+0x50>
100033a5:	e8 46 1e 00 00       	call   100051f0 <__errno>
100033aa:	c7 00 09 00 00 00    	mov    DWORD PTR [eax],0x9
100033b0:	b8 00 00 00 00       	mov    eax,0x0
100033b5:	c9                   	leave  
100033b6:	c3                   	ret    

100033b7 <link>:
100033b7:	b8 ff ff ff ff       	mov    eax,0xffffffff
100033bc:	c3                   	ret    

100033bd <lseek>:
100033bd:	55                   	push   ebp
100033be:	89 e5                	mov    ebp,esp
100033c0:	53                   	push   ebx
100033c1:	83 ec 24             	sub    esp,0x24
100033c4:	c7 45 f0 00 00 00 00 	mov    DWORD PTR [ebp-0x10],0x0
100033cb:	c7 45 f4 00 00 00 00 	mov    DWORD PTR [ebp-0xc],0x0
100033d2:	83 7d 10 00          	cmp    DWORD PTR [ebp+0x10],0x0
100033d6:	75 0f                	jne    100033e7 <lseek+0x2a>
100033d8:	8b 45 0c             	mov    eax,DWORD PTR [ebp+0xc]
100033db:	99                   	cdq    
100033dc:	89 45 f0             	mov    DWORD PTR [ebp-0x10],eax
100033df:	89 55 f4             	mov    DWORD PTR [ebp-0xc],edx
100033e2:	e9 9a 00 00 00       	jmp    10003481 <lseek+0xc4>
100033e7:	83 7d 10 01          	cmp    DWORD PTR [ebp+0x10],0x1
100033eb:	75 3e                	jne    1000342b <lseek+0x6e>
100033ed:	c7 45 e0 00 00 00 00 	mov    DWORD PTR [ebp-0x20],0x0
100033f4:	c7 45 e4 00 00 00 00 	mov    DWORD PTR [ebp-0x1c],0x0
100033fb:	8d 55 e0             	lea    edx,[ebp-0x20]
100033fe:	8b 45 08             	mov    eax,DWORD PTR [ebp+0x8]
10003401:	6a 00                	push   0x0
10003403:	52                   	push   edx
10003404:	50                   	push   eax
10003405:	6a 11                	push   0x11
10003407:	e8 74 fd ff ff       	call   10003180 <SystemCall>
1000340c:	83 c4 10             	add    esp,0x10
1000340f:	8b 45 0c             	mov    eax,DWORD PTR [ebp+0xc]
10003412:	89 c1                	mov    ecx,eax
10003414:	89 c3                	mov    ebx,eax
10003416:	c1 fb 1f             	sar    ebx,0x1f
10003419:	8b 45 e0             	mov    eax,DWORD PTR [ebp-0x20]
1000341c:	8b 55 e4             	mov    edx,DWORD PTR [ebp-0x1c]
1000341f:	01 c8                	add    eax,ecx
10003421:	11 da                	adc    edx,ebx
10003423:	89 45 f0             	mov    DWORD PTR [ebp-0x10],eax
10003426:	89 55 f4             	mov    DWORD PTR [ebp-0xc],edx
10003429:	eb 56                	jmp    10003481 <lseek+0xc4>
1000342b:	83 7d 10 02          	cmp    DWORD PTR [ebp+0x10],0x2
1000342f:	75 3e                	jne    1000346f <lseek+0xb2>
10003431:	c7 45 d8 00 00 00 00 	mov    DWORD PTR [ebp-0x28],0x0
10003438:	c7 45 dc 00 00 00 00 	mov    DWORD PTR [ebp-0x24],0x0
1000343f:	8d 55 d8             	lea    edx,[ebp-0x28]
10003442:	8b 45 08             	mov    eax,DWORD PTR [ebp+0x8]
10003445:	6a 00                	push   0x0
10003447:	52                   	push   edx
10003448:	50                   	push   eax
10003449:	6a 12                	push   0x12
1000344b:	e8 30 fd ff ff       	call   10003180 <SystemCall>
10003450:	83 c4 10             	add    esp,0x10
10003453:	8b 45 0c             	mov    eax,DWORD PTR [ebp+0xc]
10003456:	89 c1                	mov    ecx,eax
10003458:	89 c3                	mov    ebx,eax
1000345a:	c1 fb 1f             	sar    ebx,0x1f
1000345d:	8b 45 d8             	mov    eax,DWORD PTR [ebp-0x28]
10003460:	8b 55 dc             	mov    edx,DWORD PTR [ebp-0x24]
10003463:	01 c8                	add    eax,ecx
10003465:	11 da                	adc    edx,ebx
10003467:	89 45 f0             	mov    DWORD PTR [ebp-0x10],eax
1000346a:	89 55 f4             	mov    DWORD PTR [ebp-0xc],edx
1000346d:	eb 12                	jmp    10003481 <lseek+0xc4>
1000346f:	e8 7c 1d 00 00       	call   100051f0 <__errno>
10003474:	c7 00 16 00 00 00    	mov    DWORD PTR [eax],0x16
1000347a:	b8 ff ff ff ff       	mov    eax,0xffffffff
1000347f:	eb 27                	jmp    100034a8 <lseek+0xeb>
10003481:	8b 55 f0             	mov    edx,DWORD PTR [ebp-0x10]
10003484:	8b 45 08             	mov    eax,DWORD PTR [ebp+0x8]
10003487:	6a 00                	push   0x0
10003489:	52                   	push   edx
1000348a:	50                   	push   eax
1000348b:	6a 10                	push   0x10
1000348d:	e8 ee fc ff ff       	call   10003180 <SystemCall>
10003492:	83 c4 10             	add    esp,0x10
10003495:	89 45 ec             	mov    DWORD PTR [ebp-0x14],eax
10003498:	83 7d ec 00          	cmp    DWORD PTR [ebp-0x14],0x0
1000349c:	74 07                	je     100034a5 <lseek+0xe8>
1000349e:	b8 ff ff ff ff       	mov    eax,0xffffffff
100034a3:	eb 03                	jmp    100034a8 <lseek+0xeb>
100034a5:	8b 45 f0             	mov    eax,DWORD PTR [ebp-0x10]
100034a8:	8b 5d fc             	mov    ebx,DWORD PTR [ebp-0x4]
100034ab:	c9                   	leave  
100034ac:	c3                   	ret    

100034ad <open>:
100034ad:	55                   	push   ebp
100034ae:	89 e5                	mov    ebp,esp
100034b0:	56                   	push   esi
100034b1:	53                   	push   ebx
100034b2:	83 ec 38             	sub    esp,0x38
100034b5:	c6 45 f7 00          	mov    BYTE PTR [ebp-0x9],0x0
100034b9:	c6 45 f6 00          	mov    BYTE PTR [ebp-0xa],0x0
100034bd:	c6 45 f5 00          	mov    BYTE PTR [ebp-0xb],0x0
100034c1:	c6 45 f4 00          	mov    BYTE PTR [ebp-0xc],0x0
100034c5:	c6 45 f3 00          	mov    BYTE PTR [ebp-0xd],0x0
100034c9:	83 7d 0c 00          	cmp    DWORD PTR [ebp+0xc],0x0
100034cd:	75 04                	jne    100034d3 <open+0x26>
100034cf:	c6 45 f7 01          	mov    BYTE PTR [ebp-0x9],0x1
100034d3:	83 7d 0c 01          	cmp    DWORD PTR [ebp+0xc],0x1
100034d7:	75 04                	jne    100034dd <open+0x30>
100034d9:	c6 45 f6 01          	mov    BYTE PTR [ebp-0xa],0x1
100034dd:	83 7d 0c 02          	cmp    DWORD PTR [ebp+0xc],0x2
100034e1:	75 08                	jne    100034eb <open+0x3e>
100034e3:	c6 45 f7 01          	mov    BYTE PTR [ebp-0x9],0x1
100034e7:	c6 45 f6 01          	mov    BYTE PTR [ebp-0xa],0x1
100034eb:	8b 45 0c             	mov    eax,DWORD PTR [ebp+0xc]
100034ee:	83 e0 08             	and    eax,0x8
100034f1:	85 c0                	test   eax,eax
100034f3:	74 04                	je     100034f9 <open+0x4c>
100034f5:	c6 45 f5 01          	mov    BYTE PTR [ebp-0xb],0x1
100034f9:	8b 45 0c             	mov    eax,DWORD PTR [ebp+0xc]
100034fc:	25 00 02 00 00       	and    eax,0x200
10003501:	85 c0                	test   eax,eax
10003503:	74 04                	je     10003509 <open+0x5c>
10003505:	c6 45 f3 01          	mov    BYTE PTR [ebp-0xd],0x1
10003509:	8b 45 0c             	mov    eax,DWORD PTR [ebp+0xc]
1000350c:	25 00 04 00 00       	and    eax,0x400
10003511:	85 c0                	test   eax,eax
10003513:	74 04                	je     10003519 <open+0x6c>
10003515:	c6 45 f4 01          	mov    BYTE PTR [ebp-0xc],0x1
10003519:	c7 45 ec 00 00 00 00 	mov    DWORD PTR [ebp-0x14],0x0
10003520:	80 7d f7 00          	cmp    BYTE PTR [ebp-0x9],0x0
10003524:	74 04                	je     1000352a <open+0x7d>
10003526:	83 4d ec 01          	or     DWORD PTR [ebp-0x14],0x1
1000352a:	80 7d f6 00          	cmp    BYTE PTR [ebp-0xa],0x0
1000352e:	74 04                	je     10003534 <open+0x87>
10003530:	83 4d ec 02          	or     DWORD PTR [ebp-0x14],0x2
10003534:	80 7d f5 00          	cmp    BYTE PTR [ebp-0xb],0x0
10003538:	74 08                	je     10003542 <open+0x95>
1000353a:	83 4d ec 02          	or     DWORD PTR [ebp-0x14],0x2
1000353e:	83 4d ec 04          	or     DWORD PTR [ebp-0x14],0x4
10003542:	80 7d f4 00          	cmp    BYTE PTR [ebp-0xc],0x0
10003546:	74 04                	je     1000354c <open+0x9f>
10003548:	83 4d ec 10          	or     DWORD PTR [ebp-0x14],0x10
1000354c:	80 7d f3 00          	cmp    BYTE PTR [ebp-0xd],0x0
10003550:	74 04                	je     10003556 <open+0xa9>
10003552:	83 4d ec 10          	or     DWORD PTR [ebp-0x14],0x10
10003556:	c7 45 e8 ff ff ff ff 	mov    DWORD PTR [ebp-0x18],0xffffffff
1000355d:	8b 45 0c             	mov    eax,DWORD PTR [ebp+0xc]
10003560:	25 00 00 20 00       	and    eax,0x200000
10003565:	85 c0                	test   eax,eax
10003567:	74 5e                	je     100035c7 <open+0x11a>
10003569:	c7 45 d8 00 00 00 00 	mov    DWORD PTR [ebp-0x28],0x0
10003570:	c7 45 dc 00 00 00 00 	mov    DWORD PTR [ebp-0x24],0x0
10003577:	8b 55 08             	mov    edx,DWORD PTR [ebp+0x8]
1000357a:	8d 45 d8             	lea    eax,[ebp-0x28]
1000357d:	52                   	push   edx
1000357e:	6a 00                	push   0x0
10003580:	50                   	push   eax
10003581:	6a 0a                	push   0xa
10003583:	e8 f8 fb ff ff       	call   10003180 <SystemCall>
10003588:	83 c4 10             	add    esp,0x10
1000358b:	89 45 e4             	mov    DWORD PTR [ebp-0x1c],eax
1000358e:	83 7d e4 00          	cmp    DWORD PTR [ebp-0x1c],0x0
10003592:	0f 85 89 00 00 00    	jne    10003621 <open+0x174>
10003598:	8b 45 d8             	mov    eax,DWORD PTR [ebp-0x28]
1000359b:	8b 55 dc             	mov    edx,DWORD PTR [ebp-0x24]
1000359e:	89 c6                	mov    esi,eax
100035a0:	83 f6 00             	xor    esi,0x0
100035a3:	89 75 c0             	mov    DWORD PTR [ebp-0x40],esi
100035a6:	89 d0                	mov    eax,edx
100035a8:	80 f4 00             	xor    ah,0x0
100035ab:	89 45 c4             	mov    DWORD PTR [ebp-0x3c],eax
100035ae:	8b 4d c0             	mov    ecx,DWORD PTR [ebp-0x40]
100035b1:	8b 5d c4             	mov    ebx,DWORD PTR [ebp-0x3c]
100035b4:	89 d8                	mov    eax,ebx
100035b6:	09 c8                	or     eax,ecx
100035b8:	85 c0                	test   eax,eax
100035ba:	74 65                	je     10003621 <open+0x174>
100035bc:	8b 45 d8             	mov    eax,DWORD PTR [ebp-0x28]
100035bf:	8b 55 dc             	mov    edx,DWORD PTR [ebp-0x24]
100035c2:	89 45 e8             	mov    DWORD PTR [ebp-0x18],eax
100035c5:	eb 5a                	jmp    10003621 <open+0x174>
100035c7:	c7 45 d0 00 00 00 00 	mov    DWORD PTR [ebp-0x30],0x0
100035ce:	c7 45 d4 00 00 00 00 	mov    DWORD PTR [ebp-0x2c],0x0
100035d5:	8b 55 08             	mov    edx,DWORD PTR [ebp+0x8]
100035d8:	8b 45 0c             	mov    eax,DWORD PTR [ebp+0xc]
100035db:	c1 e0 08             	shl    eax,0x8
100035de:	0b 45 ec             	or     eax,DWORD PTR [ebp-0x14]
100035e1:	89 c1                	mov    ecx,eax
100035e3:	8d 45 d0             	lea    eax,[ebp-0x30]
100035e6:	52                   	push   edx
100035e7:	51                   	push   ecx
100035e8:	50                   	push   eax
100035e9:	6a 08                	push   0x8
100035eb:	e8 90 fb ff ff       	call   10003180 <SystemCall>
100035f0:	83 c4 10             	add    esp,0x10
100035f3:	89 45 e0             	mov    DWORD PTR [ebp-0x20],eax
100035f6:	83 7d e0 00          	cmp    DWORD PTR [ebp-0x20],0x0
100035fa:	75 25                	jne    10003621 <open+0x174>
100035fc:	8b 45 d0             	mov    eax,DWORD PTR [ebp-0x30]
100035ff:	8b 55 d4             	mov    edx,DWORD PTR [ebp-0x2c]
10003602:	89 c1                	mov    ecx,eax
10003604:	80 f5 00             	xor    ch,0x0
10003607:	89 cb                	mov    ebx,ecx
10003609:	89 d0                	mov    eax,edx
1000360b:	80 f4 00             	xor    ah,0x0
1000360e:	89 c6                	mov    esi,eax
10003610:	89 f0                	mov    eax,esi
10003612:	09 d8                	or     eax,ebx
10003614:	85 c0                	test   eax,eax
10003616:	74 09                	je     10003621 <open+0x174>
10003618:	8b 45 d0             	mov    eax,DWORD PTR [ebp-0x30]
1000361b:	8b 55 d4             	mov    edx,DWORD PTR [ebp-0x2c]
1000361e:	89 45 e8             	mov    DWORD PTR [ebp-0x18],eax
10003621:	8b 45 e8             	mov    eax,DWORD PTR [ebp-0x18]
10003624:	8d 65 f8             	lea    esp,[ebp-0x8]
10003627:	5b                   	pop    ebx
10003628:	5e                   	pop    esi
10003629:	5d                   	pop    ebp
1000362a:	c3                   	ret    

1000362b <read>:
1000362b:	55                   	push   ebp
1000362c:	89 e5                	mov    ebp,esp
1000362e:	8b 4d 0c             	mov    ecx,DWORD PTR [ebp+0xc]
10003631:	8b 55 10             	mov    edx,DWORD PTR [ebp+0x10]
10003634:	8b 45 08             	mov    eax,DWORD PTR [ebp+0x8]
10003637:	51                   	push   ecx
10003638:	52                   	push   edx
10003639:	50                   	push   eax
1000363a:	6a 04                	push   0x4
1000363c:	e8 3f fb ff ff       	call   10003180 <SystemCall>
10003641:	83 c4 10             	add    esp,0x10
10003644:	c9                   	leave  
10003645:	c3                   	ret    

10003646 <sbrk>:
10003646:	55                   	push   ebp
10003647:	89 e5                	mov    ebp,esp
10003649:	8b 45 08             	mov    eax,DWORD PTR [ebp+0x8]
1000364c:	6a 00                	push   0x0
1000364e:	6a 00                	push   0x0
10003650:	50                   	push   eax
10003651:	6a 02                	push   0x2
10003653:	e8 28 fb ff ff       	call   10003180 <SystemCall>
10003658:	83 c4 10             	add    esp,0x10
1000365b:	c9                   	leave  
1000365c:	c3                   	ret    

1000365d <stat>:
1000365d:	55                   	push   ebp
1000365e:	89 e5                	mov    ebp,esp
10003660:	83 ec 10             	sub    esp,0x10
10003663:	83 7d 08 00          	cmp    DWORD PTR [ebp+0x8],0x0
10003667:	74 0c                	je     10003675 <stat+0x18>
10003669:	83 7d 08 01          	cmp    DWORD PTR [ebp+0x8],0x1
1000366d:	74 06                	je     10003675 <stat+0x18>
1000366f:	83 7d 08 02          	cmp    DWORD PTR [ebp+0x8],0x2
10003673:	75 11                	jne    10003686 <stat+0x29>
10003675:	8b 45 0c             	mov    eax,DWORD PTR [ebp+0xc]
10003678:	c7 40 04 00 20 00 00 	mov    DWORD PTR [eax+0x4],0x2000
1000367f:	b8 00 00 00 00       	mov    eax,0x0
10003684:	eb 36                	jmp    100036bc <stat+0x5f>
10003686:	c7 45 f0 00 00 00 00 	mov    DWORD PTR [ebp-0x10],0x0
1000368d:	c7 45 f4 00 00 00 00 	mov    DWORD PTR [ebp-0xc],0x0
10003694:	8d 55 f0             	lea    edx,[ebp-0x10]
10003697:	8b 45 08             	mov    eax,DWORD PTR [ebp+0x8]
1000369a:	6a 00                	push   0x0
1000369c:	52                   	push   edx
1000369d:	50                   	push   eax
1000369e:	6a 1f                	push   0x1f
100036a0:	e8 db fa ff ff       	call   10003180 <SystemCall>
100036a5:	83 c4 10             	add    esp,0x10
100036a8:	89 45 fc             	mov    DWORD PTR [ebp-0x4],eax
100036ab:	8b 45 f0             	mov    eax,DWORD PTR [ebp-0x10]
100036ae:	8b 55 f4             	mov    edx,DWORD PTR [ebp-0xc]
100036b1:	89 c2                	mov    edx,eax
100036b3:	8b 45 0c             	mov    eax,DWORD PTR [ebp+0xc]
100036b6:	89 50 10             	mov    DWORD PTR [eax+0x10],edx
100036b9:	8b 45 fc             	mov    eax,DWORD PTR [ebp-0x4]
100036bc:	c9                   	leave  
100036bd:	c3                   	ret    

100036be <times>:
100036be:	b8 ff ff ff ff       	mov    eax,0xffffffff
100036c3:	c3                   	ret    

100036c4 <unlink>:
100036c4:	55                   	push   ebp
100036c5:	89 e5                	mov    ebp,esp
100036c7:	8b 45 08             	mov    eax,DWORD PTR [ebp+0x8]
100036ca:	50                   	push   eax
100036cb:	6a 00                	push   0x0
100036cd:	6a 00                	push   0x0
100036cf:	6a 18                	push   0x18
100036d1:	e8 aa fa ff ff       	call   10003180 <SystemCall>
100036d6:	83 c4 10             	add    esp,0x10
100036d9:	c9                   	leave  
100036da:	c3                   	ret    

100036db <wait>:
100036db:	55                   	push   ebp
100036dc:	89 e5                	mov    ebp,esp
100036de:	83 ec 08             	sub    esp,0x8
100036e1:	83 ec 04             	sub    esp,0x4
100036e4:	6a 00                	push   0x0
100036e6:	ff 75 08             	push   DWORD PTR [ebp+0x8]
100036e9:	6a ff                	push   0xffffffff
100036eb:	e8 f9 02 00 00       	call   100039e9 <waitpid>
100036f0:	83 c4 10             	add    esp,0x10
100036f3:	c9                   	leave  
100036f4:	c3                   	ret    

100036f5 <write>:
100036f5:	55                   	push   ebp
100036f6:	89 e5                	mov    ebp,esp
100036f8:	8b 4d 0c             	mov    ecx,DWORD PTR [ebp+0xc]
100036fb:	8b 55 10             	mov    edx,DWORD PTR [ebp+0x10]
100036fe:	8b 45 08             	mov    eax,DWORD PTR [ebp+0x8]
10003701:	51                   	push   ecx
10003702:	52                   	push   edx
10003703:	50                   	push   eax
10003704:	6a 03                	push   0x3
10003706:	e8 75 fa ff ff       	call   10003180 <SystemCall>
1000370b:	83 c4 10             	add    esp,0x10
1000370e:	c9                   	leave  
1000370f:	c3                   	ret    

10003710 <gettimeofday>:
10003710:	55                   	push   ebp
10003711:	89 e5                	mov    ebp,esp
10003713:	83 7d 08 00          	cmp    DWORD PTR [ebp+0x8],0x0
10003717:	74 21                	je     1000373a <gettimeofday+0x2a>
10003719:	8b 45 08             	mov    eax,DWORD PTR [ebp+0x8]
1000371c:	c7 40 04 00 00 00 00 	mov    DWORD PTR [eax+0x4],0x0
10003723:	6a 00                	push   0x0
10003725:	6a 00                	push   0x0
10003727:	6a 00                	push   0x0
10003729:	6a 2a                	push   0x2a
1000372b:	e8 50 fa ff ff       	call   10003180 <SystemCall>
10003730:	83 c4 10             	add    esp,0x10
10003733:	89 c2                	mov    edx,eax
10003735:	8b 45 08             	mov    eax,DWORD PTR [ebp+0x8]
10003738:	89 10                	mov    DWORD PTR [eax],edx
1000373a:	b8 00 00 00 00       	mov    eax,0x0
1000373f:	c9                   	leave  
10003740:	c3                   	ret    

10003741 <kill>:
10003741:	55                   	push   ebp
10003742:	89 e5                	mov    ebp,esp
10003744:	8b 55 08             	mov    edx,DWORD PTR [ebp+0x8]
10003747:	8b 45 0c             	mov    eax,DWORD PTR [ebp+0xc]
1000374a:	6a 00                	push   0x0
1000374c:	52                   	push   edx
1000374d:	50                   	push   eax
1000374e:	6a 33                	push   0x33
10003750:	e8 2b fa ff ff       	call   10003180 <SystemCall>
10003755:	83 c4 10             	add    esp,0x10
10003758:	c9                   	leave  
10003759:	c3                   	ret    

1000375a <signal>:
1000375a:	55                   	push   ebp
1000375b:	89 e5                	mov    ebp,esp
1000375d:	83 ec 10             	sub    esp,0x10
10003760:	8b 55 0c             	mov    edx,DWORD PTR [ebp+0xc]
10003763:	8b 45 08             	mov    eax,DWORD PTR [ebp+0x8]
10003766:	52                   	push   edx
10003767:	6a 00                	push   0x0
10003769:	50                   	push   eax
1000376a:	6a 32                	push   0x32
1000376c:	e8 0f fa ff ff       	call   10003180 <SystemCall>
10003771:	83 c4 10             	add    esp,0x10
10003774:	89 45 fc             	mov    DWORD PTR [ebp-0x4],eax
10003777:	83 7d fc 00          	cmp    DWORD PTR [ebp-0x4],0x0
1000377b:	74 07                	je     10003784 <signal+0x2a>
1000377d:	b8 ff ff ff ff       	mov    eax,0xffffffff
10003782:	eb 03                	jmp    10003787 <signal+0x2d>
10003784:	8b 45 0c             	mov    eax,DWORD PTR [ebp+0xc]
10003787:	c9                   	leave  
10003788:	c3                   	ret    

10003789 <_readdir>:
10003789:	55                   	push   ebp
1000378a:	89 e5                	mov    ebp,esp
1000378c:	83 ec 10             	sub    esp,0x10
1000378f:	8b 45 08             	mov    eax,DWORD PTR [ebp+0x8]
10003792:	89 45 f8             	mov    DWORD PTR [ebp-0x8],eax
10003795:	c7 45 fc 00 00 00 00 	mov    DWORD PTR [ebp-0x4],0x0
1000379c:	8b 45 0c             	mov    eax,DWORD PTR [ebp+0xc]
1000379f:	50                   	push   eax
100037a0:	ff 75 08             	push   DWORD PTR [ebp+0x8]
100037a3:	6a 00                	push   0x0
100037a5:	6a 0b                	push   0xb
100037a7:	e8 d4 f9 ff ff       	call   10003180 <SystemCall>
100037ac:	83 c4 10             	add    esp,0x10
100037af:	c9                   	leave  
100037b0:	c3                   	ret    

100037b1 <opendir>:
100037b1:	55                   	push   ebp
100037b2:	89 e5                	mov    ebp,esp
100037b4:	83 ec 18             	sub    esp,0x18
100037b7:	68 00 00 20 00       	push   0x200000
100037bc:	ff 75 08             	push   DWORD PTR [ebp+0x8]
100037bf:	e8 e9 fc ff ff       	call   100034ad <open>
100037c4:	83 c4 08             	add    esp,0x8
100037c7:	89 45 f4             	mov    DWORD PTR [ebp-0xc],eax
100037ca:	83 7d f4 ff          	cmp    DWORD PTR [ebp-0xc],0xffffffff
100037ce:	74 06                	je     100037d6 <opendir+0x25>
100037d0:	83 7d f4 00          	cmp    DWORD PTR [ebp-0xc],0x0
100037d4:	75 07                	jne    100037dd <opendir+0x2c>
100037d6:	b8 00 00 00 00       	mov    eax,0x0
100037db:	eb 1f                	jmp    100037fc <opendir+0x4b>
100037dd:	83 ec 0c             	sub    esp,0xc
100037e0:	6a 04                	push   0x4
100037e2:	e8 ad cb ff ff       	call   10000394 <malloc>
100037e7:	83 c4 10             	add    esp,0x10
100037ea:	89 45 f0             	mov    DWORD PTR [ebp-0x10],eax
100037ed:	8b 45 f4             	mov    eax,DWORD PTR [ebp-0xc]
100037f0:	99                   	cdq    
100037f1:	8b 4d f0             	mov    ecx,DWORD PTR [ebp-0x10]
100037f4:	89 01                	mov    DWORD PTR [ecx],eax
100037f6:	89 51 04             	mov    DWORD PTR [ecx+0x4],edx
100037f9:	8b 45 f0             	mov    eax,DWORD PTR [ebp-0x10]
100037fc:	c9                   	leave  
100037fd:	c3                   	ret    

100037fe <readdir>:
100037fe:	55                   	push   ebp
100037ff:	89 e5                	mov    ebp,esp
10003801:	83 ec 18             	sub    esp,0x18
10003804:	83 ec 04             	sub    esp,0x4
10003807:	68 10 01 00 00       	push   0x110
1000380c:	6a 00                	push   0x0
1000380e:	68 00 f1 00 10       	push   0x1000f100
10003813:	e8 4a d3 ff ff       	call   10000b62 <memset>
10003818:	83 c4 10             	add    esp,0x10
1000381b:	c7 45 f4 00 f1 00 10 	mov    DWORD PTR [ebp-0xc],0x1000f100
10003822:	8b 45 08             	mov    eax,DWORD PTR [ebp+0x8]
10003825:	8b 50 04             	mov    edx,DWORD PTR [eax+0x4]
10003828:	8b 00                	mov    eax,DWORD PTR [eax]
1000382a:	83 ec 04             	sub    esp,0x4
1000382d:	68 10 01 00 00       	push   0x110
10003832:	ff 75 f4             	push   DWORD PTR [ebp-0xc]
10003835:	50                   	push   eax
10003836:	e8 4e ff ff ff       	call   10003789 <_readdir>
1000383b:	83 c4 10             	add    esp,0x10
1000383e:	89 45 f0             	mov    DWORD PTR [ebp-0x10],eax
10003841:	83 7d f0 00          	cmp    DWORD PTR [ebp-0x10],0x0
10003845:	74 07                	je     1000384e <readdir+0x50>
10003847:	b8 00 00 00 00       	mov    eax,0x0
1000384c:	eb 03                	jmp    10003851 <readdir+0x53>
1000384e:	8b 45 f4             	mov    eax,DWORD PTR [ebp-0xc]
10003851:	c9                   	leave  
10003852:	c3                   	ret    

10003853 <readdir_r>:
10003853:	b8 ff ff ff ff       	mov    eax,0xffffffff
10003858:	c3                   	ret    

10003859 <closedir>:
10003859:	55                   	push   ebp
1000385a:	89 e5                	mov    ebp,esp
1000385c:	83 ec 18             	sub    esp,0x18
1000385f:	8b 45 08             	mov    eax,DWORD PTR [ebp+0x8]
10003862:	8b 50 04             	mov    edx,DWORD PTR [eax+0x4]
10003865:	8b 00                	mov    eax,DWORD PTR [eax]
10003867:	89 45 f4             	mov    DWORD PTR [ebp-0xc],eax
1000386a:	83 ec 0c             	sub    esp,0xc
1000386d:	ff 75 08             	push   DWORD PTR [ebp+0x8]
10003870:	e8 37 cb ff ff       	call   100003ac <free>
10003875:	83 c4 10             	add    esp,0x10
10003878:	8b 45 f4             	mov    eax,DWORD PTR [ebp-0xc]
1000387b:	6a 00                	push   0x0
1000387d:	6a 00                	push   0x0
1000387f:	50                   	push   eax
10003880:	6a 0f                	push   0xf
10003882:	e8 f9 f8 ff ff       	call   10003180 <SystemCall>
10003887:	83 c4 10             	add    esp,0x10
1000388a:	c9                   	leave  
1000388b:	c3                   	ret    

1000388c <seekdir>:
1000388c:	55                   	push   ebp
1000388d:	89 e5                	mov    ebp,esp
1000388f:	8b 45 08             	mov    eax,DWORD PTR [ebp+0x8]
10003892:	8b 50 04             	mov    edx,DWORD PTR [eax+0x4]
10003895:	8b 00                	mov    eax,DWORD PTR [eax]
10003897:	89 c2                	mov    edx,eax
10003899:	8b 45 0c             	mov    eax,DWORD PTR [ebp+0xc]
1000389c:	52                   	push   edx
1000389d:	6a 00                	push   0x0
1000389f:	50                   	push   eax
100038a0:	6a 0c                	push   0xc
100038a2:	e8 d9 f8 ff ff       	call   10003180 <SystemCall>
100038a7:	83 c4 10             	add    esp,0x10
100038aa:	90                   	nop
100038ab:	c9                   	leave  
100038ac:	c3                   	ret    

100038ad <rewinddir>:
100038ad:	55                   	push   ebp
100038ae:	89 e5                	mov    ebp,esp
100038b0:	6a 00                	push   0x0
100038b2:	ff 75 08             	push   DWORD PTR [ebp+0x8]
100038b5:	e8 d2 ff ff ff       	call   1000388c <seekdir>
100038ba:	83 c4 08             	add    esp,0x8
100038bd:	90                   	nop
100038be:	c9                   	leave  
100038bf:	c3                   	ret    

100038c0 <telldir>:
100038c0:	55                   	push   ebp
100038c1:	89 e5                	mov    ebp,esp
100038c3:	8b 45 08             	mov    eax,DWORD PTR [ebp+0x8]
100038c6:	8b 50 04             	mov    edx,DWORD PTR [eax+0x4]
100038c9:	8b 00                	mov    eax,DWORD PTR [eax]
100038cb:	50                   	push   eax
100038cc:	6a 00                	push   0x0
100038ce:	6a 00                	push   0x0
100038d0:	6a 0d                	push   0xd
100038d2:	e8 a9 f8 ff ff       	call   10003180 <SystemCall>
100038d7:	83 c4 10             	add    esp,0x10
100038da:	c9                   	leave  
100038db:	c3                   	ret    

100038dc <getcwd>:
100038dc:	55                   	push   ebp
100038dd:	89 e5                	mov    ebp,esp
100038df:	8b 45 08             	mov    eax,DWORD PTR [ebp+0x8]
100038e2:	6a 00                	push   0x0
100038e4:	ff 75 0c             	push   DWORD PTR [ebp+0xc]
100038e7:	50                   	push   eax
100038e8:	6a 06                	push   0x6
100038ea:	e8 91 f8 ff ff       	call   10003180 <SystemCall>
100038ef:	83 c4 10             	add    esp,0x10
100038f2:	8b 45 08             	mov    eax,DWORD PTR [ebp+0x8]
100038f5:	c9                   	leave  
100038f6:	c3                   	ret    

100038f7 <chdir>:
100038f7:	55                   	push   ebp
100038f8:	89 e5                	mov    ebp,esp
100038fa:	83 ec 18             	sub    esp,0x18
100038fd:	8b 45 08             	mov    eax,DWORD PTR [ebp+0x8]
10003900:	8a 00                	mov    al,BYTE PTR [eax]
10003902:	84 c0                	test   al,al
10003904:	75 15                	jne    1000391b <chdir+0x24>
10003906:	e8 e5 18 00 00       	call   100051f0 <__errno>
1000390b:	c7 00 02 00 00 00    	mov    DWORD PTR [eax],0x2
10003911:	b8 ff ff ff ff       	mov    eax,0xffffffff
10003916:	e9 97 00 00 00       	jmp    100039b2 <chdir+0xbb>
1000391b:	8b 45 08             	mov    eax,DWORD PTR [ebp+0x8]
1000391e:	6a 00                	push   0x0
10003920:	6a 00                	push   0x0
10003922:	50                   	push   eax
10003923:	6a 07                	push   0x7
10003925:	e8 56 f8 ff ff       	call   10003180 <SystemCall>
1000392a:	83 c4 10             	add    esp,0x10
1000392d:	89 45 f4             	mov    DWORD PTR [ebp-0xc],eax
10003930:	83 7d f4 00          	cmp    DWORD PTR [ebp-0xc],0x0
10003934:	75 07                	jne    1000393d <chdir+0x46>
10003936:	b8 00 00 00 00       	mov    eax,0x0
1000393b:	eb 75                	jmp    100039b2 <chdir+0xbb>
1000393d:	83 7d f4 01          	cmp    DWORD PTR [ebp-0xc],0x1
10003941:	75 0d                	jne    10003950 <chdir+0x59>
10003943:	e8 a8 18 00 00       	call   100051f0 <__errno>
10003948:	c7 00 02 00 00 00    	mov    DWORD PTR [eax],0x2
1000394e:	eb 5d                	jmp    100039ad <chdir+0xb6>
10003950:	83 7d f4 02          	cmp    DWORD PTR [ebp-0xc],0x2
10003954:	75 0d                	jne    10003963 <chdir+0x6c>
10003956:	e8 95 18 00 00       	call   100051f0 <__errno>
1000395b:	c7 00 14 00 00 00    	mov    DWORD PTR [eax],0x14
10003961:	eb 4a                	jmp    100039ad <chdir+0xb6>
10003963:	83 7d f4 03          	cmp    DWORD PTR [ebp-0xc],0x3
10003967:	75 0d                	jne    10003976 <chdir+0x7f>
10003969:	e8 82 18 00 00       	call   100051f0 <__errno>
1000396e:	c7 00 0d 00 00 00    	mov    DWORD PTR [eax],0xd
10003974:	eb 37                	jmp    100039ad <chdir+0xb6>
10003976:	83 7d f4 04          	cmp    DWORD PTR [ebp-0xc],0x4
1000397a:	75 0d                	jne    10003989 <chdir+0x92>
1000397c:	e8 6f 18 00 00       	call   100051f0 <__errno>
10003981:	c7 00 0d 00 00 00    	mov    DWORD PTR [eax],0xd
10003987:	eb 24                	jmp    100039ad <chdir+0xb6>
10003989:	83 7d f4 05          	cmp    DWORD PTR [ebp-0xc],0x5
1000398d:	75 0d                	jne    1000399c <chdir+0xa5>
1000398f:	e8 5c 18 00 00       	call   100051f0 <__errno>
10003994:	c7 00 14 00 00 00    	mov    DWORD PTR [eax],0x14
1000399a:	eb 11                	jmp    100039ad <chdir+0xb6>
1000399c:	83 7d f4 06          	cmp    DWORD PTR [ebp-0xc],0x6
100039a0:	75 0b                	jne    100039ad <chdir+0xb6>
100039a2:	e8 49 18 00 00       	call   100051f0 <__errno>
100039a7:	c7 00 0d 00 00 00    	mov    DWORD PTR [eax],0xd
100039ad:	b8 ff ff ff ff       	mov    eax,0xffffffff
100039b2:	c9                   	leave  
100039b3:	c3                   	ret    

100039b4 <mkdir>:
100039b4:	55                   	push   ebp
100039b5:	89 e5                	mov    ebp,esp
100039b7:	8b 45 08             	mov    eax,DWORD PTR [ebp+0x8]
100039ba:	50                   	push   eax
100039bb:	6a 00                	push   0x0
100039bd:	6a 00                	push   0x0
100039bf:	6a 0e                	push   0xe
100039c1:	e8 ba f7 ff ff       	call   10003180 <SystemCall>
100039c6:	83 c4 10             	add    esp,0x10
100039c9:	c9                   	leave  
100039ca:	c3                   	ret    

100039cb <pipe>:
100039cb:	55                   	push   ebp
100039cc:	89 e5                	mov    ebp,esp
100039ce:	8b 45 08             	mov    eax,DWORD PTR [ebp+0x8]
100039d1:	83 c0 04             	add    eax,0x4
100039d4:	89 c2                	mov    edx,eax
100039d6:	8b 45 08             	mov    eax,DWORD PTR [ebp+0x8]
100039d9:	6a 00                	push   0x0
100039db:	52                   	push   edx
100039dc:	50                   	push   eax
100039dd:	6a 29                	push   0x29
100039df:	e8 9c f7 ff ff       	call   10003180 <SystemCall>
100039e4:	83 c4 10             	add    esp,0x10
100039e7:	c9                   	leave  
100039e8:	c3                   	ret    

100039e9 <waitpid>:
100039e9:	55                   	push   ebp
100039ea:	89 e5                	mov    ebp,esp
100039ec:	8b 4d 0c             	mov    ecx,DWORD PTR [ebp+0xc]
100039ef:	8b 55 10             	mov    edx,DWORD PTR [ebp+0x10]
100039f2:	8b 45 08             	mov    eax,DWORD PTR [ebp+0x8]
100039f5:	51                   	push   ecx
100039f6:	52                   	push   edx
100039f7:	50                   	push   eax
100039f8:	6a 14                	push   0x14
100039fa:	e8 81 f7 ff ff       	call   10003180 <SystemCall>
100039ff:	83 c4 10             	add    esp,0x10
10003a02:	c9                   	leave  
10003a03:	c3                   	ret    

10003a04 <rmdir>:
10003a04:	55                   	push   ebp
10003a05:	89 e5                	mov    ebp,esp
10003a07:	8b 45 08             	mov    eax,DWORD PTR [ebp+0x8]
10003a0a:	50                   	push   eax
10003a0b:	6a 00                	push   0x0
10003a0d:	6a 00                	push   0x0
10003a0f:	6a 17                	push   0x17
10003a11:	e8 6a f7 ff ff       	call   10003180 <SystemCall>
10003a16:	83 c4 10             	add    esp,0x10
10003a19:	c9                   	leave  
10003a1a:	c3                   	ret    

10003a1b <realpath>:
10003a1b:	55                   	push   ebp
10003a1c:	89 e5                	mov    ebp,esp
10003a1e:	83 ec 18             	sub    esp,0x18
10003a21:	83 7d 0c 00          	cmp    DWORD PTR [ebp+0xc],0x0
10003a25:	75 13                	jne    10003a3a <realpath+0x1f>
10003a27:	83 ec 0c             	sub    esp,0xc
10003a2a:	68 00 02 00 00       	push   0x200
10003a2f:	e8 60 c9 ff ff       	call   10000394 <malloc>
10003a34:	83 c4 10             	add    esp,0x10
10003a37:	89 45 0c             	mov    DWORD PTR [ebp+0xc],eax
10003a3a:	8b 55 0c             	mov    edx,DWORD PTR [ebp+0xc]
10003a3d:	8b 45 08             	mov    eax,DWORD PTR [ebp+0x8]
10003a40:	52                   	push   edx
10003a41:	50                   	push   eax
10003a42:	6a 00                	push   0x0
10003a44:	6a 1b                	push   0x1b
10003a46:	e8 35 f7 ff ff       	call   10003180 <SystemCall>
10003a4b:	83 c4 10             	add    esp,0x10
10003a4e:	89 45 f4             	mov    DWORD PTR [ebp-0xc],eax
10003a51:	83 7d f4 00          	cmp    DWORD PTR [ebp-0xc],0x0
10003a55:	74 20                	je     10003a77 <realpath+0x5c>
10003a57:	e8 94 17 00 00       	call   100051f0 <__errno>
10003a5c:	c7 00 05 00 00 00    	mov    DWORD PTR [eax],0x5
10003a62:	83 ec 0c             	sub    esp,0xc
10003a65:	ff 75 0c             	push   DWORD PTR [ebp+0xc]
10003a68:	e8 3f c9 ff ff       	call   100003ac <free>
10003a6d:	83 c4 10             	add    esp,0x10
10003a70:	b8 00 00 00 00       	mov    eax,0x0
10003a75:	eb 03                	jmp    10003a7a <realpath+0x5f>
10003a77:	8b 45 0c             	mov    eax,DWORD PTR [ebp+0xc]
10003a7a:	c9                   	leave  
10003a7b:	c3                   	ret    

10003a7c <ttyname>:
10003a7c:	55                   	push   ebp
10003a7d:	89 e5                	mov    ebp,esp
10003a7f:	83 ec 18             	sub    esp,0x18
10003a82:	ba 00 f0 00 10       	mov    edx,0x1000f000
10003a87:	8b 45 08             	mov    eax,DWORD PTR [ebp+0x8]
10003a8a:	52                   	push   edx
10003a8b:	6a 00                	push   0x0
10003a8d:	50                   	push   eax
10003a8e:	6a 1c                	push   0x1c
10003a90:	e8 eb f6 ff ff       	call   10003180 <SystemCall>
10003a95:	83 c4 10             	add    esp,0x10
10003a98:	89 45 f4             	mov    DWORD PTR [ebp-0xc],eax
10003a9b:	83 7d f4 00          	cmp    DWORD PTR [ebp-0xc],0x0
10003a9f:	75 07                	jne    10003aa8 <ttyname+0x2c>
10003aa1:	b8 00 f0 00 10       	mov    eax,0x1000f000
10003aa6:	eb 23                	jmp    10003acb <ttyname+0x4f>
10003aa8:	83 7d f4 01          	cmp    DWORD PTR [ebp-0xc],0x1
10003aac:	75 0d                	jne    10003abb <ttyname+0x3f>
10003aae:	e8 3d 17 00 00       	call   100051f0 <__errno>
10003ab3:	c7 00 09 00 00 00    	mov    DWORD PTR [eax],0x9
10003ab9:	eb 0b                	jmp    10003ac6 <ttyname+0x4a>
10003abb:	e8 30 17 00 00       	call   100051f0 <__errno>
10003ac0:	c7 00 19 00 00 00    	mov    DWORD PTR [eax],0x19
10003ac6:	b8 00 00 00 00       	mov    eax,0x0
10003acb:	c9                   	leave  
10003acc:	c3                   	ret    

10003acd <usleep>:
10003acd:	55                   	push   ebp
10003ace:	89 e5                	mov    ebp,esp
10003ad0:	b8 20 00 00 00       	mov    eax,0x20
10003ad5:	8b 55 08             	mov    edx,DWORD PTR [ebp+0x8]
10003ad8:	88 c1                	mov    cl,al
10003ada:	d3 ea                	shr    edx,cl
10003adc:	89 d0                	mov    eax,edx
10003ade:	6a 00                	push   0x0
10003ae0:	50                   	push   eax
10003ae1:	ff 75 08             	push   DWORD PTR [ebp+0x8]
10003ae4:	6a 1e                	push   0x1e
10003ae6:	e8 95 f6 ff ff       	call   10003180 <SystemCall>
10003aeb:	83 c4 10             	add    esp,0x10
10003aee:	c9                   	leave  
10003aef:	c3                   	ret    

10003af0 <sleep>:
10003af0:	55                   	push   ebp
10003af1:	89 e5                	mov    ebp,esp
10003af3:	8b 55 08             	mov    edx,DWORD PTR [ebp+0x8]
10003af6:	89 d0                	mov    eax,edx
10003af8:	c1 e0 02             	shl    eax,0x2
10003afb:	01 d0                	add    eax,edx
10003afd:	8d 14 85 00 00 00 00 	lea    edx,[eax*4+0x0]
10003b04:	01 d0                	add    eax,edx
10003b06:	8d 14 85 00 00 00 00 	lea    edx,[eax*4+0x0]
10003b0d:	01 d0                	add    eax,edx
10003b0f:	8d 14 85 00 00 00 00 	lea    edx,[eax*4+0x0]
10003b16:	01 d0                	add    eax,edx
10003b18:	8d 14 85 00 00 00 00 	lea    edx,[eax*4+0x0]
10003b1f:	01 d0                	add    eax,edx
10003b21:	8d 14 85 00 00 00 00 	lea    edx,[eax*4+0x0]
10003b28:	01 d0                	add    eax,edx
10003b2a:	c1 e0 06             	shl    eax,0x6
10003b2d:	83 ec 04             	sub    esp,0x4
10003b30:	50                   	push   eax
10003b31:	e8 97 ff ff ff       	call   10003acd <usleep>
10003b36:	83 c4 08             	add    esp,0x8
10003b39:	c9                   	leave  
10003b3a:	c3                   	ret    

10003b3b <setttyname>:
10003b3b:	55                   	push   ebp
10003b3c:	89 e5                	mov    ebp,esp
10003b3e:	81 ec 18 01 00 00    	sub    esp,0x118
10003b44:	8b 45 f0             	mov    eax,DWORD PTR [ebp-0x10]
10003b47:	25 1f e0 ff ff       	and    eax,0xffffe01f
10003b4c:	0d c0 09 00 00       	or     eax,0x9c0
10003b51:	66 89 45 f0          	mov    WORD PTR [ebp-0x10],ax
10003b55:	8a 45 f0             	mov    al,BYTE PTR [ebp-0x10]
10003b58:	83 e0 e0             	and    eax,0xffffffe0
10003b5b:	83 c8 01             	or     eax,0x1
10003b5e:	88 45 f0             	mov    BYTE PTR [ebp-0x10],al
10003b61:	83 ec 08             	sub    esp,0x8
10003b64:	ff 75 08             	push   DWORD PTR [ebp+0x8]
10003b67:	8d 85 f0 fe ff ff    	lea    eax,[ebp-0x110]
10003b6d:	50                   	push   eax
10003b6e:	e8 05 3d 00 00       	call   10007878 <strcpy>
10003b73:	83 c4 10             	add    esp,0x10
10003b76:	8d 85 f0 fe ff ff    	lea    eax,[ebp-0x110]
10003b7c:	50                   	push   eax
10003b7d:	6a 00                	push   0x0
10003b7f:	6a 00                	push   0x0
10003b81:	6a 22                	push   0x22
10003b83:	e8 f8 f5 ff ff       	call   10003180 <SystemCall>
10003b88:	83 c4 10             	add    esp,0x10
10003b8b:	90                   	nop
10003b8c:	c9                   	leave  
10003b8d:	c3                   	ret    

10003b8e <setcolours>:
10003b8e:	55                   	push   ebp
10003b8f:	89 e5                	mov    ebp,esp
10003b91:	81 ec 10 01 00 00    	sub    esp,0x110
10003b97:	8b 45 f8             	mov    eax,DWORD PTR [ebp-0x8]
10003b9a:	25 1f e0 ff ff       	and    eax,0xffffe01f
10003b9f:	0d c0 09 00 00       	or     eax,0x9c0
10003ba4:	66 89 45 f8          	mov    WORD PTR [ebp-0x8],ax
10003ba8:	8a 45 f8             	mov    al,BYTE PTR [ebp-0x8]
10003bab:	83 e0 e0             	and    eax,0xffffffe0
10003bae:	83 c8 08             	or     eax,0x8
10003bb1:	88 45 f8             	mov    BYTE PTR [ebp-0x8],al
10003bb4:	8b 45 08             	mov    eax,DWORD PTR [ebp+0x8]
10003bb7:	c1 e0 04             	shl    eax,0x4
10003bba:	0b 45 0c             	or     eax,DWORD PTR [ebp+0xc]
10003bbd:	89 45 fc             	mov    DWORD PTR [ebp-0x4],eax
10003bc0:	8d 85 f8 fe ff ff    	lea    eax,[ebp-0x108]
10003bc6:	50                   	push   eax
10003bc7:	6a 00                	push   0x0
10003bc9:	6a 00                	push   0x0
10003bcb:	6a 22                	push   0x22
10003bcd:	e8 ae f5 ff ff       	call   10003180 <SystemCall>
10003bd2:	83 c4 10             	add    esp,0x10
10003bd5:	90                   	nop
10003bd6:	c9                   	leave  
10003bd7:	c3                   	ret    

10003bd8 <__call_exitprocs>:
10003bd8:	55                   	push   ebp
10003bd9:	57                   	push   edi
10003bda:	56                   	push   esi
10003bdb:	53                   	push   ebx
10003bdc:	83 ec 0c             	sub    esp,0xc
10003bdf:	8b 7c 24 24          	mov    edi,DWORD PTR [esp+0x24]
10003be3:	a1 e8 c9 00 10       	mov    eax,ds:0x1000c9e8
10003be8:	8b b0 48 01 00 00    	mov    esi,DWORD PTR [eax+0x148]
10003bee:	85 f6                	test   esi,esi
10003bf0:	74 65                	je     10003c57 <__call_exitprocs+0x7f>
10003bf2:	8b 5e 04             	mov    ebx,DWORD PTR [esi+0x4]
10003bf5:	4b                   	dec    ebx
10003bf6:	79 0a                	jns    10003c02 <__call_exitprocs+0x2a>
10003bf8:	eb 5d                	jmp    10003c57 <__call_exitprocs+0x7f>
10003bfa:	66 90                	xchg   ax,ax
10003bfc:	4b                   	dec    ebx
10003bfd:	83 fb ff             	cmp    ebx,0xffffffff
10003c00:	74 55                	je     10003c57 <__call_exitprocs+0x7f>
10003c02:	85 ff                	test   edi,edi
10003c04:	74 09                	je     10003c0f <__call_exitprocs+0x37>
10003c06:	39 bc 9e 08 01 00 00 	cmp    DWORD PTR [esi+ebx*4+0x108],edi
10003c0d:	75 ed                	jne    10003bfc <__call_exitprocs+0x24>
10003c0f:	8b 44 9e 08          	mov    eax,DWORD PTR [esi+ebx*4+0x8]
10003c13:	8b 4e 04             	mov    ecx,DWORD PTR [esi+0x4]
10003c16:	8d 51 ff             	lea    edx,[ecx-0x1]
10003c19:	39 da                	cmp    edx,ebx
10003c1b:	74 63                	je     10003c80 <__call_exitprocs+0xa8>
10003c1d:	c7 44 9e 08 00 00 00 00 	mov    DWORD PTR [esi+ebx*4+0x8],0x0
10003c25:	85 c0                	test   eax,eax
10003c27:	74 d3                	je     10003bfc <__call_exitprocs+0x24>
10003c29:	8b 6e 04             	mov    ebp,DWORD PTR [esi+0x4]
10003c2c:	ba 01 00 00 00       	mov    edx,0x1
10003c31:	88 d9                	mov    cl,bl
10003c33:	d3 e2                	shl    edx,cl
10003c35:	85 96 88 01 00 00    	test   DWORD PTR [esi+0x188],edx
10003c3b:	75 23                	jne    10003c60 <__call_exitprocs+0x88>
10003c3d:	ff d0                	call   eax
10003c3f:	39 6e 04             	cmp    DWORD PTR [esi+0x4],ebp
10003c42:	75 9f                	jne    10003be3 <__call_exitprocs+0xb>
10003c44:	a1 e8 c9 00 10       	mov    eax,ds:0x1000c9e8
10003c49:	39 b0 48 01 00 00    	cmp    DWORD PTR [eax+0x148],esi
10003c4f:	75 92                	jne    10003be3 <__call_exitprocs+0xb>
10003c51:	4b                   	dec    ebx
10003c52:	83 fb ff             	cmp    ebx,0xffffffff
10003c55:	75 ab                	jne    10003c02 <__call_exitprocs+0x2a>
10003c57:	83 c4 0c             	add    esp,0xc
10003c5a:	5b                   	pop    ebx
10003c5b:	5e                   	pop    esi
10003c5c:	5f                   	pop    edi
10003c5d:	5d                   	pop    ebp
10003c5e:	c3                   	ret    
10003c5f:	90                   	nop
10003c60:	8b 8c 9e 88 00 00 00 	mov    ecx,DWORD PTR [esi+ebx*4+0x88]
10003c67:	85 96 8c 01 00 00    	test   DWORD PTR [esi+0x18c],edx
10003c6d:	75 19                	jne    10003c88 <__call_exitprocs+0xb0>
10003c6f:	83 ec 08             	sub    esp,0x8
10003c72:	51                   	push   ecx
10003c73:	ff 74 24 2c          	push   DWORD PTR [esp+0x2c]
10003c77:	ff d0                	call   eax
10003c79:	83 c4 10             	add    esp,0x10
10003c7c:	eb c1                	jmp    10003c3f <__call_exitprocs+0x67>
10003c7e:	66 90                	xchg   ax,ax
10003c80:	89 5e 04             	mov    DWORD PTR [esi+0x4],ebx
10003c83:	eb a0                	jmp    10003c25 <__call_exitprocs+0x4d>
10003c85:	8d 76 00             	lea    esi,[esi+0x0]
10003c88:	83 ec 0c             	sub    esp,0xc
10003c8b:	51                   	push   ecx
10003c8c:	ff d0                	call   eax
10003c8e:	83 c4 10             	add    esp,0x10
10003c91:	eb ac                	jmp    10003c3f <__call_exitprocs+0x67>
10003c93:	90                   	nop

10003c94 <quorem>:
10003c94:	55                   	push   ebp
10003c95:	57                   	push   edi
10003c96:	56                   	push   esi
10003c97:	53                   	push   ebx
10003c98:	83 ec 3c             	sub    esp,0x3c
10003c9b:	89 c6                	mov    esi,eax
10003c9d:	89 44 24 18          	mov    DWORD PTR [esp+0x18],eax
10003ca1:	89 54 24 20          	mov    DWORD PTR [esp+0x20],edx
10003ca5:	8b 42 10             	mov    eax,DWORD PTR [edx+0x10]
10003ca8:	39 46 10             	cmp    DWORD PTR [esi+0x10],eax
10003cab:	0f 8c a3 01 00 00    	jl     10003e54 <quorem+0x1c0>
10003cb1:	89 d3                	mov    ebx,edx
10003cb3:	83 c3 14             	add    ebx,0x14
10003cb6:	48                   	dec    eax
10003cb7:	89 44 24 14          	mov    DWORD PTR [esp+0x14],eax
10003cbb:	c1 e0 02             	shl    eax,0x2
10003cbe:	8d 14 03             	lea    edx,[ebx+eax*1]
10003cc1:	89 54 24 0c          	mov    DWORD PTR [esp+0xc],edx
10003cc5:	8d 7e 14             	lea    edi,[esi+0x14]
10003cc8:	89 7c 24 24          	mov    DWORD PTR [esp+0x24],edi
10003ccc:	01 f8                	add    eax,edi
10003cce:	89 44 24 2c          	mov    DWORD PTR [esp+0x2c],eax
10003cd2:	8b 00                	mov    eax,DWORD PTR [eax]
10003cd4:	8b 32                	mov    esi,DWORD PTR [edx]
10003cd6:	8d 4e 01             	lea    ecx,[esi+0x1]
10003cd9:	89 44 24 28          	mov    DWORD PTR [esp+0x28],eax
10003cdd:	31 d2                	xor    edx,edx
10003cdf:	f7 f1                	div    ecx
10003ce1:	89 44 24 10          	mov    DWORD PTR [esp+0x10],eax
10003ce5:	89 44 24 1c          	mov    DWORD PTR [esp+0x1c],eax
10003ce9:	39 4c 24 28          	cmp    DWORD PTR [esp+0x28],ecx
10003ced:	0f 82 aa 00 00 00    	jb     10003d9d <quorem+0x109>
10003cf3:	89 dd                	mov    ebp,ebx
10003cf5:	31 c0                	xor    eax,eax
10003cf7:	31 f6                	xor    esi,esi
10003cf9:	89 5c 24 28          	mov    DWORD PTR [esp+0x28],ebx
10003cfd:	89 c3                	mov    ebx,eax
10003cff:	90                   	nop
10003d00:	83 c5 04             	add    ebp,0x4
10003d03:	8b 45 fc             	mov    eax,DWORD PTR [ebp-0x4]
10003d06:	0f b7 d0             	movzx  edx,ax
10003d09:	8b 4c 24 10          	mov    ecx,DWORD PTR [esp+0x10]
10003d0d:	0f af d1             	imul   edx,ecx
10003d10:	01 da                	add    edx,ebx
10003d12:	c1 e8 10             	shr    eax,0x10
10003d15:	0f af c1             	imul   eax,ecx
10003d18:	89 d1                	mov    ecx,edx
10003d1a:	c1 e9 10             	shr    ecx,0x10
10003d1d:	01 c8                	add    eax,ecx
10003d1f:	89 c3                	mov    ebx,eax
10003d21:	c1 eb 10             	shr    ebx,0x10
10003d24:	8b 0f                	mov    ecx,DWORD PTR [edi]
10003d26:	0f b7 d2             	movzx  edx,dx
10003d29:	29 d6                	sub    esi,edx
10003d2b:	0f b7 d1             	movzx  edx,cx
10003d2e:	01 f2                	add    edx,esi
10003d30:	c1 e9 10             	shr    ecx,0x10
10003d33:	0f b7 c0             	movzx  eax,ax
10003d36:	29 c1                	sub    ecx,eax
10003d38:	89 d0                	mov    eax,edx
10003d3a:	c1 f8 10             	sar    eax,0x10
10003d3d:	01 c1                	add    ecx,eax
10003d3f:	89 ce                	mov    esi,ecx
10003d41:	c1 fe 10             	sar    esi,0x10
10003d44:	83 c7 04             	add    edi,0x4
10003d47:	c1 e1 10             	shl    ecx,0x10
10003d4a:	0f b7 d2             	movzx  edx,dx
10003d4d:	09 ca                	or     edx,ecx
10003d4f:	89 57 fc             	mov    DWORD PTR [edi-0x4],edx
10003d52:	39 6c 24 0c          	cmp    DWORD PTR [esp+0xc],ebp
10003d56:	73 a8                	jae    10003d00 <quorem+0x6c>
10003d58:	8b 5c 24 28          	mov    ebx,DWORD PTR [esp+0x28]
10003d5c:	8b 7c 24 2c          	mov    edi,DWORD PTR [esp+0x2c]
10003d60:	8b 2f                	mov    ebp,DWORD PTR [edi]
10003d62:	85 ed                	test   ebp,ebp
10003d64:	75 37                	jne    10003d9d <quorem+0x109>
10003d66:	8d 47 fc             	lea    eax,[edi-0x4]
10003d69:	8b 4c 24 24          	mov    ecx,DWORD PTR [esp+0x24]
10003d6d:	39 c1                	cmp    ecx,eax
10003d6f:	73 21                	jae    10003d92 <quorem+0xfe>
10003d71:	8b 7f fc             	mov    edi,DWORD PTR [edi-0x4]
10003d74:	85 ff                	test   edi,edi
10003d76:	75 1a                	jne    10003d92 <quorem+0xfe>
10003d78:	8b 54 24 14          	mov    edx,DWORD PTR [esp+0x14]
10003d7c:	eb 08                	jmp    10003d86 <quorem+0xf2>
10003d7e:	66 90                	xchg   ax,ax
10003d80:	8b 30                	mov    esi,DWORD PTR [eax]
10003d82:	85 f6                	test   esi,esi
10003d84:	75 08                	jne    10003d8e <quorem+0xfa>
10003d86:	4a                   	dec    edx
10003d87:	83 e8 04             	sub    eax,0x4
10003d8a:	39 c1                	cmp    ecx,eax
10003d8c:	72 f2                	jb     10003d80 <quorem+0xec>
10003d8e:	89 54 24 14          	mov    DWORD PTR [esp+0x14],edx
10003d92:	8b 44 24 18          	mov    eax,DWORD PTR [esp+0x18]
10003d96:	8b 7c 24 14          	mov    edi,DWORD PTR [esp+0x14]
10003d9a:	89 78 10             	mov    DWORD PTR [eax+0x10],edi
10003d9d:	8b 44 24 20          	mov    eax,DWORD PTR [esp+0x20]
10003da1:	8b 6c 24 18          	mov    ebp,DWORD PTR [esp+0x18]
10003da5:	83 ec 08             	sub    esp,0x8
10003da8:	50                   	push   eax
10003da9:	55                   	push   ebp
10003daa:	e8 91 2c 00 00       	call   10006a40 <__mcmp>
10003daf:	83 c4 10             	add    esp,0x10
10003db2:	85 c0                	test   eax,eax
10003db4:	0f 88 8b 00 00 00    	js     10003e45 <quorem+0x1b1>
10003dba:	8b 44 24 10          	mov    eax,DWORD PTR [esp+0x10]
10003dbe:	40                   	inc    eax
10003dbf:	89 44 24 1c          	mov    DWORD PTR [esp+0x1c],eax
10003dc3:	8b 74 24 24          	mov    esi,DWORD PTR [esp+0x24]
10003dc7:	31 ff                	xor    edi,edi
10003dc9:	8d 76 00             	lea    esi,[esi+0x0]
10003dcc:	83 c3 04             	add    ebx,0x4
10003dcf:	8b 4b fc             	mov    ecx,DWORD PTR [ebx-0x4]
10003dd2:	8b 06                	mov    eax,DWORD PTR [esi]
10003dd4:	0f b7 d1             	movzx  edx,cx
10003dd7:	29 d7                	sub    edi,edx
10003dd9:	0f b7 d0             	movzx  edx,ax
10003ddc:	01 fa                	add    edx,edi
10003dde:	c1 e8 10             	shr    eax,0x10
10003de1:	c1 e9 10             	shr    ecx,0x10
10003de4:	29 c8                	sub    eax,ecx
10003de6:	89 d1                	mov    ecx,edx
10003de8:	c1 f9 10             	sar    ecx,0x10
10003deb:	01 c8                	add    eax,ecx
10003ded:	89 c7                	mov    edi,eax
10003def:	c1 ff 10             	sar    edi,0x10
10003df2:	83 c6 04             	add    esi,0x4
10003df5:	c1 e0 10             	shl    eax,0x10
10003df8:	0f b7 d2             	movzx  edx,dx
10003dfb:	09 d0                	or     eax,edx
10003dfd:	89 46 fc             	mov    DWORD PTR [esi-0x4],eax
10003e00:	39 5c 24 0c          	cmp    DWORD PTR [esp+0xc],ebx
10003e04:	73 c6                	jae    10003dcc <quorem+0x138>
10003e06:	8b 5c 24 24          	mov    ebx,DWORD PTR [esp+0x24]
10003e0a:	8b 7c 24 14          	mov    edi,DWORD PTR [esp+0x14]
10003e0e:	8d 14 bb             	lea    edx,[ebx+edi*4]
10003e11:	8b 02                	mov    eax,DWORD PTR [edx]
10003e13:	85 c0                	test   eax,eax
10003e15:	75 2e                	jne    10003e45 <quorem+0x1b1>
10003e17:	8d 42 fc             	lea    eax,[edx-0x4]
10003e1a:	39 c3                	cmp    ebx,eax
10003e1c:	73 20                	jae    10003e3e <quorem+0x1aa>
10003e1e:	8b 72 fc             	mov    esi,DWORD PTR [edx-0x4]
10003e21:	85 f6                	test   esi,esi
10003e23:	75 19                	jne    10003e3e <quorem+0x1aa>
10003e25:	89 d9                	mov    ecx,ebx
10003e27:	89 fa                	mov    edx,edi
10003e29:	eb 07                	jmp    10003e32 <quorem+0x19e>
10003e2b:	90                   	nop
10003e2c:	8b 18                	mov    ebx,DWORD PTR [eax]
10003e2e:	85 db                	test   ebx,ebx
10003e30:	75 08                	jne    10003e3a <quorem+0x1a6>
10003e32:	4a                   	dec    edx
10003e33:	83 e8 04             	sub    eax,0x4
10003e36:	39 c1                	cmp    ecx,eax
10003e38:	72 f2                	jb     10003e2c <quorem+0x198>
10003e3a:	89 54 24 14          	mov    DWORD PTR [esp+0x14],edx
10003e3e:	8b 44 24 14          	mov    eax,DWORD PTR [esp+0x14]
10003e42:	89 45 10             	mov    DWORD PTR [ebp+0x10],eax
10003e45:	8b 44 24 1c          	mov    eax,DWORD PTR [esp+0x1c]
10003e49:	83 c4 3c             	add    esp,0x3c
10003e4c:	5b                   	pop    ebx
10003e4d:	5e                   	pop    esi
10003e4e:	5f                   	pop    edi
10003e4f:	5d                   	pop    ebp
10003e50:	c3                   	ret    
10003e51:	8d 76 00             	lea    esi,[esi+0x0]
10003e54:	31 c0                	xor    eax,eax
10003e56:	83 c4 3c             	add    esp,0x3c
10003e59:	5b                   	pop    ebx
10003e5a:	5e                   	pop    esi
10003e5b:	5f                   	pop    edi
10003e5c:	5d                   	pop    ebp
10003e5d:	c3                   	ret    
10003e5e:	66 90                	xchg   ax,ax

10003e60 <_dtoa_r>:
10003e60:	55                   	push   ebp
10003e61:	57                   	push   edi
10003e62:	56                   	push   esi
10003e63:	53                   	push   ebx
10003e64:	83 ec 7c             	sub    esp,0x7c
10003e67:	8b ac 24 90 00 00 00 	mov    ebp,DWORD PTR [esp+0x90]
10003e6e:	8b b4 24 94 00 00 00 	mov    esi,DWORD PTR [esp+0x94]
10003e75:	8b bc 24 98 00 00 00 	mov    edi,DWORD PTR [esp+0x98]
10003e7c:	89 74 24 10          	mov    DWORD PTR [esp+0x10],esi
10003e80:	89 7c 24 14          	mov    DWORD PTR [esp+0x14],edi
10003e84:	8b 45 40             	mov    eax,DWORD PTR [ebp+0x40]
10003e87:	85 c0                	test   eax,eax
10003e89:	74 24                	je     10003eaf <_dtoa_r+0x4f>
10003e8b:	8b 4d 44             	mov    ecx,DWORD PTR [ebp+0x44]
10003e8e:	89 48 04             	mov    DWORD PTR [eax+0x4],ecx
10003e91:	ba 01 00 00 00       	mov    edx,0x1
10003e96:	d3 e2                	shl    edx,cl
10003e98:	89 50 08             	mov    DWORD PTR [eax+0x8],edx
10003e9b:	83 ec 08             	sub    esp,0x8
10003e9e:	50                   	push   eax
10003e9f:	55                   	push   ebp
10003ea0:	e8 b7 24 00 00       	call   1000635c <_Bfree>
10003ea5:	c7 45 40 00 00 00 00 	mov    DWORD PTR [ebp+0x40],0x0
10003eac:	83 c4 10             	add    esp,0x10
10003eaf:	89 fb                	mov    ebx,edi
10003eb1:	8b 84 24 a8 00 00 00 	mov    eax,DWORD PTR [esp+0xa8]
10003eb8:	85 ff                	test   edi,edi
10003eba:	0f 88 b0 04 00 00    	js     10004370 <_dtoa_r+0x510>
10003ec0:	c7 00 00 00 00 00    	mov    DWORD PTR [eax],0x0
10003ec6:	89 d8                	mov    eax,ebx
10003ec8:	25 00 00 f0 7f       	and    eax,0x7ff00000
10003ecd:	3d 00 00 f0 7f       	cmp    eax,0x7ff00000
10003ed2:	0f 84 ba 04 00 00    	je     10004392 <_dtoa_r+0x532>
10003ed8:	dd 44 24 10          	fld    QWORD PTR [esp+0x10]
10003edc:	dd 14 24             	fst    QWORD PTR [esp]
10003edf:	d9 ee                	fldz   
10003ee1:	d9 c9                	fxch   st(1)
10003ee3:	da e9                	fucompp 
10003ee5:	df e0                	fnstsw ax
10003ee7:	80 e4 45             	and    ah,0x45
10003eea:	80 f4 40             	xor    ah,0x40
10003eed:	75 3d                	jne    10003f2c <_dtoa_r+0xcc>
10003eef:	8b 84 24 a4 00 00 00 	mov    eax,DWORD PTR [esp+0xa4]
10003ef6:	c7 00 01 00 00 00    	mov    DWORD PTR [eax],0x1
10003efc:	8b 84 24 ac 00 00 00 	mov    eax,DWORD PTR [esp+0xac]
10003f03:	85 c0                	test   eax,eax
10003f05:	0f 84 61 08 00 00    	je     1000476c <_dtoa_r+0x90c>
10003f0b:	8b 84 24 ac 00 00 00 	mov    eax,DWORD PTR [esp+0xac]
10003f12:	c7 00 26 ca 00 10    	mov    DWORD PTR [eax],0x1000ca26
10003f18:	c7 44 24 18 25 ca 00 10 	mov    DWORD PTR [esp+0x18],0x1000ca25
10003f20:	8b 44 24 18          	mov    eax,DWORD PTR [esp+0x18]
10003f24:	83 c4 7c             	add    esp,0x7c
10003f27:	5b                   	pop    ebx
10003f28:	5e                   	pop    esi
10003f29:	5f                   	pop    edi
10003f2a:	5d                   	pop    ebp
10003f2b:	c3                   	ret    
10003f2c:	83 ec 0c             	sub    esp,0xc
10003f2f:	8d 44 24 74          	lea    eax,[esp+0x74]
10003f33:	50                   	push   eax
10003f34:	8d 44 24 7c          	lea    eax,[esp+0x7c]
10003f38:	50                   	push   eax
10003f39:	ff 74 24 18          	push   DWORD PTR [esp+0x18]
10003f3d:	ff 74 24 18          	push   DWORD PTR [esp+0x18]
10003f41:	55                   	push   ebp
10003f42:	e8 a9 2e 00 00       	call   10006df0 <__d2b>
10003f47:	89 44 24 44          	mov    DWORD PTR [esp+0x44],eax
10003f4b:	83 c4 20             	add    esp,0x20
10003f4e:	89 d8                	mov    eax,ebx
10003f50:	c1 e8 14             	shr    eax,0x14
10003f53:	0f 85 87 04 00 00    	jne    100043e0 <_dtoa_r+0x580>
10003f59:	8b 54 24 68          	mov    edx,DWORD PTR [esp+0x68]
10003f5d:	8b 44 24 6c          	mov    eax,DWORD PTR [esp+0x6c]
10003f61:	01 d0                	add    eax,edx
10003f63:	8d b8 32 04 00 00    	lea    edi,[eax+0x432]
10003f69:	8b 74 24 10          	mov    esi,DWORD PTR [esp+0x10]
10003f6d:	83 ff 20             	cmp    edi,0x20
10003f70:	0f 8e 4a 0a 00 00    	jle    100049c0 <_dtoa_r+0xb60>
10003f76:	b9 40 00 00 00       	mov    ecx,0x40
10003f7b:	29 f9                	sub    ecx,edi
10003f7d:	d3 e3                	shl    ebx,cl
10003f7f:	8d 88 12 04 00 00    	lea    ecx,[eax+0x412]
10003f85:	d3 ee                	shr    esi,cl
10003f87:	09 de                	or     esi,ebx
10003f89:	89 74 24 08          	mov    DWORD PTR [esp+0x8],esi
10003f8d:	c7 44 24 0c 00 00 00 00 	mov    DWORD PTR [esp+0xc],0x0
10003f95:	df 6c 24 08          	fild   QWORD PTR [esp+0x8]
10003f99:	dd 5c 24 08          	fstp   QWORD PTR [esp+0x8]
10003f9d:	8b 4c 24 08          	mov    ecx,DWORD PTR [esp+0x8]
10003fa1:	8b 5c 24 0c          	mov    ebx,DWORD PTR [esp+0xc]
10003fa5:	89 4c 24 08          	mov    DWORD PTR [esp+0x8],ecx
10003fa9:	8d b3 00 00 10 fe    	lea    esi,[ebx-0x1f00000]
10003faf:	89 74 24 0c          	mov    DWORD PTR [esp+0xc],esi
10003fb3:	8d 48 ff             	lea    ecx,[eax-0x1]
10003fb6:	c7 44 24 3c 01 00 00 00 	mov    DWORD PTR [esp+0x3c],0x1
10003fbe:	dd 44 24 08          	fld    QWORD PTR [esp+0x8]
10003fc2:	d8 25 10 cc 00 10    	fsub   DWORD PTR ds:0x1000cc10
10003fc8:	dc 0d 28 cc 00 10    	fmul   QWORD PTR ds:0x1000cc28
10003fce:	dc 05 30 cc 00 10    	fadd   QWORD PTR ds:0x1000cc30
10003fd4:	dd 05 38 cc 00 10    	fld    QWORD PTR ds:0x1000cc38
10003fda:	89 4c 24 08          	mov    DWORD PTR [esp+0x8],ecx
10003fde:	da 4c 24 08          	fimul  DWORD PTR [esp+0x8]
10003fe2:	de c1                	faddp  st(1),st
10003fe4:	d9 7c 24 56          	fnstcw WORD PTR [esp+0x56]
10003fe8:	66 8b 44 24 56       	mov    ax,WORD PTR [esp+0x56]
10003fed:	80 cc 0c             	or     ah,0xc
10003ff0:	66 89 44 24 54       	mov    WORD PTR [esp+0x54],ax
10003ff5:	d9 6c 24 54          	fldcw  WORD PTR [esp+0x54]
10003ff9:	db 54 24 50          	fist   DWORD PTR [esp+0x50]
10003ffd:	d9 6c 24 56          	fldcw  WORD PTR [esp+0x56]
10004001:	8b 7c 24 50          	mov    edi,DWORD PTR [esp+0x50]
10004005:	89 7c 24 08          	mov    DWORD PTR [esp+0x8],edi
10004009:	d9 ee                	fldz   
1000400b:	d8 d9                	fcomp  st(1)
1000400d:	df e0                	fnstsw ax
1000400f:	f6 c4 45             	test   ah,0x45
10004012:	75 1c                	jne    10004030 <_dtoa_r+0x1d0>
10004014:	db 44 24 08          	fild   DWORD PTR [esp+0x8]
10004018:	da e9                	fucompp 
1000401a:	df e0                	fnstsw ax
1000401c:	80 e4 45             	and    ah,0x45
1000401f:	80 fc 40             	cmp    ah,0x40
10004022:	0f 95 c0             	setne  al
10004025:	0f b6 c0             	movzx  eax,al
10004028:	29 c7                	sub    edi,eax
1000402a:	89 7c 24 08          	mov    DWORD PTR [esp+0x8],edi
1000402e:	eb 02                	jmp    10004032 <_dtoa_r+0x1d2>
10004030:	dd d8                	fstp   st(0)
10004032:	29 ca                	sub    edx,ecx
10004034:	8d 42 ff             	lea    eax,[edx-0x1]
10004037:	89 44 24 20          	mov    DWORD PTR [esp+0x20],eax
1000403b:	8b 74 24 08          	mov    esi,DWORD PTR [esp+0x8]
1000403f:	83 fe 16             	cmp    esi,0x16
10004042:	0f 87 dc 06 00 00    	ja     10004724 <_dtoa_r+0x8c4>
10004048:	dd 04 f5 20 cd 00 10 	fld    QWORD PTR [esi*8+0x1000cd20]
1000404f:	dc 1c 24             	fcomp  QWORD PTR [esp]
10004052:	df e0                	fnstsw ax
10004054:	f6 c4 45             	test   ah,0x45
10004057:	0f 85 07 06 00 00    	jne    10004664 <_dtoa_r+0x804>
1000405d:	4e                   	dec    esi
1000405e:	89 74 24 08          	mov    DWORD PTR [esp+0x8],esi
10004062:	c7 44 24 38 00 00 00 00 	mov    DWORD PTR [esp+0x38],0x0
1000406a:	8b 44 24 20          	mov    eax,DWORD PTR [esp+0x20]
1000406e:	85 c0                	test   eax,eax
10004070:	0f 88 c2 06 00 00    	js     10004738 <_dtoa_r+0x8d8>
10004076:	c7 44 24 2c 00 00 00 00 	mov    DWORD PTR [esp+0x2c],0x0
1000407e:	8b 44 24 08          	mov    eax,DWORD PTR [esp+0x8]
10004082:	85 c0                	test   eax,eax
10004084:	0f 89 f6 05 00 00    	jns    10004680 <_dtoa_r+0x820>
1000408a:	8b 44 24 08          	mov    eax,DWORD PTR [esp+0x8]
1000408e:	29 44 24 2c          	sub    DWORD PTR [esp+0x2c],eax
10004092:	89 c7                	mov    edi,eax
10004094:	f7 df                	neg    edi
10004096:	89 7c 24 34          	mov    DWORD PTR [esp+0x34],edi
1000409a:	89 44 24 28          	mov    DWORD PTR [esp+0x28],eax
1000409e:	c7 44 24 08 00 00 00 00 	mov    DWORD PTR [esp+0x8],0x0
100040a6:	83 bc 24 9c 00 00 00 09 	cmp    DWORD PTR [esp+0x9c],0x9
100040ae:	0f 87 ee 05 00 00    	ja     100046a2 <_dtoa_r+0x842>
100040b4:	83 bc 24 9c 00 00 00 05 	cmp    DWORD PTR [esp+0x9c],0x5
100040bc:	0f 8e 0e 09 00 00    	jle    100049d0 <_dtoa_r+0xb70>
100040c2:	83 ac 24 9c 00 00 00 04 	sub    DWORD PTR [esp+0x9c],0x4
100040ca:	31 ff                	xor    edi,edi
100040cc:	83 bc 24 9c 00 00 00 03 	cmp    DWORD PTR [esp+0x9c],0x3
100040d4:	0f 84 7e 0c 00 00    	je     10004d58 <_dtoa_r+0xef8>
100040da:	0f 8e 70 06 00 00    	jle    10004750 <_dtoa_r+0x8f0>
100040e0:	83 bc 24 9c 00 00 00 04 	cmp    DWORD PTR [esp+0x9c],0x4
100040e8:	0f 85 f6 05 00 00    	jne    100046e4 <_dtoa_r+0x884>
100040ee:	c7 44 24 30 01 00 00 00 	mov    DWORD PTR [esp+0x30],0x1
100040f6:	8b 84 24 a0 00 00 00 	mov    eax,DWORD PTR [esp+0xa0]
100040fd:	85 c0                	test   eax,eax
100040ff:	0f 8e 9f 0b 00 00    	jle    10004ca4 <_dtoa_r+0xe44>
10004105:	8b 84 24 a0 00 00 00 	mov    eax,DWORD PTR [esp+0xa0]
1000410c:	89 44 24 48          	mov    DWORD PTR [esp+0x48],eax
10004110:	89 44 24 1c          	mov    DWORD PTR [esp+0x1c],eax
10004114:	89 c6                	mov    esi,eax
10004116:	c7 45 44 00 00 00 00 	mov    DWORD PTR [ebp+0x44],0x0
1000411d:	83 fe 17             	cmp    esi,0x17
10004120:	0f 8e 99 10 00 00    	jle    100051bf <_dtoa_r+0x135f>
10004126:	b9 01 00 00 00       	mov    ecx,0x1
1000412b:	b8 04 00 00 00       	mov    eax,0x4
10004130:	89 ca                	mov    edx,ecx
10004132:	01 c0                	add    eax,eax
10004134:	8d 49 01             	lea    ecx,[ecx+0x1]
10004137:	8d 58 14             	lea    ebx,[eax+0x14]
1000413a:	39 f3                	cmp    ebx,esi
1000413c:	76 f2                	jbe    10004130 <_dtoa_r+0x2d0>
1000413e:	89 55 44             	mov    DWORD PTR [ebp+0x44],edx
10004141:	83 ec 08             	sub    esp,0x8
10004144:	52                   	push   edx
10004145:	55                   	push   ebp
10004146:	e8 95 21 00 00       	call   100062e0 <_Balloc>
1000414b:	89 44 24 28          	mov    DWORD PTR [esp+0x28],eax
1000414f:	83 c4 10             	add    esp,0x10
10004152:	85 c0                	test   eax,eax
10004154:	0f 84 4f 10 00 00    	je     100051a9 <_dtoa_r+0x1349>
1000415a:	8b 44 24 18          	mov    eax,DWORD PTR [esp+0x18]
1000415e:	89 45 40             	mov    DWORD PTR [ebp+0x40],eax
10004161:	8b 44 24 1c          	mov    eax,DWORD PTR [esp+0x1c]
10004165:	89 c6                	mov    esi,eax
10004167:	83 f8 0e             	cmp    eax,0xe
1000416a:	0f 87 10 03 00 00    	ja     10004480 <_dtoa_r+0x620>
10004170:	85 ff                	test   edi,edi
10004172:	0f 84 08 03 00 00    	je     10004480 <_dtoa_r+0x620>
10004178:	8b 7c 24 28          	mov    edi,DWORD PTR [esp+0x28]
1000417c:	85 ff                	test   edi,edi
1000417e:	0f 8e c4 0c 00 00    	jle    10004e48 <_dtoa_r+0xfe8>
10004184:	89 f8                	mov    eax,edi
10004186:	83 e0 0f             	and    eax,0xf
10004189:	dd 04 c5 20 cd 00 10 	fld    QWORD PTR [eax*8+0x1000cd20]
10004190:	89 f8                	mov    eax,edi
10004192:	c1 f8 04             	sar    eax,0x4
10004195:	a8 10                	test   al,0x10
10004197:	0f 85 a3 0b 00 00    	jne    10004d40 <_dtoa_r+0xee0>
1000419d:	dd 44 24 10          	fld    QWORD PTR [esp+0x10]
100041a1:	bb 02 00 00 00       	mov    ebx,0x2
100041a6:	31 d2                	xor    edx,edx
100041a8:	85 c0                	test   eax,eax
100041aa:	74 15                	je     100041c1 <_dtoa_r+0x361>
100041ac:	a8 01                	test   al,0x1
100041ae:	74 0c                	je     100041bc <_dtoa_r+0x35c>
100041b0:	d9 c9                	fxch   st(1)
100041b2:	43                   	inc    ebx
100041b3:	dc 0c d5 e0 cc 00 10 	fmul   QWORD PTR [edx*8+0x1000cce0]
100041ba:	d9 c9                	fxch   st(1)
100041bc:	42                   	inc    edx
100041bd:	d1 f8                	sar    eax,1
100041bf:	75 eb                	jne    100041ac <_dtoa_r+0x34c>
100041c1:	de f1                	fdivrp st(1),st
100041c3:	eb 03                	jmp    100041c8 <_dtoa_r+0x368>
100041c5:	dd d8                	fstp   st(0)
100041c7:	90                   	nop
100041c8:	8b 44 24 38          	mov    eax,DWORD PTR [esp+0x38]
100041cc:	85 c0                	test   eax,eax
100041ce:	74 0f                	je     100041df <_dtoa_r+0x37f>
100041d0:	d9 e8                	fld1   
100041d2:	d8 d9                	fcomp  st(1)
100041d4:	df e0                	fnstsw ax
100041d6:	f6 c4 45             	test   ah,0x45
100041d9:	0f 84 43 0e 00 00    	je     10005022 <_dtoa_r+0x11c2>
100041df:	d9 c0                	fld    st(0)
100041e1:	89 5c 24 10          	mov    DWORD PTR [esp+0x10],ebx
100041e5:	da 4c 24 10          	fimul  DWORD PTR [esp+0x10]
100041e9:	d8 05 1c cc 00 10    	fadd   DWORD PTR ds:0x1000cc1c
100041ef:	dd 5c 24 10          	fstp   QWORD PTR [esp+0x10]
100041f3:	8b 4c 24 10          	mov    ecx,DWORD PTR [esp+0x10]
100041f7:	8b 44 24 14          	mov    eax,DWORD PTR [esp+0x14]
100041fb:	8d 98 00 00 c0 fc    	lea    ebx,[eax-0x3400000]
10004201:	8b 7c 24 1c          	mov    edi,DWORD PTR [esp+0x1c]
10004205:	85 ff                	test   edi,edi
10004207:	0f 84 df 0b 00 00    	je     10004dec <_dtoa_r+0xf8c>
1000420d:	8b 44 24 28          	mov    eax,DWORD PTR [esp+0x28]
10004211:	89 44 24 4c          	mov    DWORD PTR [esp+0x4c],eax
10004215:	8b 44 24 1c          	mov    eax,DWORD PTR [esp+0x1c]
10004219:	89 44 24 10          	mov    DWORD PTR [esp+0x10],eax
1000421d:	d9 7c 24 56          	fnstcw WORD PTR [esp+0x56]
10004221:	66 8b 44 24 56       	mov    ax,WORD PTR [esp+0x56]
10004226:	80 cc 0c             	or     ah,0xc
10004229:	66 89 44 24 54       	mov    WORD PTR [esp+0x54],ax
1000422e:	d9 6c 24 54          	fldcw  WORD PTR [esp+0x54]
10004232:	db 54 24 50          	fist   DWORD PTR [esp+0x50]
10004236:	d9 6c 24 56          	fldcw  WORD PTR [esp+0x56]
1000423a:	8b 44 24 50          	mov    eax,DWORD PTR [esp+0x50]
1000423e:	8d 50 30             	lea    edx,[eax+0x30]
10004241:	89 44 24 40          	mov    DWORD PTR [esp+0x40],eax
10004245:	da 64 24 40          	fisub  DWORD PTR [esp+0x40]
10004249:	8b 44 24 18          	mov    eax,DWORD PTR [esp+0x18]
1000424d:	8d 78 01             	lea    edi,[eax+0x1]
10004250:	89 4c 24 40          	mov    DWORD PTR [esp+0x40],ecx
10004254:	89 5c 24 44          	mov    DWORD PTR [esp+0x44],ebx
10004258:	dd 44 24 40          	fld    QWORD PTR [esp+0x40]
1000425c:	8b 5c 24 10          	mov    ebx,DWORD PTR [esp+0x10]
10004260:	dd 04 dd 18 cd 00 10 	fld    QWORD PTR [ebx*8+0x1000cd18]
10004267:	8b 4c 24 30          	mov    ecx,DWORD PTR [esp+0x30]
1000426b:	85 c9                	test   ecx,ecx
1000426d:	0f 84 24 0d 00 00    	je     10004f97 <_dtoa_r+0x1137>
10004273:	d8 3d 24 cc 00 10    	fdivr  DWORD PTR ds:0x1000cc24
10004279:	de e1                	fsubrp st(1),st
1000427b:	88 10                	mov    BYTE PTR [eax],dl
1000427d:	d8 d1                	fcom   st(1)
1000427f:	df e0                	fnstsw ax
10004281:	f6 c4 45             	test   ah,0x45
10004284:	0f 84 87 00 00 00    	je     10004311 <_dtoa_r+0x4b1>
1000428a:	d9 c1                	fld    st(1)
1000428c:	d8 2d 14 cc 00 10    	fsubr  DWORD PTR ds:0x1000cc14
10004292:	d9 c9                	fxch   st(1)
10004294:	d8 d1                	fcom   st(1)
10004296:	df e0                	fnstsw ax
10004298:	dd d9                	fstp   st(1)
1000429a:	f6 c4 45             	test   ah,0x45
1000429d:	0f 84 6d 0e 00 00    	je     10005110 <_dtoa_r+0x12b0>
100042a3:	8b 44 24 10          	mov    eax,DWORD PTR [esp+0x10]
100042a7:	83 f8 01             	cmp    eax,0x1
100042aa:	0f 84 cc 0b 00 00    	je     10004e7c <_dtoa_r+0x101c>
100042b0:	8b 5c 24 18          	mov    ebx,DWORD PTR [esp+0x18]
100042b4:	01 c3                	add    ebx,eax
100042b6:	eb 21                	jmp    100042d9 <_dtoa_r+0x479>
100042b8:	d9 c1                	fld    st(1)
100042ba:	d8 2d 14 cc 00 10    	fsubr  DWORD PTR ds:0x1000cc14
100042c0:	d9 c9                	fxch   st(1)
100042c2:	d8 d1                	fcom   st(1)
100042c4:	df e0                	fnstsw ax
100042c6:	dd d9                	fstp   st(1)
100042c8:	f6 c4 45             	test   ah,0x45
100042cb:	0f 84 45 0e 00 00    	je     10005116 <_dtoa_r+0x12b6>
100042d1:	39 df                	cmp    edi,ebx
100042d3:	0f 84 a9 0b 00 00    	je     10004e82 <_dtoa_r+0x1022>
100042d9:	d9 05 18 cc 00 10    	fld    DWORD PTR ds:0x1000cc18
100042df:	dc c9                	fmul   st(1),st
100042e1:	de ca                	fmulp  st(2),st
100042e3:	d9 c9                	fxch   st(1)
100042e5:	d9 6c 24 54          	fldcw  WORD PTR [esp+0x54]
100042e9:	db 54 24 10          	fist   DWORD PTR [esp+0x10]
100042ed:	d9 6c 24 56          	fldcw  WORD PTR [esp+0x56]
100042f1:	da 64 24 10          	fisub  DWORD PTR [esp+0x10]
100042f5:	d9 c9                	fxch   st(1)
100042f7:	47                   	inc    edi
100042f8:	8a 54 24 10          	mov    dl,BYTE PTR [esp+0x10]
100042fc:	83 c2 30             	add    edx,0x30
100042ff:	88 57 ff             	mov    BYTE PTR [edi-0x1],dl
10004302:	d8 d1                	fcom   st(1)
10004304:	df e0                	fnstsw ax
10004306:	f6 c4 45             	test   ah,0x45
10004309:	75 ad                	jne    100042b8 <_dtoa_r+0x458>
1000430b:	dd d8                	fstp   st(0)
1000430d:	dd d8                	fstp   st(0)
1000430f:	eb 04                	jmp    10004315 <_dtoa_r+0x4b5>
10004311:	dd d8                	fstp   st(0)
10004313:	dd d8                	fstp   st(0)
10004315:	8b 44 24 4c          	mov    eax,DWORD PTR [esp+0x4c]
10004319:	40                   	inc    eax
1000431a:	89 44 24 28          	mov    DWORD PTR [esp+0x28],eax
1000431e:	eb 0c                	jmp    1000432c <_dtoa_r+0x4cc>
10004320:	dd d8                	fstp   st(0)
10004322:	dd d8                	fstp   st(0)
10004324:	eb 06                	jmp    1000432c <_dtoa_r+0x4cc>
10004326:	dd d8                	fstp   st(0)
10004328:	dd d8                	fstp   st(0)
1000432a:	66 90                	xchg   ax,ax
1000432c:	83 ec 08             	sub    esp,0x8
1000432f:	ff 74 24 2c          	push   DWORD PTR [esp+0x2c]
10004333:	55                   	push   ebp
10004334:	e8 23 20 00 00       	call   1000635c <_Bfree>
10004339:	c6 07 00             	mov    BYTE PTR [edi],0x0
1000433c:	8b 84 24 b4 00 00 00 	mov    eax,DWORD PTR [esp+0xb4]
10004343:	8b 74 24 38          	mov    esi,DWORD PTR [esp+0x38]
10004347:	89 30                	mov    DWORD PTR [eax],esi
10004349:	83 c4 10             	add    esp,0x10
1000434c:	8b ac 24 ac 00 00 00 	mov    ebp,DWORD PTR [esp+0xac]
10004353:	85 ed                	test   ebp,ebp
10004355:	0f 84 c5 fb ff ff    	je     10003f20 <_dtoa_r+0xc0>
1000435b:	8b 84 24 ac 00 00 00 	mov    eax,DWORD PTR [esp+0xac]
10004362:	89 38                	mov    DWORD PTR [eax],edi
10004364:	8b 44 24 18          	mov    eax,DWORD PTR [esp+0x18]
10004368:	83 c4 7c             	add    esp,0x7c
1000436b:	5b                   	pop    ebx
1000436c:	5e                   	pop    esi
1000436d:	5f                   	pop    edi
1000436e:	5d                   	pop    ebp
1000436f:	c3                   	ret    
10004370:	c7 00 01 00 00 00    	mov    DWORD PTR [eax],0x1
10004376:	81 e3 ff ff ff 7f    	and    ebx,0x7fffffff
1000437c:	89 5c 24 14          	mov    DWORD PTR [esp+0x14],ebx
10004380:	89 d8                	mov    eax,ebx
10004382:	25 00 00 f0 7f       	and    eax,0x7ff00000
10004387:	3d 00 00 f0 7f       	cmp    eax,0x7ff00000
1000438c:	0f 85 46 fb ff ff    	jne    10003ed8 <_dtoa_r+0x78>
10004392:	8b 84 24 a4 00 00 00 	mov    eax,DWORD PTR [esp+0xa4]
10004399:	c7 00 0f 27 00 00    	mov    DWORD PTR [eax],0x270f
1000439f:	81 e3 ff ff 0f 00    	and    ebx,0xfffff
100043a5:	8b 44 24 10          	mov    eax,DWORD PTR [esp+0x10]
100043a9:	09 d8                	or     eax,ebx
100043ab:	74 67                	je     10004414 <_dtoa_r+0x5b4>
100043ad:	8b b4 24 ac 00 00 00 	mov    esi,DWORD PTR [esp+0xac]
100043b4:	85 f6                	test   esi,esi
100043b6:	c7 44 24 18 b8 cb 00 10 	mov    DWORD PTR [esp+0x18],0x1000cbb8
100043be:	0f 84 5c fb ff ff    	je     10003f20 <_dtoa_r+0xc0>
100043c4:	b8 bb cb 00 10       	mov    eax,0x1000cbbb
100043c9:	8b b4 24 ac 00 00 00 	mov    esi,DWORD PTR [esp+0xac]
100043d0:	89 06                	mov    DWORD PTR [esi],eax
100043d2:	8b 44 24 18          	mov    eax,DWORD PTR [esp+0x18]
100043d6:	83 c4 7c             	add    esp,0x7c
100043d9:	5b                   	pop    ebx
100043da:	5e                   	pop    esi
100043db:	5f                   	pop    edi
100043dc:	5d                   	pop    ebp
100043dd:	c3                   	ret    
100043de:	66 90                	xchg   ax,ax
100043e0:	8b 0c 24             	mov    ecx,DWORD PTR [esp]
100043e3:	89 4c 24 08          	mov    DWORD PTR [esp+0x8],ecx
100043e7:	8b 54 24 04          	mov    edx,DWORD PTR [esp+0x4]
100043eb:	81 e2 ff ff 0f 00    	and    edx,0xfffff
100043f1:	81 ca 00 00 f0 3f    	or     edx,0x3ff00000
100043f7:	89 54 24 0c          	mov    DWORD PTR [esp+0xc],edx
100043fb:	8d 88 01 fc ff ff    	lea    ecx,[eax-0x3ff]
10004401:	8b 54 24 68          	mov    edx,DWORD PTR [esp+0x68]
10004405:	c7 44 24 3c 00 00 00 00 	mov    DWORD PTR [esp+0x3c],0x0
1000440d:	e9 ac fb ff ff       	jmp    10003fbe <_dtoa_r+0x15e>
10004412:	66 90                	xchg   ax,ax
10004414:	8b 9c 24 ac 00 00 00 	mov    ebx,DWORD PTR [esp+0xac]
1000441b:	85 db                	test   ebx,ebx
1000441d:	c7 44 24 18 bc cb 00 10 	mov    DWORD PTR [esp+0x18],0x1000cbbc
10004425:	0f 84 f5 fa ff ff    	je     10003f20 <_dtoa_r+0xc0>
1000442b:	b8 c4 cb 00 10       	mov    eax,0x1000cbc4
10004430:	eb 97                	jmp    100043c9 <_dtoa_r+0x569>
10004432:	c7 45 44 00 00 00 00 	mov    DWORD PTR [ebp+0x44],0x0
10004439:	52                   	push   edx
1000443a:	52                   	push   edx
1000443b:	6a 00                	push   0x0
1000443d:	55                   	push   ebp
1000443e:	e8 9d 1e 00 00       	call   100062e0 <_Balloc>
10004443:	89 44 24 28          	mov    DWORD PTR [esp+0x28],eax
10004447:	83 c4 10             	add    esp,0x10
1000444a:	85 c0                	test   eax,eax
1000444c:	0f 84 57 0d 00 00    	je     100051a9 <_dtoa_r+0x1349>
10004452:	8b 44 24 18          	mov    eax,DWORD PTR [esp+0x18]
10004456:	89 45 40             	mov    DWORD PTR [ebp+0x40],eax
10004459:	c7 44 24 1c ff ff ff ff 	mov    DWORD PTR [esp+0x1c],0xffffffff
10004461:	c7 44 24 48 ff ff ff ff 	mov    DWORD PTR [esp+0x48],0xffffffff
10004469:	c7 44 24 30 01 00 00 00 	mov    DWORD PTR [esp+0x30],0x1
10004471:	c7 84 24 a0 00 00 00 00 00 00 00 	mov    DWORD PTR [esp+0xa0],0x0
1000447c:	83 ce ff             	or     esi,0xffffffff
1000447f:	90                   	nop
10004480:	8b 44 24 6c          	mov    eax,DWORD PTR [esp+0x6c]
10004484:	85 c0                	test   eax,eax
10004486:	0f 88 6c 01 00 00    	js     100045f8 <_dtoa_r+0x798>
1000448c:	8b 7c 24 28          	mov    edi,DWORD PTR [esp+0x28]
10004490:	83 ff 0e             	cmp    edi,0xe
10004493:	0f 8f 5f 01 00 00    	jg     100045f8 <_dtoa_r+0x798>
10004499:	dd 04 fd 20 cd 00 10 	fld    QWORD PTR [edi*8+0x1000cd20]
100044a0:	8b bc 24 a0 00 00 00 	mov    edi,DWORD PTR [esp+0xa0]
100044a7:	85 ff                	test   edi,edi
100044a9:	79 41                	jns    100044ec <_dtoa_r+0x68c>
100044ab:	8b 5c 24 1c          	mov    ebx,DWORD PTR [esp+0x1c]
100044af:	85 db                	test   ebx,ebx
100044b1:	7f 39                	jg     100044ec <_dtoa_r+0x68c>
100044b3:	0f 85 63 09 00 00    	jne    10004e1c <_dtoa_r+0xfbc>
100044b9:	d8 0d 20 cc 00 10    	fmul   DWORD PTR ds:0x1000cc20
100044bf:	dc 5c 24 10          	fcomp  QWORD PTR [esp+0x10]
100044c3:	df e0                	fnstsw ax
100044c5:	c7 04 24 00 00 00 00 	mov    DWORD PTR [esp],0x0
100044cc:	31 db                	xor    ebx,ebx
100044ce:	f6 c4 05             	test   ah,0x5
100044d1:	0f 85 26 08 00 00    	jne    10004cfd <_dtoa_r+0xe9d>
100044d7:	90                   	nop
100044d8:	8b b4 24 a0 00 00 00 	mov    esi,DWORD PTR [esp+0xa0]
100044df:	f7 d6                	not    esi
100044e1:	8b 7c 24 18          	mov    edi,DWORD PTR [esp+0x18]
100044e5:	e9 22 08 00 00       	jmp    10004d0c <_dtoa_r+0xeac>
100044ea:	66 90                	xchg   ax,ax
100044ec:	dd 44 24 10          	fld    QWORD PTR [esp+0x10]
100044f0:	d9 c0                	fld    st(0)
100044f2:	d8 f2                	fdiv   st,st(2)
100044f4:	d9 7c 24 56          	fnstcw WORD PTR [esp+0x56]
100044f8:	66 8b 44 24 56       	mov    ax,WORD PTR [esp+0x56]
100044fd:	80 cc 0c             	or     ah,0xc
10004500:	66 89 44 24 54       	mov    WORD PTR [esp+0x54],ax
10004505:	d9 6c 24 54          	fldcw  WORD PTR [esp+0x54]
10004509:	db 5c 24 50          	fistp  DWORD PTR [esp+0x50]
1000450d:	d9 6c 24 56          	fldcw  WORD PTR [esp+0x56]
10004511:	8b 54 24 50          	mov    edx,DWORD PTR [esp+0x50]
10004515:	d9 c1                	fld    st(1)
10004517:	89 14 24             	mov    DWORD PTR [esp],edx
1000451a:	da 0c 24             	fimul  DWORD PTR [esp]
1000451d:	de e9                	fsubp  st(1),st
1000451f:	8b 5c 24 18          	mov    ebx,DWORD PTR [esp+0x18]
10004523:	8d 7b 01             	lea    edi,[ebx+0x1]
10004526:	8d 42 30             	lea    eax,[edx+0x30]
10004529:	88 03                	mov    BYTE PTR [ebx],al
1000452b:	ff 44 24 28          	inc    DWORD PTR [esp+0x28]
1000452f:	83 7c 24 1c 01       	cmp    DWORD PTR [esp+0x1c],0x1
10004534:	74 6d                	je     100045a3 <_dtoa_r+0x743>
10004536:	d8 0d 18 cc 00 10    	fmul   DWORD PTR ds:0x1000cc18
1000453c:	d9 ee                	fldz   
1000453e:	d9 c9                	fxch   st(1)
10004540:	dd e1                	fucom  st(1)
10004542:	df e0                	fnstsw ax
10004544:	dd d9                	fstp   st(1)
10004546:	80 e4 45             	and    ah,0x45
10004549:	80 fc 40             	cmp    ah,0x40
1000454c:	0f 84 ce fd ff ff    	je     10004320 <_dtoa_r+0x4c0>
10004552:	89 d8                	mov    eax,ebx
10004554:	8d 5b 02             	lea    ebx,[ebx+0x2]
10004557:	01 c6                	add    esi,eax
10004559:	eb 1e                	jmp    10004579 <_dtoa_r+0x719>
1000455b:	90                   	nop
1000455c:	d8 0d 18 cc 00 10    	fmul   DWORD PTR ds:0x1000cc18
10004562:	43                   	inc    ebx
10004563:	d9 ee                	fldz   
10004565:	d9 c9                	fxch   st(1)
10004567:	dd e1                	fucom  st(1)
10004569:	df e0                	fnstsw ax
1000456b:	dd d9                	fstp   st(1)
1000456d:	80 e4 45             	and    ah,0x45
10004570:	80 fc 40             	cmp    ah,0x40
10004573:	0f 84 ad fd ff ff    	je     10004326 <_dtoa_r+0x4c6>
10004579:	d9 c0                	fld    st(0)
1000457b:	d8 f2                	fdiv   st,st(2)
1000457d:	d9 6c 24 54          	fldcw  WORD PTR [esp+0x54]
10004581:	db 5c 24 50          	fistp  DWORD PTR [esp+0x50]
10004585:	d9 6c 24 56          	fldcw  WORD PTR [esp+0x56]
10004589:	8b 54 24 50          	mov    edx,DWORD PTR [esp+0x50]
1000458d:	d9 c1                	fld    st(1)
1000458f:	89 14 24             	mov    DWORD PTR [esp],edx
10004592:	da 0c 24             	fimul  DWORD PTR [esp]
10004595:	de e9                	fsubp  st(1),st
10004597:	89 df                	mov    edi,ebx
10004599:	8d 42 30             	lea    eax,[edx+0x30]
1000459c:	88 43 ff             	mov    BYTE PTR [ebx-0x1],al
1000459f:	39 de                	cmp    esi,ebx
100045a1:	75 b9                	jne    1000455c <_dtoa_r+0x6fc>
100045a3:	d8 c0                	fadd   st,st(0)
100045a5:	d8 d1                	fcom   st(1)
100045a7:	df e0                	fnstsw ax
100045a9:	f6 c4 45             	test   ah,0x45
100045ac:	74 1b                	je     100045c9 <_dtoa_r+0x769>
100045ae:	da e9                	fucompp 
100045b0:	df e0                	fnstsw ax
100045b2:	80 e4 45             	and    ah,0x45
100045b5:	80 f4 40             	xor    ah,0x40
100045b8:	0f 85 6e fd ff ff    	jne    1000432c <_dtoa_r+0x4cc>
100045be:	83 e2 01             	and    edx,0x1
100045c1:	0f 84 65 fd ff ff    	je     1000432c <_dtoa_r+0x4cc>
100045c7:	eb 04                	jmp    100045cd <_dtoa_r+0x76d>
100045c9:	dd d8                	fstp   st(0)
100045cb:	dd d8                	fstp   st(0)
100045cd:	8a 57 ff             	mov    dl,BYTE PTR [edi-0x1]
100045d0:	8b 4c 24 18          	mov    ecx,DWORD PTR [esp+0x18]
100045d4:	eb 0f                	jmp    100045e5 <_dtoa_r+0x785>
100045d6:	66 90                	xchg   ax,ax
100045d8:	39 c8                	cmp    eax,ecx
100045da:	0f 84 e2 0a 00 00    	je     100050c2 <_dtoa_r+0x1262>
100045e0:	8a 50 ff             	mov    dl,BYTE PTR [eax-0x1]
100045e3:	89 c7                	mov    edi,eax
100045e5:	8d 47 ff             	lea    eax,[edi-0x1]
100045e8:	80 fa 39             	cmp    dl,0x39
100045eb:	74 eb                	je     100045d8 <_dtoa_r+0x778>
100045ed:	42                   	inc    edx
100045ee:	88 10                	mov    BYTE PTR [eax],dl
100045f0:	e9 37 fd ff ff       	jmp    1000432c <_dtoa_r+0x4cc>
100045f5:	8d 76 00             	lea    esi,[esi+0x0]
100045f8:	8b 4c 24 30          	mov    ecx,DWORD PTR [esp+0x30]
100045fc:	85 c9                	test   ecx,ecx
100045fe:	0f 84 7c 01 00 00    	je     10004780 <_dtoa_r+0x920>
10004604:	83 bc 24 9c 00 00 00 01 	cmp    DWORD PTR [esp+0x9c],0x1
1000460c:	0f 8e 7a 07 00 00    	jle    10004d8c <_dtoa_r+0xf2c>
10004612:	8b 44 24 1c          	mov    eax,DWORD PTR [esp+0x1c]
10004616:	48                   	dec    eax
10004617:	8b 74 24 34          	mov    esi,DWORD PTR [esp+0x34]
1000461b:	39 c6                	cmp    esi,eax
1000461d:	0f 8d 14 07 00 00    	jge    10004d37 <_dtoa_r+0xed7>
10004623:	89 c2                	mov    edx,eax
10004625:	2b 54 24 34          	sub    edx,DWORD PTR [esp+0x34]
10004629:	01 54 24 08          	add    DWORD PTR [esp+0x8],edx
1000462d:	89 44 24 34          	mov    DWORD PTR [esp+0x34],eax
10004631:	31 ff                	xor    edi,edi
10004633:	8b 44 24 1c          	mov    eax,DWORD PTR [esp+0x1c]
10004637:	85 c0                	test   eax,eax
10004639:	0f 88 0f 09 00 00    	js     10004f4e <_dtoa_r+0x10ee>
1000463f:	01 44 24 20          	add    DWORD PTR [esp+0x20],eax
10004643:	8b 5c 24 2c          	mov    ebx,DWORD PTR [esp+0x2c]
10004647:	89 de                	mov    esi,ebx
10004649:	01 d8                	add    eax,ebx
1000464b:	89 44 24 2c          	mov    DWORD PTR [esp+0x2c],eax
1000464f:	83 ec 08             	sub    esp,0x8
10004652:	6a 01                	push   0x1
10004654:	55                   	push   ebp
10004655:	e8 ca 1f 00 00       	call   10006624 <__i2b>
1000465a:	89 c3                	mov    ebx,eax
1000465c:	83 c4 10             	add    esp,0x10
1000465f:	e9 26 01 00 00       	jmp    1000478a <_dtoa_r+0x92a>
10004664:	8b 44 24 20          	mov    eax,DWORD PTR [esp+0x20]
10004668:	85 c0                	test   eax,eax
1000466a:	c7 44 24 38 00 00 00 00 	mov    DWORD PTR [esp+0x38],0x0
10004672:	0f 88 c0 00 00 00    	js     10004738 <_dtoa_r+0x8d8>
10004678:	c7 44 24 2c 00 00 00 00 	mov    DWORD PTR [esp+0x2c],0x0
10004680:	8b 7c 24 08          	mov    edi,DWORD PTR [esp+0x8]
10004684:	01 7c 24 20          	add    DWORD PTR [esp+0x20],edi
10004688:	89 7c 24 28          	mov    DWORD PTR [esp+0x28],edi
1000468c:	c7 44 24 34 00 00 00 00 	mov    DWORD PTR [esp+0x34],0x0
10004694:	83 bc 24 9c 00 00 00 09 	cmp    DWORD PTR [esp+0x9c],0x9
1000469c:	0f 86 12 fa ff ff    	jbe    100040b4 <_dtoa_r+0x254>
100046a2:	bf 01 00 00 00       	mov    edi,0x1
100046a7:	c7 84 24 9c 00 00 00 00 00 00 00 	mov    DWORD PTR [esp+0x9c],0x0
100046b2:	c7 44 24 30 01 00 00 00 	mov    DWORD PTR [esp+0x30],0x1
100046ba:	c7 44 24 1c ff ff ff ff 	mov    DWORD PTR [esp+0x1c],0xffffffff
100046c2:	c7 84 24 a0 00 00 00 00 00 00 00 	mov    DWORD PTR [esp+0xa0],0x0
100046cd:	c7 45 44 00 00 00 00 	mov    DWORD PTR [ebp+0x44],0x0
100046d4:	8b 44 24 1c          	mov    eax,DWORD PTR [esp+0x1c]
100046d8:	89 44 24 48          	mov    DWORD PTR [esp+0x48],eax
100046dc:	31 d2                	xor    edx,edx
100046de:	e9 5e fa ff ff       	jmp    10004141 <_dtoa_r+0x2e1>
100046e3:	90                   	nop
100046e4:	83 bc 24 9c 00 00 00 05 	cmp    DWORD PTR [esp+0x9c],0x5
100046ec:	0f 85 40 fd ff ff    	jne    10004432 <_dtoa_r+0x5d2>
100046f2:	c7 44 24 30 01 00 00 00 	mov    DWORD PTR [esp+0x30],0x1
100046fa:	8b 44 24 28          	mov    eax,DWORD PTR [esp+0x28]
100046fe:	03 84 24 a0 00 00 00 	add    eax,DWORD PTR [esp+0xa0]
10004705:	89 44 24 48          	mov    DWORD PTR [esp+0x48],eax
10004709:	40                   	inc    eax
1000470a:	89 44 24 1c          	mov    DWORD PTR [esp+0x1c],eax
1000470e:	89 c6                	mov    esi,eax
10004710:	85 c0                	test   eax,eax
10004712:	0f 8f fe f9 ff ff    	jg     10004116 <_dtoa_r+0x2b6>
10004718:	be 01 00 00 00       	mov    esi,0x1
1000471d:	e9 f4 f9 ff ff       	jmp    10004116 <_dtoa_r+0x2b6>
10004722:	66 90                	xchg   ax,ax
10004724:	c7 44 24 38 01 00 00 00 	mov    DWORD PTR [esp+0x38],0x1
1000472c:	8b 44 24 20          	mov    eax,DWORD PTR [esp+0x20]
10004730:	85 c0                	test   eax,eax
10004732:	0f 89 3e f9 ff ff    	jns    10004076 <_dtoa_r+0x216>
10004738:	b8 01 00 00 00       	mov    eax,0x1
1000473d:	29 d0                	sub    eax,edx
1000473f:	89 44 24 2c          	mov    DWORD PTR [esp+0x2c],eax
10004743:	c7 44 24 20 00 00 00 00 	mov    DWORD PTR [esp+0x20],0x0
1000474b:	e9 2e f9 ff ff       	jmp    1000407e <_dtoa_r+0x21e>
10004750:	83 bc 24 9c 00 00 00 02 	cmp    DWORD PTR [esp+0x9c],0x2
10004758:	0f 85 d4 fc ff ff    	jne    10004432 <_dtoa_r+0x5d2>
1000475e:	c7 44 24 30 00 00 00 00 	mov    DWORD PTR [esp+0x30],0x0
10004766:	e9 8b f9 ff ff       	jmp    100040f6 <_dtoa_r+0x296>
1000476b:	90                   	nop
1000476c:	c7 44 24 18 25 ca 00 10 	mov    DWORD PTR [esp+0x18],0x1000ca25
10004774:	8b 44 24 18          	mov    eax,DWORD PTR [esp+0x18]
10004778:	83 c4 7c             	add    esp,0x7c
1000477b:	5b                   	pop    ebx
1000477c:	5e                   	pop    esi
1000477d:	5f                   	pop    edi
1000477e:	5d                   	pop    ebp
1000477f:	c3                   	ret    
10004780:	8b 7c 24 34          	mov    edi,DWORD PTR [esp+0x34]
10004784:	8b 74 24 2c          	mov    esi,DWORD PTR [esp+0x2c]
10004788:	31 db                	xor    ebx,ebx
1000478a:	85 f6                	test   esi,esi
1000478c:	7e 1c                	jle    100047aa <_dtoa_r+0x94a>
1000478e:	8b 4c 24 20          	mov    ecx,DWORD PTR [esp+0x20]
10004792:	85 c9                	test   ecx,ecx
10004794:	7e 14                	jle    100047aa <_dtoa_r+0x94a>
10004796:	89 f0                	mov    eax,esi
10004798:	39 ce                	cmp    esi,ecx
1000479a:	0f 8f 90 05 00 00    	jg     10004d30 <_dtoa_r+0xed0>
100047a0:	29 44 24 2c          	sub    DWORD PTR [esp+0x2c],eax
100047a4:	29 c6                	sub    esi,eax
100047a6:	29 44 24 20          	sub    DWORD PTR [esp+0x20],eax
100047aa:	8b 44 24 34          	mov    eax,DWORD PTR [esp+0x34]
100047ae:	85 c0                	test   eax,eax
100047b0:	74 4f                	je     10004801 <_dtoa_r+0x9a1>
100047b2:	8b 4c 24 30          	mov    ecx,DWORD PTR [esp+0x30]
100047b6:	85 c9                	test   ecx,ecx
100047b8:	0f 84 6e 06 00 00    	je     10004e2c <_dtoa_r+0xfcc>
100047be:	85 ff                	test   edi,edi
100047c0:	7e 33                	jle    100047f5 <_dtoa_r+0x995>
100047c2:	50                   	push   eax
100047c3:	57                   	push   edi
100047c4:	53                   	push   ebx
100047c5:	55                   	push   ebp
100047c6:	e8 89 20 00 00       	call   10006854 <__pow5mult>
100047cb:	89 c3                	mov    ebx,eax
100047cd:	83 c4 0c             	add    esp,0xc
100047d0:	ff 74 24 28          	push   DWORD PTR [esp+0x28]
100047d4:	50                   	push   eax
100047d5:	55                   	push   ebp
100047d6:	e8 89 1e 00 00       	call   10006664 <__multiply>
100047db:	89 44 24 10          	mov    DWORD PTR [esp+0x10],eax
100047df:	58                   	pop    eax
100047e0:	5a                   	pop    edx
100047e1:	ff 74 24 2c          	push   DWORD PTR [esp+0x2c]
100047e5:	55                   	push   ebp
100047e6:	e8 71 1b 00 00       	call   1000635c <_Bfree>
100047eb:	83 c4 10             	add    esp,0x10
100047ee:	8b 04 24             	mov    eax,DWORD PTR [esp]
100047f1:	89 44 24 24          	mov    DWORD PTR [esp+0x24],eax
100047f5:	8b 44 24 34          	mov    eax,DWORD PTR [esp+0x34]
100047f9:	29 f8                	sub    eax,edi
100047fb:	0f 85 46 07 00 00    	jne    10004f47 <_dtoa_r+0x10e7>
10004801:	83 ec 08             	sub    esp,0x8
10004804:	6a 01                	push   0x1
10004806:	55                   	push   ebp
10004807:	e8 18 1e 00 00       	call   10006624 <__i2b>
1000480c:	89 44 24 10          	mov    DWORD PTR [esp+0x10],eax
10004810:	83 c4 10             	add    esp,0x10
10004813:	8b 7c 24 08          	mov    edi,DWORD PTR [esp+0x8]
10004817:	85 ff                	test   edi,edi
10004819:	0f 8f bd 01 00 00    	jg     100049dc <_dtoa_r+0xb7c>
1000481f:	83 bc 24 9c 00 00 00 01 	cmp    DWORD PTR [esp+0x9c],0x1
10004827:	0f 8e 37 04 00 00    	jle    10004c64 <_dtoa_r+0xe04>
1000482d:	c7 44 24 34 00 00 00 00 	mov    DWORD PTR [esp+0x34],0x0
10004835:	8b 7c 24 08          	mov    edi,DWORD PTR [esp+0x8]
10004839:	85 ff                	test   edi,edi
1000483b:	0f 85 c1 01 00 00    	jne    10004a02 <_dtoa_r+0xba2>
10004841:	b8 01 00 00 00       	mov    eax,0x1
10004846:	8b 7c 24 20          	mov    edi,DWORD PTR [esp+0x20]
1000484a:	01 f8                	add    eax,edi
1000484c:	83 e0 1f             	and    eax,0x1f
1000484f:	0f 84 57 01 00 00    	je     100049ac <_dtoa_r+0xb4c>
10004855:	ba 20 00 00 00       	mov    edx,0x20
1000485a:	29 c2                	sub    edx,eax
1000485c:	83 fa 04             	cmp    edx,0x4
1000485f:	0f 8e 61 09 00 00    	jle    100051c6 <_dtoa_r+0x1366>
10004865:	ba 1c 00 00 00       	mov    edx,0x1c
1000486a:	29 c2                	sub    edx,eax
1000486c:	01 54 24 2c          	add    DWORD PTR [esp+0x2c],edx
10004870:	01 d6                	add    esi,edx
10004872:	01 d7                	add    edi,edx
10004874:	89 7c 24 20          	mov    DWORD PTR [esp+0x20],edi
10004878:	8b 44 24 2c          	mov    eax,DWORD PTR [esp+0x2c]
1000487c:	85 c0                	test   eax,eax
1000487e:	7e 13                	jle    10004893 <_dtoa_r+0xa33>
10004880:	51                   	push   ecx
10004881:	50                   	push   eax
10004882:	ff 74 24 2c          	push   DWORD PTR [esp+0x2c]
10004886:	55                   	push   ebp
10004887:	e8 9c 20 00 00       	call   10006928 <__lshift>
1000488c:	89 44 24 34          	mov    DWORD PTR [esp+0x34],eax
10004890:	83 c4 10             	add    esp,0x10
10004893:	8b 44 24 20          	mov    eax,DWORD PTR [esp+0x20]
10004897:	85 c0                	test   eax,eax
10004899:	7e 13                	jle    100048ae <_dtoa_r+0xa4e>
1000489b:	52                   	push   edx
1000489c:	50                   	push   eax
1000489d:	ff 74 24 08          	push   DWORD PTR [esp+0x8]
100048a1:	55                   	push   ebp
100048a2:	e8 81 20 00 00       	call   10006928 <__lshift>
100048a7:	89 44 24 10          	mov    DWORD PTR [esp+0x10],eax
100048ab:	83 c4 10             	add    esp,0x10
100048ae:	8b 44 24 38          	mov    eax,DWORD PTR [esp+0x38]
100048b2:	85 c0                	test   eax,eax
100048b4:	0f 85 52 03 00 00    	jne    10004c0c <_dtoa_r+0xdac>
100048ba:	8b 7c 24 1c          	mov    edi,DWORD PTR [esp+0x1c]
100048be:	85 ff                	test   edi,edi
100048c0:	0f 8e 02 03 00 00    	jle    10004bc8 <_dtoa_r+0xd68>
100048c6:	8b 44 24 30          	mov    eax,DWORD PTR [esp+0x30]
100048ca:	85 c0                	test   eax,eax
100048cc:	0f 85 7a 01 00 00    	jne    10004a4c <_dtoa_r+0xbec>
100048d2:	ff 44 24 28          	inc    DWORD PTR [esp+0x28]
100048d6:	8b 7c 24 18          	mov    edi,DWORD PTR [esp+0x18]
100048da:	be 01 00 00 00       	mov    esi,0x1
100048df:	89 5c 24 08          	mov    DWORD PTR [esp+0x8],ebx
100048e3:	8b 5c 24 24          	mov    ebx,DWORD PTR [esp+0x24]
100048e7:	eb 14                	jmp    100048fd <_dtoa_r+0xa9d>
100048e9:	8d 76 00             	lea    esi,[esi+0x0]
100048ec:	6a 00                	push   0x0
100048ee:	6a 0a                	push   0xa
100048f0:	53                   	push   ebx
100048f1:	55                   	push   ebp
100048f2:	e8 81 1a 00 00       	call   10006378 <__multadd>
100048f7:	89 c3                	mov    ebx,eax
100048f9:	46                   	inc    esi
100048fa:	83 c4 10             	add    esp,0x10
100048fd:	8b 14 24             	mov    edx,DWORD PTR [esp]
10004900:	89 d8                	mov    eax,ebx
10004902:	e8 8d f3 ff ff       	call   10003c94 <quorem>
10004907:	83 c0 30             	add    eax,0x30
1000490a:	47                   	inc    edi
1000490b:	88 47 ff             	mov    BYTE PTR [edi-0x1],al
1000490e:	3b 74 24 1c          	cmp    esi,DWORD PTR [esp+0x1c]
10004912:	7c d8                	jl     100048ec <_dtoa_r+0xa8c>
10004914:	89 44 24 10          	mov    DWORD PTR [esp+0x10],eax
10004918:	89 5c 24 24          	mov    DWORD PTR [esp+0x24],ebx
1000491c:	8b 5c 24 08          	mov    ebx,DWORD PTR [esp+0x8]
10004920:	31 f6                	xor    esi,esi
10004922:	50                   	push   eax
10004923:	6a 01                	push   0x1
10004925:	ff 74 24 2c          	push   DWORD PTR [esp+0x2c]
10004929:	55                   	push   ebp
1000492a:	e8 f9 1f 00 00       	call   10006928 <__lshift>
1000492f:	89 44 24 34          	mov    DWORD PTR [esp+0x34],eax
10004933:	5a                   	pop    edx
10004934:	59                   	pop    ecx
10004935:	ff 74 24 08          	push   DWORD PTR [esp+0x8]
10004939:	50                   	push   eax
1000493a:	e8 01 21 00 00       	call   10006a40 <__mcmp>
1000493f:	83 c4 10             	add    esp,0x10
10004942:	85 c0                	test   eax,eax
10004944:	8a 47 ff             	mov    al,BYTE PTR [edi-0x1]
10004947:	0f 8e 1b 04 00 00    	jle    10004d68 <_dtoa_r+0xf08>
1000494d:	8b 4c 24 18          	mov    ecx,DWORD PTR [esp+0x18]
10004951:	eb 0e                	jmp    10004961 <_dtoa_r+0xb01>
10004953:	90                   	nop
10004954:	39 ca                	cmp    edx,ecx
10004956:	0f 84 5c 04 00 00    	je     10004db8 <_dtoa_r+0xf58>
1000495c:	8a 42 ff             	mov    al,BYTE PTR [edx-0x1]
1000495f:	89 d7                	mov    edi,edx
10004961:	8d 57 ff             	lea    edx,[edi-0x1]
10004964:	3c 39                	cmp    al,0x39
10004966:	74 ec                	je     10004954 <_dtoa_r+0xaf4>
10004968:	40                   	inc    eax
10004969:	88 02                	mov    BYTE PTR [edx],al
1000496b:	83 ec 08             	sub    esp,0x8
1000496e:	ff 74 24 08          	push   DWORD PTR [esp+0x8]
10004972:	55                   	push   ebp
10004973:	e8 e4 19 00 00       	call   1000635c <_Bfree>
10004978:	83 c4 10             	add    esp,0x10
1000497b:	85 db                	test   ebx,ebx
1000497d:	0f 84 a9 f9 ff ff    	je     1000432c <_dtoa_r+0x4cc>
10004983:	85 f6                	test   esi,esi
10004985:	74 11                	je     10004998 <_dtoa_r+0xb38>
10004987:	39 de                	cmp    esi,ebx
10004989:	74 0d                	je     10004998 <_dtoa_r+0xb38>
1000498b:	83 ec 08             	sub    esp,0x8
1000498e:	56                   	push   esi
1000498f:	55                   	push   ebp
10004990:	e8 c7 19 00 00       	call   1000635c <_Bfree>
10004995:	83 c4 10             	add    esp,0x10
10004998:	83 ec 08             	sub    esp,0x8
1000499b:	53                   	push   ebx
1000499c:	55                   	push   ebp
1000499d:	e8 ba 19 00 00       	call   1000635c <_Bfree>
100049a2:	83 c4 10             	add    esp,0x10
100049a5:	e9 82 f9 ff ff       	jmp    1000432c <_dtoa_r+0x4cc>
100049aa:	66 90                	xchg   ax,ax
100049ac:	b8 1c 00 00 00       	mov    eax,0x1c
100049b1:	01 44 24 2c          	add    DWORD PTR [esp+0x2c],eax
100049b5:	01 c6                	add    esi,eax
100049b7:	01 44 24 20          	add    DWORD PTR [esp+0x20],eax
100049bb:	e9 b8 fe ff ff       	jmp    10004878 <_dtoa_r+0xa18>
100049c0:	b9 20 00 00 00       	mov    ecx,0x20
100049c5:	29 f9                	sub    ecx,edi
100049c7:	d3 e6                	shl    esi,cl
100049c9:	e9 bb f5 ff ff       	jmp    10003f89 <_dtoa_r+0x129>
100049ce:	66 90                	xchg   ax,ax
100049d0:	bf 01 00 00 00       	mov    edi,0x1
100049d5:	e9 f2 f6 ff ff       	jmp    100040cc <_dtoa_r+0x26c>
100049da:	66 90                	xchg   ax,ax
100049dc:	52                   	push   edx
100049dd:	57                   	push   edi
100049de:	50                   	push   eax
100049df:	55                   	push   ebp
100049e0:	e8 6f 1e 00 00       	call   10006854 <__pow5mult>
100049e5:	89 44 24 10          	mov    DWORD PTR [esp+0x10],eax
100049e9:	83 c4 10             	add    esp,0x10
100049ec:	83 bc 24 9c 00 00 00 01 	cmp    DWORD PTR [esp+0x9c],0x1
100049f4:	0f 8e 62 04 00 00    	jle    10004e5c <_dtoa_r+0xffc>
100049fa:	c7 44 24 34 00 00 00 00 	mov    DWORD PTR [esp+0x34],0x0
10004a02:	83 ec 0c             	sub    esp,0xc
10004a05:	8b 7c 24 0c          	mov    edi,DWORD PTR [esp+0xc]
10004a09:	8b 47 10             	mov    eax,DWORD PTR [edi+0x10]
10004a0c:	ff 74 87 10          	push   DWORD PTR [edi+eax*4+0x10]
10004a10:	e8 3f 1b 00 00       	call   10006554 <__hi0bits>
10004a15:	ba 20 00 00 00       	mov    edx,0x20
10004a1a:	29 c2                	sub    edx,eax
10004a1c:	89 d0                	mov    eax,edx
10004a1e:	83 c4 10             	add    esp,0x10
10004a21:	e9 20 fe ff ff       	jmp    10004846 <_dtoa_r+0x9e6>
10004a26:	6a 00                	push   0x0
10004a28:	6a 0a                	push   0xa
10004a2a:	53                   	push   ebx
10004a2b:	55                   	push   ebp
10004a2c:	e8 47 19 00 00       	call   10006378 <__multadd>
10004a31:	89 c3                	mov    ebx,eax
10004a33:	83 c4 10             	add    esp,0x10
10004a36:	8b 44 24 48          	mov    eax,DWORD PTR [esp+0x48]
10004a3a:	85 c0                	test   eax,eax
10004a3c:	0f 8e 3e 07 00 00    	jle    10005180 <_dtoa_r+0x1320>
10004a42:	89 7c 24 28          	mov    DWORD PTR [esp+0x28],edi
10004a46:	89 44 24 1c          	mov    DWORD PTR [esp+0x1c],eax
10004a4a:	66 90                	xchg   ax,ax
10004a4c:	85 f6                	test   esi,esi
10004a4e:	7e 0e                	jle    10004a5e <_dtoa_r+0xbfe>
10004a50:	50                   	push   eax
10004a51:	56                   	push   esi
10004a52:	53                   	push   ebx
10004a53:	55                   	push   ebp
10004a54:	e8 cf 1e 00 00       	call   10006928 <__lshift>
10004a59:	89 c3                	mov    ebx,eax
10004a5b:	83 c4 10             	add    esp,0x10
10004a5e:	8b 44 24 34          	mov    eax,DWORD PTR [esp+0x34]
10004a62:	85 c0                	test   eax,eax
10004a64:	0f 85 93 04 00 00    	jne    10004efd <_dtoa_r+0x109d>
10004a6a:	89 5c 24 08          	mov    DWORD PTR [esp+0x8],ebx
10004a6e:	8b 44 24 18          	mov    eax,DWORD PTR [esp+0x18]
10004a72:	89 c6                	mov    esi,eax
10004a74:	8b 7c 24 1c          	mov    edi,DWORD PTR [esp+0x1c]
10004a78:	8d 44 38 ff          	lea    eax,[eax+edi*1-0x1]
10004a7c:	89 44 24 2c          	mov    DWORD PTR [esp+0x2c],eax
10004a80:	8b 44 24 10          	mov    eax,DWORD PTR [esp+0x10]
10004a84:	83 e0 01             	and    eax,0x1
10004a87:	89 44 24 38          	mov    DWORD PTR [esp+0x38],eax
10004a8b:	0b 84 24 9c 00 00 00 	or     eax,DWORD PTR [esp+0x9c]
10004a92:	89 44 24 34          	mov    DWORD PTR [esp+0x34],eax
10004a96:	8b 7c 24 24          	mov    edi,DWORD PTR [esp+0x24]
10004a9a:	e9 b5 00 00 00       	jmp    10004b54 <_dtoa_r+0xcf4>
10004a9f:	90                   	nop
10004aa0:	83 ec 08             	sub    esp,0x8
10004aa3:	52                   	push   edx
10004aa4:	89 54 24 30          	mov    DWORD PTR [esp+0x30],edx
10004aa8:	57                   	push   edi
10004aa9:	e8 92 1f 00 00       	call   10006a40 <__mcmp>
10004aae:	89 44 24 30          	mov    DWORD PTR [esp+0x30],eax
10004ab2:	59                   	pop    ecx
10004ab3:	58                   	pop    eax
10004ab4:	8b 54 24 2c          	mov    edx,DWORD PTR [esp+0x2c]
10004ab8:	52                   	push   edx
10004ab9:	55                   	push   ebp
10004aba:	e8 9d 18 00 00       	call   1000635c <_Bfree>
10004abf:	83 c4 10             	add    esp,0x10
10004ac2:	8b 44 24 20          	mov    eax,DWORD PTR [esp+0x20]
10004ac6:	85 c0                	test   eax,eax
10004ac8:	75 0c                	jne    10004ad6 <_dtoa_r+0xc76>
10004aca:	8b 54 24 34          	mov    edx,DWORD PTR [esp+0x34]
10004ace:	85 d2                	test   edx,edx
10004ad0:	0f 84 6c 06 00 00    	je     10005142 <_dtoa_r+0x12e2>
10004ad6:	8d 4e 01             	lea    ecx,[esi+0x1]
10004ad9:	89 4c 24 20          	mov    DWORD PTR [esp+0x20],ecx
10004add:	89 ca                	mov    edx,ecx
10004adf:	8b 4c 24 1c          	mov    ecx,DWORD PTR [esp+0x1c]
10004ae3:	85 c9                	test   ecx,ecx
10004ae5:	0f 88 b5 03 00 00    	js     10004ea0 <_dtoa_r+0x1040>
10004aeb:	0b 8c 24 9c 00 00 00 	or     ecx,DWORD PTR [esp+0x9c]
10004af2:	0b 4c 24 38          	or     ecx,DWORD PTR [esp+0x38]
10004af6:	0f 84 a4 03 00 00    	je     10004ea0 <_dtoa_r+0x1040>
10004afc:	85 c0                	test   eax,eax
10004afe:	0f 8f 57 04 00 00    	jg     10004f5b <_dtoa_r+0x10fb>
10004b04:	8a 44 24 10          	mov    al,BYTE PTR [esp+0x10]
10004b08:	88 06                	mov    BYTE PTR [esi],al
10004b0a:	39 74 24 2c          	cmp    DWORD PTR [esp+0x2c],esi
10004b0e:	0f 84 6e 04 00 00    	je     10004f82 <_dtoa_r+0x1122>
10004b14:	6a 00                	push   0x0
10004b16:	6a 0a                	push   0xa
10004b18:	57                   	push   edi
10004b19:	55                   	push   ebp
10004b1a:	e8 59 18 00 00       	call   10006378 <__multadd>
10004b1f:	89 c7                	mov    edi,eax
10004b21:	83 c4 10             	add    esp,0x10
10004b24:	3b 5c 24 08          	cmp    ebx,DWORD PTR [esp+0x8]
10004b28:	0f 84 82 00 00 00    	je     10004bb0 <_dtoa_r+0xd50>
10004b2e:	6a 00                	push   0x0
10004b30:	6a 0a                	push   0xa
10004b32:	53                   	push   ebx
10004b33:	55                   	push   ebp
10004b34:	e8 3f 18 00 00       	call   10006378 <__multadd>
10004b39:	89 c3                	mov    ebx,eax
10004b3b:	6a 00                	push   0x0
10004b3d:	6a 0a                	push   0xa
10004b3f:	ff 74 24 20          	push   DWORD PTR [esp+0x20]
10004b43:	55                   	push   ebp
10004b44:	e8 2f 18 00 00       	call   10006378 <__multadd>
10004b49:	89 44 24 28          	mov    DWORD PTR [esp+0x28],eax
10004b4d:	83 c4 20             	add    esp,0x20
10004b50:	8b 74 24 20          	mov    esi,DWORD PTR [esp+0x20]
10004b54:	8b 14 24             	mov    edx,DWORD PTR [esp]
10004b57:	89 f8                	mov    eax,edi
10004b59:	e8 36 f1 ff ff       	call   10003c94 <quorem>
10004b5e:	89 44 24 30          	mov    DWORD PTR [esp+0x30],eax
10004b62:	83 c0 30             	add    eax,0x30
10004b65:	89 44 24 10          	mov    DWORD PTR [esp+0x10],eax
10004b69:	83 ec 08             	sub    esp,0x8
10004b6c:	53                   	push   ebx
10004b6d:	57                   	push   edi
10004b6e:	e8 cd 1e 00 00       	call   10006a40 <__mcmp>
10004b73:	89 44 24 2c          	mov    DWORD PTR [esp+0x2c],eax
10004b77:	83 c4 0c             	add    esp,0xc
10004b7a:	ff 74 24 0c          	push   DWORD PTR [esp+0xc]
10004b7e:	ff 74 24 08          	push   DWORD PTR [esp+0x8]
10004b82:	55                   	push   ebp
10004b83:	e8 f8 1e 00 00       	call   10006a80 <__mdiff>
10004b88:	89 c2                	mov    edx,eax
10004b8a:	83 c4 10             	add    esp,0x10
10004b8d:	8b 40 0c             	mov    eax,DWORD PTR [eax+0xc]
10004b90:	85 c0                	test   eax,eax
10004b92:	0f 84 08 ff ff ff    	je     10004aa0 <_dtoa_r+0xc40>
10004b98:	83 ec 08             	sub    esp,0x8
10004b9b:	52                   	push   edx
10004b9c:	55                   	push   ebp
10004b9d:	e8 ba 17 00 00       	call   1000635c <_Bfree>
10004ba2:	83 c4 10             	add    esp,0x10
10004ba5:	b8 01 00 00 00       	mov    eax,0x1
10004baa:	e9 27 ff ff ff       	jmp    10004ad6 <_dtoa_r+0xc76>
10004baf:	90                   	nop
10004bb0:	6a 00                	push   0x0
10004bb2:	6a 0a                	push   0xa
10004bb4:	53                   	push   ebx
10004bb5:	55                   	push   ebp
10004bb6:	e8 bd 17 00 00       	call   10006378 <__multadd>
10004bbb:	89 c3                	mov    ebx,eax
10004bbd:	83 c4 10             	add    esp,0x10
10004bc0:	89 44 24 08          	mov    DWORD PTR [esp+0x8],eax
10004bc4:	eb 8a                	jmp    10004b50 <_dtoa_r+0xcf0>
10004bc6:	66 90                	xchg   ax,ax
10004bc8:	83 bc 24 9c 00 00 00 02 	cmp    DWORD PTR [esp+0x9c],0x2
10004bd0:	0f 8f f2 00 00 00    	jg     10004cc8 <_dtoa_r+0xe68>
10004bd6:	8b 4c 24 30          	mov    ecx,DWORD PTR [esp+0x30]
10004bda:	85 c9                	test   ecx,ecx
10004bdc:	0f 85 6a fe ff ff    	jne    10004a4c <_dtoa_r+0xbec>
10004be2:	8b 14 24             	mov    edx,DWORD PTR [esp]
10004be5:	8b 44 24 24          	mov    eax,DWORD PTR [esp+0x24]
10004be9:	e8 a6 f0 ff ff       	call   10003c94 <quorem>
10004bee:	83 c0 30             	add    eax,0x30
10004bf1:	89 44 24 10          	mov    DWORD PTR [esp+0x10],eax
10004bf5:	8b 74 24 18          	mov    esi,DWORD PTR [esp+0x18]
10004bf9:	8d 7e 01             	lea    edi,[esi+0x1]
10004bfc:	88 06                	mov    BYTE PTR [esi],al
10004bfe:	ff 44 24 28          	inc    DWORD PTR [esp+0x28]
10004c02:	31 f6                	xor    esi,esi
10004c04:	e9 19 fd ff ff       	jmp    10004922 <_dtoa_r+0xac2>
10004c09:	8d 76 00             	lea    esi,[esi+0x0]
10004c0c:	83 ec 08             	sub    esp,0x8
10004c0f:	ff 74 24 08          	push   DWORD PTR [esp+0x8]
10004c13:	ff 74 24 30          	push   DWORD PTR [esp+0x30]
10004c17:	e8 24 1e 00 00       	call   10006a40 <__mcmp>
10004c1c:	83 c4 10             	add    esp,0x10
10004c1f:	85 c0                	test   eax,eax
10004c21:	0f 89 93 fc ff ff    	jns    100048ba <_dtoa_r+0xa5a>
10004c27:	8b 44 24 28          	mov    eax,DWORD PTR [esp+0x28]
10004c2b:	8d 78 ff             	lea    edi,[eax-0x1]
10004c2e:	6a 00                	push   0x0
10004c30:	6a 0a                	push   0xa
10004c32:	ff 74 24 2c          	push   DWORD PTR [esp+0x2c]
10004c36:	55                   	push   ebp
10004c37:	e8 3c 17 00 00       	call   10006378 <__multadd>
10004c3c:	89 44 24 34          	mov    DWORD PTR [esp+0x34],eax
10004c40:	83 c4 10             	add    esp,0x10
10004c43:	8b 44 24 30          	mov    eax,DWORD PTR [esp+0x30]
10004c47:	85 c0                	test   eax,eax
10004c49:	0f 85 d7 fd ff ff    	jne    10004a26 <_dtoa_r+0xbc6>
10004c4f:	8b 44 24 48          	mov    eax,DWORD PTR [esp+0x48]
10004c53:	85 c0                	test   eax,eax
10004c55:	0f 8e 0e 05 00 00    	jle    10005169 <_dtoa_r+0x1309>
10004c5b:	89 44 24 1c          	mov    DWORD PTR [esp+0x1c],eax
10004c5f:	e9 72 fc ff ff       	jmp    100048d6 <_dtoa_r+0xa76>
10004c64:	8b 54 24 10          	mov    edx,DWORD PTR [esp+0x10]
10004c68:	8b 4c 24 14          	mov    ecx,DWORD PTR [esp+0x14]
10004c6c:	85 d2                	test   edx,edx
10004c6e:	0f 85 b9 fb ff ff    	jne    1000482d <_dtoa_r+0x9cd>
10004c74:	89 c8                	mov    eax,ecx
10004c76:	a9 ff ff 0f 00       	test   eax,0xfffff
10004c7b:	0f 85 ac fb ff ff    	jne    1000482d <_dtoa_r+0x9cd>
10004c81:	a9 00 00 f0 7f       	test   eax,0x7ff00000
10004c86:	0f 84 a1 fb ff ff    	je     1000482d <_dtoa_r+0x9cd>
10004c8c:	ff 44 24 2c          	inc    DWORD PTR [esp+0x2c]
10004c90:	ff 44 24 20          	inc    DWORD PTR [esp+0x20]
10004c94:	c7 44 24 34 01 00 00 00 	mov    DWORD PTR [esp+0x34],0x1
10004c9c:	e9 94 fb ff ff       	jmp    10004835 <_dtoa_r+0x9d5>
10004ca1:	8d 76 00             	lea    esi,[esi+0x0]
10004ca4:	c7 44 24 1c 01 00 00 00 	mov    DWORD PTR [esp+0x1c],0x1
10004cac:	c7 84 24 a0 00 00 00 01 00 00 00 	mov    DWORD PTR [esp+0xa0],0x1
10004cb7:	e9 11 fa ff ff       	jmp    100046cd <_dtoa_r+0x86d>
10004cbc:	8b 44 24 48          	mov    eax,DWORD PTR [esp+0x48]
10004cc0:	89 44 24 1c          	mov    DWORD PTR [esp+0x1c],eax
10004cc4:	89 7c 24 28          	mov    DWORD PTR [esp+0x28],edi
10004cc8:	8b 74 24 1c          	mov    esi,DWORD PTR [esp+0x1c]
10004ccc:	85 f6                	test   esi,esi
10004cce:	0f 85 04 f8 ff ff    	jne    100044d8 <_dtoa_r+0x678>
10004cd4:	6a 00                	push   0x0
10004cd6:	6a 05                	push   0x5
10004cd8:	ff 74 24 08          	push   DWORD PTR [esp+0x8]
10004cdc:	55                   	push   ebp
10004cdd:	e8 96 16 00 00       	call   10006378 <__multadd>
10004ce2:	89 44 24 10          	mov    DWORD PTR [esp+0x10],eax
10004ce6:	5a                   	pop    edx
10004ce7:	59                   	pop    ecx
10004ce8:	50                   	push   eax
10004ce9:	ff 74 24 30          	push   DWORD PTR [esp+0x30]
10004ced:	e8 4e 1d 00 00       	call   10006a40 <__mcmp>
10004cf2:	83 c4 10             	add    esp,0x10
10004cf5:	85 c0                	test   eax,eax
10004cf7:	0f 8e db f7 ff ff    	jle    100044d8 <_dtoa_r+0x678>
10004cfd:	8b 44 24 18          	mov    eax,DWORD PTR [esp+0x18]
10004d01:	8d 78 01             	lea    edi,[eax+0x1]
10004d04:	c6 00 31             	mov    BYTE PTR [eax],0x31
10004d07:	8b 74 24 28          	mov    esi,DWORD PTR [esp+0x28]
10004d0b:	46                   	inc    esi
10004d0c:	83 ec 08             	sub    esp,0x8
10004d0f:	ff 74 24 08          	push   DWORD PTR [esp+0x8]
10004d13:	55                   	push   ebp
10004d14:	e8 43 16 00 00       	call   1000635c <_Bfree>
10004d19:	8d 46 01             	lea    eax,[esi+0x1]
10004d1c:	89 44 24 38          	mov    DWORD PTR [esp+0x38],eax
10004d20:	83 c4 10             	add    esp,0x10
10004d23:	85 db                	test   ebx,ebx
10004d25:	0f 85 6d fc ff ff    	jne    10004998 <_dtoa_r+0xb38>
10004d2b:	e9 fc f5 ff ff       	jmp    1000432c <_dtoa_r+0x4cc>
10004d30:	89 c8                	mov    eax,ecx
10004d32:	e9 69 fa ff ff       	jmp    100047a0 <_dtoa_r+0x940>
10004d37:	29 c6                	sub    esi,eax
10004d39:	89 f7                	mov    edi,esi
10004d3b:	e9 f3 f8 ff ff       	jmp    10004633 <_dtoa_r+0x7d3>
10004d40:	83 e0 0f             	and    eax,0xf
10004d43:	dd 04 24             	fld    QWORD PTR [esp]
10004d46:	dc 35 00 cd 00 10    	fdiv   QWORD PTR ds:0x1000cd00
10004d4c:	bb 03 00 00 00       	mov    ebx,0x3
10004d51:	e9 50 f4 ff ff       	jmp    100041a6 <_dtoa_r+0x346>
10004d56:	66 90                	xchg   ax,ax
10004d58:	c7 44 24 30 00 00 00 00 	mov    DWORD PTR [esp+0x30],0x0
10004d60:	e9 95 f9 ff ff       	jmp    100046fa <_dtoa_r+0x89a>
10004d65:	8d 76 00             	lea    esi,[esi+0x0]
10004d68:	75 13                	jne    10004d7d <_dtoa_r+0xf1d>
10004d6a:	f6 44 24 10 01       	test   BYTE PTR [esp+0x10],0x1
10004d6f:	0f 85 d8 fb ff ff    	jne    1000494d <_dtoa_r+0xaed>
10004d75:	eb 06                	jmp    10004d7d <_dtoa_r+0xf1d>
10004d77:	90                   	nop
10004d78:	8a 47 fe             	mov    al,BYTE PTR [edi-0x2]
10004d7b:	89 d7                	mov    edi,edx
10004d7d:	8d 57 ff             	lea    edx,[edi-0x1]
10004d80:	3c 30                	cmp    al,0x30
10004d82:	74 f4                	je     10004d78 <_dtoa_r+0xf18>
10004d84:	e9 e2 fb ff ff       	jmp    1000496b <_dtoa_r+0xb0b>
10004d89:	8d 76 00             	lea    esi,[esi+0x0]
10004d8c:	8b 54 24 3c          	mov    edx,DWORD PTR [esp+0x3c]
10004d90:	85 d2                	test   edx,edx
10004d92:	0f 84 7c 02 00 00    	je     10005014 <_dtoa_r+0x11b4>
10004d98:	05 33 04 00 00       	add    eax,0x433
10004d9d:	01 44 24 20          	add    DWORD PTR [esp+0x20],eax
10004da1:	8b 7c 24 34          	mov    edi,DWORD PTR [esp+0x34]
10004da5:	8b 5c 24 2c          	mov    ebx,DWORD PTR [esp+0x2c]
10004da9:	89 de                	mov    esi,ebx
10004dab:	01 d8                	add    eax,ebx
10004dad:	89 44 24 2c          	mov    DWORD PTR [esp+0x2c],eax
10004db1:	e9 99 f8 ff ff       	jmp    1000464f <_dtoa_r+0x7ef>
10004db6:	66 90                	xchg   ax,ax
10004db8:	8b 44 24 18          	mov    eax,DWORD PTR [esp+0x18]
10004dbc:	c6 00 31             	mov    BYTE PTR [eax],0x31
10004dbf:	ff 44 24 28          	inc    DWORD PTR [esp+0x28]
10004dc3:	e9 a3 fb ff ff       	jmp    1000496b <_dtoa_r+0xb0b>
10004dc8:	d9 c0                	fld    st(0)
10004dca:	89 5c 24 10          	mov    DWORD PTR [esp+0x10],ebx
10004dce:	da 4c 24 10          	fimul  DWORD PTR [esp+0x10]
10004dd2:	d8 05 1c cc 00 10    	fadd   DWORD PTR ds:0x1000cc1c
10004dd8:	dd 5c 24 10          	fstp   QWORD PTR [esp+0x10]
10004ddc:	8b 4c 24 10          	mov    ecx,DWORD PTR [esp+0x10]
10004de0:	8b 44 24 14          	mov    eax,DWORD PTR [esp+0x14]
10004de4:	8d 98 00 00 c0 fc    	lea    ebx,[eax-0x3400000]
10004dea:	66 90                	xchg   ax,ax
10004dec:	d8 25 20 cc 00 10    	fsub   DWORD PTR ds:0x1000cc20
10004df2:	89 4c 24 10          	mov    DWORD PTR [esp+0x10],ecx
10004df6:	89 5c 24 14          	mov    DWORD PTR [esp+0x14],ebx
10004dfa:	dd 44 24 10          	fld    QWORD PTR [esp+0x10]
10004dfe:	d9 c9                	fxch   st(1)
10004e00:	d8 d1                	fcom   st(1)
10004e02:	df e0                	fnstsw ax
10004e04:	f6 c4 45             	test   ah,0x45
10004e07:	0f 84 d6 02 00 00    	je     100050e3 <_dtoa_r+0x1283>
10004e0d:	d9 c9                	fxch   st(1)
10004e0f:	d9 e0                	fchs   
10004e11:	de d9                	fcompp 
10004e13:	df e0                	fnstsw ax
10004e15:	f6 c4 45             	test   ah,0x45
10004e18:	75 72                	jne    10004e8c <_dtoa_r+0x102c>
10004e1a:	eb 02                	jmp    10004e1e <_dtoa_r+0xfbe>
10004e1c:	dd d8                	fstp   st(0)
10004e1e:	c7 04 24 00 00 00 00 	mov    DWORD PTR [esp],0x0
10004e25:	31 db                	xor    ebx,ebx
10004e27:	e9 ac f6 ff ff       	jmp    100044d8 <_dtoa_r+0x678>
10004e2c:	51                   	push   ecx
10004e2d:	ff 74 24 38          	push   DWORD PTR [esp+0x38]
10004e31:	ff 74 24 2c          	push   DWORD PTR [esp+0x2c]
10004e35:	55                   	push   ebp
10004e36:	e8 19 1a 00 00       	call   10006854 <__pow5mult>
10004e3b:	89 44 24 34          	mov    DWORD PTR [esp+0x34],eax
10004e3f:	83 c4 10             	add    esp,0x10
10004e42:	e9 ba f9 ff ff       	jmp    10004801 <_dtoa_r+0x9a1>
10004e47:	90                   	nop
10004e48:	0f 85 27 02 00 00    	jne    10005075 <_dtoa_r+0x1215>
10004e4e:	dd 44 24 10          	fld    QWORD PTR [esp+0x10]
10004e52:	bb 02 00 00 00       	mov    ebx,0x2
10004e57:	e9 6c f3 ff ff       	jmp    100041c8 <_dtoa_r+0x368>
10004e5c:	8b 44 24 10          	mov    eax,DWORD PTR [esp+0x10]
10004e60:	85 c0                	test   eax,eax
10004e62:	0f 85 92 fb ff ff    	jne    100049fa <_dtoa_r+0xb9a>
10004e68:	8b 44 24 14          	mov    eax,DWORD PTR [esp+0x14]
10004e6c:	a9 ff ff 0f 00       	test   eax,0xfffff
10004e71:	0f 84 0a fe ff ff    	je     10004c81 <_dtoa_r+0xe21>
10004e77:	e9 7e fb ff ff       	jmp    100049fa <_dtoa_r+0xb9a>
10004e7c:	dd d8                	fstp   st(0)
10004e7e:	dd d8                	fstp   st(0)
10004e80:	eb 0a                	jmp    10004e8c <_dtoa_r+0x102c>
10004e82:	dd d8                	fstp   st(0)
10004e84:	dd d8                	fstp   st(0)
10004e86:	eb 04                	jmp    10004e8c <_dtoa_r+0x102c>
10004e88:	dd d8                	fstp   st(0)
10004e8a:	66 90                	xchg   ax,ax
10004e8c:	8b 04 24             	mov    eax,DWORD PTR [esp]
10004e8f:	8b 54 24 04          	mov    edx,DWORD PTR [esp+0x4]
10004e93:	89 44 24 10          	mov    DWORD PTR [esp+0x10],eax
10004e97:	89 54 24 14          	mov    DWORD PTR [esp+0x14],edx
10004e9b:	e9 e0 f5 ff ff       	jmp    10004480 <_dtoa_r+0x620>
10004ea0:	89 7c 24 24          	mov    DWORD PTR [esp+0x24],edi
10004ea4:	89 d7                	mov    edi,edx
10004ea6:	ff 44 24 28          	inc    DWORD PTR [esp+0x28]
10004eaa:	85 c0                	test   eax,eax
10004eac:	7e 3e                	jle    10004eec <_dtoa_r+0x108c>
10004eae:	50                   	push   eax
10004eaf:	6a 01                	push   0x1
10004eb1:	ff 74 24 2c          	push   DWORD PTR [esp+0x2c]
10004eb5:	55                   	push   ebp
10004eb6:	e8 6d 1a 00 00       	call   10006928 <__lshift>
10004ebb:	89 44 24 34          	mov    DWORD PTR [esp+0x34],eax
10004ebf:	5a                   	pop    edx
10004ec0:	59                   	pop    ecx
10004ec1:	ff 74 24 08          	push   DWORD PTR [esp+0x8]
10004ec5:	50                   	push   eax
10004ec6:	e8 75 1b 00 00       	call   10006a40 <__mcmp>
10004ecb:	83 c4 10             	add    esp,0x10
10004ece:	85 c0                	test   eax,eax
10004ed0:	0f 8e 56 02 00 00    	jle    1000512c <_dtoa_r+0x12cc>
10004ed6:	83 7c 24 10 39       	cmp    DWORD PTR [esp+0x10],0x39
10004edb:	0f 84 ee 01 00 00    	je     100050cf <_dtoa_r+0x126f>
10004ee1:	8b 44 24 30          	mov    eax,DWORD PTR [esp+0x30]
10004ee5:	83 c0 31             	add    eax,0x31
10004ee8:	89 44 24 10          	mov    DWORD PTR [esp+0x10],eax
10004eec:	8a 44 24 10          	mov    al,BYTE PTR [esp+0x10]
10004ef0:	88 06                	mov    BYTE PTR [esi],al
10004ef2:	89 de                	mov    esi,ebx
10004ef4:	8b 5c 24 08          	mov    ebx,DWORD PTR [esp+0x8]
10004ef8:	e9 6e fa ff ff       	jmp    1000496b <_dtoa_r+0xb0b>
10004efd:	83 ec 08             	sub    esp,0x8
10004f00:	ff 73 04             	push   DWORD PTR [ebx+0x4]
10004f03:	55                   	push   ebp
10004f04:	e8 d7 13 00 00       	call   100062e0 <_Balloc>
10004f09:	89 c6                	mov    esi,eax
10004f0b:	83 c4 10             	add    esp,0x10
10004f0e:	85 c0                	test   eax,eax
10004f10:	0f 84 c4 02 00 00    	je     100051da <_dtoa_r+0x137a>
10004f16:	50                   	push   eax
10004f17:	8b 43 10             	mov    eax,DWORD PTR [ebx+0x10]
10004f1a:	8d 04 85 08 00 00 00 	lea    eax,[eax*4+0x8]
10004f21:	50                   	push   eax
10004f22:	8d 43 0c             	lea    eax,[ebx+0xc]
10004f25:	50                   	push   eax
10004f26:	8d 46 0c             	lea    eax,[esi+0xc]
10004f29:	50                   	push   eax
10004f2a:	e8 d9 12 00 00       	call   10006208 <memcpy>
10004f2f:	83 c4 0c             	add    esp,0xc
10004f32:	6a 01                	push   0x1
10004f34:	56                   	push   esi
10004f35:	55                   	push   ebp
10004f36:	e8 ed 19 00 00       	call   10006928 <__lshift>
10004f3b:	89 44 24 18          	mov    DWORD PTR [esp+0x18],eax
10004f3f:	83 c4 10             	add    esp,0x10
10004f42:	e9 27 fb ff ff       	jmp    10004a6e <_dtoa_r+0xc0e>
10004f47:	57                   	push   edi
10004f48:	50                   	push   eax
10004f49:	e9 e3 fe ff ff       	jmp    10004e31 <_dtoa_r+0xfd1>
10004f4e:	8b 74 24 2c          	mov    esi,DWORD PTR [esp+0x2c]
10004f52:	2b 74 24 1c          	sub    esi,DWORD PTR [esp+0x1c]
10004f56:	e9 f4 f6 ff ff       	jmp    1000464f <_dtoa_r+0x7ef>
10004f5b:	89 7c 24 24          	mov    DWORD PTR [esp+0x24],edi
10004f5f:	89 d7                	mov    edi,edx
10004f61:	ff 44 24 28          	inc    DWORD PTR [esp+0x28]
10004f65:	83 7c 24 10 39       	cmp    DWORD PTR [esp+0x10],0x39
10004f6a:	0f 84 5f 01 00 00    	je     100050cf <_dtoa_r+0x126f>
10004f70:	8a 44 24 10          	mov    al,BYTE PTR [esp+0x10]
10004f74:	40                   	inc    eax
10004f75:	88 06                	mov    BYTE PTR [esi],al
10004f77:	89 de                	mov    esi,ebx
10004f79:	8b 5c 24 08          	mov    ebx,DWORD PTR [esp+0x8]
10004f7d:	e9 e9 f9 ff ff       	jmp    1000496b <_dtoa_r+0xb0b>
10004f82:	89 7c 24 24          	mov    DWORD PTR [esp+0x24],edi
10004f86:	89 d7                	mov    edi,edx
10004f88:	ff 44 24 28          	inc    DWORD PTR [esp+0x28]
10004f8c:	89 de                	mov    esi,ebx
10004f8e:	8b 5c 24 08          	mov    ebx,DWORD PTR [esp+0x8]
10004f92:	e9 8b f9 ff ff       	jmp    10004922 <_dtoa_r+0xac2>
10004f97:	de c9                	fmulp  st(1),st
10004f99:	8b 44 24 18          	mov    eax,DWORD PTR [esp+0x18]
10004f9d:	88 10                	mov    BYTE PTR [eax],dl
10004f9f:	89 c2                	mov    edx,eax
10004fa1:	8b 44 24 10          	mov    eax,DWORD PTR [esp+0x10]
10004fa5:	01 c2                	add    edx,eax
10004fa7:	48                   	dec    eax
10004fa8:	74 29                	je     10004fd3 <_dtoa_r+0x1173>
10004faa:	d9 c9                	fxch   st(1)
10004fac:	d8 0d 18 cc 00 10    	fmul   DWORD PTR ds:0x1000cc18
10004fb2:	d9 6c 24 54          	fldcw  WORD PTR [esp+0x54]
10004fb6:	db 54 24 10          	fist   DWORD PTR [esp+0x10]
10004fba:	d9 6c 24 56          	fldcw  WORD PTR [esp+0x56]
10004fbe:	da 64 24 10          	fisub  DWORD PTR [esp+0x10]
10004fc2:	47                   	inc    edi
10004fc3:	8a 44 24 10          	mov    al,BYTE PTR [esp+0x10]
10004fc7:	83 c0 30             	add    eax,0x30
10004fca:	88 47 ff             	mov    BYTE PTR [edi-0x1],al
10004fcd:	39 d7                	cmp    edi,edx
10004fcf:	75 db                	jne    10004fac <_dtoa_r+0x114c>
10004fd1:	eb 02                	jmp    10004fd5 <_dtoa_r+0x1175>
10004fd3:	d9 c9                	fxch   st(1)
10004fd5:	d9 05 24 cc 00 10    	fld    DWORD PTR ds:0x1000cc24
10004fdb:	d9 c2                	fld    st(2)
10004fdd:	d8 c1                	fadd   st,st(1)
10004fdf:	d9 ca                	fxch   st(2)
10004fe1:	d8 d2                	fcom   st(2)
10004fe3:	df e0                	fnstsw ax
10004fe5:	dd da                	fstp   st(2)
10004fe7:	f6 c4 45             	test   ah,0x45
10004fea:	0f 84 05 01 00 00    	je     100050f5 <_dtoa_r+0x1295>
10004ff0:	de e2                	fsubrp st(2),st
10004ff2:	d9 c9                	fxch   st(1)
10004ff4:	de d9                	fcompp 
10004ff6:	df e0                	fnstsw ax
10004ff8:	f6 c4 45             	test   ah,0x45
10004ffb:	0f 85 8b fe ff ff    	jne    10004e8c <_dtoa_r+0x102c>
10005001:	eb 03                	jmp    10005006 <_dtoa_r+0x11a6>
10005003:	90                   	nop
10005004:	89 c7                	mov    edi,eax
10005006:	8d 47 ff             	lea    eax,[edi-0x1]
10005009:	80 7f ff 30          	cmp    BYTE PTR [edi-0x1],0x30
1000500d:	74 f5                	je     10005004 <_dtoa_r+0x11a4>
1000500f:	e9 01 f3 ff ff       	jmp    10004315 <_dtoa_r+0x4b5>
10005014:	b8 36 00 00 00       	mov    eax,0x36
10005019:	2b 44 24 68          	sub    eax,DWORD PTR [esp+0x68]
1000501d:	e9 7b fd ff ff       	jmp    10004d9d <_dtoa_r+0xf3d>
10005022:	8b 44 24 1c          	mov    eax,DWORD PTR [esp+0x1c]
10005026:	85 c0                	test   eax,eax
10005028:	0f 84 9a fd ff ff    	je     10004dc8 <_dtoa_r+0xf68>
1000502e:	8b 7c 24 48          	mov    edi,DWORD PTR [esp+0x48]
10005032:	85 ff                	test   edi,edi
10005034:	0f 8e 4e fe ff ff    	jle    10004e88 <_dtoa_r+0x1028>
1000503a:	8b 44 24 28          	mov    eax,DWORD PTR [esp+0x28]
1000503e:	48                   	dec    eax
1000503f:	89 44 24 4c          	mov    DWORD PTR [esp+0x4c],eax
10005043:	d8 0d 18 cc 00 10    	fmul   DWORD PTR ds:0x1000cc18
10005049:	43                   	inc    ebx
1000504a:	d9 c0                	fld    st(0)
1000504c:	89 5c 24 10          	mov    DWORD PTR [esp+0x10],ebx
10005050:	da 4c 24 10          	fimul  DWORD PTR [esp+0x10]
10005054:	d8 05 1c cc 00 10    	fadd   DWORD PTR ds:0x1000cc1c
1000505a:	dd 5c 24 10          	fstp   QWORD PTR [esp+0x10]
1000505e:	8b 4c 24 10          	mov    ecx,DWORD PTR [esp+0x10]
10005062:	8b 44 24 14          	mov    eax,DWORD PTR [esp+0x14]
10005066:	8d 98 00 00 c0 fc    	lea    ebx,[eax-0x3400000]
1000506c:	89 7c 24 10          	mov    DWORD PTR [esp+0x10],edi
10005070:	e9 a8 f1 ff ff       	jmp    1000421d <_dtoa_r+0x3bd>
10005075:	8b 44 24 28          	mov    eax,DWORD PTR [esp+0x28]
10005079:	f7 d8                	neg    eax
1000507b:	89 c2                	mov    edx,eax
1000507d:	83 e2 0f             	and    edx,0xf
10005080:	dd 04 24             	fld    QWORD PTR [esp]
10005083:	dc 0c d5 20 cd 00 10 	fmul   QWORD PTR [edx*8+0x1000cd20]
1000508a:	c1 f8 04             	sar    eax,0x4
1000508d:	0f 84 0c 01 00 00    	je     1000519f <_dtoa_r+0x133f>
10005093:	d9 c0                	fld    st(0)
10005095:	31 c9                	xor    ecx,ecx
10005097:	bb 02 00 00 00       	mov    ebx,0x2
1000509c:	31 d2                	xor    edx,edx
1000509e:	66 90                	xchg   ax,ax
100050a0:	a8 01                	test   al,0x1
100050a2:	74 0a                	je     100050ae <_dtoa_r+0x124e>
100050a4:	43                   	inc    ebx
100050a5:	dc 0c d5 e0 cc 00 10 	fmul   QWORD PTR [edx*8+0x1000cce0]
100050ac:	b1 01                	mov    cl,0x1
100050ae:	42                   	inc    edx
100050af:	d1 f8                	sar    eax,1
100050b1:	75 ed                	jne    100050a0 <_dtoa_r+0x1240>
100050b3:	84 c9                	test   cl,cl
100050b5:	0f 84 0a f1 ff ff    	je     100041c5 <_dtoa_r+0x365>
100050bb:	dd d9                	fstp   st(1)
100050bd:	e9 06 f1 ff ff       	jmp    100041c8 <_dtoa_r+0x368>
100050c2:	ff 44 24 28          	inc    DWORD PTR [esp+0x28]
100050c6:	b2 31                	mov    dl,0x31
100050c8:	88 10                	mov    BYTE PTR [eax],dl
100050ca:	e9 5d f2 ff ff       	jmp    1000432c <_dtoa_r+0x4cc>
100050cf:	c6 06 39             	mov    BYTE PTR [esi],0x39
100050d2:	89 de                	mov    esi,ebx
100050d4:	8b 5c 24 08          	mov    ebx,DWORD PTR [esp+0x8]
100050d8:	b0 39                	mov    al,0x39
100050da:	8b 4c 24 18          	mov    ecx,DWORD PTR [esp+0x18]
100050de:	e9 7e f8 ff ff       	jmp    10004961 <_dtoa_r+0xb01>
100050e3:	dd d8                	fstp   st(0)
100050e5:	dd d8                	fstp   st(0)
100050e7:	c7 04 24 00 00 00 00 	mov    DWORD PTR [esp],0x0
100050ee:	31 db                	xor    ebx,ebx
100050f0:	e9 08 fc ff ff       	jmp    10004cfd <_dtoa_r+0xe9d>
100050f5:	dd d8                	fstp   st(0)
100050f7:	dd d8                	fstp   st(0)
100050f9:	dd d8                	fstp   st(0)
100050fb:	8a 57 ff             	mov    dl,BYTE PTR [edi-0x1]
100050fe:	8b 44 24 4c          	mov    eax,DWORD PTR [esp+0x4c]
10005102:	40                   	inc    eax
10005103:	89 44 24 28          	mov    DWORD PTR [esp+0x28],eax
10005107:	8b 4c 24 18          	mov    ecx,DWORD PTR [esp+0x18]
1000510b:	e9 d5 f4 ff ff       	jmp    100045e5 <_dtoa_r+0x785>
10005110:	dd d8                	fstp   st(0)
10005112:	dd d8                	fstp   st(0)
10005114:	eb 04                	jmp    1000511a <_dtoa_r+0x12ba>
10005116:	dd d8                	fstp   st(0)
10005118:	dd d8                	fstp   st(0)
1000511a:	8b 44 24 4c          	mov    eax,DWORD PTR [esp+0x4c]
1000511e:	40                   	inc    eax
1000511f:	89 44 24 28          	mov    DWORD PTR [esp+0x28],eax
10005123:	8b 4c 24 18          	mov    ecx,DWORD PTR [esp+0x18]
10005127:	e9 b9 f4 ff ff       	jmp    100045e5 <_dtoa_r+0x785>
1000512c:	0f 85 ba fd ff ff    	jne    10004eec <_dtoa_r+0x108c>
10005132:	f6 44 24 10 01       	test   BYTE PTR [esp+0x10],0x1
10005137:	0f 85 99 fd ff ff    	jne    10004ed6 <_dtoa_r+0x1076>
1000513d:	e9 aa fd ff ff       	jmp    10004eec <_dtoa_r+0x108c>
10005142:	89 7c 24 24          	mov    DWORD PTR [esp+0x24],edi
10005146:	8d 7e 01             	lea    edi,[esi+0x1]
10005149:	ff 44 24 28          	inc    DWORD PTR [esp+0x28]
1000514d:	83 7c 24 10 39       	cmp    DWORD PTR [esp+0x10],0x39
10005152:	0f 84 77 ff ff ff    	je     100050cf <_dtoa_r+0x126f>
10005158:	8b 44 24 1c          	mov    eax,DWORD PTR [esp+0x1c]
1000515c:	85 c0                	test   eax,eax
1000515e:	0f 8f 7d fd ff ff    	jg     10004ee1 <_dtoa_r+0x1081>
10005164:	e9 83 fd ff ff       	jmp    10004eec <_dtoa_r+0x108c>
10005169:	83 bc 24 9c 00 00 00 02 	cmp    DWORD PTR [esp+0x9c],0x2
10005171:	0f 8f 45 fb ff ff    	jg     10004cbc <_dtoa_r+0xe5c>
10005177:	89 7c 24 28          	mov    DWORD PTR [esp+0x28],edi
1000517b:	e9 62 fa ff ff       	jmp    10004be2 <_dtoa_r+0xd82>
10005180:	83 bc 24 9c 00 00 00 02 	cmp    DWORD PTR [esp+0x9c],0x2
10005188:	0f 8f 2e fb ff ff    	jg     10004cbc <_dtoa_r+0xe5c>
1000518e:	89 7c 24 28          	mov    DWORD PTR [esp+0x28],edi
10005192:	8b 44 24 48          	mov    eax,DWORD PTR [esp+0x48]
10005196:	89 44 24 1c          	mov    DWORD PTR [esp+0x1c],eax
1000519a:	e9 ad f8 ff ff       	jmp    10004a4c <_dtoa_r+0xbec>
1000519f:	bb 02 00 00 00       	mov    ebx,0x2
100051a4:	e9 1f f0 ff ff       	jmp    100041c8 <_dtoa_r+0x368>
100051a9:	68 c5 cb 00 10       	push   0x1000cbc5
100051ae:	6a 00                	push   0x0
100051b0:	68 aa 01 00 00       	push   0x1aa
100051b5:	68 d8 cb 00 10       	push   0x1000cbd8
100051ba:	e8 55 3b 00 00       	call   10008d14 <__assert_func>
100051bf:	31 d2                	xor    edx,edx
100051c1:	e9 7b ef ff ff       	jmp    10004141 <_dtoa_r+0x2e1>
100051c6:	0f 84 ac f6 ff ff    	je     10004878 <_dtoa_r+0xa18>
100051cc:	ba 3c 00 00 00       	mov    edx,0x3c
100051d1:	29 c2                	sub    edx,eax
100051d3:	89 d0                	mov    eax,edx
100051d5:	e9 d7 f7 ff ff       	jmp    100049b1 <_dtoa_r+0xb51>
100051da:	68 c5 cb 00 10       	push   0x1000cbc5
100051df:	6a 00                	push   0x0
100051e1:	68 ea 02 00 00       	push   0x2ea
100051e6:	68 d8 cb 00 10       	push   0x1000cbd8
100051eb:	e8 24 3b 00 00       	call   10008d14 <__assert_func>

100051f0 <__errno>:
100051f0:	a1 20 e0 00 10       	mov    eax,ds:0x1000e020
100051f5:	c3                   	ret    
100051f6:	66 90                	xchg   ax,ax

100051f8 <__sflush_r>:
100051f8:	55                   	push   ebp
100051f9:	57                   	push   edi
100051fa:	56                   	push   esi
100051fb:	53                   	push   ebx
100051fc:	83 ec 0c             	sub    esp,0xc
100051ff:	8b 7c 24 20          	mov    edi,DWORD PTR [esp+0x20]
10005203:	8b 5c 24 24          	mov    ebx,DWORD PTR [esp+0x24]
10005207:	8b 43 0c             	mov    eax,DWORD PTR [ebx+0xc]
1000520a:	a8 08                	test   al,0x8
1000520c:	0f 85 d2 00 00 00    	jne    100052e4 <__sflush_r+0xec>
10005212:	89 c1                	mov    ecx,eax
10005214:	80 cd 08             	or     ch,0x8
10005217:	66 89 4b 0c          	mov    WORD PTR [ebx+0xc],cx
1000521b:	8b 6b 04             	mov    ebp,DWORD PTR [ebx+0x4]
1000521e:	85 ed                	test   ebp,ebp
10005220:	0f 8e 0a 01 00 00    	jle    10005330 <__sflush_r+0x138>
10005226:	8b 53 28             	mov    edx,DWORD PTR [ebx+0x28]
10005229:	85 d2                	test   edx,edx
1000522b:	0f 84 a8 00 00 00    	je     100052d9 <__sflush_r+0xe1>
10005231:	8b 37                	mov    esi,DWORD PTR [edi]
10005233:	c7 07 00 00 00 00    	mov    DWORD PTR [edi],0x0
10005239:	8b 6b 1c             	mov    ebp,DWORD PTR [ebx+0x1c]
1000523c:	f6 c4 10             	test   ah,0x10
1000523f:	0f 85 ff 00 00 00    	jne    10005344 <__sflush_r+0x14c>
10005245:	6a 01                	push   0x1
10005247:	6a 00                	push   0x0
10005249:	55                   	push   ebp
1000524a:	57                   	push   edi
1000524b:	ff d2                	call   edx
1000524d:	83 c4 10             	add    esp,0x10
10005250:	83 f8 ff             	cmp    eax,0xffffffff
10005253:	0f 84 1f 01 00 00    	je     10005378 <__sflush_r+0x180>
10005259:	8b 4b 0c             	mov    ecx,DWORD PTR [ebx+0xc]
1000525c:	8b 53 28             	mov    edx,DWORD PTR [ebx+0x28]
1000525f:	8b 6b 1c             	mov    ebp,DWORD PTR [ebx+0x1c]
10005262:	83 e1 04             	and    ecx,0x4
10005265:	74 0d                	je     10005274 <__sflush_r+0x7c>
10005267:	2b 43 04             	sub    eax,DWORD PTR [ebx+0x4]
1000526a:	8b 4b 30             	mov    ecx,DWORD PTR [ebx+0x30]
1000526d:	85 c9                	test   ecx,ecx
1000526f:	74 03                	je     10005274 <__sflush_r+0x7c>
10005271:	2b 43 3c             	sub    eax,DWORD PTR [ebx+0x3c]
10005274:	6a 00                	push   0x0
10005276:	50                   	push   eax
10005277:	55                   	push   ebp
10005278:	57                   	push   edi
10005279:	ff d2                	call   edx
1000527b:	83 c4 10             	add    esp,0x10
1000527e:	83 f8 ff             	cmp    eax,0xffffffff
10005281:	0f 85 c5 00 00 00    	jne    1000534c <__sflush_r+0x154>
10005287:	8b 0f                	mov    ecx,DWORD PTR [edi]
10005289:	8b 53 0c             	mov    edx,DWORD PTR [ebx+0xc]
1000528c:	85 c9                	test   ecx,ecx
1000528e:	0f 84 bb 00 00 00    	je     1000534f <__sflush_r+0x157>
10005294:	83 f9 1d             	cmp    ecx,0x1d
10005297:	74 09                	je     100052a2 <__sflush_r+0xaa>
10005299:	83 f9 16             	cmp    ecx,0x16
1000529c:	0f 85 f3 00 00 00    	jne    10005395 <__sflush_r+0x19d>
100052a2:	80 e6 f7             	and    dh,0xf7
100052a5:	66 89 53 0c          	mov    WORD PTR [ebx+0xc],dx
100052a9:	c7 43 04 00 00 00 00 	mov    DWORD PTR [ebx+0x4],0x0
100052b0:	8b 43 10             	mov    eax,DWORD PTR [ebx+0x10]
100052b3:	89 03                	mov    DWORD PTR [ebx],eax
100052b5:	89 37                	mov    DWORD PTR [edi],esi
100052b7:	8b 43 30             	mov    eax,DWORD PTR [ebx+0x30]
100052ba:	85 c0                	test   eax,eax
100052bc:	74 1b                	je     100052d9 <__sflush_r+0xe1>
100052be:	8d 53 40             	lea    edx,[ebx+0x40]
100052c1:	39 d0                	cmp    eax,edx
100052c3:	74 0d                	je     100052d2 <__sflush_r+0xda>
100052c5:	83 ec 08             	sub    esp,0x8
100052c8:	50                   	push   eax
100052c9:	57                   	push   edi
100052ca:	e8 71 05 00 00       	call   10005840 <_free_r>
100052cf:	83 c4 10             	add    esp,0x10
100052d2:	c7 43 30 00 00 00 00 	mov    DWORD PTR [ebx+0x30],0x0
100052d9:	31 c0                	xor    eax,eax
100052db:	83 c4 0c             	add    esp,0xc
100052de:	5b                   	pop    ebx
100052df:	5e                   	pop    esi
100052e0:	5f                   	pop    edi
100052e1:	5d                   	pop    ebp
100052e2:	c3                   	ret    
100052e3:	90                   	nop
100052e4:	8b 6b 10             	mov    ebp,DWORD PTR [ebx+0x10]
100052e7:	85 ed                	test   ebp,ebp
100052e9:	74 ee                	je     100052d9 <__sflush_r+0xe1>
100052eb:	8b 33                	mov    esi,DWORD PTR [ebx]
100052ed:	29 ee                	sub    esi,ebp
100052ef:	89 2b                	mov    DWORD PTR [ebx],ebp
100052f1:	a8 03                	test   al,0x3
100052f3:	75 4b                	jne    10005340 <__sflush_r+0x148>
100052f5:	8b 43 14             	mov    eax,DWORD PTR [ebx+0x14]
100052f8:	89 43 08             	mov    DWORD PTR [ebx+0x8],eax
100052fb:	85 f6                	test   esi,esi
100052fd:	7f 0d                	jg     1000530c <__sflush_r+0x114>
100052ff:	eb d8                	jmp    100052d9 <__sflush_r+0xe1>
10005301:	8d 76 00             	lea    esi,[esi+0x0]
10005304:	01 c5                	add    ebp,eax
10005306:	29 c6                	sub    esi,eax
10005308:	85 f6                	test   esi,esi
1000530a:	7e cd                	jle    100052d9 <__sflush_r+0xe1>
1000530c:	56                   	push   esi
1000530d:	55                   	push   ebp
1000530e:	ff 73 1c             	push   DWORD PTR [ebx+0x1c]
10005311:	57                   	push   edi
10005312:	ff 53 24             	call   DWORD PTR [ebx+0x24]
10005315:	83 c4 10             	add    esp,0x10
10005318:	85 c0                	test   eax,eax
1000531a:	7f e8                	jg     10005304 <__sflush_r+0x10c>
1000531c:	66 83 4b 0c 40       	or     WORD PTR [ebx+0xc],0x40
10005321:	b8 ff ff ff ff       	mov    eax,0xffffffff
10005326:	83 c4 0c             	add    esp,0xc
10005329:	5b                   	pop    ebx
1000532a:	5e                   	pop    esi
1000532b:	5f                   	pop    edi
1000532c:	5d                   	pop    ebp
1000532d:	c3                   	ret    
1000532e:	66 90                	xchg   ax,ax
10005330:	8b 73 3c             	mov    esi,DWORD PTR [ebx+0x3c]
10005333:	85 f6                	test   esi,esi
10005335:	0f 8f eb fe ff ff    	jg     10005226 <__sflush_r+0x2e>
1000533b:	eb 9c                	jmp    100052d9 <__sflush_r+0xe1>
1000533d:	8d 76 00             	lea    esi,[esi+0x0]
10005340:	31 c0                	xor    eax,eax
10005342:	eb b4                	jmp    100052f8 <__sflush_r+0x100>
10005344:	8b 43 50             	mov    eax,DWORD PTR [ebx+0x50]
10005347:	e9 16 ff ff ff       	jmp    10005262 <__sflush_r+0x6a>
1000534c:	8b 53 0c             	mov    edx,DWORD PTR [ebx+0xc]
1000534f:	89 d1                	mov    ecx,edx
10005351:	80 e5 f7             	and    ch,0xf7
10005354:	66 89 4b 0c          	mov    WORD PTR [ebx+0xc],cx
10005358:	c7 43 04 00 00 00 00 	mov    DWORD PTR [ebx+0x4],0x0
1000535f:	8b 4b 10             	mov    ecx,DWORD PTR [ebx+0x10]
10005362:	89 0b                	mov    DWORD PTR [ebx],ecx
10005364:	80 e6 10             	and    dh,0x10
10005367:	0f 84 48 ff ff ff    	je     100052b5 <__sflush_r+0xbd>
1000536d:	89 43 50             	mov    DWORD PTR [ebx+0x50],eax
10005370:	e9 40 ff ff ff       	jmp    100052b5 <__sflush_r+0xbd>
10005375:	8d 76 00             	lea    esi,[esi+0x0]
10005378:	8b 17                	mov    edx,DWORD PTR [edi]
1000537a:	85 d2                	test   edx,edx
1000537c:	0f 84 d7 fe ff ff    	je     10005259 <__sflush_r+0x61>
10005382:	83 fa 1d             	cmp    edx,0x1d
10005385:	74 05                	je     1000538c <__sflush_r+0x194>
10005387:	83 fa 16             	cmp    edx,0x16
1000538a:	75 90                	jne    1000531c <__sflush_r+0x124>
1000538c:	89 37                	mov    DWORD PTR [edi],esi
1000538e:	31 c0                	xor    eax,eax
10005390:	e9 46 ff ff ff       	jmp    100052db <__sflush_r+0xe3>
10005395:	83 ca 40             	or     edx,0x40
10005398:	66 89 53 0c          	mov    WORD PTR [ebx+0xc],dx
1000539c:	b8 ff ff ff ff       	mov    eax,0xffffffff
100053a1:	e9 35 ff ff ff       	jmp    100052db <__sflush_r+0xe3>
100053a6:	66 90                	xchg   ax,ax

100053a8 <_fflush_r>:
100053a8:	56                   	push   esi
100053a9:	53                   	push   ebx
100053aa:	50                   	push   eax
100053ab:	8b 5c 24 10          	mov    ebx,DWORD PTR [esp+0x10]
100053af:	8b 74 24 14          	mov    esi,DWORD PTR [esp+0x14]
100053b3:	85 db                	test   ebx,ebx
100053b5:	74 07                	je     100053be <_fflush_r+0x16>
100053b7:	8b 43 38             	mov    eax,DWORD PTR [ebx+0x38]
100053ba:	85 c0                	test   eax,eax
100053bc:	74 0e                	je     100053cc <_fflush_r+0x24>
100053be:	66 83 7e 0c 00       	cmp    WORD PTR [esi+0xc],0x0
100053c3:	75 1a                	jne    100053df <_fflush_r+0x37>
100053c5:	31 c0                	xor    eax,eax
100053c7:	5a                   	pop    edx
100053c8:	5b                   	pop    ebx
100053c9:	5e                   	pop    esi
100053ca:	c3                   	ret    
100053cb:	90                   	nop
100053cc:	83 ec 0c             	sub    esp,0xc
100053cf:	53                   	push   ebx
100053d0:	e8 43 03 00 00       	call   10005718 <__sinit>
100053d5:	83 c4 10             	add    esp,0x10
100053d8:	66 83 7e 0c 00       	cmp    WORD PTR [esi+0xc],0x0
100053dd:	74 e6                	je     100053c5 <_fflush_r+0x1d>
100053df:	89 74 24 14          	mov    DWORD PTR [esp+0x14],esi
100053e3:	89 5c 24 10          	mov    DWORD PTR [esp+0x10],ebx
100053e7:	59                   	pop    ecx
100053e8:	5b                   	pop    ebx
100053e9:	5e                   	pop    esi
100053ea:	e9 09 fe ff ff       	jmp    100051f8 <__sflush_r>
100053ef:	90                   	nop

100053f0 <fflush>:
100053f0:	83 ec 0c             	sub    esp,0xc
100053f3:	8b 44 24 10          	mov    eax,DWORD PTR [esp+0x10]
100053f7:	85 c0                	test   eax,eax
100053f9:	74 19                	je     10005414 <fflush+0x24>
100053fb:	83 ec 08             	sub    esp,0x8
100053fe:	50                   	push   eax
100053ff:	ff 35 20 e0 00 10    	push   DWORD PTR ds:0x1000e020
10005405:	e8 9e ff ff ff       	call   100053a8 <_fflush_r>
1000540a:	83 c4 10             	add    esp,0x10
1000540d:	83 c4 0c             	add    esp,0xc
10005410:	c3                   	ret    
10005411:	8d 76 00             	lea    esi,[esi+0x0]
10005414:	83 ec 08             	sub    esp,0x8
10005417:	68 a8 53 00 10       	push   0x100053a8
1000541c:	ff 35 e8 c9 00 10    	push   DWORD PTR ds:0x1000c9e8
10005422:	e8 81 0b 00 00       	call   10005fa8 <_fwalk_reent>
10005427:	83 c4 10             	add    esp,0x10
1000542a:	83 c4 0c             	add    esp,0xc
1000542d:	c3                   	ret    
1000542e:	66 90                	xchg   ax,ax

10005430 <__fp_lock>:
10005430:	31 c0                	xor    eax,eax
10005432:	c3                   	ret    
10005433:	90                   	nop

10005434 <_cleanup_r>:
10005434:	83 ec 14             	sub    esp,0x14
10005437:	68 a8 8d 00 10       	push   0x10008da8
1000543c:	ff 74 24 1c          	push   DWORD PTR [esp+0x1c]
10005440:	e8 63 0b 00 00       	call   10005fa8 <_fwalk_reent>
10005445:	83 c4 1c             	add    esp,0x1c
10005448:	c3                   	ret    
10005449:	8d 76 00             	lea    esi,[esi+0x0]

1000544c <__sinit.part.0>:
1000544c:	56                   	push   esi
1000544d:	53                   	push   ebx
1000544e:	83 ec 08             	sub    esp,0x8
10005451:	89 c6                	mov    esi,eax
10005453:	c7 40 3c 34 54 00 10 	mov    DWORD PTR [eax+0x3c],0x10005434
1000545a:	c7 80 e0 02 00 00 00 00 00 00 	mov    DWORD PTR [eax+0x2e0],0x0
10005464:	c7 80 e4 02 00 00 03 00 00 00 	mov    DWORD PTR [eax+0x2e4],0x3
1000546e:	8d 80 ec 02 00 00    	lea    eax,[eax+0x2ec]
10005474:	89 86 e8 02 00 00    	mov    DWORD PTR [esi+0x2e8],eax
1000547a:	8b 5e 04             	mov    ebx,DWORD PTR [esi+0x4]
1000547d:	c7 43 64 00 00 00 00 	mov    DWORD PTR [ebx+0x64],0x0
10005484:	c7 03 00 00 00 00    	mov    DWORD PTR [ebx],0x0
1000548a:	c7 43 04 00 00 00 00 	mov    DWORD PTR [ebx+0x4],0x0
10005491:	c7 43 08 00 00 00 00 	mov    DWORD PTR [ebx+0x8],0x0
10005498:	c7 43 0c 04 00 00 00 	mov    DWORD PTR [ebx+0xc],0x4
1000549f:	c7 43 10 00 00 00 00 	mov    DWORD PTR [ebx+0x10],0x0
100054a6:	c7 43 14 00 00 00 00 	mov    DWORD PTR [ebx+0x14],0x0
100054ad:	c7 43 18 00 00 00 00 	mov    DWORD PTR [ebx+0x18],0x0
100054b4:	6a 08                	push   0x8
100054b6:	6a 00                	push   0x0
100054b8:	8d 43 5c             	lea    eax,[ebx+0x5c]
100054bb:	50                   	push   eax
100054bc:	e8 a1 b6 ff ff       	call   10000b62 <memset>
100054c1:	89 5b 1c             	mov    DWORD PTR [ebx+0x1c],ebx
100054c4:	c7 43 20 84 77 00 10 	mov    DWORD PTR [ebx+0x20],0x10007784
100054cb:	c7 43 24 c4 77 00 10 	mov    DWORD PTR [ebx+0x24],0x100077c4
100054d2:	c7 43 28 24 78 00 10 	mov    DWORD PTR [ebx+0x28],0x10007824
100054d9:	c7 43 2c 64 78 00 10 	mov    DWORD PTR [ebx+0x2c],0x10007864
100054e0:	8b 5e 08             	mov    ebx,DWORD PTR [esi+0x8]
100054e3:	c7 43 64 00 00 00 00 	mov    DWORD PTR [ebx+0x64],0x0
100054ea:	c7 03 00 00 00 00    	mov    DWORD PTR [ebx],0x0
100054f0:	c7 43 04 00 00 00 00 	mov    DWORD PTR [ebx+0x4],0x0
100054f7:	c7 43 08 00 00 00 00 	mov    DWORD PTR [ebx+0x8],0x0
100054fe:	c7 43 0c 09 00 01 00 	mov    DWORD PTR [ebx+0xc],0x10009
10005505:	c7 43 10 00 00 00 00 	mov    DWORD PTR [ebx+0x10],0x0
1000550c:	c7 43 14 00 00 00 00 	mov    DWORD PTR [ebx+0x14],0x0
10005513:	c7 43 18 00 00 00 00 	mov    DWORD PTR [ebx+0x18],0x0
1000551a:	83 c4 0c             	add    esp,0xc
1000551d:	6a 08                	push   0x8
1000551f:	6a 00                	push   0x0
10005521:	8d 43 5c             	lea    eax,[ebx+0x5c]
10005524:	50                   	push   eax
10005525:	e8 38 b6 ff ff       	call   10000b62 <memset>
1000552a:	89 5b 1c             	mov    DWORD PTR [ebx+0x1c],ebx
1000552d:	c7 43 20 84 77 00 10 	mov    DWORD PTR [ebx+0x20],0x10007784
10005534:	c7 43 24 c4 77 00 10 	mov    DWORD PTR [ebx+0x24],0x100077c4
1000553b:	c7 43 28 24 78 00 10 	mov    DWORD PTR [ebx+0x28],0x10007824
10005542:	c7 43 2c 64 78 00 10 	mov    DWORD PTR [ebx+0x2c],0x10007864
10005549:	8b 5e 0c             	mov    ebx,DWORD PTR [esi+0xc]
1000554c:	c7 43 64 00 00 00 00 	mov    DWORD PTR [ebx+0x64],0x0
10005553:	c7 03 00 00 00 00    	mov    DWORD PTR [ebx],0x0
10005559:	c7 43 04 00 00 00 00 	mov    DWORD PTR [ebx+0x4],0x0
10005560:	c7 43 08 00 00 00 00 	mov    DWORD PTR [ebx+0x8],0x0
10005567:	c7 43 0c 12 00 02 00 	mov    DWORD PTR [ebx+0xc],0x20012
1000556e:	c7 43 10 00 00 00 00 	mov    DWORD PTR [ebx+0x10],0x0
10005575:	c7 43 14 00 00 00 00 	mov    DWORD PTR [ebx+0x14],0x0
1000557c:	c7 43 18 00 00 00 00 	mov    DWORD PTR [ebx+0x18],0x0
10005583:	83 c4 0c             	add    esp,0xc
10005586:	6a 08                	push   0x8
10005588:	6a 00                	push   0x0
1000558a:	8d 43 5c             	lea    eax,[ebx+0x5c]
1000558d:	50                   	push   eax
1000558e:	e8 cf b5 ff ff       	call   10000b62 <memset>
10005593:	89 5b 1c             	mov    DWORD PTR [ebx+0x1c],ebx
10005596:	c7 43 20 84 77 00 10 	mov    DWORD PTR [ebx+0x20],0x10007784
1000559d:	c7 43 24 c4 77 00 10 	mov    DWORD PTR [ebx+0x24],0x100077c4
100055a4:	c7 43 28 24 78 00 10 	mov    DWORD PTR [ebx+0x28],0x10007824
100055ab:	c7 43 2c 64 78 00 10 	mov    DWORD PTR [ebx+0x2c],0x10007864
100055b2:	c7 46 38 01 00 00 00 	mov    DWORD PTR [esi+0x38],0x1
100055b9:	83 c4 14             	add    esp,0x14
100055bc:	5b                   	pop    ebx
100055bd:	5e                   	pop    esi
100055be:	c3                   	ret    
100055bf:	90                   	nop

100055c0 <__fp_unlock>:
100055c0:	31 c0                	xor    eax,eax
100055c2:	c3                   	ret    
100055c3:	90                   	nop

100055c4 <__sfmoreglue>:
100055c4:	57                   	push   edi
100055c5:	56                   	push   esi
100055c6:	53                   	push   ebx
100055c7:	8b 7c 24 14          	mov    edi,DWORD PTR [esp+0x14]
100055cb:	8d 47 ff             	lea    eax,[edi-0x1]
100055ce:	8d 14 00             	lea    edx,[eax+eax*1]
100055d1:	01 c2                	add    edx,eax
100055d3:	8d 1c 90             	lea    ebx,[eax+edx*4]
100055d6:	c1 e3 03             	shl    ebx,0x3
100055d9:	83 ec 08             	sub    esp,0x8
100055dc:	8d 43 74             	lea    eax,[ebx+0x74]
100055df:	50                   	push   eax
100055e0:	ff 74 24 1c          	push   DWORD PTR [esp+0x1c]
100055e4:	e8 db ad ff ff       	call   100003c4 <_malloc_r>
100055e9:	89 c6                	mov    esi,eax
100055eb:	83 c4 10             	add    esp,0x10
100055ee:	85 c0                	test   eax,eax
100055f0:	74 1f                	je     10005611 <__sfmoreglue+0x4d>
100055f2:	c7 00 00 00 00 00    	mov    DWORD PTR [eax],0x0
100055f8:	89 78 04             	mov    DWORD PTR [eax+0x4],edi
100055fb:	8d 40 0c             	lea    eax,[eax+0xc]
100055fe:	89 46 08             	mov    DWORD PTR [esi+0x8],eax
10005601:	52                   	push   edx
10005602:	83 c3 68             	add    ebx,0x68
10005605:	53                   	push   ebx
10005606:	6a 00                	push   0x0
10005608:	50                   	push   eax
10005609:	e8 54 b5 ff ff       	call   10000b62 <memset>
1000560e:	83 c4 10             	add    esp,0x10
10005611:	89 f0                	mov    eax,esi
10005613:	5b                   	pop    ebx
10005614:	5e                   	pop    esi
10005615:	5f                   	pop    edi
10005616:	c3                   	ret    
10005617:	90                   	nop

10005618 <__sfp>:
10005618:	56                   	push   esi
10005619:	53                   	push   ebx
1000561a:	53                   	push   ebx
1000561b:	8b 35 e8 c9 00 10    	mov    esi,DWORD PTR ds:0x1000c9e8
10005621:	8b 46 38             	mov    eax,DWORD PTR [esi+0x38]
10005624:	85 c0                	test   eax,eax
10005626:	0f 84 a0 00 00 00    	je     100056cc <__sfp+0xb4>
1000562c:	81 c6 e0 02 00 00    	add    esi,0x2e0
10005632:	8b 5e 08             	mov    ebx,DWORD PTR [esi+0x8]
10005635:	8b 46 04             	mov    eax,DWORD PTR [esi+0x4]
10005638:	48                   	dec    eax
10005639:	79 0e                	jns    10005649 <__sfp+0x31>
1000563b:	eb 7f                	jmp    100056bc <__sfp+0xa4>
1000563d:	8d 76 00             	lea    esi,[esi+0x0]
10005640:	83 c3 68             	add    ebx,0x68
10005643:	48                   	dec    eax
10005644:	83 f8 ff             	cmp    eax,0xffffffff
10005647:	74 73                	je     100056bc <__sfp+0xa4>
10005649:	66 83 7b 0c 00       	cmp    WORD PTR [ebx+0xc],0x0
1000564e:	75 f0                	jne    10005640 <__sfp+0x28>
10005650:	c7 43 64 00 00 00 00 	mov    DWORD PTR [ebx+0x64],0x0
10005657:	c7 03 00 00 00 00    	mov    DWORD PTR [ebx],0x0
1000565d:	c7 43 04 00 00 00 00 	mov    DWORD PTR [ebx+0x4],0x0
10005664:	c7 43 08 00 00 00 00 	mov    DWORD PTR [ebx+0x8],0x0
1000566b:	c7 43 0c 01 00 ff ff 	mov    DWORD PTR [ebx+0xc],0xffff0001
10005672:	c7 43 10 00 00 00 00 	mov    DWORD PTR [ebx+0x10],0x0
10005679:	c7 43 14 00 00 00 00 	mov    DWORD PTR [ebx+0x14],0x0
10005680:	c7 43 18 00 00 00 00 	mov    DWORD PTR [ebx+0x18],0x0
10005687:	51                   	push   ecx
10005688:	6a 08                	push   0x8
1000568a:	6a 00                	push   0x0
1000568c:	8d 43 5c             	lea    eax,[ebx+0x5c]
1000568f:	50                   	push   eax
10005690:	e8 cd b4 ff ff       	call   10000b62 <memset>
10005695:	c7 43 30 00 00 00 00 	mov    DWORD PTR [ebx+0x30],0x0
1000569c:	c7 43 34 00 00 00 00 	mov    DWORD PTR [ebx+0x34],0x0
100056a3:	c7 43 44 00 00 00 00 	mov    DWORD PTR [ebx+0x44],0x0
100056aa:	c7 43 48 00 00 00 00 	mov    DWORD PTR [ebx+0x48],0x0
100056b1:	83 c4 10             	add    esp,0x10
100056b4:	89 d8                	mov    eax,ebx
100056b6:	5a                   	pop    edx
100056b7:	5b                   	pop    ebx
100056b8:	5e                   	pop    esi
100056b9:	c3                   	ret    
100056ba:	66 90                	xchg   ax,ax
100056bc:	8b 06                	mov    eax,DWORD PTR [esi]
100056be:	85 c0                	test   eax,eax
100056c0:	74 16                	je     100056d8 <__sfp+0xc0>
100056c2:	89 c6                	mov    esi,eax
100056c4:	e9 69 ff ff ff       	jmp    10005632 <__sfp+0x1a>
100056c9:	8d 76 00             	lea    esi,[esi+0x0]
100056cc:	89 f0                	mov    eax,esi
100056ce:	e8 79 fd ff ff       	call   1000544c <__sinit.part.0>
100056d3:	e9 54 ff ff ff       	jmp    1000562c <__sfp+0x14>
100056d8:	83 ec 08             	sub    esp,0x8
100056db:	6a 04                	push   0x4
100056dd:	ff 74 24 1c          	push   DWORD PTR [esp+0x1c]
100056e1:	e8 de fe ff ff       	call   100055c4 <__sfmoreglue>
100056e6:	89 06                	mov    DWORD PTR [esi],eax
100056e8:	83 c4 10             	add    esp,0x10
100056eb:	85 c0                	test   eax,eax
100056ed:	75 d3                	jne    100056c2 <__sfp+0xaa>
100056ef:	8b 44 24 10          	mov    eax,DWORD PTR [esp+0x10]
100056f3:	c7 00 0c 00 00 00    	mov    DWORD PTR [eax],0xc
100056f9:	31 db                	xor    ebx,ebx
100056fb:	eb b7                	jmp    100056b4 <__sfp+0x9c>
100056fd:	8d 76 00             	lea    esi,[esi+0x0]

10005700 <_cleanup>:
10005700:	83 ec 14             	sub    esp,0x14
10005703:	68 a8 8d 00 10       	push   0x10008da8
10005708:	ff 35 e8 c9 00 10    	push   DWORD PTR ds:0x1000c9e8
1000570e:	e8 95 08 00 00       	call   10005fa8 <_fwalk_reent>
10005713:	83 c4 1c             	add    esp,0x1c
10005716:	c3                   	ret    
10005717:	90                   	nop

10005718 <__sinit>:
10005718:	8b 44 24 04          	mov    eax,DWORD PTR [esp+0x4]
1000571c:	8b 50 38             	mov    edx,DWORD PTR [eax+0x38]
1000571f:	85 d2                	test   edx,edx
10005721:	74 01                	je     10005724 <__sinit+0xc>
10005723:	c3                   	ret    
10005724:	e9 23 fd ff ff       	jmp    1000544c <__sinit.part.0>
10005729:	8d 76 00             	lea    esi,[esi+0x0]

1000572c <__sfp_lock_acquire>:
1000572c:	c3                   	ret    
1000572d:	8d 76 00             	lea    esi,[esi+0x0]

10005730 <__sfp_lock_release>:
10005730:	c3                   	ret    
10005731:	8d 76 00             	lea    esi,[esi+0x0]

10005734 <__sinit_lock_acquire>:
10005734:	c3                   	ret    
10005735:	8d 76 00             	lea    esi,[esi+0x0]

10005738 <__sinit_lock_release>:
10005738:	c3                   	ret    
10005739:	8d 76 00             	lea    esi,[esi+0x0]

1000573c <__fp_lock_all>:
1000573c:	83 ec 14             	sub    esp,0x14
1000573f:	68 30 54 00 10       	push   0x10005430
10005744:	ff 35 20 e0 00 10    	push   DWORD PTR ds:0x1000e020
1000574a:	e8 01 08 00 00       	call   10005f50 <_fwalk>
1000574f:	83 c4 1c             	add    esp,0x1c
10005752:	c3                   	ret    
10005753:	90                   	nop

10005754 <__fp_unlock_all>:
10005754:	83 ec 14             	sub    esp,0x14
10005757:	68 c0 55 00 10       	push   0x100055c0
1000575c:	ff 35 20 e0 00 10    	push   DWORD PTR ds:0x1000e020
10005762:	e8 e9 07 00 00       	call   10005f50 <_fwalk>
10005767:	83 c4 1c             	add    esp,0x1c
1000576a:	c3                   	ret    
1000576b:	90                   	nop

1000576c <_malloc_trim_r>:
1000576c:	57                   	push   edi
1000576d:	56                   	push   esi
1000576e:	53                   	push   ebx
1000576f:	8b 74 24 10          	mov    esi,DWORD PTR [esp+0x10]
10005773:	83 ec 0c             	sub    esp,0xc
10005776:	56                   	push   esi
10005777:	e8 70 b4 ff ff       	call   10000bec <__malloc_lock>
1000577c:	a1 a8 e4 00 10       	mov    eax,ds:0x1000e4a8
10005781:	8b 58 04             	mov    ebx,DWORD PTR [eax+0x4]
10005784:	83 e3 fc             	and    ebx,0xfffffffc
10005787:	89 d8                	mov    eax,ebx
10005789:	2b 44 24 24          	sub    eax,DWORD PTR [esp+0x24]
1000578d:	05 ef 0f 00 00       	add    eax,0xfef
10005792:	25 00 f0 ff ff       	and    eax,0xfffff000
10005797:	8d b8 00 f0 ff ff    	lea    edi,[eax-0x1000]
1000579d:	83 c4 10             	add    esp,0x10
100057a0:	81 ff ff 0f 00 00    	cmp    edi,0xfff
100057a6:	7e 1a                	jle    100057c2 <_malloc_trim_r+0x56>
100057a8:	83 ec 08             	sub    esp,0x8
100057ab:	6a 00                	push   0x0
100057ad:	56                   	push   esi
100057ae:	e8 5d b5 ff ff       	call   10000d10 <_sbrk_r>
100057b3:	8b 15 a8 e4 00 10    	mov    edx,DWORD PTR ds:0x1000e4a8
100057b9:	01 da                	add    edx,ebx
100057bb:	83 c4 10             	add    esp,0x10
100057be:	39 d0                	cmp    eax,edx
100057c0:	74 12                	je     100057d4 <_malloc_trim_r+0x68>
100057c2:	83 ec 0c             	sub    esp,0xc
100057c5:	56                   	push   esi
100057c6:	e8 25 b4 ff ff       	call   10000bf0 <__malloc_unlock>
100057cb:	83 c4 10             	add    esp,0x10
100057ce:	31 c0                	xor    eax,eax
100057d0:	5b                   	pop    ebx
100057d1:	5e                   	pop    esi
100057d2:	5f                   	pop    edi
100057d3:	c3                   	ret    
100057d4:	83 ec 08             	sub    esp,0x8
100057d7:	89 f8                	mov    eax,edi
100057d9:	f7 d8                	neg    eax
100057db:	50                   	push   eax
100057dc:	56                   	push   esi
100057dd:	e8 2e b5 ff ff       	call   10000d10 <_sbrk_r>
100057e2:	83 c4 10             	add    esp,0x10
100057e5:	40                   	inc    eax
100057e6:	74 28                	je     10005810 <_malloc_trim_r+0xa4>
100057e8:	29 fb                	sub    ebx,edi
100057ea:	83 cb 01             	or     ebx,0x1
100057ed:	a1 a8 e4 00 10       	mov    eax,ds:0x1000e4a8
100057f2:	89 58 04             	mov    DWORD PTR [eax+0x4],ebx
100057f5:	29 3d 40 f2 00 10    	sub    DWORD PTR ds:0x1000f240,edi
100057fb:	83 ec 0c             	sub    esp,0xc
100057fe:	56                   	push   esi
100057ff:	e8 ec b3 ff ff       	call   10000bf0 <__malloc_unlock>
10005804:	83 c4 10             	add    esp,0x10
10005807:	b8 01 00 00 00       	mov    eax,0x1
1000580c:	5b                   	pop    ebx
1000580d:	5e                   	pop    esi
1000580e:	5f                   	pop    edi
1000580f:	c3                   	ret    
10005810:	83 ec 08             	sub    esp,0x8
10005813:	6a 00                	push   0x0
10005815:	56                   	push   esi
10005816:	e8 f5 b4 ff ff       	call   10000d10 <_sbrk_r>
1000581b:	8b 0d a8 e4 00 10    	mov    ecx,DWORD PTR ds:0x1000e4a8
10005821:	89 c2                	mov    edx,eax
10005823:	29 ca                	sub    edx,ecx
10005825:	83 c4 10             	add    esp,0x10
10005828:	83 fa 0f             	cmp    edx,0xf
1000582b:	7e 95                	jle    100057c2 <_malloc_trim_r+0x56>
1000582d:	2b 05 80 e4 00 10    	sub    eax,DWORD PTR ds:0x1000e480
10005833:	a3 40 f2 00 10       	mov    ds:0x1000f240,eax
10005838:	83 ca 01             	or     edx,0x1
1000583b:	89 51 04             	mov    DWORD PTR [ecx+0x4],edx
1000583e:	eb 82                	jmp    100057c2 <_malloc_trim_r+0x56>

10005840 <_free_r>:
10005840:	55                   	push   ebp
10005841:	57                   	push   edi
10005842:	56                   	push   esi
10005843:	53                   	push   ebx
10005844:	83 ec 1c             	sub    esp,0x1c
10005847:	8b 74 24 30          	mov    esi,DWORD PTR [esp+0x30]
1000584b:	8b 5c 24 34          	mov    ebx,DWORD PTR [esp+0x34]
1000584f:	85 db                	test   ebx,ebx
10005851:	0f 84 fd 00 00 00    	je     10005954 <_free_r+0x114>
10005857:	83 ec 0c             	sub    esp,0xc
1000585a:	56                   	push   esi
1000585b:	e8 8c b3 ff ff       	call   10000bec <__malloc_lock>
10005860:	8d 53 f8             	lea    edx,[ebx-0x8]
10005863:	8b 7b fc             	mov    edi,DWORD PTR [ebx-0x4]
10005866:	89 f8                	mov    eax,edi
10005868:	83 e0 fe             	and    eax,0xfffffffe
1000586b:	8d 0c 02             	lea    ecx,[edx+eax*1]
1000586e:	8b 69 04             	mov    ebp,DWORD PTR [ecx+0x4]
10005871:	83 e5 fc             	and    ebp,0xfffffffc
10005874:	89 6c 24 1c          	mov    DWORD PTR [esp+0x1c],ebp
10005878:	83 c4 10             	add    esp,0x10
1000587b:	39 0d a8 e4 00 10    	cmp    DWORD PTR ds:0x1000e4a8,ecx
10005881:	0f 84 75 01 00 00    	je     100059fc <_free_r+0x1bc>
10005887:	8b 6c 24 0c          	mov    ebp,DWORD PTR [esp+0xc]
1000588b:	89 69 04             	mov    DWORD PTR [ecx+0x4],ebp
1000588e:	01 cd                	add    ebp,ecx
10005890:	83 e7 01             	and    edi,0x1
10005893:	0f 85 87 00 00 00    	jne    10005920 <_free_r+0xe0>
10005899:	8b 5b f8             	mov    ebx,DWORD PTR [ebx-0x8]
1000589c:	29 da                	sub    edx,ebx
1000589e:	01 d8                	add    eax,ebx
100058a0:	8b 5a 08             	mov    ebx,DWORD PTR [edx+0x8]
100058a3:	8b 6d 04             	mov    ebp,DWORD PTR [ebp+0x4]
100058a6:	83 e5 01             	and    ebp,0x1
100058a9:	81 fb a8 e4 00 10    	cmp    ebx,0x1000e4a8
100058af:	0f 84 1f 01 00 00    	je     100059d4 <_free_r+0x194>
100058b5:	8b 7a 0c             	mov    edi,DWORD PTR [edx+0xc]
100058b8:	89 7b 0c             	mov    DWORD PTR [ebx+0xc],edi
100058bb:	89 5f 08             	mov    DWORD PTR [edi+0x8],ebx
100058be:	85 ed                	test   ebp,ebp
100058c0:	74 64                	je     10005926 <_free_r+0xe6>
100058c2:	89 c3                	mov    ebx,eax
100058c4:	83 cb 01             	or     ebx,0x1
100058c7:	89 5a 04             	mov    DWORD PTR [edx+0x4],ebx
100058ca:	89 01                	mov    DWORD PTR [ecx],eax
100058cc:	3d ff 01 00 00       	cmp    eax,0x1ff
100058d1:	0f 87 9a 00 00 00    	ja     10005971 <_free_r+0x131>
100058d7:	c1 e8 03             	shr    eax,0x3
100058da:	89 c1                	mov    ecx,eax
100058dc:	c1 f9 02             	sar    ecx,0x2
100058df:	bb 01 00 00 00       	mov    ebx,0x1
100058e4:	d3 e3                	shl    ebx,cl
100058e6:	09 1d a4 e4 00 10    	or     DWORD PTR ds:0x1000e4a4,ebx
100058ec:	8d 04 c5 08 00 00 00 	lea    eax,[eax*8+0x8]
100058f3:	8b 88 a0 e4 00 10    	mov    ecx,DWORD PTR [eax+0x1000e4a0]
100058f9:	8d 98 98 e4 00 10    	lea    ebx,[eax+0x1000e498]
100058ff:	89 5a 0c             	mov    DWORD PTR [edx+0xc],ebx
10005902:	89 4a 08             	mov    DWORD PTR [edx+0x8],ecx
10005905:	89 90 a0 e4 00 10    	mov    DWORD PTR [eax+0x1000e4a0],edx
1000590b:	89 51 0c             	mov    DWORD PTR [ecx+0xc],edx
1000590e:	89 74 24 30          	mov    DWORD PTR [esp+0x30],esi
10005912:	83 c4 1c             	add    esp,0x1c
10005915:	5b                   	pop    ebx
10005916:	5e                   	pop    esi
10005917:	5f                   	pop    edi
10005918:	5d                   	pop    ebp
10005919:	e9 d2 b2 ff ff       	jmp    10000bf0 <__malloc_unlock>
1000591e:	66 90                	xchg   ax,ax
10005920:	f6 45 04 01          	test   BYTE PTR [ebp+0x4],0x1
10005924:	75 36                	jne    1000595c <_free_r+0x11c>
10005926:	03 44 24 0c          	add    eax,DWORD PTR [esp+0xc]
1000592a:	8b 59 08             	mov    ebx,DWORD PTR [ecx+0x8]
1000592d:	89 c5                	mov    ebp,eax
1000592f:	83 cd 01             	or     ebp,0x1
10005932:	8d 3c 02             	lea    edi,[edx+eax*1]
10005935:	81 fb a8 e4 00 10    	cmp    ebx,0x1000e4a8
1000593b:	0f 84 3b 01 00 00    	je     10005a7c <_free_r+0x23c>
10005941:	8b 49 0c             	mov    ecx,DWORD PTR [ecx+0xc]
10005944:	89 4b 0c             	mov    DWORD PTR [ebx+0xc],ecx
10005947:	89 59 08             	mov    DWORD PTR [ecx+0x8],ebx
1000594a:	89 6a 04             	mov    DWORD PTR [edx+0x4],ebp
1000594d:	89 07                	mov    DWORD PTR [edi],eax
1000594f:	e9 78 ff ff ff       	jmp    100058cc <_free_r+0x8c>
10005954:	83 c4 1c             	add    esp,0x1c
10005957:	5b                   	pop    ebx
10005958:	5e                   	pop    esi
10005959:	5f                   	pop    edi
1000595a:	5d                   	pop    ebp
1000595b:	c3                   	ret    
1000595c:	89 c7                	mov    edi,eax
1000595e:	83 cf 01             	or     edi,0x1
10005961:	89 7b fc             	mov    DWORD PTR [ebx-0x4],edi
10005964:	89 01                	mov    DWORD PTR [ecx],eax
10005966:	3d ff 01 00 00       	cmp    eax,0x1ff
1000596b:	0f 86 66 ff ff ff    	jbe    100058d7 <_free_r+0x97>
10005971:	89 c3                	mov    ebx,eax
10005973:	c1 eb 09             	shr    ebx,0x9
10005976:	83 fb 04             	cmp    ebx,0x4
10005979:	0f 87 cd 00 00 00    	ja     10005a4c <_free_r+0x20c>
1000597f:	89 c3                	mov    ebx,eax
10005981:	c1 eb 06             	shr    ebx,0x6
10005984:	8d 4b 38             	lea    ecx,[ebx+0x38]
10005987:	8d 1c dd c8 01 00 00 	lea    ebx,[ebx*8+0x1c8]
1000598e:	8d bb 98 e4 00 10    	lea    edi,[ebx+0x1000e498]
10005994:	8b 9b a0 e4 00 10    	mov    ebx,DWORD PTR [ebx+0x1000e4a0]
1000599a:	39 df                	cmp    edi,ebx
1000599c:	0f 84 fe 00 00 00    	je     10005aa0 <_free_r+0x260>
100059a2:	66 90                	xchg   ax,ax
100059a4:	8b 4b 04             	mov    ecx,DWORD PTR [ebx+0x4]
100059a7:	83 e1 fc             	and    ecx,0xfffffffc
100059aa:	39 c1                	cmp    ecx,eax
100059ac:	76 07                	jbe    100059b5 <_free_r+0x175>
100059ae:	8b 5b 08             	mov    ebx,DWORD PTR [ebx+0x8]
100059b1:	39 df                	cmp    edi,ebx
100059b3:	75 ef                	jne    100059a4 <_free_r+0x164>
100059b5:	8b 7b 0c             	mov    edi,DWORD PTR [ebx+0xc]
100059b8:	89 7a 0c             	mov    DWORD PTR [edx+0xc],edi
100059bb:	89 5a 08             	mov    DWORD PTR [edx+0x8],ebx
100059be:	89 57 08             	mov    DWORD PTR [edi+0x8],edx
100059c1:	89 53 0c             	mov    DWORD PTR [ebx+0xc],edx
100059c4:	89 74 24 30          	mov    DWORD PTR [esp+0x30],esi
100059c8:	83 c4 1c             	add    esp,0x1c
100059cb:	5b                   	pop    ebx
100059cc:	5e                   	pop    esi
100059cd:	5f                   	pop    edi
100059ce:	5d                   	pop    ebp
100059cf:	e9 1c b2 ff ff       	jmp    10000bf0 <__malloc_unlock>
100059d4:	85 ed                	test   ebp,ebp
100059d6:	0f 85 23 01 00 00    	jne    10005aff <_free_r+0x2bf>
100059dc:	03 44 24 0c          	add    eax,DWORD PTR [esp+0xc]
100059e0:	8b 59 08             	mov    ebx,DWORD PTR [ecx+0x8]
100059e3:	8b 49 0c             	mov    ecx,DWORD PTR [ecx+0xc]
100059e6:	89 4b 0c             	mov    DWORD PTR [ebx+0xc],ecx
100059e9:	89 59 08             	mov    DWORD PTR [ecx+0x8],ebx
100059ec:	89 c1                	mov    ecx,eax
100059ee:	83 c9 01             	or     ecx,0x1
100059f1:	89 4a 04             	mov    DWORD PTR [edx+0x4],ecx
100059f4:	89 04 02             	mov    DWORD PTR [edx+eax*1],eax
100059f7:	e9 12 ff ff ff       	jmp    1000590e <_free_r+0xce>
100059fc:	03 44 24 0c          	add    eax,DWORD PTR [esp+0xc]
10005a00:	83 e7 01             	and    edi,0x1
10005a03:	75 13                	jne    10005a18 <_free_r+0x1d8>
10005a05:	8b 4b f8             	mov    ecx,DWORD PTR [ebx-0x8]
10005a08:	29 ca                	sub    edx,ecx
10005a0a:	01 c8                	add    eax,ecx
10005a0c:	8b 4a 0c             	mov    ecx,DWORD PTR [edx+0xc]
10005a0f:	8b 5a 08             	mov    ebx,DWORD PTR [edx+0x8]
10005a12:	89 4b 0c             	mov    DWORD PTR [ebx+0xc],ecx
10005a15:	89 59 08             	mov    DWORD PTR [ecx+0x8],ebx
10005a18:	89 c1                	mov    ecx,eax
10005a1a:	83 c9 01             	or     ecx,0x1
10005a1d:	89 4a 04             	mov    DWORD PTR [edx+0x4],ecx
10005a20:	89 15 a8 e4 00 10    	mov    DWORD PTR ds:0x1000e4a8,edx
10005a26:	39 05 84 e4 00 10    	cmp    DWORD PTR ds:0x1000e484,eax
10005a2c:	0f 87 dc fe ff ff    	ja     1000590e <_free_r+0xce>
10005a32:	83 ec 08             	sub    esp,0x8
10005a35:	ff 35 70 f2 00 10    	push   DWORD PTR ds:0x1000f270
10005a3b:	56                   	push   esi
10005a3c:	e8 2b fd ff ff       	call   1000576c <_malloc_trim_r>
10005a41:	83 c4 10             	add    esp,0x10
10005a44:	e9 c5 fe ff ff       	jmp    1000590e <_free_r+0xce>
10005a49:	8d 76 00             	lea    esi,[esi+0x0]
10005a4c:	83 fb 14             	cmp    ebx,0x14
10005a4f:	76 1b                	jbe    10005a6c <_free_r+0x22c>
10005a51:	83 fb 54             	cmp    ebx,0x54
10005a54:	77 62                	ja     10005ab8 <_free_r+0x278>
10005a56:	89 c3                	mov    ebx,eax
10005a58:	c1 eb 0c             	shr    ebx,0xc
10005a5b:	8d 4b 6e             	lea    ecx,[ebx+0x6e]
10005a5e:	8d 1c dd 78 03 00 00 	lea    ebx,[ebx*8+0x378]
10005a65:	e9 24 ff ff ff       	jmp    1000598e <_free_r+0x14e>
10005a6a:	66 90                	xchg   ax,ax
10005a6c:	8d 4b 5b             	lea    ecx,[ebx+0x5b]
10005a6f:	8d 1c dd e0 02 00 00 	lea    ebx,[ebx*8+0x2e0]
10005a76:	e9 13 ff ff ff       	jmp    1000598e <_free_r+0x14e>
10005a7b:	90                   	nop
10005a7c:	89 15 b4 e4 00 10    	mov    DWORD PTR ds:0x1000e4b4,edx
10005a82:	89 15 b0 e4 00 10    	mov    DWORD PTR ds:0x1000e4b0,edx
10005a88:	c7 42 0c a8 e4 00 10 	mov    DWORD PTR [edx+0xc],0x1000e4a8
10005a8f:	c7 42 08 a8 e4 00 10 	mov    DWORD PTR [edx+0x8],0x1000e4a8
10005a96:	89 6a 04             	mov    DWORD PTR [edx+0x4],ebp
10005a99:	89 07                	mov    DWORD PTR [edi],eax
10005a9b:	e9 6e fe ff ff       	jmp    1000590e <_free_r+0xce>
10005aa0:	c1 f9 02             	sar    ecx,0x2
10005aa3:	b8 01 00 00 00       	mov    eax,0x1
10005aa8:	d3 e0                	shl    eax,cl
10005aaa:	09 05 a4 e4 00 10    	or     DWORD PTR ds:0x1000e4a4,eax
10005ab0:	e9 03 ff ff ff       	jmp    100059b8 <_free_r+0x178>
10005ab5:	8d 76 00             	lea    esi,[esi+0x0]
10005ab8:	81 fb 54 01 00 00    	cmp    ebx,0x154
10005abe:	77 14                	ja     10005ad4 <_free_r+0x294>
10005ac0:	89 c3                	mov    ebx,eax
10005ac2:	c1 eb 0f             	shr    ebx,0xf
10005ac5:	8d 4b 77             	lea    ecx,[ebx+0x77]
10005ac8:	8d 1c dd c0 03 00 00 	lea    ebx,[ebx*8+0x3c0]
10005acf:	e9 ba fe ff ff       	jmp    1000598e <_free_r+0x14e>
10005ad4:	81 fb 54 05 00 00    	cmp    ebx,0x554
10005ada:	77 14                	ja     10005af0 <_free_r+0x2b0>
10005adc:	89 c3                	mov    ebx,eax
10005ade:	c1 eb 12             	shr    ebx,0x12
10005ae1:	8d 4b 7c             	lea    ecx,[ebx+0x7c]
10005ae4:	8d 1c dd e8 03 00 00 	lea    ebx,[ebx*8+0x3e8]
10005aeb:	e9 9e fe ff ff       	jmp    1000598e <_free_r+0x14e>
10005af0:	bb f8 03 00 00       	mov    ebx,0x3f8
10005af5:	b9 7e 00 00 00       	mov    ecx,0x7e
10005afa:	e9 8f fe ff ff       	jmp    1000598e <_free_r+0x14e>
10005aff:	89 c3                	mov    ebx,eax
10005b01:	83 cb 01             	or     ebx,0x1
10005b04:	89 5a 04             	mov    DWORD PTR [edx+0x4],ebx
10005b07:	89 01                	mov    DWORD PTR [ecx],eax
10005b09:	e9 00 fe ff ff       	jmp    1000590e <_free_r+0xce>
10005b0e:	66 90                	xchg   ax,ax

10005b10 <__sfvwrite_r>:
10005b10:	55                   	push   ebp
10005b11:	57                   	push   edi
10005b12:	56                   	push   esi
10005b13:	53                   	push   ebx
10005b14:	83 ec 1c             	sub    esp,0x1c
10005b17:	8b 5c 24 34          	mov    ebx,DWORD PTR [esp+0x34]
10005b1b:	8b 44 24 38          	mov    eax,DWORD PTR [esp+0x38]
10005b1f:	8b 48 08             	mov    ecx,DWORD PTR [eax+0x8]
10005b22:	85 c9                	test   ecx,ecx
10005b24:	0f 84 8a 00 00 00    	je     10005bb4 <__sfvwrite_r+0xa4>
10005b2a:	8b 43 0c             	mov    eax,DWORD PTR [ebx+0xc]
10005b2d:	a8 08                	test   al,0x8
10005b2f:	0f 84 8b 00 00 00    	je     10005bc0 <__sfvwrite_r+0xb0>
10005b35:	8b 53 10             	mov    edx,DWORD PTR [ebx+0x10]
10005b38:	85 d2                	test   edx,edx
10005b3a:	0f 84 80 00 00 00    	je     10005bc0 <__sfvwrite_r+0xb0>
10005b40:	8b 7c 24 38          	mov    edi,DWORD PTR [esp+0x38]
10005b44:	8b 2f                	mov    ebp,DWORD PTR [edi]
10005b46:	a8 02                	test   al,0x2
10005b48:	0f 84 9b 00 00 00    	je     10005be9 <__sfvwrite_r+0xd9>
10005b4e:	8b 4b 24             	mov    ecx,DWORD PTR [ebx+0x24]
10005b51:	8b 53 1c             	mov    edx,DWORD PTR [ebx+0x1c]
10005b54:	31 ff                	xor    edi,edi
10005b56:	31 f6                	xor    esi,esi
10005b58:	85 f6                	test   esi,esi
10005b5a:	74 4b                	je     10005ba7 <__sfvwrite_r+0x97>
10005b5c:	89 f0                	mov    eax,esi
10005b5e:	81 fe 00 fc ff 7f    	cmp    esi,0x7ffffc00
10005b64:	76 05                	jbe    10005b6b <__sfvwrite_r+0x5b>
10005b66:	b8 00 fc ff 7f       	mov    eax,0x7ffffc00
10005b6b:	50                   	push   eax
10005b6c:	57                   	push   edi
10005b6d:	52                   	push   edx
10005b6e:	ff 74 24 3c          	push   DWORD PTR [esp+0x3c]
10005b72:	ff d1                	call   ecx
10005b74:	83 c4 10             	add    esp,0x10
10005b77:	85 c0                	test   eax,eax
10005b79:	0f 8e b5 01 00 00    	jle    10005d34 <__sfvwrite_r+0x224>
10005b7f:	01 c7                	add    edi,eax
10005b81:	29 c6                	sub    esi,eax
10005b83:	8b 4c 24 38          	mov    ecx,DWORD PTR [esp+0x38]
10005b87:	8b 49 08             	mov    ecx,DWORD PTR [ecx+0x8]
10005b8a:	89 4c 24 04          	mov    DWORD PTR [esp+0x4],ecx
10005b8e:	89 ca                	mov    edx,ecx
10005b90:	29 c2                	sub    edx,eax
10005b92:	89 d0                	mov    eax,edx
10005b94:	8b 54 24 38          	mov    edx,DWORD PTR [esp+0x38]
10005b98:	89 42 08             	mov    DWORD PTR [edx+0x8],eax
10005b9b:	74 17                	je     10005bb4 <__sfvwrite_r+0xa4>
10005b9d:	8b 4b 24             	mov    ecx,DWORD PTR [ebx+0x24]
10005ba0:	8b 53 1c             	mov    edx,DWORD PTR [ebx+0x1c]
10005ba3:	85 f6                	test   esi,esi
10005ba5:	75 b5                	jne    10005b5c <__sfvwrite_r+0x4c>
10005ba7:	8b 7d 00             	mov    edi,DWORD PTR [ebp+0x0]
10005baa:	8b 75 04             	mov    esi,DWORD PTR [ebp+0x4]
10005bad:	83 c5 08             	add    ebp,0x8
10005bb0:	eb a6                	jmp    10005b58 <__sfvwrite_r+0x48>
10005bb2:	66 90                	xchg   ax,ax
10005bb4:	31 c0                	xor    eax,eax
10005bb6:	83 c4 1c             	add    esp,0x1c
10005bb9:	5b                   	pop    ebx
10005bba:	5e                   	pop    esi
10005bbb:	5f                   	pop    edi
10005bbc:	5d                   	pop    ebp
10005bbd:	c3                   	ret    
10005bbe:	66 90                	xchg   ax,ax
10005bc0:	83 ec 08             	sub    esp,0x8
10005bc3:	53                   	push   ebx
10005bc4:	ff 74 24 3c          	push   DWORD PTR [esp+0x3c]
10005bc8:	e8 97 d4 ff ff       	call   10003064 <__swsetup_r>
10005bcd:	83 c4 10             	add    esp,0x10
10005bd0:	85 c0                	test   eax,eax
10005bd2:	0f 85 6e 03 00 00    	jne    10005f46 <__sfvwrite_r+0x436>
10005bd8:	8b 43 0c             	mov    eax,DWORD PTR [ebx+0xc]
10005bdb:	8b 7c 24 38          	mov    edi,DWORD PTR [esp+0x38]
10005bdf:	8b 2f                	mov    ebp,DWORD PTR [edi]
10005be1:	a8 02                	test   al,0x2
10005be3:	0f 85 65 ff ff ff    	jne    10005b4e <__sfvwrite_r+0x3e>
10005be9:	a8 01                	test   al,0x1
10005beb:	0f 85 5b 01 00 00    	jne    10005d4c <__sfvwrite_r+0x23c>
10005bf1:	8b 73 08             	mov    esi,DWORD PTR [ebx+0x8]
10005bf4:	8b 13                	mov    edx,DWORD PTR [ebx]
10005bf6:	c7 44 24 04 00 00 00 00 	mov    DWORD PTR [esp+0x4],0x0
10005bfe:	31 ff                	xor    edi,edi
10005c00:	85 ff                	test   edi,edi
10005c02:	0f 84 fa 00 00 00    	je     10005d02 <__sfvwrite_r+0x1f2>
10005c08:	f6 c4 02             	test   ah,0x2
10005c0b:	0f 84 f7 01 00 00    	je     10005e08 <__sfvwrite_r+0x2f8>
10005c11:	89 f1                	mov    ecx,esi
10005c13:	39 fe                	cmp    esi,edi
10005c15:	0f 87 79 02 00 00    	ja     10005e94 <__sfvwrite_r+0x384>
10005c1b:	a9 80 04 00 00       	test   eax,0x480
10005c20:	0f 84 8e 00 00 00    	je     10005cb4 <__sfvwrite_r+0x1a4>
10005c26:	8b 4b 10             	mov    ecx,DWORD PTR [ebx+0x10]
10005c29:	29 ca                	sub    edx,ecx
10005c2b:	89 54 24 0c          	mov    DWORD PTR [esp+0xc],edx
10005c2f:	8b 53 14             	mov    edx,DWORD PTR [ebx+0x14]
10005c32:	8d 34 12             	lea    esi,[edx+edx*1]
10005c35:	01 f2                	add    edx,esi
10005c37:	89 d6                	mov    esi,edx
10005c39:	c1 ee 1f             	shr    esi,0x1f
10005c3c:	01 f2                	add    edx,esi
10005c3e:	d1 fa                	sar    edx,1
10005c40:	8b 74 24 0c          	mov    esi,DWORD PTR [esp+0xc]
10005c44:	8d 74 37 01          	lea    esi,[edi+esi*1+0x1]
10005c48:	89 54 24 08          	mov    DWORD PTR [esp+0x8],edx
10005c4c:	39 d6                	cmp    esi,edx
10005c4e:	76 06                	jbe    10005c56 <__sfvwrite_r+0x146>
10005c50:	89 f2                	mov    edx,esi
10005c52:	89 74 24 08          	mov    DWORD PTR [esp+0x8],esi
10005c56:	f6 c4 04             	test   ah,0x4
10005c59:	0f 84 89 02 00 00    	je     10005ee8 <__sfvwrite_r+0x3d8>
10005c5f:	83 ec 08             	sub    esp,0x8
10005c62:	52                   	push   edx
10005c63:	ff 74 24 3c          	push   DWORD PTR [esp+0x3c]
10005c67:	e8 58 a7 ff ff       	call   100003c4 <_malloc_r>
10005c6c:	89 c6                	mov    esi,eax
10005c6e:	83 c4 10             	add    esp,0x10
10005c71:	85 c0                	test   eax,eax
10005c73:	0f 84 bb 02 00 00    	je     10005f34 <__sfvwrite_r+0x424>
10005c79:	50                   	push   eax
10005c7a:	ff 74 24 10          	push   DWORD PTR [esp+0x10]
10005c7e:	ff 73 10             	push   DWORD PTR [ebx+0x10]
10005c81:	56                   	push   esi
10005c82:	e8 81 05 00 00       	call   10006208 <memcpy>
10005c87:	8b 43 0c             	mov    eax,DWORD PTR [ebx+0xc]
10005c8a:	25 7f fb ff ff       	and    eax,0xfffffb7f
10005c8f:	0c 80                	or     al,0x80
10005c91:	66 89 43 0c          	mov    WORD PTR [ebx+0xc],ax
10005c95:	83 c4 10             	add    esp,0x10
10005c98:	89 73 10             	mov    DWORD PTR [ebx+0x10],esi
10005c9b:	8b 4c 24 0c          	mov    ecx,DWORD PTR [esp+0xc]
10005c9f:	8d 14 0e             	lea    edx,[esi+ecx*1]
10005ca2:	89 13                	mov    DWORD PTR [ebx],edx
10005ca4:	8b 44 24 08          	mov    eax,DWORD PTR [esp+0x8]
10005ca8:	89 43 14             	mov    DWORD PTR [ebx+0x14],eax
10005cab:	89 fe                	mov    esi,edi
10005cad:	29 c8                	sub    eax,ecx
10005caf:	89 43 08             	mov    DWORD PTR [ebx+0x8],eax
10005cb2:	89 f9                	mov    ecx,edi
10005cb4:	50                   	push   eax
10005cb5:	51                   	push   ecx
10005cb6:	89 4c 24 10          	mov    DWORD PTR [esp+0x10],ecx
10005cba:	ff 74 24 0c          	push   DWORD PTR [esp+0xc]
10005cbe:	52                   	push   edx
10005cbf:	e8 8c 05 00 00       	call   10006250 <memmove>
10005cc4:	29 73 08             	sub    DWORD PTR [ebx+0x8],esi
10005cc7:	8b 4c 24 18          	mov    ecx,DWORD PTR [esp+0x18]
10005ccb:	01 0b                	add    DWORD PTR [ebx],ecx
10005ccd:	83 c4 10             	add    esp,0x10
10005cd0:	89 fe                	mov    esi,edi
10005cd2:	31 ff                	xor    edi,edi
10005cd4:	01 74 24 04          	add    DWORD PTR [esp+0x4],esi
10005cd8:	8b 44 24 38          	mov    eax,DWORD PTR [esp+0x38]
10005cdc:	8b 40 08             	mov    eax,DWORD PTR [eax+0x8]
10005cdf:	89 44 24 08          	mov    DWORD PTR [esp+0x8],eax
10005ce3:	29 f0                	sub    eax,esi
10005ce5:	8b 4c 24 38          	mov    ecx,DWORD PTR [esp+0x38]
10005ce9:	89 41 08             	mov    DWORD PTR [ecx+0x8],eax
10005cec:	0f 84 c2 fe ff ff    	je     10005bb4 <__sfvwrite_r+0xa4>
10005cf2:	8b 43 0c             	mov    eax,DWORD PTR [ebx+0xc]
10005cf5:	8b 73 08             	mov    esi,DWORD PTR [ebx+0x8]
10005cf8:	8b 13                	mov    edx,DWORD PTR [ebx]
10005cfa:	85 ff                	test   edi,edi
10005cfc:	0f 85 06 ff ff ff    	jne    10005c08 <__sfvwrite_r+0xf8>
10005d02:	8b 4d 00             	mov    ecx,DWORD PTR [ebp+0x0]
10005d05:	89 4c 24 04          	mov    DWORD PTR [esp+0x4],ecx
10005d09:	8b 7d 04             	mov    edi,DWORD PTR [ebp+0x4]
10005d0c:	83 c5 08             	add    ebp,0x8
10005d0f:	e9 ec fe ff ff       	jmp    10005c00 <__sfvwrite_r+0xf0>
10005d14:	52                   	push   edx
10005d15:	56                   	push   esi
10005d16:	55                   	push   ebp
10005d17:	51                   	push   ecx
10005d18:	e8 33 05 00 00       	call   10006250 <memmove>
10005d1d:	01 33                	add    DWORD PTR [ebx],esi
10005d1f:	59                   	pop    ecx
10005d20:	58                   	pop    eax
10005d21:	53                   	push   ebx
10005d22:	ff 74 24 3c          	push   DWORD PTR [esp+0x3c]
10005d26:	e8 7d f6 ff ff       	call   100053a8 <_fflush_r>
10005d2b:	83 c4 10             	add    esp,0x10
10005d2e:	85 c0                	test   eax,eax
10005d30:	74 72                	je     10005da4 <__sfvwrite_r+0x294>
10005d32:	66 90                	xchg   ax,ax
10005d34:	8b 43 0c             	mov    eax,DWORD PTR [ebx+0xc]
10005d37:	83 c8 40             	or     eax,0x40
10005d3a:	66 89 43 0c          	mov    WORD PTR [ebx+0xc],ax
10005d3e:	b8 ff ff ff ff       	mov    eax,0xffffffff
10005d43:	83 c4 1c             	add    esp,0x1c
10005d46:	5b                   	pop    ebx
10005d47:	5e                   	pop    esi
10005d48:	5f                   	pop    edi
10005d49:	5d                   	pop    ebp
10005d4a:	c3                   	ret    
10005d4b:	90                   	nop
10005d4c:	c7 44 24 08 00 00 00 00 	mov    DWORD PTR [esp+0x8],0x0
10005d54:	31 c0                	xor    eax,eax
10005d56:	31 c9                	xor    ecx,ecx
10005d58:	31 ff                	xor    edi,edi
10005d5a:	89 6c 24 0c          	mov    DWORD PTR [esp+0xc],ebp
10005d5e:	89 cd                	mov    ebp,ecx
10005d60:	eb 6b                	jmp    10005dcd <__sfvwrite_r+0x2bd>
10005d62:	66 90                	xchg   ax,ax
10005d64:	85 c0                	test   eax,eax
10005d66:	74 7d                	je     10005de5 <__sfvwrite_r+0x2d5>
10005d68:	8b 44 24 08          	mov    eax,DWORD PTR [esp+0x8]
10005d6c:	89 fa                	mov    edx,edi
10005d6e:	39 c7                	cmp    edi,eax
10005d70:	76 02                	jbe    10005d74 <__sfvwrite_r+0x264>
10005d72:	89 c2                	mov    edx,eax
10005d74:	8b 43 14             	mov    eax,DWORD PTR [ebx+0x14]
10005d77:	8b 0b                	mov    ecx,DWORD PTR [ebx]
10005d79:	3b 4b 10             	cmp    ecx,DWORD PTR [ebx+0x10]
10005d7c:	76 09                	jbe    10005d87 <__sfvwrite_r+0x277>
10005d7e:	8b 73 08             	mov    esi,DWORD PTR [ebx+0x8]
10005d81:	01 c6                	add    esi,eax
10005d83:	39 f2                	cmp    edx,esi
10005d85:	7f 8d                	jg     10005d14 <__sfvwrite_r+0x204>
10005d87:	39 d0                	cmp    eax,edx
10005d89:	0f 8f 31 01 00 00    	jg     10005ec0 <__sfvwrite_r+0x3b0>
10005d8f:	50                   	push   eax
10005d90:	55                   	push   ebp
10005d91:	ff 73 1c             	push   DWORD PTR [ebx+0x1c]
10005d94:	ff 74 24 3c          	push   DWORD PTR [esp+0x3c]
10005d98:	ff 53 24             	call   DWORD PTR [ebx+0x24]
10005d9b:	89 c6                	mov    esi,eax
10005d9d:	83 c4 10             	add    esp,0x10
10005da0:	85 c0                	test   eax,eax
10005da2:	7e 90                	jle    10005d34 <__sfvwrite_r+0x224>
10005da4:	29 74 24 08          	sub    DWORD PTR [esp+0x8],esi
10005da8:	0f 84 f2 00 00 00    	je     10005ea0 <__sfvwrite_r+0x390>
10005dae:	b8 01 00 00 00       	mov    eax,0x1
10005db3:	01 f5                	add    ebp,esi
10005db5:	29 f7                	sub    edi,esi
10005db7:	8b 4c 24 38          	mov    ecx,DWORD PTR [esp+0x38]
10005dbb:	8b 51 08             	mov    edx,DWORD PTR [ecx+0x8]
10005dbe:	89 54 24 04          	mov    DWORD PTR [esp+0x4],edx
10005dc2:	29 f2                	sub    edx,esi
10005dc4:	89 51 08             	mov    DWORD PTR [ecx+0x8],edx
10005dc7:	0f 84 e7 fd ff ff    	je     10005bb4 <__sfvwrite_r+0xa4>
10005dcd:	85 ff                	test   edi,edi
10005dcf:	75 93                	jne    10005d64 <__sfvwrite_r+0x254>
10005dd1:	8b 44 24 0c          	mov    eax,DWORD PTR [esp+0xc]
10005dd5:	8b 28                	mov    ebp,DWORD PTR [eax]
10005dd7:	8b 78 04             	mov    edi,DWORD PTR [eax+0x4]
10005dda:	83 c0 08             	add    eax,0x8
10005ddd:	85 ff                	test   edi,edi
10005ddf:	74 f4                	je     10005dd5 <__sfvwrite_r+0x2c5>
10005de1:	89 44 24 0c          	mov    DWORD PTR [esp+0xc],eax
10005de5:	50                   	push   eax
10005de6:	57                   	push   edi
10005de7:	6a 0a                	push   0xa
10005de9:	55                   	push   ebp
10005dea:	e8 81 03 00 00       	call   10006170 <memchr>
10005def:	83 c4 10             	add    esp,0x10
10005df2:	85 c0                	test   eax,eax
10005df4:	0f 84 2e 01 00 00    	je     10005f28 <__sfvwrite_r+0x418>
10005dfa:	40                   	inc    eax
10005dfb:	29 e8                	sub    eax,ebp
10005dfd:	89 44 24 08          	mov    DWORD PTR [esp+0x8],eax
10005e01:	e9 66 ff ff ff       	jmp    10005d6c <__sfvwrite_r+0x25c>
10005e06:	66 90                	xchg   ax,ax
10005e08:	39 53 10             	cmp    DWORD PTR [ebx+0x10],edx
10005e0b:	72 43                	jb     10005e50 <__sfvwrite_r+0x340>
10005e0d:	8b 4b 14             	mov    ecx,DWORD PTR [ebx+0x14]
10005e10:	39 f9                	cmp    ecx,edi
10005e12:	77 3c                	ja     10005e50 <__sfvwrite_r+0x340>
10005e14:	81 ff fe ff ff 7f    	cmp    edi,0x7ffffffe
10005e1a:	0f 86 c0 00 00 00    	jbe    10005ee0 <__sfvwrite_r+0x3d0>
10005e20:	b8 ff ff ff 7f       	mov    eax,0x7fffffff
10005e25:	99                   	cdq    
10005e26:	f7 f9                	idiv   ecx
10005e28:	0f af c1             	imul   eax,ecx
10005e2b:	50                   	push   eax
10005e2c:	ff 74 24 08          	push   DWORD PTR [esp+0x8]
10005e30:	ff 73 1c             	push   DWORD PTR [ebx+0x1c]
10005e33:	ff 74 24 3c          	push   DWORD PTR [esp+0x3c]
10005e37:	ff 53 24             	call   DWORD PTR [ebx+0x24]
10005e3a:	83 c4 10             	add    esp,0x10
10005e3d:	85 c0                	test   eax,eax
10005e3f:	0f 8e ef fe ff ff    	jle    10005d34 <__sfvwrite_r+0x224>
10005e45:	89 c6                	mov    esi,eax
10005e47:	29 f7                	sub    edi,esi
10005e49:	e9 86 fe ff ff       	jmp    10005cd4 <__sfvwrite_r+0x1c4>
10005e4e:	66 90                	xchg   ax,ax
10005e50:	39 fe                	cmp    esi,edi
10005e52:	76 02                	jbe    10005e56 <__sfvwrite_r+0x346>
10005e54:	89 fe                	mov    esi,edi
10005e56:	50                   	push   eax
10005e57:	56                   	push   esi
10005e58:	ff 74 24 0c          	push   DWORD PTR [esp+0xc]
10005e5c:	52                   	push   edx
10005e5d:	e8 ee 03 00 00       	call   10006250 <memmove>
10005e62:	8b 43 08             	mov    eax,DWORD PTR [ebx+0x8]
10005e65:	29 f0                	sub    eax,esi
10005e67:	89 43 08             	mov    DWORD PTR [ebx+0x8],eax
10005e6a:	01 33                	add    DWORD PTR [ebx],esi
10005e6c:	83 c4 10             	add    esp,0x10
10005e6f:	85 c0                	test   eax,eax
10005e71:	75 d4                	jne    10005e47 <__sfvwrite_r+0x337>
10005e73:	83 ec 08             	sub    esp,0x8
10005e76:	53                   	push   ebx
10005e77:	ff 74 24 3c          	push   DWORD PTR [esp+0x3c]
10005e7b:	e8 28 f5 ff ff       	call   100053a8 <_fflush_r>
10005e80:	83 c4 10             	add    esp,0x10
10005e83:	85 c0                	test   eax,eax
10005e85:	0f 85 a9 fe ff ff    	jne    10005d34 <__sfvwrite_r+0x224>
10005e8b:	29 f7                	sub    edi,esi
10005e8d:	e9 42 fe ff ff       	jmp    10005cd4 <__sfvwrite_r+0x1c4>
10005e92:	66 90                	xchg   ax,ax
10005e94:	89 fe                	mov    esi,edi
10005e96:	89 f9                	mov    ecx,edi
10005e98:	e9 17 fe ff ff       	jmp    10005cb4 <__sfvwrite_r+0x1a4>
10005e9d:	8d 76 00             	lea    esi,[esi+0x0]
10005ea0:	83 ec 08             	sub    esp,0x8
10005ea3:	53                   	push   ebx
10005ea4:	ff 74 24 3c          	push   DWORD PTR [esp+0x3c]
10005ea8:	e8 fb f4 ff ff       	call   100053a8 <_fflush_r>
10005ead:	83 c4 10             	add    esp,0x10
10005eb0:	85 c0                	test   eax,eax
10005eb2:	0f 84 fb fe ff ff    	je     10005db3 <__sfvwrite_r+0x2a3>
10005eb8:	e9 77 fe ff ff       	jmp    10005d34 <__sfvwrite_r+0x224>
10005ebd:	8d 76 00             	lea    esi,[esi+0x0]
10005ec0:	50                   	push   eax
10005ec1:	52                   	push   edx
10005ec2:	89 54 24 0c          	mov    DWORD PTR [esp+0xc],edx
10005ec6:	55                   	push   ebp
10005ec7:	51                   	push   ecx
10005ec8:	e8 83 03 00 00       	call   10006250 <memmove>
10005ecd:	8b 54 24 14          	mov    edx,DWORD PTR [esp+0x14]
10005ed1:	29 53 08             	sub    DWORD PTR [ebx+0x8],edx
10005ed4:	01 13                	add    DWORD PTR [ebx],edx
10005ed6:	83 c4 10             	add    esp,0x10
10005ed9:	89 d6                	mov    esi,edx
10005edb:	e9 c4 fe ff ff       	jmp    10005da4 <__sfvwrite_r+0x294>
10005ee0:	89 f8                	mov    eax,edi
10005ee2:	e9 3e ff ff ff       	jmp    10005e25 <__sfvwrite_r+0x315>
10005ee7:	90                   	nop
10005ee8:	50                   	push   eax
10005ee9:	52                   	push   edx
10005eea:	51                   	push   ecx
10005eeb:	ff 74 24 3c          	push   DWORD PTR [esp+0x3c]
10005eef:	e8 78 12 00 00       	call   1000716c <_realloc_r>
10005ef4:	89 c6                	mov    esi,eax
10005ef6:	83 c4 10             	add    esp,0x10
10005ef9:	85 c0                	test   eax,eax
10005efb:	0f 85 97 fd ff ff    	jne    10005c98 <__sfvwrite_r+0x188>
10005f01:	83 ec 08             	sub    esp,0x8
10005f04:	ff 73 10             	push   DWORD PTR [ebx+0x10]
10005f07:	ff 74 24 3c          	push   DWORD PTR [esp+0x3c]
10005f0b:	e8 30 f9 ff ff       	call   10005840 <_free_r>
10005f10:	8b 43 0c             	mov    eax,DWORD PTR [ebx+0xc]
10005f13:	24 7f                	and    al,0x7f
10005f15:	8b 7c 24 40          	mov    edi,DWORD PTR [esp+0x40]
10005f19:	c7 07 0c 00 00 00    	mov    DWORD PTR [edi],0xc
10005f1f:	83 c4 10             	add    esp,0x10
10005f22:	e9 10 fe ff ff       	jmp    10005d37 <__sfvwrite_r+0x227>
10005f27:	90                   	nop
10005f28:	8d 47 01             	lea    eax,[edi+0x1]
10005f2b:	89 44 24 08          	mov    DWORD PTR [esp+0x8],eax
10005f2f:	e9 38 fe ff ff       	jmp    10005d6c <__sfvwrite_r+0x25c>
10005f34:	8b 44 24 30          	mov    eax,DWORD PTR [esp+0x30]
10005f38:	c7 00 0c 00 00 00    	mov    DWORD PTR [eax],0xc
10005f3e:	8b 43 0c             	mov    eax,DWORD PTR [ebx+0xc]
10005f41:	e9 f1 fd ff ff       	jmp    10005d37 <__sfvwrite_r+0x227>
10005f46:	b8 ff ff ff ff       	mov    eax,0xffffffff
10005f4b:	e9 66 fc ff ff       	jmp    10005bb6 <__sfvwrite_r+0xa6>

10005f50 <_fwalk>:
10005f50:	55                   	push   ebp
10005f51:	57                   	push   edi
10005f52:	56                   	push   esi
10005f53:	53                   	push   ebx
10005f54:	83 ec 0c             	sub    esp,0xc
10005f57:	8b 7c 24 20          	mov    edi,DWORD PTR [esp+0x20]
10005f5b:	31 f6                	xor    esi,esi
10005f5d:	81 c7 e0 02 00 00    	add    edi,0x2e0
10005f63:	74 39                	je     10005f9e <_fwalk+0x4e>
10005f65:	8d 76 00             	lea    esi,[esi+0x0]
10005f68:	8b 5f 08             	mov    ebx,DWORD PTR [edi+0x8]
10005f6b:	8b 6f 04             	mov    ebp,DWORD PTR [edi+0x4]
10005f6e:	4d                   	dec    ebp
10005f6f:	78 27                	js     10005f98 <_fwalk+0x48>
10005f71:	8d 76 00             	lea    esi,[esi+0x0]
10005f74:	66 83 7b 0c 01       	cmp    WORD PTR [ebx+0xc],0x1
10005f79:	76 14                	jbe    10005f8f <_fwalk+0x3f>
10005f7b:	66 83 7b 0e ff       	cmp    WORD PTR [ebx+0xe],0xffff
10005f80:	74 0d                	je     10005f8f <_fwalk+0x3f>
10005f82:	83 ec 0c             	sub    esp,0xc
10005f85:	53                   	push   ebx
10005f86:	ff 54 24 34          	call   DWORD PTR [esp+0x34]
10005f8a:	09 c6                	or     esi,eax
10005f8c:	83 c4 10             	add    esp,0x10
10005f8f:	83 c3 68             	add    ebx,0x68
10005f92:	4d                   	dec    ebp
10005f93:	83 fd ff             	cmp    ebp,0xffffffff
10005f96:	75 dc                	jne    10005f74 <_fwalk+0x24>
10005f98:	8b 3f                	mov    edi,DWORD PTR [edi]
10005f9a:	85 ff                	test   edi,edi
10005f9c:	75 ca                	jne    10005f68 <_fwalk+0x18>
10005f9e:	89 f0                	mov    eax,esi
10005fa0:	83 c4 0c             	add    esp,0xc
10005fa3:	5b                   	pop    ebx
10005fa4:	5e                   	pop    esi
10005fa5:	5f                   	pop    edi
10005fa6:	5d                   	pop    ebp
10005fa7:	c3                   	ret    

10005fa8 <_fwalk_reent>:
10005fa8:	55                   	push   ebp
10005fa9:	57                   	push   edi
10005faa:	56                   	push   esi
10005fab:	53                   	push   ebx
10005fac:	83 ec 0c             	sub    esp,0xc
10005faf:	8b 74 24 20          	mov    esi,DWORD PTR [esp+0x20]
10005fb3:	31 db                	xor    ebx,ebx
10005fb5:	81 c6 e0 02 00 00    	add    esi,0x2e0
10005fbb:	74 3d                	je     10005ffa <_fwalk_reent+0x52>
10005fbd:	8d 76 00             	lea    esi,[esi+0x0]
10005fc0:	8b 7e 08             	mov    edi,DWORD PTR [esi+0x8]
10005fc3:	8b 6e 04             	mov    ebp,DWORD PTR [esi+0x4]
10005fc6:	4d                   	dec    ebp
10005fc7:	78 2b                	js     10005ff4 <_fwalk_reent+0x4c>
10005fc9:	8d 76 00             	lea    esi,[esi+0x0]
10005fcc:	66 83 7f 0c 01       	cmp    WORD PTR [edi+0xc],0x1
10005fd1:	76 18                	jbe    10005feb <_fwalk_reent+0x43>
10005fd3:	66 83 7f 0e ff       	cmp    WORD PTR [edi+0xe],0xffff
10005fd8:	74 11                	je     10005feb <_fwalk_reent+0x43>
10005fda:	83 ec 08             	sub    esp,0x8
10005fdd:	57                   	push   edi
10005fde:	ff 74 24 2c          	push   DWORD PTR [esp+0x2c]
10005fe2:	ff 54 24 34          	call   DWORD PTR [esp+0x34]
10005fe6:	09 c3                	or     ebx,eax
10005fe8:	83 c4 10             	add    esp,0x10
10005feb:	83 c7 68             	add    edi,0x68
10005fee:	4d                   	dec    ebp
10005fef:	83 fd ff             	cmp    ebp,0xffffffff
10005ff2:	75 d8                	jne    10005fcc <_fwalk_reent+0x24>
10005ff4:	8b 36                	mov    esi,DWORD PTR [esi]
10005ff6:	85 f6                	test   esi,esi
10005ff8:	75 c6                	jne    10005fc0 <_fwalk_reent+0x18>
10005ffa:	89 d8                	mov    eax,ebx
10005ffc:	83 c4 0c             	add    esp,0xc
10005fff:	5b                   	pop    ebx
10006000:	5e                   	pop    esi
10006001:	5f                   	pop    edi
10006002:	5d                   	pop    ebp
10006003:	c3                   	ret    

10006004 <__localeconv_l>:
10006004:	8b 44 24 04          	mov    eax,DWORD PTR [esp+0x4]
10006008:	05 f0 00 00 00       	add    eax,0xf0
1000600d:	c3                   	ret    
1000600e:	66 90                	xchg   ax,ax

10006010 <_localeconv_r>:
10006010:	b8 b0 e9 00 10       	mov    eax,0x1000e9b0
10006015:	c3                   	ret    
10006016:	66 90                	xchg   ax,ax

10006018 <localeconv>:
10006018:	b8 b0 e9 00 10       	mov    eax,0x1000e9b0
1000601d:	c3                   	ret    
1000601e:	66 90                	xchg   ax,ax

10006020 <__swhatbuf_r>:
10006020:	53                   	push   ebx
10006021:	83 ec 48             	sub    esp,0x48
10006024:	8b 5c 24 54          	mov    ebx,DWORD PTR [esp+0x54]
10006028:	0f bf 43 0e          	movsx  eax,WORD PTR [ebx+0xe]
1000602c:	66 85 c0             	test   ax,ax
1000602f:	78 47                	js     10006078 <__swhatbuf_r+0x58>
10006031:	52                   	push   edx
10006032:	8d 54 24 08          	lea    edx,[esp+0x8]
10006036:	52                   	push   edx
10006037:	50                   	push   eax
10006038:	ff 74 24 5c          	push   DWORD PTR [esp+0x5c]
1000603c:	e8 fb 2f 00 00       	call   1000903c <_fstat_r>
10006041:	83 c4 10             	add    esp,0x10
10006044:	85 c0                	test   eax,eax
10006046:	78 30                	js     10006078 <__swhatbuf_r+0x58>
10006048:	8b 44 24 08          	mov    eax,DWORD PTR [esp+0x8]
1000604c:	25 00 f0 00 00       	and    eax,0xf000
10006051:	3d 00 20 00 00       	cmp    eax,0x2000
10006056:	0f 94 c0             	sete   al
10006059:	0f b6 c0             	movzx  eax,al
1000605c:	8b 4c 24 5c          	mov    ecx,DWORD PTR [esp+0x5c]
10006060:	89 01                	mov    DWORD PTR [ecx],eax
10006062:	8b 44 24 58          	mov    eax,DWORD PTR [esp+0x58]
10006066:	c7 00 00 04 00 00    	mov    DWORD PTR [eax],0x400
1000606c:	b8 00 08 00 00       	mov    eax,0x800
10006071:	83 c4 48             	add    esp,0x48
10006074:	5b                   	pop    ebx
10006075:	c3                   	ret    
10006076:	66 90                	xchg   ax,ax
10006078:	8b 44 24 5c          	mov    eax,DWORD PTR [esp+0x5c]
1000607c:	c7 00 00 00 00 00    	mov    DWORD PTR [eax],0x0
10006082:	f6 43 0c 80          	test   BYTE PTR [ebx+0xc],0x80
10006086:	74 14                	je     1000609c <__swhatbuf_r+0x7c>
10006088:	8b 44 24 58          	mov    eax,DWORD PTR [esp+0x58]
1000608c:	c7 00 40 00 00 00    	mov    DWORD PTR [eax],0x40
10006092:	31 c0                	xor    eax,eax
10006094:	83 c4 48             	add    esp,0x48
10006097:	5b                   	pop    ebx
10006098:	c3                   	ret    
10006099:	8d 76 00             	lea    esi,[esi+0x0]
1000609c:	8b 44 24 58          	mov    eax,DWORD PTR [esp+0x58]
100060a0:	c7 00 00 04 00 00    	mov    DWORD PTR [eax],0x400
100060a6:	31 c0                	xor    eax,eax
100060a8:	83 c4 48             	add    esp,0x48
100060ab:	5b                   	pop    ebx
100060ac:	c3                   	ret    
100060ad:	8d 76 00             	lea    esi,[esi+0x0]

100060b0 <__smakebuf_r>:
100060b0:	57                   	push   edi
100060b1:	56                   	push   esi
100060b2:	53                   	push   ebx
100060b3:	83 ec 10             	sub    esp,0x10
100060b6:	8b 7c 24 20          	mov    edi,DWORD PTR [esp+0x20]
100060ba:	8b 5c 24 24          	mov    ebx,DWORD PTR [esp+0x24]
100060be:	f6 43 0c 02          	test   BYTE PTR [ebx+0xc],0x2
100060c2:	74 18                	je     100060dc <__smakebuf_r+0x2c>
100060c4:	8d 43 43             	lea    eax,[ebx+0x43]
100060c7:	89 03                	mov    DWORD PTR [ebx],eax
100060c9:	89 43 10             	mov    DWORD PTR [ebx+0x10],eax
100060cc:	c7 43 14 01 00 00 00 	mov    DWORD PTR [ebx+0x14],0x1
100060d3:	83 c4 10             	add    esp,0x10
100060d6:	5b                   	pop    ebx
100060d7:	5e                   	pop    esi
100060d8:	5f                   	pop    edi
100060d9:	c3                   	ret    
100060da:	66 90                	xchg   ax,ax
100060dc:	8d 44 24 0c          	lea    eax,[esp+0xc]
100060e0:	50                   	push   eax
100060e1:	8d 44 24 0c          	lea    eax,[esp+0xc]
100060e5:	50                   	push   eax
100060e6:	53                   	push   ebx
100060e7:	57                   	push   edi
100060e8:	e8 33 ff ff ff       	call   10006020 <__swhatbuf_r>
100060ed:	89 c6                	mov    esi,eax
100060ef:	5a                   	pop    edx
100060f0:	59                   	pop    ecx
100060f1:	ff 74 24 10          	push   DWORD PTR [esp+0x10]
100060f5:	57                   	push   edi
100060f6:	e8 c9 a2 ff ff       	call   100003c4 <_malloc_r>
100060fb:	83 c4 10             	add    esp,0x10
100060fe:	85 c0                	test   eax,eax
10006100:	74 32                	je     10006134 <__smakebuf_r+0x84>
10006102:	c7 47 3c 34 54 00 10 	mov    DWORD PTR [edi+0x3c],0x10005434
10006109:	8b 53 0c             	mov    edx,DWORD PTR [ebx+0xc]
1000610c:	80 ca 80             	or     dl,0x80
1000610f:	66 89 53 0c          	mov    WORD PTR [ebx+0xc],dx
10006113:	89 03                	mov    DWORD PTR [ebx],eax
10006115:	89 43 10             	mov    DWORD PTR [ebx+0x10],eax
10006118:	8b 44 24 08          	mov    eax,DWORD PTR [esp+0x8]
1000611c:	89 43 14             	mov    DWORD PTR [ebx+0x14],eax
1000611f:	8b 44 24 0c          	mov    eax,DWORD PTR [esp+0xc]
10006123:	85 c0                	test   eax,eax
10006125:	75 25                	jne    1000614c <__smakebuf_r+0x9c>
10006127:	09 f2                	or     edx,esi
10006129:	66 89 53 0c          	mov    WORD PTR [ebx+0xc],dx
1000612d:	83 c4 10             	add    esp,0x10
10006130:	5b                   	pop    ebx
10006131:	5e                   	pop    esi
10006132:	5f                   	pop    edi
10006133:	c3                   	ret    
10006134:	8b 43 0c             	mov    eax,DWORD PTR [ebx+0xc]
10006137:	f6 c4 02             	test   ah,0x2
1000613a:	75 97                	jne    100060d3 <__smakebuf_r+0x23>
1000613c:	83 e0 fc             	and    eax,0xfffffffc
1000613f:	83 c8 02             	or     eax,0x2
10006142:	66 89 43 0c          	mov    WORD PTR [ebx+0xc],ax
10006146:	e9 79 ff ff ff       	jmp    100060c4 <__smakebuf_r+0x14>
1000614b:	90                   	nop
1000614c:	83 ec 08             	sub    esp,0x8
1000614f:	0f bf 43 0e          	movsx  eax,WORD PTR [ebx+0xe]
10006153:	50                   	push   eax
10006154:	57                   	push   edi
10006155:	e8 1e 2f 00 00       	call   10009078 <_isatty_r>
1000615a:	83 c4 10             	add    esp,0x10
1000615d:	8b 53 0c             	mov    edx,DWORD PTR [ebx+0xc]
10006160:	85 c0                	test   eax,eax
10006162:	74 c3                	je     10006127 <__smakebuf_r+0x77>
10006164:	83 e2 fc             	and    edx,0xfffffffc
10006167:	83 ca 01             	or     edx,0x1
1000616a:	eb bb                	jmp    10006127 <__smakebuf_r+0x77>
1000616c:	66 90                	xchg   ax,ax
1000616e:	66 90                	xchg   ax,ax

10006170 <memchr>:
10006170:	55                   	push   ebp
10006171:	89 e5                	mov    ebp,esp
10006173:	57                   	push   edi
10006174:	0f b6 45 0c          	movzx  eax,BYTE PTR [ebp+0xc]
10006178:	8b 4d 10             	mov    ecx,DWORD PTR [ebp+0x10]
1000617b:	8b 7d 08             	mov    edi,DWORD PTR [ebp+0x8]
1000617e:	31 d2                	xor    edx,edx
10006180:	85 c9                	test   ecx,ecx
10006182:	74 79                	je     100061fd <L20>
10006184:	f7 c7 03 00 00 00    	test   edi,0x3
1000618a:	74 28                	je     100061b4 <L5>
1000618c:	3a 07                	cmp    al,BYTE PTR [edi]
1000618e:	74 6a                	je     100061fa <L15>
10006190:	47                   	inc    edi
10006191:	49                   	dec    ecx
10006192:	74 69                	je     100061fd <L20>
10006194:	f7 c7 03 00 00 00    	test   edi,0x3
1000619a:	74 18                	je     100061b4 <L5>
1000619c:	3a 07                	cmp    al,BYTE PTR [edi]
1000619e:	74 5a                	je     100061fa <L15>
100061a0:	47                   	inc    edi
100061a1:	49                   	dec    ecx
100061a2:	74 59                	je     100061fd <L20>
100061a4:	f7 c7 03 00 00 00    	test   edi,0x3
100061aa:	74 08                	je     100061b4 <L5>
100061ac:	3a 07                	cmp    al,BYTE PTR [edi]
100061ae:	74 4a                	je     100061fa <L15>
100061b0:	47                   	inc    edi
100061b1:	49                   	dec    ecx
100061b2:	74 49                	je     100061fd <L20>

100061b4 <L5>:
100061b4:	88 c4                	mov    ah,al
100061b6:	89 c2                	mov    edx,eax
100061b8:	c1 e2 10             	shl    edx,0x10
100061bb:	09 d0                	or     eax,edx
100061bd:	53                   	push   ebx
100061be:	66 90                	xchg   ax,ax

100061c0 <L8>:
100061c0:	83 e9 04             	sub    ecx,0x4
100061c3:	72 1c                	jb     100061e1 <L9>
100061c5:	8b 17                	mov    edx,DWORD PTR [edi]
100061c7:	83 c7 04             	add    edi,0x4
100061ca:	31 c2                	xor    edx,eax
100061cc:	8d 9a ff fe fe fe    	lea    ebx,[edx-0x1010101]
100061d2:	f7 d2                	not    edx
100061d4:	21 d3                	and    ebx,edx
100061d6:	f7 c3 80 80 80 80    	test   ebx,0x80808080
100061dc:	74 e2                	je     100061c0 <L8>
100061de:	83 ef 04             	sub    edi,0x4

100061e1 <L9>:
100061e1:	5b                   	pop    ebx
100061e2:	31 d2                	xor    edx,edx
100061e4:	83 c1 04             	add    ecx,0x4
100061e7:	74 14                	je     100061fd <L20>
100061e9:	8d b4 26 00 00 00 00 	lea    esi,[esi+eiz*1+0x0]

100061f0 <L10>:
100061f0:	3a 07                	cmp    al,BYTE PTR [edi]
100061f2:	74 06                	je     100061fa <L15>
100061f4:	47                   	inc    edi
100061f5:	49                   	dec    ecx
100061f6:	75 f8                	jne    100061f0 <L10>
100061f8:	31 ff                	xor    edi,edi

100061fa <L15>:
100061fa:	4a                   	dec    edx
100061fb:	21 fa                	and    edx,edi

100061fd <L20>:
100061fd:	89 d0                	mov    eax,edx
100061ff:	8d 65 fc             	lea    esp,[ebp-0x4]
10006202:	5f                   	pop    edi
10006203:	c9                   	leave  
10006204:	c3                   	ret    
10006205:	66 90                	xchg   ax,ax
10006207:	90                   	nop

10006208 <memcpy>:
10006208:	55                   	push   ebp
10006209:	89 e5                	mov    ebp,esp
1000620b:	56                   	push   esi
1000620c:	57                   	push   edi
1000620d:	53                   	push   ebx
1000620e:	8b 7d 08             	mov    edi,DWORD PTR [ebp+0x8]
10006211:	8b 4d 10             	mov    ecx,DWORD PTR [ebp+0x10]
10006214:	8b 75 0c             	mov    esi,DWORD PTR [ebp+0xc]
10006217:	fc                   	cld    
10006218:	83 f9 08             	cmp    ecx,0x8
1000621b:	76 26                	jbe    10006243 <memcpy+0x3b>
1000621d:	89 fa                	mov    edx,edi
1000621f:	89 cb                	mov    ebx,ecx
10006221:	83 e2 03             	and    edx,0x3
10006224:	74 10                	je     10006236 <memcpy+0x2e>
10006226:	b9 04 00 00 00       	mov    ecx,0x4
1000622b:	29 d1                	sub    ecx,edx
1000622d:	83 e1 03             	and    ecx,0x3
10006230:	29 cb                	sub    ebx,ecx
10006232:	f3 a4                	rep movs BYTE PTR es:[edi],BYTE PTR ds:[esi]
10006234:	89 d9                	mov    ecx,ebx
10006236:	c1 e9 02             	shr    ecx,0x2
10006239:	8d 76 00             	lea    esi,[esi+0x0]
1000623c:	f3 a5                	rep movs DWORD PTR es:[edi],DWORD PTR ds:[esi]
1000623e:	89 d9                	mov    ecx,ebx
10006240:	83 e1 03             	and    ecx,0x3
10006243:	f3 a4                	rep movs BYTE PTR es:[edi],BYTE PTR ds:[esi]
10006245:	8b 45 08             	mov    eax,DWORD PTR [ebp+0x8]
10006248:	8d 65 f4             	lea    esp,[ebp-0xc]
1000624b:	5b                   	pop    ebx
1000624c:	5f                   	pop    edi
1000624d:	5e                   	pop    esi
1000624e:	c9                   	leave  
1000624f:	c3                   	ret    

10006250 <memmove>:
10006250:	55                   	push   ebp
10006251:	89 e5                	mov    ebp,esp
10006253:	56                   	push   esi
10006254:	57                   	push   edi
10006255:	53                   	push   ebx
10006256:	8b 7d 08             	mov    edi,DWORD PTR [ebp+0x8]
10006259:	8b 4d 10             	mov    ecx,DWORD PTR [ebp+0x10]
1000625c:	8b 75 0c             	mov    esi,DWORD PTR [ebp+0xc]
1000625f:	fc                   	cld    
10006260:	39 fe                	cmp    esi,edi
10006262:	73 43                	jae    100062a7 <memmove+0x57>
10006264:	8d 5c 31 ff          	lea    ebx,[ecx+esi*1-0x1]
10006268:	39 df                	cmp    edi,ebx
1000626a:	77 3b                	ja     100062a7 <memmove+0x57>
1000626c:	01 ce                	add    esi,ecx
1000626e:	01 cf                	add    edi,ecx
10006270:	fd                   	std    
10006271:	83 f9 08             	cmp    ecx,0x8
10006274:	76 2b                	jbe    100062a1 <memmove+0x51>
10006276:	89 fa                	mov    edx,edi
10006278:	89 cb                	mov    ebx,ecx
1000627a:	83 e2 03             	and    edx,0x3
1000627d:	74 0c                	je     1000628b <memmove+0x3b>
1000627f:	89 d1                	mov    ecx,edx
10006281:	4e                   	dec    esi
10006282:	4f                   	dec    edi
10006283:	29 cb                	sub    ebx,ecx
10006285:	f3 a4                	rep movs BYTE PTR es:[edi],BYTE PTR ds:[esi]
10006287:	89 d9                	mov    ecx,ebx
10006289:	46                   	inc    esi
1000628a:	47                   	inc    edi
1000628b:	c1 e9 02             	shr    ecx,0x2
1000628e:	83 ee 04             	sub    esi,0x4
10006291:	83 ef 04             	sub    edi,0x4
10006294:	f3 a5                	rep movs DWORD PTR es:[edi],DWORD PTR ds:[esi]
10006296:	83 c6 04             	add    esi,0x4
10006299:	83 c7 04             	add    edi,0x4
1000629c:	89 d9                	mov    ecx,ebx
1000629e:	83 e1 03             	and    ecx,0x3
100062a1:	4e                   	dec    esi
100062a2:	4f                   	dec    edi
100062a3:	f3 a4                	rep movs BYTE PTR es:[edi],BYTE PTR ds:[esi]
100062a5:	eb 2a                	jmp    100062d1 <memmove+0x81>
100062a7:	83 f9 08             	cmp    ecx,0x8
100062aa:	76 23                	jbe    100062cf <memmove+0x7f>
100062ac:	89 fa                	mov    edx,edi
100062ae:	89 cb                	mov    ebx,ecx
100062b0:	83 e2 03             	and    edx,0x3
100062b3:	74 10                	je     100062c5 <memmove+0x75>
100062b5:	b9 04 00 00 00       	mov    ecx,0x4
100062ba:	29 d1                	sub    ecx,edx
100062bc:	83 e1 03             	and    ecx,0x3
100062bf:	29 cb                	sub    ebx,ecx
100062c1:	f3 a4                	rep movs BYTE PTR es:[edi],BYTE PTR ds:[esi]
100062c3:	89 d9                	mov    ecx,ebx
100062c5:	c1 e9 02             	shr    ecx,0x2
100062c8:	f3 a5                	rep movs DWORD PTR es:[edi],DWORD PTR ds:[esi]
100062ca:	89 d9                	mov    ecx,ebx
100062cc:	83 e1 03             	and    ecx,0x3
100062cf:	f3 a4                	rep movs BYTE PTR es:[edi],BYTE PTR ds:[esi]
100062d1:	8b 45 08             	mov    eax,DWORD PTR [ebp+0x8]
100062d4:	fc                   	cld    
100062d5:	8d 65 f4             	lea    esp,[ebp-0xc]
100062d8:	5b                   	pop    ebx
100062d9:	5f                   	pop    edi
100062da:	5e                   	pop    esi
100062db:	c9                   	leave  
100062dc:	c3                   	ret    
100062dd:	66 90                	xchg   ax,ax
100062df:	90                   	nop

100062e0 <_Balloc>:
100062e0:	57                   	push   edi
100062e1:	56                   	push   esi
100062e2:	53                   	push   ebx
100062e3:	8b 74 24 10          	mov    esi,DWORD PTR [esp+0x10]
100062e7:	8b 5c 24 14          	mov    ebx,DWORD PTR [esp+0x14]
100062eb:	8b 46 4c             	mov    eax,DWORD PTR [esi+0x4c]
100062ee:	85 c0                	test   eax,eax
100062f0:	74 22                	je     10006314 <_Balloc+0x34>
100062f2:	8d 14 98             	lea    edx,[eax+ebx*4]
100062f5:	8b 02                	mov    eax,DWORD PTR [edx]
100062f7:	85 c0                	test   eax,eax
100062f9:	74 35                	je     10006330 <_Balloc+0x50>
100062fb:	8b 08                	mov    ecx,DWORD PTR [eax]
100062fd:	89 0a                	mov    DWORD PTR [edx],ecx
100062ff:	c7 40 10 00 00 00 00 	mov    DWORD PTR [eax+0x10],0x0
10006306:	c7 40 0c 00 00 00 00 	mov    DWORD PTR [eax+0xc],0x0
1000630d:	5b                   	pop    ebx
1000630e:	5e                   	pop    esi
1000630f:	5f                   	pop    edi
10006310:	c3                   	ret    
10006311:	8d 76 00             	lea    esi,[esi+0x0]
10006314:	52                   	push   edx
10006315:	6a 21                	push   0x21
10006317:	6a 04                	push   0x4
10006319:	56                   	push   esi
1000631a:	e8 95 9f ff ff       	call   100002b4 <_calloc_r>
1000631f:	89 46 4c             	mov    DWORD PTR [esi+0x4c],eax
10006322:	83 c4 10             	add    esp,0x10
10006325:	85 c0                	test   eax,eax
10006327:	75 c9                	jne    100062f2 <_Balloc+0x12>
10006329:	31 c0                	xor    eax,eax
1000632b:	eb e0                	jmp    1000630d <_Balloc+0x2d>
1000632d:	8d 76 00             	lea    esi,[esi+0x0]
10006330:	bf 01 00 00 00       	mov    edi,0x1
10006335:	88 d9                	mov    cl,bl
10006337:	d3 e7                	shl    edi,cl
10006339:	50                   	push   eax
1000633a:	8d 04 bd 14 00 00 00 	lea    eax,[edi*4+0x14]
10006341:	50                   	push   eax
10006342:	6a 01                	push   0x1
10006344:	56                   	push   esi
10006345:	e8 6a 9f ff ff       	call   100002b4 <_calloc_r>
1000634a:	83 c4 10             	add    esp,0x10
1000634d:	85 c0                	test   eax,eax
1000634f:	74 d8                	je     10006329 <_Balloc+0x49>
10006351:	89 58 04             	mov    DWORD PTR [eax+0x4],ebx
10006354:	89 78 08             	mov    DWORD PTR [eax+0x8],edi
10006357:	eb a6                	jmp    100062ff <_Balloc+0x1f>
10006359:	8d 76 00             	lea    esi,[esi+0x0]

1000635c <_Bfree>:
1000635c:	8b 44 24 08          	mov    eax,DWORD PTR [esp+0x8]
10006360:	85 c0                	test   eax,eax
10006362:	74 13                	je     10006377 <_Bfree+0x1b>
10006364:	8b 48 04             	mov    ecx,DWORD PTR [eax+0x4]
10006367:	8b 54 24 04          	mov    edx,DWORD PTR [esp+0x4]
1000636b:	8b 52 4c             	mov    edx,DWORD PTR [edx+0x4c]
1000636e:	8d 14 8a             	lea    edx,[edx+ecx*4]
10006371:	8b 0a                	mov    ecx,DWORD PTR [edx]
10006373:	89 08                	mov    DWORD PTR [eax],ecx
10006375:	89 02                	mov    DWORD PTR [edx],eax
10006377:	c3                   	ret    

10006378 <__multadd>:
10006378:	55                   	push   ebp
10006379:	57                   	push   edi
1000637a:	56                   	push   esi
1000637b:	53                   	push   ebx
1000637c:	83 ec 1c             	sub    esp,0x1c
1000637f:	8b 5c 24 34          	mov    ebx,DWORD PTR [esp+0x34]
10006383:	8b 6c 24 38          	mov    ebp,DWORD PTR [esp+0x38]
10006387:	8b 74 24 3c          	mov    esi,DWORD PTR [esp+0x3c]
1000638b:	8b 43 10             	mov    eax,DWORD PTR [ebx+0x10]
1000638e:	89 44 24 0c          	mov    DWORD PTR [esp+0xc],eax
10006392:	31 c9                	xor    ecx,ecx
10006394:	8b 44 8b 14          	mov    eax,DWORD PTR [ebx+ecx*4+0x14]
10006398:	0f b7 d0             	movzx  edx,ax
1000639b:	0f af d5             	imul   edx,ebp
1000639e:	01 f2                	add    edx,esi
100063a0:	c1 e8 10             	shr    eax,0x10
100063a3:	0f af c5             	imul   eax,ebp
100063a6:	89 d6                	mov    esi,edx
100063a8:	c1 ee 10             	shr    esi,0x10
100063ab:	01 f0                	add    eax,esi
100063ad:	89 c7                	mov    edi,eax
100063af:	c1 ef 10             	shr    edi,0x10
100063b2:	89 fe                	mov    esi,edi
100063b4:	c1 e0 10             	shl    eax,0x10
100063b7:	0f b7 d2             	movzx  edx,dx
100063ba:	01 d0                	add    eax,edx
100063bc:	89 44 8b 14          	mov    DWORD PTR [ebx+ecx*4+0x14],eax
100063c0:	41                   	inc    ecx
100063c1:	39 4c 24 0c          	cmp    DWORD PTR [esp+0xc],ecx
100063c5:	7f cd                	jg     10006394 <__multadd+0x1c>
100063c7:	85 ff                	test   edi,edi
100063c9:	74 15                	je     100063e0 <__multadd+0x68>
100063cb:	8b 44 24 0c          	mov    eax,DWORD PTR [esp+0xc]
100063cf:	39 43 08             	cmp    DWORD PTR [ebx+0x8],eax
100063d2:	7e 18                	jle    100063ec <__multadd+0x74>
100063d4:	8b 44 24 0c          	mov    eax,DWORD PTR [esp+0xc]
100063d8:	89 7c 83 14          	mov    DWORD PTR [ebx+eax*4+0x14],edi
100063dc:	40                   	inc    eax
100063dd:	89 43 10             	mov    DWORD PTR [ebx+0x10],eax
100063e0:	89 d8                	mov    eax,ebx
100063e2:	83 c4 1c             	add    esp,0x1c
100063e5:	5b                   	pop    ebx
100063e6:	5e                   	pop    esi
100063e7:	5f                   	pop    edi
100063e8:	5d                   	pop    ebp
100063e9:	c3                   	ret    
100063ea:	66 90                	xchg   ax,ax
100063ec:	83 ec 08             	sub    esp,0x8
100063ef:	8b 43 04             	mov    eax,DWORD PTR [ebx+0x4]
100063f2:	40                   	inc    eax
100063f3:	50                   	push   eax
100063f4:	ff 74 24 3c          	push   DWORD PTR [esp+0x3c]
100063f8:	e8 e3 fe ff ff       	call   100062e0 <_Balloc>
100063fd:	89 c6                	mov    esi,eax
100063ff:	83 c4 10             	add    esp,0x10
10006402:	85 c0                	test   eax,eax
10006404:	74 3f                	je     10006445 <__multadd+0xcd>
10006406:	50                   	push   eax
10006407:	8b 43 10             	mov    eax,DWORD PTR [ebx+0x10]
1000640a:	8d 04 85 08 00 00 00 	lea    eax,[eax*4+0x8]
10006411:	50                   	push   eax
10006412:	8d 43 0c             	lea    eax,[ebx+0xc]
10006415:	50                   	push   eax
10006416:	8d 46 0c             	lea    eax,[esi+0xc]
10006419:	50                   	push   eax
1000641a:	e8 e9 fd ff ff       	call   10006208 <memcpy>
1000641f:	8b 53 04             	mov    edx,DWORD PTR [ebx+0x4]
10006422:	8b 44 24 40          	mov    eax,DWORD PTR [esp+0x40]
10006426:	8b 40 4c             	mov    eax,DWORD PTR [eax+0x4c]
10006429:	8d 04 90             	lea    eax,[eax+edx*4]
1000642c:	8b 10                	mov    edx,DWORD PTR [eax]
1000642e:	89 13                	mov    DWORD PTR [ebx],edx
10006430:	89 18                	mov    DWORD PTR [eax],ebx
10006432:	83 c4 10             	add    esp,0x10
10006435:	89 f3                	mov    ebx,esi
10006437:	8b 44 24 0c          	mov    eax,DWORD PTR [esp+0xc]
1000643b:	89 7c 83 14          	mov    DWORD PTR [ebx+eax*4+0x14],edi
1000643f:	40                   	inc    eax
10006440:	89 43 10             	mov    DWORD PTR [ebx+0x10],eax
10006443:	eb 9b                	jmp    100063e0 <__multadd+0x68>
10006445:	68 c5 cb 00 10       	push   0x1000cbc5
1000644a:	6a 00                	push   0x0
1000644c:	68 b5 00 00 00       	push   0xb5
10006451:	68 40 cc 00 10       	push   0x1000cc40
10006456:	e8 b9 28 00 00       	call   10008d14 <__assert_func>
1000645b:	90                   	nop

1000645c <__s2b>:
1000645c:	55                   	push   ebp
1000645d:	57                   	push   edi
1000645e:	56                   	push   esi
1000645f:	53                   	push   ebx
10006460:	83 ec 1c             	sub    esp,0x1c
10006463:	8b 74 24 30          	mov    esi,DWORD PTR [esp+0x30]
10006467:	8b 6c 24 34          	mov    ebp,DWORD PTR [esp+0x34]
1000646b:	8b 5c 24 3c          	mov    ebx,DWORD PTR [esp+0x3c]
1000646f:	8d 4b 08             	lea    ecx,[ebx+0x8]
10006472:	b8 39 8e e3 38       	mov    eax,0x38e38e39
10006477:	f7 e9                	imul   ecx
10006479:	89 d0                	mov    eax,edx
1000647b:	d1 f8                	sar    eax,1
1000647d:	c1 f9 1f             	sar    ecx,0x1f
10006480:	29 c8                	sub    eax,ecx
10006482:	83 fb 09             	cmp    ebx,0x9
10006485:	0f 8e a9 00 00 00    	jle    10006534 <__s2b+0xd8>
1000648b:	89 c1                	mov    ecx,eax
1000648d:	b8 01 00 00 00       	mov    eax,0x1
10006492:	31 d2                	xor    edx,edx
10006494:	01 c0                	add    eax,eax
10006496:	42                   	inc    edx
10006497:	39 c1                	cmp    ecx,eax
10006499:	7f f9                	jg     10006494 <__s2b+0x38>
1000649b:	83 ec 08             	sub    esp,0x8
1000649e:	52                   	push   edx
1000649f:	56                   	push   esi
100064a0:	e8 3b fe ff ff       	call   100062e0 <_Balloc>
100064a5:	83 c4 10             	add    esp,0x10
100064a8:	85 c0                	test   eax,eax
100064aa:	0f 84 8b 00 00 00    	je     1000653b <__s2b+0xdf>
100064b0:	8b 54 24 40          	mov    edx,DWORD PTR [esp+0x40]
100064b4:	89 50 14             	mov    DWORD PTR [eax+0x14],edx
100064b7:	c7 40 10 01 00 00 00 	mov    DWORD PTR [eax+0x10],0x1
100064be:	83 7c 24 38 09       	cmp    DWORD PTR [esp+0x38],0x9
100064c3:	7f 3b                	jg     10006500 <__s2b+0xa4>
100064c5:	83 c5 0a             	add    ebp,0xa
100064c8:	c7 44 24 38 09 00 00 00 	mov    DWORD PTR [esp+0x38],0x9
100064d0:	3b 5c 24 38          	cmp    ebx,DWORD PTR [esp+0x38]
100064d4:	7e 1f                	jle    100064f5 <__s2b+0x99>
100064d6:	2b 5c 24 38          	sub    ebx,DWORD PTR [esp+0x38]
100064da:	01 eb                	add    ebx,ebp
100064dc:	45                   	inc    ebp
100064dd:	0f be 55 ff          	movsx  edx,BYTE PTR [ebp-0x1]
100064e1:	83 ea 30             	sub    edx,0x30
100064e4:	52                   	push   edx
100064e5:	6a 0a                	push   0xa
100064e7:	50                   	push   eax
100064e8:	56                   	push   esi
100064e9:	e8 8a fe ff ff       	call   10006378 <__multadd>
100064ee:	83 c4 10             	add    esp,0x10
100064f1:	39 eb                	cmp    ebx,ebp
100064f3:	75 e7                	jne    100064dc <__s2b+0x80>
100064f5:	83 c4 1c             	add    esp,0x1c
100064f8:	5b                   	pop    ebx
100064f9:	5e                   	pop    esi
100064fa:	5f                   	pop    edi
100064fb:	5d                   	pop    ebp
100064fc:	c3                   	ret    
100064fd:	8d 76 00             	lea    esi,[esi+0x0]
10006500:	8d 7d 09             	lea    edi,[ebp+0x9]
10006503:	89 7c 24 0c          	mov    DWORD PTR [esp+0xc],edi
10006507:	03 6c 24 38          	add    ebp,DWORD PTR [esp+0x38]
1000650b:	90                   	nop
1000650c:	47                   	inc    edi
1000650d:	0f be 57 ff          	movsx  edx,BYTE PTR [edi-0x1]
10006511:	83 ea 30             	sub    edx,0x30
10006514:	52                   	push   edx
10006515:	6a 0a                	push   0xa
10006517:	50                   	push   eax
10006518:	56                   	push   esi
10006519:	e8 5a fe ff ff       	call   10006378 <__multadd>
1000651e:	83 c4 10             	add    esp,0x10
10006521:	39 fd                	cmp    ebp,edi
10006523:	75 e7                	jne    1000650c <__s2b+0xb0>
10006525:	8b 4c 24 0c          	mov    ecx,DWORD PTR [esp+0xc]
10006529:	8b 7c 24 38          	mov    edi,DWORD PTR [esp+0x38]
1000652d:	8d 6c 39 f8          	lea    ebp,[ecx+edi*1-0x8]
10006531:	eb 9d                	jmp    100064d0 <__s2b+0x74>
10006533:	90                   	nop
10006534:	31 d2                	xor    edx,edx
10006536:	e9 60 ff ff ff       	jmp    1000649b <__s2b+0x3f>
1000653b:	68 c5 cb 00 10       	push   0x1000cbc5
10006540:	6a 00                	push   0x0
10006542:	68 ce 00 00 00       	push   0xce
10006547:	68 40 cc 00 10       	push   0x1000cc40
1000654c:	e8 c3 27 00 00       	call   10008d14 <__assert_func>
10006551:	8d 76 00             	lea    esi,[esi+0x0]

10006554 <__hi0bits>:
10006554:	8b 54 24 04          	mov    edx,DWORD PTR [esp+0x4]
10006558:	f7 c2 00 00 ff ff    	test   edx,0xffff0000
1000655e:	75 40                	jne    100065a0 <__hi0bits+0x4c>
10006560:	c1 e2 10             	shl    edx,0x10
10006563:	b8 10 00 00 00       	mov    eax,0x10
10006568:	f7 c2 00 00 00 ff    	test   edx,0xff000000
1000656e:	75 06                	jne    10006576 <__hi0bits+0x22>
10006570:	83 c0 08             	add    eax,0x8
10006573:	c1 e2 08             	shl    edx,0x8
10006576:	f7 c2 00 00 00 f0    	test   edx,0xf0000000
1000657c:	75 06                	jne    10006584 <__hi0bits+0x30>
1000657e:	83 c0 04             	add    eax,0x4
10006581:	c1 e2 04             	shl    edx,0x4
10006584:	f7 c2 00 00 00 c0    	test   edx,0xc0000000
1000658a:	75 06                	jne    10006592 <__hi0bits+0x3e>
1000658c:	83 c0 02             	add    eax,0x2
1000658f:	c1 e2 02             	shl    edx,0x2
10006592:	85 d2                	test   edx,edx
10006594:	78 09                	js     1000659f <__hi0bits+0x4b>
10006596:	40                   	inc    eax
10006597:	81 e2 00 00 00 40    	and    edx,0x40000000
1000659d:	74 05                	je     100065a4 <__hi0bits+0x50>
1000659f:	c3                   	ret    
100065a0:	31 c0                	xor    eax,eax
100065a2:	eb c4                	jmp    10006568 <__hi0bits+0x14>
100065a4:	b8 20 00 00 00       	mov    eax,0x20
100065a9:	c3                   	ret    
100065aa:	66 90                	xchg   ax,ax

100065ac <__lo0bits>:
100065ac:	8b 4c 24 04          	mov    ecx,DWORD PTR [esp+0x4]
100065b0:	8b 11                	mov    edx,DWORD PTR [ecx]
100065b2:	f6 c2 07             	test   dl,0x7
100065b5:	74 15                	je     100065cc <__lo0bits+0x20>
100065b7:	f6 c2 01             	test   dl,0x1
100065ba:	75 50                	jne    1000660c <__lo0bits+0x60>
100065bc:	f6 c2 02             	test   dl,0x2
100065bf:	74 57                	je     10006618 <__lo0bits+0x6c>
100065c1:	d1 ea                	shr    edx,1
100065c3:	89 11                	mov    DWORD PTR [ecx],edx
100065c5:	b8 01 00 00 00       	mov    eax,0x1
100065ca:	c3                   	ret    
100065cb:	90                   	nop
100065cc:	66 85 d2             	test   dx,dx
100065cf:	75 37                	jne    10006608 <__lo0bits+0x5c>
100065d1:	c1 ea 10             	shr    edx,0x10
100065d4:	b8 10 00 00 00       	mov    eax,0x10
100065d9:	84 d2                	test   dl,dl
100065db:	75 06                	jne    100065e3 <__lo0bits+0x37>
100065dd:	83 c0 08             	add    eax,0x8
100065e0:	c1 ea 08             	shr    edx,0x8
100065e3:	f6 c2 0f             	test   dl,0xf
100065e6:	75 06                	jne    100065ee <__lo0bits+0x42>
100065e8:	83 c0 04             	add    eax,0x4
100065eb:	c1 ea 04             	shr    edx,0x4
100065ee:	f6 c2 03             	test   dl,0x3
100065f1:	75 06                	jne    100065f9 <__lo0bits+0x4d>
100065f3:	83 c0 02             	add    eax,0x2
100065f6:	c1 ea 02             	shr    edx,0x2
100065f9:	f6 c2 01             	test   dl,0x1
100065fc:	75 05                	jne    10006603 <__lo0bits+0x57>
100065fe:	40                   	inc    eax
100065ff:	d1 ea                	shr    edx,1
10006601:	74 0d                	je     10006610 <__lo0bits+0x64>
10006603:	89 11                	mov    DWORD PTR [ecx],edx
10006605:	c3                   	ret    
10006606:	66 90                	xchg   ax,ax
10006608:	31 c0                	xor    eax,eax
1000660a:	eb cd                	jmp    100065d9 <__lo0bits+0x2d>
1000660c:	31 c0                	xor    eax,eax
1000660e:	c3                   	ret    
1000660f:	90                   	nop
10006610:	b8 20 00 00 00       	mov    eax,0x20
10006615:	c3                   	ret    
10006616:	66 90                	xchg   ax,ax
10006618:	c1 ea 02             	shr    edx,0x2
1000661b:	89 11                	mov    DWORD PTR [ecx],edx
1000661d:	b8 02 00 00 00       	mov    eax,0x2
10006622:	c3                   	ret    
10006623:	90                   	nop

10006624 <__i2b>:
10006624:	83 ec 14             	sub    esp,0x14
10006627:	6a 01                	push   0x1
10006629:	ff 74 24 1c          	push   DWORD PTR [esp+0x1c]
1000662d:	e8 ae fc ff ff       	call   100062e0 <_Balloc>
10006632:	83 c4 10             	add    esp,0x10
10006635:	85 c0                	test   eax,eax
10006637:	74 12                	je     1000664b <__i2b+0x27>
10006639:	8b 54 24 14          	mov    edx,DWORD PTR [esp+0x14]
1000663d:	89 50 14             	mov    DWORD PTR [eax+0x14],edx
10006640:	c7 40 10 01 00 00 00 	mov    DWORD PTR [eax+0x10],0x1
10006647:	83 c4 0c             	add    esp,0xc
1000664a:	c3                   	ret    
1000664b:	68 c5 cb 00 10       	push   0x1000cbc5
10006650:	6a 00                	push   0x0
10006652:	68 40 01 00 00       	push   0x140
10006657:	68 40 cc 00 10       	push   0x1000cc40
1000665c:	e8 b3 26 00 00       	call   10008d14 <__assert_func>
10006661:	8d 76 00             	lea    esi,[esi+0x0]

10006664 <__multiply>:
10006664:	55                   	push   ebp
10006665:	57                   	push   edi
10006666:	56                   	push   esi
10006667:	53                   	push   ebx
10006668:	83 ec 3c             	sub    esp,0x3c
1000666b:	8b 6c 24 54          	mov    ebp,DWORD PTR [esp+0x54]
1000666f:	8b 74 24 58          	mov    esi,DWORD PTR [esp+0x58]
10006673:	8b 5d 10             	mov    ebx,DWORD PTR [ebp+0x10]
10006676:	8b 7e 10             	mov    edi,DWORD PTR [esi+0x10]
10006679:	39 fb                	cmp    ebx,edi
1000667b:	7c 0c                	jl     10006689 <__multiply+0x25>
1000667d:	89 f8                	mov    eax,edi
1000667f:	89 df                	mov    edi,ebx
10006681:	89 c3                	mov    ebx,eax
10006683:	89 f0                	mov    eax,esi
10006685:	89 ee                	mov    esi,ebp
10006687:	89 c5                	mov    ebp,eax
10006689:	8b 46 04             	mov    eax,DWORD PTR [esi+0x4]
1000668c:	8d 14 1f             	lea    edx,[edi+ebx*1]
1000668f:	89 54 24 1c          	mov    DWORD PTR [esp+0x1c],edx
10006693:	39 56 08             	cmp    DWORD PTR [esi+0x8],edx
10006696:	7d 01                	jge    10006699 <__multiply+0x35>
10006698:	40                   	inc    eax
10006699:	83 ec 08             	sub    esp,0x8
1000669c:	50                   	push   eax
1000669d:	ff 74 24 5c          	push   DWORD PTR [esp+0x5c]
100066a1:	e8 3a fc ff ff       	call   100062e0 <_Balloc>
100066a6:	89 44 24 34          	mov    DWORD PTR [esp+0x34],eax
100066aa:	83 c4 10             	add    esp,0x10
100066ad:	85 c0                	test   eax,eax
100066af:	0f 84 89 01 00 00    	je     1000683e <__multiply+0x1da>
100066b5:	8b 44 24 24          	mov    eax,DWORD PTR [esp+0x24]
100066b9:	83 c0 14             	add    eax,0x14
100066bc:	89 44 24 28          	mov    DWORD PTR [esp+0x28],eax
100066c0:	8b 54 24 1c          	mov    edx,DWORD PTR [esp+0x1c]
100066c4:	8d 0c 90             	lea    ecx,[eax+edx*4]
100066c7:	89 4c 24 2c          	mov    DWORD PTR [esp+0x2c],ecx
100066cb:	39 c8                	cmp    eax,ecx
100066cd:	73 12                	jae    100066e1 <__multiply+0x7d>
100066cf:	8b 54 24 2c          	mov    edx,DWORD PTR [esp+0x2c]
100066d3:	90                   	nop
100066d4:	c7 00 00 00 00 00    	mov    DWORD PTR [eax],0x0
100066da:	83 c0 04             	add    eax,0x4
100066dd:	39 c2                	cmp    edx,eax
100066df:	77 f3                	ja     100066d4 <__multiply+0x70>
100066e1:	8d 46 14             	lea    eax,[esi+0x14]
100066e4:	89 44 24 20          	mov    DWORD PTR [esp+0x20],eax
100066e8:	8d 04 b8             	lea    eax,[eax+edi*4]
100066eb:	89 44 24 0c          	mov    DWORD PTR [esp+0xc],eax
100066ef:	8d 45 14             	lea    eax,[ebp+0x14]
100066f2:	89 44 24 10          	mov    DWORD PTR [esp+0x10],eax
100066f6:	8d 3c 98             	lea    edi,[eax+ebx*4]
100066f9:	89 7c 24 18          	mov    DWORD PTR [esp+0x18],edi
100066fd:	8b 5c 24 28          	mov    ebx,DWORD PTR [esp+0x28]
10006701:	89 5c 24 14          	mov    DWORD PTR [esp+0x14],ebx
10006705:	39 f8                	cmp    eax,edi
10006707:	72 28                	jb     10006731 <__multiply+0xcd>
10006709:	e9 ee 00 00 00       	jmp    100067fc <__multiply+0x198>
1000670e:	66 90                	xchg   ax,ax
10006710:	c1 ef 10             	shr    edi,0x10
10006713:	0f 85 8b 00 00 00    	jne    100067a4 <__multiply+0x140>
10006719:	83 44 24 10 04       	add    DWORD PTR [esp+0x10],0x4
1000671e:	8b 44 24 10          	mov    eax,DWORD PTR [esp+0x10]
10006722:	83 44 24 14 04       	add    DWORD PTR [esp+0x14],0x4
10006727:	39 44 24 18          	cmp    DWORD PTR [esp+0x18],eax
1000672b:	0f 86 cb 00 00 00    	jbe    100067fc <__multiply+0x198>
10006731:	8b 44 24 10          	mov    eax,DWORD PTR [esp+0x10]
10006735:	8b 38                	mov    edi,DWORD PTR [eax]
10006737:	89 f8                	mov    eax,edi
10006739:	25 ff ff 00 00       	and    eax,0xffff
1000673e:	89 44 24 08          	mov    DWORD PTR [esp+0x8],eax
10006742:	74 cc                	je     10006710 <__multiply+0xac>
10006744:	8b 5c 24 14          	mov    ebx,DWORD PTR [esp+0x14]
10006748:	8b 74 24 20          	mov    esi,DWORD PTR [esp+0x20]
1000674c:	31 ff                	xor    edi,edi
1000674e:	66 90                	xchg   ax,ax
10006750:	8b 06                	mov    eax,DWORD PTR [esi]
10006752:	8b 0b                	mov    ecx,DWORD PTR [ebx]
10006754:	0f b7 d0             	movzx  edx,ax
10006757:	0f af 54 24 08       	imul   edx,DWORD PTR [esp+0x8]
1000675c:	0f b7 e9             	movzx  ebp,cx
1000675f:	01 ea                	add    edx,ebp
10006761:	01 fa                	add    edx,edi
10006763:	83 c6 04             	add    esi,0x4
10006766:	c1 e8 10             	shr    eax,0x10
10006769:	0f af 44 24 08       	imul   eax,DWORD PTR [esp+0x8]
1000676e:	c1 e9 10             	shr    ecx,0x10
10006771:	01 c1                	add    ecx,eax
10006773:	89 d0                	mov    eax,edx
10006775:	c1 e8 10             	shr    eax,0x10
10006778:	01 c1                	add    ecx,eax
1000677a:	89 cf                	mov    edi,ecx
1000677c:	c1 ef 10             	shr    edi,0x10
1000677f:	83 c3 04             	add    ebx,0x4
10006782:	c1 e1 10             	shl    ecx,0x10
10006785:	0f b7 d2             	movzx  edx,dx
10006788:	09 d1                	or     ecx,edx
1000678a:	89 4b fc             	mov    DWORD PTR [ebx-0x4],ecx
1000678d:	39 74 24 0c          	cmp    DWORD PTR [esp+0xc],esi
10006791:	77 bd                	ja     10006750 <__multiply+0xec>
10006793:	89 3b                	mov    DWORD PTR [ebx],edi
10006795:	8b 44 24 10          	mov    eax,DWORD PTR [esp+0x10]
10006799:	8b 38                	mov    edi,DWORD PTR [eax]
1000679b:	c1 ef 10             	shr    edi,0x10
1000679e:	0f 84 75 ff ff ff    	je     10006719 <__multiply+0xb5>
100067a4:	8b 6c 24 14          	mov    ebp,DWORD PTR [esp+0x14]
100067a8:	8b 55 00             	mov    edx,DWORD PTR [ebp+0x0]
100067ab:	89 d6                	mov    esi,edx
100067ad:	8b 5c 24 20          	mov    ebx,DWORD PTR [esp+0x20]
100067b1:	31 c0                	xor    eax,eax
100067b3:	90                   	nop
100067b4:	0f b7 0b             	movzx  ecx,WORD PTR [ebx]
100067b7:	0f af cf             	imul   ecx,edi
100067ba:	c1 ee 10             	shr    esi,0x10
100067bd:	01 ce                	add    esi,ecx
100067bf:	01 f0                	add    eax,esi
100067c1:	83 c5 04             	add    ebp,0x4
100067c4:	89 c1                	mov    ecx,eax
100067c6:	c1 e1 10             	shl    ecx,0x10
100067c9:	0f b7 d2             	movzx  edx,dx
100067cc:	09 ca                	or     edx,ecx
100067ce:	89 55 fc             	mov    DWORD PTR [ebp-0x4],edx
100067d1:	83 c3 04             	add    ebx,0x4
100067d4:	8b 75 00             	mov    esi,DWORD PTR [ebp+0x0]
100067d7:	0f b7 4b fe          	movzx  ecx,WORD PTR [ebx-0x2]
100067db:	0f af cf             	imul   ecx,edi
100067de:	0f b7 d6             	movzx  edx,si
100067e1:	01 ca                	add    edx,ecx
100067e3:	c1 e8 10             	shr    eax,0x10
100067e6:	01 c2                	add    edx,eax
100067e8:	89 d0                	mov    eax,edx
100067ea:	c1 e8 10             	shr    eax,0x10
100067ed:	39 5c 24 0c          	cmp    DWORD PTR [esp+0xc],ebx
100067f1:	77 c1                	ja     100067b4 <__multiply+0x150>
100067f3:	89 55 00             	mov    DWORD PTR [ebp+0x0],edx
100067f6:	e9 1e ff ff ff       	jmp    10006719 <__multiply+0xb5>
100067fb:	90                   	nop
100067fc:	8b 74 24 1c          	mov    esi,DWORD PTR [esp+0x1c]
10006800:	85 f6                	test   esi,esi
10006802:	7e 27                	jle    1000682b <__multiply+0x1c7>
10006804:	8b 44 24 2c          	mov    eax,DWORD PTR [esp+0x2c]
10006808:	8b 58 fc             	mov    ebx,DWORD PTR [eax-0x4]
1000680b:	85 db                	test   ebx,ebx
1000680d:	75 1c                	jne    1000682b <__multiply+0x1c7>
1000680f:	8b 54 24 28          	mov    edx,DWORD PTR [esp+0x28]
10006813:	8b 44 24 1c          	mov    eax,DWORD PTR [esp+0x1c]
10006817:	eb 0b                	jmp    10006824 <__multiply+0x1c0>
10006819:	8d 76 00             	lea    esi,[esi+0x0]
1000681c:	8b 4c 82 fc          	mov    ecx,DWORD PTR [edx+eax*4-0x4]
10006820:	85 c9                	test   ecx,ecx
10006822:	75 03                	jne    10006827 <__multiply+0x1c3>
10006824:	48                   	dec    eax
10006825:	75 f5                	jne    1000681c <__multiply+0x1b8>
10006827:	89 44 24 1c          	mov    DWORD PTR [esp+0x1c],eax
1000682b:	8b 44 24 24          	mov    eax,DWORD PTR [esp+0x24]
1000682f:	8b 7c 24 1c          	mov    edi,DWORD PTR [esp+0x1c]
10006833:	89 78 10             	mov    DWORD PTR [eax+0x10],edi
10006836:	83 c4 3c             	add    esp,0x3c
10006839:	5b                   	pop    ebx
1000683a:	5e                   	pop    esi
1000683b:	5f                   	pop    edi
1000683c:	5d                   	pop    ebp
1000683d:	c3                   	ret    
1000683e:	68 c5 cb 00 10       	push   0x1000cbc5
10006843:	6a 00                	push   0x0
10006845:	68 5d 01 00 00       	push   0x15d
1000684a:	68 40 cc 00 10       	push   0x1000cc40
1000684f:	e8 c0 24 00 00       	call   10008d14 <__assert_func>

10006854 <__pow5mult>:
10006854:	55                   	push   ebp
10006855:	57                   	push   edi
10006856:	56                   	push   esi
10006857:	53                   	push   ebx
10006858:	83 ec 0c             	sub    esp,0xc
1000685b:	8b 7c 24 20          	mov    edi,DWORD PTR [esp+0x20]
1000685f:	8b 74 24 24          	mov    esi,DWORD PTR [esp+0x24]
10006863:	8b 5c 24 28          	mov    ebx,DWORD PTR [esp+0x28]
10006867:	89 d8                	mov    eax,ebx
10006869:	83 e0 03             	and    eax,0x3
1000686c:	75 7a                	jne    100068e8 <__pow5mult+0x94>
1000686e:	c1 fb 02             	sar    ebx,0x2
10006871:	74 48                	je     100068bb <__pow5mult+0x67>
10006873:	8b 6f 48             	mov    ebp,DWORD PTR [edi+0x48]
10006876:	85 ed                	test   ebp,ebp
10006878:	0f 84 86 00 00 00    	je     10006904 <__pow5mult+0xb0>
1000687e:	f6 c3 01             	test   bl,0x1
10006881:	75 13                	jne    10006896 <__pow5mult+0x42>
10006883:	90                   	nop
10006884:	d1 fb                	sar    ebx,1
10006886:	74 33                	je     100068bb <__pow5mult+0x67>
10006888:	8b 45 00             	mov    eax,DWORD PTR [ebp+0x0]
1000688b:	85 c0                	test   eax,eax
1000688d:	74 39                	je     100068c8 <__pow5mult+0x74>
1000688f:	89 c5                	mov    ebp,eax
10006891:	f6 c3 01             	test   bl,0x1
10006894:	74 ee                	je     10006884 <__pow5mult+0x30>
10006896:	52                   	push   edx
10006897:	55                   	push   ebp
10006898:	56                   	push   esi
10006899:	57                   	push   edi
1000689a:	e8 c5 fd ff ff       	call   10006664 <__multiply>
1000689f:	83 c4 10             	add    esp,0x10
100068a2:	85 f6                	test   esi,esi
100068a4:	74 3e                	je     100068e4 <__pow5mult+0x90>
100068a6:	8b 4e 04             	mov    ecx,DWORD PTR [esi+0x4]
100068a9:	8b 57 4c             	mov    edx,DWORD PTR [edi+0x4c]
100068ac:	8d 14 8a             	lea    edx,[edx+ecx*4]
100068af:	8b 0a                	mov    ecx,DWORD PTR [edx]
100068b1:	89 0e                	mov    DWORD PTR [esi],ecx
100068b3:	89 32                	mov    DWORD PTR [edx],esi
100068b5:	89 c6                	mov    esi,eax
100068b7:	d1 fb                	sar    ebx,1
100068b9:	75 cd                	jne    10006888 <__pow5mult+0x34>
100068bb:	89 f0                	mov    eax,esi
100068bd:	83 c4 0c             	add    esp,0xc
100068c0:	5b                   	pop    ebx
100068c1:	5e                   	pop    esi
100068c2:	5f                   	pop    edi
100068c3:	5d                   	pop    ebp
100068c4:	c3                   	ret    
100068c5:	8d 76 00             	lea    esi,[esi+0x0]
100068c8:	50                   	push   eax
100068c9:	55                   	push   ebp
100068ca:	55                   	push   ebp
100068cb:	57                   	push   edi
100068cc:	e8 93 fd ff ff       	call   10006664 <__multiply>
100068d1:	89 45 00             	mov    DWORD PTR [ebp+0x0],eax
100068d4:	c7 00 00 00 00 00    	mov    DWORD PTR [eax],0x0
100068da:	83 c4 10             	add    esp,0x10
100068dd:	89 c5                	mov    ebp,eax
100068df:	eb b0                	jmp    10006891 <__pow5mult+0x3d>
100068e1:	8d 76 00             	lea    esi,[esi+0x0]
100068e4:	89 c6                	mov    esi,eax
100068e6:	eb 9c                	jmp    10006884 <__pow5mult+0x30>
100068e8:	6a 00                	push   0x0
100068ea:	ff 34 85 7c cc 00 10 	push   DWORD PTR [eax*4+0x1000cc7c]
100068f1:	56                   	push   esi
100068f2:	57                   	push   edi
100068f3:	e8 80 fa ff ff       	call   10006378 <__multadd>
100068f8:	89 c6                	mov    esi,eax
100068fa:	83 c4 10             	add    esp,0x10
100068fd:	e9 6c ff ff ff       	jmp    1000686e <__pow5mult+0x1a>
10006902:	66 90                	xchg   ax,ax
10006904:	83 ec 08             	sub    esp,0x8
10006907:	68 71 02 00 00       	push   0x271
1000690c:	57                   	push   edi
1000690d:	e8 12 fd ff ff       	call   10006624 <__i2b>
10006912:	89 c5                	mov    ebp,eax
10006914:	89 47 48             	mov    DWORD PTR [edi+0x48],eax
10006917:	c7 00 00 00 00 00    	mov    DWORD PTR [eax],0x0
1000691d:	83 c4 10             	add    esp,0x10
10006920:	e9 59 ff ff ff       	jmp    1000687e <__pow5mult+0x2a>
10006925:	8d 76 00             	lea    esi,[esi+0x0]

10006928 <__lshift>:
10006928:	55                   	push   ebp
10006929:	57                   	push   edi
1000692a:	56                   	push   esi
1000692b:	53                   	push   ebx
1000692c:	83 ec 1c             	sub    esp,0x1c
1000692f:	8b 5c 24 34          	mov    ebx,DWORD PTR [esp+0x34]
10006933:	8b 74 24 38          	mov    esi,DWORD PTR [esp+0x38]
10006937:	c1 fe 05             	sar    esi,0x5
1000693a:	8b 53 04             	mov    edx,DWORD PTR [ebx+0x4]
1000693d:	8b 43 10             	mov    eax,DWORD PTR [ebx+0x10]
10006940:	01 f0                	add    eax,esi
10006942:	89 44 24 0c          	mov    DWORD PTR [esp+0xc],eax
10006946:	8d 68 01             	lea    ebp,[eax+0x1]
10006949:	8b 43 08             	mov    eax,DWORD PTR [ebx+0x8]
1000694c:	39 c5                	cmp    ebp,eax
1000694e:	7e 07                	jle    10006957 <__lshift+0x2f>
10006950:	42                   	inc    edx
10006951:	01 c0                	add    eax,eax
10006953:	39 c5                	cmp    ebp,eax
10006955:	7f f9                	jg     10006950 <__lshift+0x28>
10006957:	83 ec 08             	sub    esp,0x8
1000695a:	52                   	push   edx
1000695b:	ff 74 24 3c          	push   DWORD PTR [esp+0x3c]
1000695f:	e8 7c f9 ff ff       	call   100062e0 <_Balloc>
10006964:	89 44 24 18          	mov    DWORD PTR [esp+0x18],eax
10006968:	83 c4 10             	add    esp,0x10
1000696b:	85 c0                	test   eax,eax
1000696d:	0f 84 b5 00 00 00    	je     10006a28 <__lshift+0x100>
10006973:	8b 44 24 08          	mov    eax,DWORD PTR [esp+0x8]
10006977:	8d 78 14             	lea    edi,[eax+0x14]
1000697a:	85 f6                	test   esi,esi
1000697c:	7e 20                	jle    1000699e <__lshift+0x76>
1000697e:	8d 0c b5 14 00 00 00 	lea    ecx,[esi*4+0x14]
10006985:	8d 14 08             	lea    edx,[eax+ecx*1]
10006988:	89 f8                	mov    eax,edi
1000698a:	66 90                	xchg   ax,ax
1000698c:	83 c0 04             	add    eax,0x4
1000698f:	c7 40 fc 00 00 00 00 	mov    DWORD PTR [eax-0x4],0x0
10006996:	39 c2                	cmp    edx,eax
10006998:	75 f2                	jne    1000698c <__lshift+0x64>
1000699a:	8d 7c 0f ec          	lea    edi,[edi+ecx*1-0x14]
1000699e:	8d 73 14             	lea    esi,[ebx+0x14]
100069a1:	8b 43 10             	mov    eax,DWORD PTR [ebx+0x10]
100069a4:	8d 14 86             	lea    edx,[esi+eax*4]
100069a7:	8b 4c 24 38          	mov    ecx,DWORD PTR [esp+0x38]
100069ab:	83 e1 1f             	and    ecx,0x1f
100069ae:	89 0c 24             	mov    DWORD PTR [esp],ecx
100069b1:	74 69                	je     10006a1c <__lshift+0xf4>
100069b3:	b8 20 00 00 00       	mov    eax,0x20
100069b8:	29 c8                	sub    eax,ecx
100069ba:	89 44 24 04          	mov    DWORD PTR [esp+0x4],eax
100069be:	31 c0                	xor    eax,eax
100069c0:	89 5c 24 34          	mov    DWORD PTR [esp+0x34],ebx
100069c4:	83 c7 04             	add    edi,0x4
100069c7:	8b 1e                	mov    ebx,DWORD PTR [esi]
100069c9:	8a 0c 24             	mov    cl,BYTE PTR [esp]
100069cc:	d3 e3                	shl    ebx,cl
100069ce:	09 d8                	or     eax,ebx
100069d0:	89 47 fc             	mov    DWORD PTR [edi-0x4],eax
100069d3:	83 c6 04             	add    esi,0x4
100069d6:	8b 46 fc             	mov    eax,DWORD PTR [esi-0x4]
100069d9:	8a 4c 24 04          	mov    cl,BYTE PTR [esp+0x4]
100069dd:	d3 e8                	shr    eax,cl
100069df:	39 f2                	cmp    edx,esi
100069e1:	77 e1                	ja     100069c4 <__lshift+0x9c>
100069e3:	8b 5c 24 34          	mov    ebx,DWORD PTR [esp+0x34]
100069e7:	89 07                	mov    DWORD PTR [edi],eax
100069e9:	85 c0                	test   eax,eax
100069eb:	74 04                	je     100069f1 <__lshift+0xc9>
100069ed:	89 6c 24 0c          	mov    DWORD PTR [esp+0xc],ebp
100069f1:	8b 7c 24 08          	mov    edi,DWORD PTR [esp+0x8]
100069f5:	8b 44 24 0c          	mov    eax,DWORD PTR [esp+0xc]
100069f9:	89 47 10             	mov    DWORD PTR [edi+0x10],eax
100069fc:	8b 53 04             	mov    edx,DWORD PTR [ebx+0x4]
100069ff:	8b 44 24 30          	mov    eax,DWORD PTR [esp+0x30]
10006a03:	8b 40 4c             	mov    eax,DWORD PTR [eax+0x4c]
10006a06:	8d 04 90             	lea    eax,[eax+edx*4]
10006a09:	8b 10                	mov    edx,DWORD PTR [eax]
10006a0b:	89 13                	mov    DWORD PTR [ebx],edx
10006a0d:	89 18                	mov    DWORD PTR [eax],ebx
10006a0f:	89 f8                	mov    eax,edi
10006a11:	83 c4 1c             	add    esp,0x1c
10006a14:	5b                   	pop    ebx
10006a15:	5e                   	pop    esi
10006a16:	5f                   	pop    edi
10006a17:	5d                   	pop    ebp
10006a18:	c3                   	ret    
10006a19:	8d 76 00             	lea    esi,[esi+0x0]
10006a1c:	a5                   	movs   DWORD PTR es:[edi],DWORD PTR ds:[esi]
10006a1d:	39 f2                	cmp    edx,esi
10006a1f:	76 d0                	jbe    100069f1 <__lshift+0xc9>
10006a21:	a5                   	movs   DWORD PTR es:[edi],DWORD PTR ds:[esi]
10006a22:	39 f2                	cmp    edx,esi
10006a24:	77 f6                	ja     10006a1c <__lshift+0xf4>
10006a26:	eb c9                	jmp    100069f1 <__lshift+0xc9>
10006a28:	68 c5 cb 00 10       	push   0x1000cbc5
10006a2d:	6a 00                	push   0x0
10006a2f:	68 d9 01 00 00       	push   0x1d9
10006a34:	68 40 cc 00 10       	push   0x1000cc40
10006a39:	e8 d6 22 00 00       	call   10008d14 <__assert_func>
10006a3e:	66 90                	xchg   ax,ax

10006a40 <__mcmp>:
10006a40:	56                   	push   esi
10006a41:	53                   	push   ebx
10006a42:	8b 5c 24 0c          	mov    ebx,DWORD PTR [esp+0xc]
10006a46:	8b 74 24 10          	mov    esi,DWORD PTR [esp+0x10]
10006a4a:	8b 56 10             	mov    edx,DWORD PTR [esi+0x10]
10006a4d:	8b 43 10             	mov    eax,DWORD PTR [ebx+0x10]
10006a50:	29 d0                	sub    eax,edx
10006a52:	75 29                	jne    10006a7d <__mcmp+0x3d>
10006a54:	83 c3 14             	add    ebx,0x14
10006a57:	8d 0c 95 00 00 00 00 	lea    ecx,[edx*4+0x0]
10006a5e:	8d 14 0b             	lea    edx,[ebx+ecx*1]
10006a61:	8d 4c 0e 14          	lea    ecx,[esi+ecx*1+0x14]
10006a65:	eb 05                	jmp    10006a6c <__mcmp+0x2c>
10006a67:	90                   	nop
10006a68:	39 d3                	cmp    ebx,edx
10006a6a:	73 11                	jae    10006a7d <__mcmp+0x3d>
10006a6c:	83 ea 04             	sub    edx,0x4
10006a6f:	83 e9 04             	sub    ecx,0x4
10006a72:	8b 31                	mov    esi,DWORD PTR [ecx]
10006a74:	39 32                	cmp    DWORD PTR [edx],esi
10006a76:	74 f0                	je     10006a68 <__mcmp+0x28>
10006a78:	19 c0                	sbb    eax,eax
10006a7a:	83 c8 01             	or     eax,0x1
10006a7d:	5b                   	pop    ebx
10006a7e:	5e                   	pop    esi
10006a7f:	c3                   	ret    

10006a80 <__mdiff>:
10006a80:	55                   	push   ebp
10006a81:	57                   	push   edi
10006a82:	56                   	push   esi
10006a83:	53                   	push   ebx
10006a84:	83 ec 1c             	sub    esp,0x1c
10006a87:	8b 6c 24 30          	mov    ebp,DWORD PTR [esp+0x30]
10006a8b:	8b 7c 24 34          	mov    edi,DWORD PTR [esp+0x34]
10006a8f:	8b 74 24 38          	mov    esi,DWORD PTR [esp+0x38]
10006a93:	8b 46 10             	mov    eax,DWORD PTR [esi+0x10]
10006a96:	8b 5f 10             	mov    ebx,DWORD PTR [edi+0x10]
10006a99:	29 c3                	sub    ebx,eax
10006a9b:	0f 85 43 01 00 00    	jne    10006be4 <__mdiff+0x164>
10006aa1:	8d 4f 14             	lea    ecx,[edi+0x14]
10006aa4:	8d 14 85 00 00 00 00 	lea    edx,[eax*4+0x0]
10006aab:	8d 04 11             	lea    eax,[ecx+edx*1]
10006aae:	8d 54 16 14          	lea    edx,[esi+edx*1+0x14]
10006ab2:	89 1c 24             	mov    DWORD PTR [esp],ebx
10006ab5:	eb 09                	jmp    10006ac0 <__mdiff+0x40>
10006ab7:	90                   	nop
10006ab8:	39 c1                	cmp    ecx,eax
10006aba:	0f 83 30 01 00 00    	jae    10006bf0 <__mdiff+0x170>
10006ac0:	83 e8 04             	sub    eax,0x4
10006ac3:	83 ea 04             	sub    edx,0x4
10006ac6:	8b 1a                	mov    ebx,DWORD PTR [edx]
10006ac8:	39 18                	cmp    DWORD PTR [eax],ebx
10006aca:	74 ec                	je     10006ab8 <__mdiff+0x38>
10006acc:	8b 1c 24             	mov    ebx,DWORD PTR [esp]
10006acf:	0f 82 ff 00 00 00    	jb     10006bd4 <__mdiff+0x154>
10006ad5:	83 ec 08             	sub    esp,0x8
10006ad8:	ff 77 04             	push   DWORD PTR [edi+0x4]
10006adb:	55                   	push   ebp
10006adc:	e8 ff f7 ff ff       	call   100062e0 <_Balloc>
10006ae1:	89 44 24 18          	mov    DWORD PTR [esp+0x18],eax
10006ae5:	83 c4 10             	add    esp,0x10
10006ae8:	85 c0                	test   eax,eax
10006aea:	0f 84 34 01 00 00    	je     10006c24 <__mdiff+0x1a4>
10006af0:	8b 54 24 08          	mov    edx,DWORD PTR [esp+0x8]
10006af4:	89 5a 0c             	mov    DWORD PTR [edx+0xc],ebx
10006af7:	8b 47 10             	mov    eax,DWORD PTR [edi+0x10]
10006afa:	89 44 24 0c          	mov    DWORD PTR [esp+0xc],eax
10006afe:	8d 5f 14             	lea    ebx,[edi+0x14]
10006b01:	8d 04 83             	lea    eax,[ebx+eax*4]
10006b04:	89 04 24             	mov    DWORD PTR [esp],eax
10006b07:	8d 4e 14             	lea    ecx,[esi+0x14]
10006b0a:	8b 46 10             	mov    eax,DWORD PTR [esi+0x10]
10006b0d:	8d 04 81             	lea    eax,[ecx+eax*4]
10006b10:	89 44 24 04          	mov    DWORD PTR [esp+0x4],eax
10006b14:	8d 7a 14             	lea    edi,[edx+0x14]
10006b17:	31 d2                	xor    edx,edx
10006b19:	eb 03                	jmp    10006b1e <__mdiff+0x9e>
10006b1b:	90                   	nop
10006b1c:	89 f7                	mov    edi,esi
10006b1e:	8b 03                	mov    eax,DWORD PTR [ebx]
10006b20:	8b 31                	mov    esi,DWORD PTR [ecx]
10006b22:	0f b7 e8             	movzx  ebp,ax
10006b25:	01 d5                	add    ebp,edx
10006b27:	0f b7 d6             	movzx  edx,si
10006b2a:	29 d5                	sub    ebp,edx
10006b2c:	83 c3 04             	add    ebx,0x4
10006b2f:	83 c1 04             	add    ecx,0x4
10006b32:	c1 e8 10             	shr    eax,0x10
10006b35:	c1 ee 10             	shr    esi,0x10
10006b38:	29 f0                	sub    eax,esi
10006b3a:	89 ea                	mov    edx,ebp
10006b3c:	c1 fa 10             	sar    edx,0x10
10006b3f:	01 d0                	add    eax,edx
10006b41:	89 c2                	mov    edx,eax
10006b43:	c1 fa 10             	sar    edx,0x10
10006b46:	8d 77 04             	lea    esi,[edi+0x4]
10006b49:	c1 e0 10             	shl    eax,0x10
10006b4c:	0f b7 ed             	movzx  ebp,bp
10006b4f:	09 e8                	or     eax,ebp
10006b51:	89 46 fc             	mov    DWORD PTR [esi-0x4],eax
10006b54:	39 4c 24 04          	cmp    DWORD PTR [esp+0x4],ecx
10006b58:	77 c2                	ja     10006b1c <__mdiff+0x9c>
10006b5a:	39 1c 24             	cmp    DWORD PTR [esp],ebx
10006b5d:	76 40                	jbe    10006b9f <__mdiff+0x11f>
10006b5f:	89 f5                	mov    ebp,esi
10006b61:	89 df                	mov    edi,ebx
10006b63:	90                   	nop
10006b64:	8b 07                	mov    eax,DWORD PTR [edi]
10006b66:	0f b7 c8             	movzx  ecx,ax
10006b69:	01 d1                	add    ecx,edx
10006b6b:	83 c7 04             	add    edi,0x4
10006b6e:	c1 e8 10             	shr    eax,0x10
10006b71:	89 c2                	mov    edx,eax
10006b73:	89 c8                	mov    eax,ecx
10006b75:	c1 f8 10             	sar    eax,0x10
10006b78:	01 d0                	add    eax,edx
10006b7a:	89 c2                	mov    edx,eax
10006b7c:	c1 fa 10             	sar    edx,0x10
10006b7f:	83 c5 04             	add    ebp,0x4
10006b82:	c1 e0 10             	shl    eax,0x10
10006b85:	0f b7 c9             	movzx  ecx,cx
10006b88:	09 c1                	or     ecx,eax
10006b8a:	89 4d fc             	mov    DWORD PTR [ebp-0x4],ecx
10006b8d:	39 3c 24             	cmp    DWORD PTR [esp],edi
10006b90:	77 d2                	ja     10006b64 <__mdiff+0xe4>
10006b92:	89 c8                	mov    eax,ecx
10006b94:	8b 3c 24             	mov    edi,DWORD PTR [esp]
10006b97:	4f                   	dec    edi
10006b98:	29 df                	sub    edi,ebx
10006b9a:	83 e7 fc             	and    edi,0xfffffffc
10006b9d:	01 f7                	add    edi,esi
10006b9f:	85 c0                	test   eax,eax
10006ba1:	75 19                	jne    10006bbc <__mdiff+0x13c>
10006ba3:	8b 54 24 0c          	mov    edx,DWORD PTR [esp+0xc]
10006ba7:	89 d0                	mov    eax,edx
10006ba9:	f7 d8                	neg    eax
10006bab:	8d 04 87             	lea    eax,[edi+eax*4]
10006bae:	66 90                	xchg   ax,ax
10006bb0:	4a                   	dec    edx
10006bb1:	8b 0c 90             	mov    ecx,DWORD PTR [eax+edx*4]
10006bb4:	85 c9                	test   ecx,ecx
10006bb6:	74 f8                	je     10006bb0 <__mdiff+0x130>
10006bb8:	89 54 24 0c          	mov    DWORD PTR [esp+0xc],edx
10006bbc:	8b 44 24 08          	mov    eax,DWORD PTR [esp+0x8]
10006bc0:	8b 5c 24 0c          	mov    ebx,DWORD PTR [esp+0xc]
10006bc4:	89 58 10             	mov    DWORD PTR [eax+0x10],ebx
10006bc7:	8b 44 24 08          	mov    eax,DWORD PTR [esp+0x8]
10006bcb:	83 c4 1c             	add    esp,0x1c
10006bce:	5b                   	pop    ebx
10006bcf:	5e                   	pop    esi
10006bd0:	5f                   	pop    edi
10006bd1:	5d                   	pop    ebp
10006bd2:	c3                   	ret    
10006bd3:	90                   	nop
10006bd4:	89 f8                	mov    eax,edi
10006bd6:	89 f7                	mov    edi,esi
10006bd8:	89 c6                	mov    esi,eax
10006bda:	bb 01 00 00 00       	mov    ebx,0x1
10006bdf:	e9 f1 fe ff ff       	jmp    10006ad5 <__mdiff+0x55>
10006be4:	78 ee                	js     10006bd4 <__mdiff+0x154>
10006be6:	31 db                	xor    ebx,ebx
10006be8:	e9 e8 fe ff ff       	jmp    10006ad5 <__mdiff+0x55>
10006bed:	8d 76 00             	lea    esi,[esi+0x0]
10006bf0:	83 ec 08             	sub    esp,0x8
10006bf3:	6a 00                	push   0x0
10006bf5:	55                   	push   ebp
10006bf6:	e8 e5 f6 ff ff       	call   100062e0 <_Balloc>
10006bfb:	89 44 24 18          	mov    DWORD PTR [esp+0x18],eax
10006bff:	83 c4 10             	add    esp,0x10
10006c02:	85 c0                	test   eax,eax
10006c04:	74 34                	je     10006c3a <__mdiff+0x1ba>
10006c06:	8b 44 24 08          	mov    eax,DWORD PTR [esp+0x8]
10006c0a:	c7 40 10 01 00 00 00 	mov    DWORD PTR [eax+0x10],0x1
10006c11:	c7 40 14 00 00 00 00 	mov    DWORD PTR [eax+0x14],0x0
10006c18:	8b 44 24 08          	mov    eax,DWORD PTR [esp+0x8]
10006c1c:	83 c4 1c             	add    esp,0x1c
10006c1f:	5b                   	pop    ebx
10006c20:	5e                   	pop    esi
10006c21:	5f                   	pop    edi
10006c22:	5d                   	pop    ebp
10006c23:	c3                   	ret    
10006c24:	68 c5 cb 00 10       	push   0x1000cbc5
10006c29:	6a 00                	push   0x0
10006c2b:	68 40 02 00 00       	push   0x240
10006c30:	68 40 cc 00 10       	push   0x1000cc40
10006c35:	e8 da 20 00 00       	call   10008d14 <__assert_func>
10006c3a:	68 c5 cb 00 10       	push   0x1000cbc5
10006c3f:	6a 00                	push   0x0
10006c41:	68 32 02 00 00       	push   0x232
10006c46:	68 40 cc 00 10       	push   0x1000cc40
10006c4b:	e8 c4 20 00 00       	call   10008d14 <__assert_func>

10006c50 <__ulp>:
10006c50:	53                   	push   ebx
10006c51:	83 ec 08             	sub    esp,0x8
10006c54:	8b 4c 24 14          	mov    ecx,DWORD PTR [esp+0x14]
10006c58:	81 e1 00 00 f0 7f    	and    ecx,0x7ff00000
10006c5e:	81 e9 00 00 40 03    	sub    ecx,0x3400000
10006c64:	85 c9                	test   ecx,ecx
10006c66:	7e 14                	jle    10006c7c <__ulp+0x2c>
10006c68:	31 c0                	xor    eax,eax
10006c6a:	89 ca                	mov    edx,ecx
10006c6c:	89 04 24             	mov    DWORD PTR [esp],eax
10006c6f:	89 54 24 04          	mov    DWORD PTR [esp+0x4],edx
10006c73:	dd 04 24             	fld    QWORD PTR [esp]
10006c76:	83 c4 08             	add    esp,0x8
10006c79:	5b                   	pop    ebx
10006c7a:	c3                   	ret    
10006c7b:	90                   	nop
10006c7c:	f7 d9                	neg    ecx
10006c7e:	c1 f9 14             	sar    ecx,0x14
10006c81:	31 c0                	xor    eax,eax
10006c83:	31 d2                	xor    edx,edx
10006c85:	83 f9 13             	cmp    ecx,0x13
10006c88:	7f 1a                	jg     10006ca4 <__ulp+0x54>
10006c8a:	bb 00 00 08 00       	mov    ebx,0x80000
10006c8f:	d3 fb                	sar    ebx,cl
10006c91:	89 da                	mov    edx,ebx
10006c93:	89 04 24             	mov    DWORD PTR [esp],eax
10006c96:	89 54 24 04          	mov    DWORD PTR [esp+0x4],edx
10006c9a:	dd 04 24             	fld    QWORD PTR [esp]
10006c9d:	83 c4 08             	add    esp,0x8
10006ca0:	5b                   	pop    ebx
10006ca1:	c3                   	ret    
10006ca2:	66 90                	xchg   ax,ax
10006ca4:	83 e9 14             	sub    ecx,0x14
10006ca7:	83 f9 1e             	cmp    ecx,0x1e
10006caa:	7f 1c                	jg     10006cc8 <__ulp+0x78>
10006cac:	bb 00 00 00 80       	mov    ebx,0x80000000
10006cb1:	d3 eb                	shr    ebx,cl
10006cb3:	89 d9                	mov    ecx,ebx
10006cb5:	89 c8                	mov    eax,ecx
10006cb7:	89 04 24             	mov    DWORD PTR [esp],eax
10006cba:	89 54 24 04          	mov    DWORD PTR [esp+0x4],edx
10006cbe:	dd 04 24             	fld    QWORD PTR [esp]
10006cc1:	83 c4 08             	add    esp,0x8
10006cc4:	5b                   	pop    ebx
10006cc5:	c3                   	ret    
10006cc6:	66 90                	xchg   ax,ax
10006cc8:	b9 01 00 00 00       	mov    ecx,0x1
10006ccd:	89 c8                	mov    eax,ecx
10006ccf:	eb e6                	jmp    10006cb7 <__ulp+0x67>
10006cd1:	8d 76 00             	lea    esi,[esi+0x0]

10006cd4 <__b2d>:
10006cd4:	55                   	push   ebp
10006cd5:	57                   	push   edi
10006cd6:	56                   	push   esi
10006cd7:	53                   	push   ebx
10006cd8:	83 ec 14             	sub    esp,0x14
10006cdb:	8b 44 24 28          	mov    eax,DWORD PTR [esp+0x28]
10006cdf:	8d 78 14             	lea    edi,[eax+0x14]
10006ce2:	8b 40 10             	mov    eax,DWORD PTR [eax+0x10]
10006ce5:	8d 34 87             	lea    esi,[edi+eax*4]
10006ce8:	8d 46 fc             	lea    eax,[esi-0x4]
10006ceb:	89 44 24 0c          	mov    DWORD PTR [esp+0xc],eax
10006cef:	8b 5e fc             	mov    ebx,DWORD PTR [esi-0x4]
10006cf2:	53                   	push   ebx
10006cf3:	e8 5c f8 ff ff       	call   10006554 <__hi0bits>
10006cf8:	5a                   	pop    edx
10006cf9:	ba 20 00 00 00       	mov    edx,0x20
10006cfe:	89 d5                	mov    ebp,edx
10006d00:	29 c5                	sub    ebp,eax
10006d02:	8b 4c 24 2c          	mov    ecx,DWORD PTR [esp+0x2c]
10006d06:	89 29                	mov    DWORD PTR [ecx],ebp
10006d08:	83 f8 0a             	cmp    eax,0xa
10006d0b:	7e 53                	jle    10006d60 <__b2d+0x8c>
10006d0d:	83 e8 0b             	sub    eax,0xb
10006d10:	3b 7c 24 0c          	cmp    edi,DWORD PTR [esp+0xc]
10006d14:	73 26                	jae    10006d3c <__b2d+0x68>
10006d16:	8b 6e f8             	mov    ebp,DWORD PTR [esi-0x8]
10006d19:	85 c0                	test   eax,eax
10006d1b:	0f 85 83 00 00 00    	jne    10006da4 <__b2d+0xd0>
10006d21:	81 cb 00 00 f0 3f    	or     ebx,0x3ff00000
10006d27:	89 5c 24 04          	mov    DWORD PTR [esp+0x4],ebx
10006d2b:	89 2c 24             	mov    DWORD PTR [esp],ebp
10006d2e:	dd 04 24             	fld    QWORD PTR [esp]
10006d31:	83 c4 14             	add    esp,0x14
10006d34:	5b                   	pop    ebx
10006d35:	5e                   	pop    esi
10006d36:	5f                   	pop    edi
10006d37:	5d                   	pop    ebp
10006d38:	c3                   	ret    
10006d39:	8d 76 00             	lea    esi,[esi+0x0]
10006d3c:	85 c0                	test   eax,eax
10006d3e:	0f 84 a4 00 00 00    	je     10006de8 <__b2d+0x114>
10006d44:	88 c1                	mov    cl,al
10006d46:	d3 e3                	shl    ebx,cl
10006d48:	c7 04 24 00 00 00 00 	mov    DWORD PTR [esp],0x0
10006d4f:	81 cb 00 00 f0 3f    	or     ebx,0x3ff00000
10006d55:	89 5c 24 04          	mov    DWORD PTR [esp+0x4],ebx
10006d59:	31 ed                	xor    ebp,ebp
10006d5b:	eb ce                	jmp    10006d2b <__b2d+0x57>
10006d5d:	8d 76 00             	lea    esi,[esi+0x0]
10006d60:	b9 0b 00 00 00       	mov    ecx,0xb
10006d65:	29 c1                	sub    ecx,eax
10006d67:	89 da                	mov    edx,ebx
10006d69:	d3 ea                	shr    edx,cl
10006d6b:	c7 04 24 00 00 00 00 	mov    DWORD PTR [esp],0x0
10006d72:	81 ca 00 00 f0 3f    	or     edx,0x3ff00000
10006d78:	89 54 24 04          	mov    DWORD PTR [esp+0x4],edx
10006d7c:	3b 7c 24 0c          	cmp    edi,DWORD PTR [esp+0xc]
10006d80:	72 1a                	jb     10006d9c <__b2d+0xc8>
10006d82:	31 d2                	xor    edx,edx
10006d84:	8d 48 15             	lea    ecx,[eax+0x15]
10006d87:	d3 e3                	shl    ebx,cl
10006d89:	09 d3                	or     ebx,edx
10006d8b:	89 1c 24             	mov    DWORD PTR [esp],ebx
10006d8e:	dd 04 24             	fld    QWORD PTR [esp]
10006d91:	83 c4 14             	add    esp,0x14
10006d94:	5b                   	pop    ebx
10006d95:	5e                   	pop    esi
10006d96:	5f                   	pop    edi
10006d97:	5d                   	pop    ebp
10006d98:	c3                   	ret    
10006d99:	8d 76 00             	lea    esi,[esi+0x0]
10006d9c:	8b 56 f8             	mov    edx,DWORD PTR [esi-0x8]
10006d9f:	d3 ea                	shr    edx,cl
10006da1:	eb e1                	jmp    10006d84 <__b2d+0xb0>
10006da3:	90                   	nop
10006da4:	29 c2                	sub    edx,eax
10006da6:	88 c1                	mov    cl,al
10006da8:	d3 e3                	shl    ebx,cl
10006daa:	89 1c 24             	mov    DWORD PTR [esp],ebx
10006dad:	89 eb                	mov    ebx,ebp
10006daf:	88 d1                	mov    cl,dl
10006db1:	d3 eb                	shr    ebx,cl
10006db3:	89 d9                	mov    ecx,ebx
10006db5:	8b 1c 24             	mov    ebx,DWORD PTR [esp]
10006db8:	09 cb                	or     ebx,ecx
10006dba:	c7 04 24 00 00 00 00 	mov    DWORD PTR [esp],0x0
10006dc1:	81 cb 00 00 f0 3f    	or     ebx,0x3ff00000
10006dc7:	89 5c 24 04          	mov    DWORD PTR [esp+0x4],ebx
10006dcb:	88 c1                	mov    cl,al
10006dcd:	d3 e5                	shl    ebp,cl
10006dcf:	8d 46 f8             	lea    eax,[esi-0x8]
10006dd2:	39 c7                	cmp    edi,eax
10006dd4:	0f 83 51 ff ff ff    	jae    10006d2b <__b2d+0x57>
10006dda:	8b 46 f4             	mov    eax,DWORD PTR [esi-0xc]
10006ddd:	88 d1                	mov    cl,dl
10006ddf:	d3 e8                	shr    eax,cl
10006de1:	09 c5                	or     ebp,eax
10006de3:	e9 43 ff ff ff       	jmp    10006d2b <__b2d+0x57>
10006de8:	31 ed                	xor    ebp,ebp
10006dea:	e9 32 ff ff ff       	jmp    10006d21 <__b2d+0x4d>
10006def:	90                   	nop

10006df0 <__d2b>:
10006df0:	55                   	push   ebp
10006df1:	57                   	push   edi
10006df2:	56                   	push   esi
10006df3:	53                   	push   ebx
10006df4:	83 ec 24             	sub    esp,0x24
10006df7:	8b 74 24 3c          	mov    esi,DWORD PTR [esp+0x3c]
10006dfb:	8b 7c 24 40          	mov    edi,DWORD PTR [esp+0x40]
10006dff:	6a 01                	push   0x1
10006e01:	ff 74 24 3c          	push   DWORD PTR [esp+0x3c]
10006e05:	e8 d6 f4 ff ff       	call   100062e0 <_Balloc>
10006e0a:	83 c4 10             	add    esp,0x10
10006e0d:	85 c0                	test   eax,eax
10006e0f:	0f 84 00 01 00 00    	je     10006f15 <__d2b+0x125>
10006e15:	89 c3                	mov    ebx,eax
10006e17:	89 f8                	mov    eax,edi
10006e19:	89 fa                	mov    edx,edi
10006e1b:	81 e2 ff ff 0f 00    	and    edx,0xfffff
10006e21:	c1 e8 14             	shr    eax,0x14
10006e24:	25 ff 07 00 00       	and    eax,0x7ff
10006e29:	89 c5                	mov    ebp,eax
10006e2b:	74 06                	je     10006e33 <__d2b+0x43>
10006e2d:	81 ca 00 00 10 00    	or     edx,0x100000
10006e33:	89 54 24 0c          	mov    DWORD PTR [esp+0xc],edx
10006e37:	85 f6                	test   esi,esi
10006e39:	75 51                	jne    10006e8c <__d2b+0x9c>
10006e3b:	83 ec 0c             	sub    esp,0xc
10006e3e:	8d 44 24 18          	lea    eax,[esp+0x18]
10006e42:	50                   	push   eax
10006e43:	e8 64 f7 ff ff       	call   100065ac <__lo0bits>
10006e48:	8b 54 24 1c          	mov    edx,DWORD PTR [esp+0x1c]
10006e4c:	89 53 14             	mov    DWORD PTR [ebx+0x14],edx
10006e4f:	c7 43 10 01 00 00 00 	mov    DWORD PTR [ebx+0x10],0x1
10006e56:	83 c0 20             	add    eax,0x20
10006e59:	83 c4 10             	add    esp,0x10
10006e5c:	be 01 00 00 00       	mov    esi,0x1
10006e61:	85 ed                	test   ebp,ebp
10006e63:	74 71                	je     10006ed6 <__d2b+0xe6>
10006e65:	8d 94 05 cd fb ff ff 	lea    edx,[ebp+eax*1-0x433]
10006e6c:	8b 7c 24 3c          	mov    edi,DWORD PTR [esp+0x3c]
10006e70:	89 17                	mov    DWORD PTR [edi],edx
10006e72:	ba 35 00 00 00       	mov    edx,0x35
10006e77:	29 c2                	sub    edx,eax
10006e79:	8b 44 24 40          	mov    eax,DWORD PTR [esp+0x40]
10006e7d:	89 10                	mov    DWORD PTR [eax],edx
10006e7f:	89 d8                	mov    eax,ebx
10006e81:	83 c4 1c             	add    esp,0x1c
10006e84:	5b                   	pop    ebx
10006e85:	5e                   	pop    esi
10006e86:	5f                   	pop    edi
10006e87:	5d                   	pop    ebp
10006e88:	c3                   	ret    
10006e89:	8d 76 00             	lea    esi,[esi+0x0]
10006e8c:	89 74 24 08          	mov    DWORD PTR [esp+0x8],esi
10006e90:	83 ec 0c             	sub    esp,0xc
10006e93:	8d 44 24 14          	lea    eax,[esp+0x14]
10006e97:	50                   	push   eax
10006e98:	e8 0f f7 ff ff       	call   100065ac <__lo0bits>
10006e9d:	83 c4 10             	add    esp,0x10
10006ea0:	85 c0                	test   eax,eax
10006ea2:	74 64                	je     10006f08 <__d2b+0x118>
10006ea4:	8b 54 24 0c          	mov    edx,DWORD PTR [esp+0xc]
10006ea8:	b9 20 00 00 00       	mov    ecx,0x20
10006ead:	29 c1                	sub    ecx,eax
10006eaf:	89 d7                	mov    edi,edx
10006eb1:	d3 e7                	shl    edi,cl
10006eb3:	8b 4c 24 08          	mov    ecx,DWORD PTR [esp+0x8]
10006eb7:	09 f9                	or     ecx,edi
10006eb9:	89 4b 14             	mov    DWORD PTR [ebx+0x14],ecx
10006ebc:	88 c1                	mov    cl,al
10006ebe:	d3 ea                	shr    edx,cl
10006ec0:	89 54 24 0c          	mov    DWORD PTR [esp+0xc],edx
10006ec4:	89 53 18             	mov    DWORD PTR [ebx+0x18],edx
10006ec7:	83 fa 01             	cmp    edx,0x1
10006eca:	19 f6                	sbb    esi,esi
10006ecc:	83 c6 02             	add    esi,0x2
10006ecf:	89 73 10             	mov    DWORD PTR [ebx+0x10],esi
10006ed2:	85 ed                	test   ebp,ebp
10006ed4:	75 8f                	jne    10006e65 <__d2b+0x75>
10006ed6:	2d 32 04 00 00       	sub    eax,0x432
10006edb:	8b 7c 24 3c          	mov    edi,DWORD PTR [esp+0x3c]
10006edf:	89 07                	mov    DWORD PTR [edi],eax
10006ee1:	83 ec 0c             	sub    esp,0xc
10006ee4:	ff 74 b3 10          	push   DWORD PTR [ebx+esi*4+0x10]
10006ee8:	e8 67 f6 ff ff       	call   10006554 <__hi0bits>
10006eed:	83 c4 10             	add    esp,0x10
10006ef0:	c1 e6 05             	shl    esi,0x5
10006ef3:	29 c6                	sub    esi,eax
10006ef5:	8b 44 24 40          	mov    eax,DWORD PTR [esp+0x40]
10006ef9:	89 30                	mov    DWORD PTR [eax],esi
10006efb:	89 d8                	mov    eax,ebx
10006efd:	83 c4 1c             	add    esp,0x1c
10006f00:	5b                   	pop    ebx
10006f01:	5e                   	pop    esi
10006f02:	5f                   	pop    edi
10006f03:	5d                   	pop    ebp
10006f04:	c3                   	ret    
10006f05:	8d 76 00             	lea    esi,[esi+0x0]
10006f08:	8b 54 24 08          	mov    edx,DWORD PTR [esp+0x8]
10006f0c:	89 53 14             	mov    DWORD PTR [ebx+0x14],edx
10006f0f:	8b 54 24 0c          	mov    edx,DWORD PTR [esp+0xc]
10006f13:	eb af                	jmp    10006ec4 <__d2b+0xd4>
10006f15:	68 c5 cb 00 10       	push   0x1000cbc5
10006f1a:	6a 00                	push   0x0
10006f1c:	68 0a 03 00 00       	push   0x30a
10006f21:	68 40 cc 00 10       	push   0x1000cc40
10006f26:	e8 e9 1d 00 00       	call   10008d14 <__assert_func>
10006f2b:	90                   	nop

10006f2c <__ratio>:
10006f2c:	55                   	push   ebp
10006f2d:	57                   	push   edi
10006f2e:	56                   	push   esi
10006f2f:	53                   	push   ebx
10006f30:	83 ec 24             	sub    esp,0x24
10006f33:	8b 6c 24 38          	mov    ebp,DWORD PTR [esp+0x38]
10006f37:	8b 5c 24 3c          	mov    ebx,DWORD PTR [esp+0x3c]
10006f3b:	8d 44 24 18          	lea    eax,[esp+0x18]
10006f3f:	50                   	push   eax
10006f40:	55                   	push   ebp
10006f41:	e8 8e fd ff ff       	call   10006cd4 <__b2d>
10006f46:	dd 5c 24 08          	fstp   QWORD PTR [esp+0x8]
10006f4a:	8b 74 24 08          	mov    esi,DWORD PTR [esp+0x8]
10006f4e:	8d 44 24 24          	lea    eax,[esp+0x24]
10006f52:	50                   	push   eax
10006f53:	53                   	push   ebx
10006f54:	e8 7b fd ff ff       	call   10006cd4 <__b2d>
10006f59:	dd 5c 24 18          	fstp   QWORD PTR [esp+0x18]
10006f5d:	8b 44 24 18          	mov    eax,DWORD PTR [esp+0x18]
10006f61:	8b 4d 10             	mov    ecx,DWORD PTR [ebp+0x10]
10006f64:	2b 4b 10             	sub    ecx,DWORD PTR [ebx+0x10]
10006f67:	c1 e1 05             	shl    ecx,0x5
10006f6a:	03 4c 24 28          	add    ecx,DWORD PTR [esp+0x28]
10006f6e:	2b 4c 24 2c          	sub    ecx,DWORD PTR [esp+0x2c]
10006f72:	83 c4 10             	add    esp,0x10
10006f75:	85 c9                	test   ecx,ecx
10006f77:	7e 23                	jle    10006f9c <__ratio+0x70>
10006f79:	c1 e1 14             	shl    ecx,0x14
10006f7c:	8b 44 24 04          	mov    eax,DWORD PTR [esp+0x4]
10006f80:	8d 3c 01             	lea    edi,[ecx+eax*1]
10006f83:	89 34 24             	mov    DWORD PTR [esp],esi
10006f86:	89 7c 24 04          	mov    DWORD PTR [esp+0x4],edi
10006f8a:	dd 04 24             	fld    QWORD PTR [esp]
10006f8d:	dc 74 24 08          	fdiv   QWORD PTR [esp+0x8]
10006f91:	83 c4 24             	add    esp,0x24
10006f94:	5b                   	pop    ebx
10006f95:	5e                   	pop    esi
10006f96:	5f                   	pop    edi
10006f97:	5d                   	pop    ebp
10006f98:	c3                   	ret    
10006f99:	8d 76 00             	lea    esi,[esi+0x0]
10006f9c:	c1 e1 14             	shl    ecx,0x14
10006f9f:	8b 5c 24 0c          	mov    ebx,DWORD PTR [esp+0xc]
10006fa3:	29 cb                	sub    ebx,ecx
10006fa5:	89 44 24 08          	mov    DWORD PTR [esp+0x8],eax
10006fa9:	89 5c 24 0c          	mov    DWORD PTR [esp+0xc],ebx
10006fad:	dd 04 24             	fld    QWORD PTR [esp]
10006fb0:	dc 74 24 08          	fdiv   QWORD PTR [esp+0x8]
10006fb4:	83 c4 24             	add    esp,0x24
10006fb7:	5b                   	pop    ebx
10006fb8:	5e                   	pop    esi
10006fb9:	5f                   	pop    edi
10006fba:	5d                   	pop    ebp
10006fbb:	c3                   	ret    

10006fbc <_mprec_log10>:
10006fbc:	8b 44 24 04          	mov    eax,DWORD PTR [esp+0x4]
10006fc0:	83 f8 17             	cmp    eax,0x17
10006fc3:	7e 0f                	jle    10006fd4 <_mprec_log10+0x18>
10006fc5:	d9 e8                	fld1   
10006fc7:	90                   	nop
10006fc8:	d8 0d 18 cc 00 10    	fmul   DWORD PTR ds:0x1000cc18
10006fce:	48                   	dec    eax
10006fcf:	75 f7                	jne    10006fc8 <_mprec_log10+0xc>
10006fd1:	c3                   	ret    
10006fd2:	66 90                	xchg   ax,ax
10006fd4:	dd 04 c5 20 cd 00 10 	fld    QWORD PTR [eax*8+0x1000cd20]
10006fdb:	c3                   	ret    

10006fdc <__copybits>:
10006fdc:	57                   	push   edi
10006fdd:	56                   	push   esi
10006fde:	53                   	push   ebx
10006fdf:	8b 44 24 10          	mov    eax,DWORD PTR [esp+0x10]
10006fe3:	8b 5c 24 18          	mov    ebx,DWORD PTR [esp+0x18]
10006fe7:	8b 7c 24 14          	mov    edi,DWORD PTR [esp+0x14]
10006feb:	8d 57 ff             	lea    edx,[edi-0x1]
10006fee:	c1 fa 05             	sar    edx,0x5
10006ff1:	8d 4c 90 04          	lea    ecx,[eax+edx*4+0x4]
10006ff5:	8d 73 14             	lea    esi,[ebx+0x14]
10006ff8:	8b 53 10             	mov    edx,DWORD PTR [ebx+0x10]
10006ffb:	8d 14 96             	lea    edx,[esi+edx*4]
10006ffe:	39 d6                	cmp    esi,edx
10007000:	73 24                	jae    10007026 <__copybits+0x4a>
10007002:	89 c7                	mov    edi,eax
10007004:	a5                   	movs   DWORD PTR es:[edi],DWORD PTR ds:[esi]
10007005:	39 f2                	cmp    edx,esi
10007007:	77 fb                	ja     10007004 <__copybits+0x28>
10007009:	29 da                	sub    edx,ebx
1000700b:	83 ea 15             	sub    edx,0x15
1000700e:	c1 ea 02             	shr    edx,0x2
10007011:	8d 44 90 04          	lea    eax,[eax+edx*4+0x4]
10007015:	39 c1                	cmp    ecx,eax
10007017:	76 11                	jbe    1000702a <__copybits+0x4e>
10007019:	8d 76 00             	lea    esi,[esi+0x0]
1000701c:	83 c0 04             	add    eax,0x4
1000701f:	c7 40 fc 00 00 00 00 	mov    DWORD PTR [eax-0x4],0x0
10007026:	39 c1                	cmp    ecx,eax
10007028:	77 f2                	ja     1000701c <__copybits+0x40>
1000702a:	5b                   	pop    ebx
1000702b:	5e                   	pop    esi
1000702c:	5f                   	pop    edi
1000702d:	c3                   	ret    
1000702e:	66 90                	xchg   ax,ax

10007030 <__any_on>:
10007030:	53                   	push   ebx
10007031:	8b 44 24 08          	mov    eax,DWORD PTR [esp+0x8]
10007035:	8d 58 14             	lea    ebx,[eax+0x14]
10007038:	8b 48 10             	mov    ecx,DWORD PTR [eax+0x10]
1000703b:	8b 54 24 0c          	mov    edx,DWORD PTR [esp+0xc]
1000703f:	c1 fa 05             	sar    edx,0x5
10007042:	39 d1                	cmp    ecx,edx
10007044:	7d 26                	jge    1000706c <__any_on+0x3c>
10007046:	8d 04 8b             	lea    eax,[ebx+ecx*4]
10007049:	39 c3                	cmp    ebx,eax
1000704b:	73 3e                	jae    1000708b <__any_on+0x5b>
1000704d:	8d 50 fc             	lea    edx,[eax-0x4]
10007050:	8b 40 fc             	mov    eax,DWORD PTR [eax-0x4]
10007053:	85 c0                	test   eax,eax
10007055:	74 0e                	je     10007065 <__any_on+0x35>
10007057:	eb 2b                	jmp    10007084 <__any_on+0x54>
10007059:	8d 76 00             	lea    esi,[esi+0x0]
1000705c:	83 ea 04             	sub    edx,0x4
1000705f:	8b 0a                	mov    ecx,DWORD PTR [edx]
10007061:	85 c9                	test   ecx,ecx
10007063:	75 1f                	jne    10007084 <__any_on+0x54>
10007065:	39 d3                	cmp    ebx,edx
10007067:	72 f3                	jb     1000705c <__any_on+0x2c>
10007069:	5b                   	pop    ebx
1000706a:	c3                   	ret    
1000706b:	90                   	nop
1000706c:	8d 04 93             	lea    eax,[ebx+edx*4]
1000706f:	7e d8                	jle    10007049 <__any_on+0x19>
10007071:	8b 4c 24 0c          	mov    ecx,DWORD PTR [esp+0xc]
10007075:	83 e1 1f             	and    ecx,0x1f
10007078:	74 cf                	je     10007049 <__any_on+0x19>
1000707a:	8b 10                	mov    edx,DWORD PTR [eax]
1000707c:	d3 ea                	shr    edx,cl
1000707e:	d3 e2                	shl    edx,cl
10007080:	39 10                	cmp    DWORD PTR [eax],edx
10007082:	74 c5                	je     10007049 <__any_on+0x19>
10007084:	b8 01 00 00 00       	mov    eax,0x1
10007089:	5b                   	pop    ebx
1000708a:	c3                   	ret    
1000708b:	31 c0                	xor    eax,eax
1000708d:	5b                   	pop    ebx
1000708e:	c3                   	ret    
1000708f:	90                   	nop

10007090 <_putc_r>:
10007090:	56                   	push   esi
10007091:	53                   	push   ebx
10007092:	83 ec 14             	sub    esp,0x14
10007095:	8b 74 24 20          	mov    esi,DWORD PTR [esp+0x20]
10007099:	8b 44 24 24          	mov    eax,DWORD PTR [esp+0x24]
1000709d:	8b 5c 24 28          	mov    ebx,DWORD PTR [esp+0x28]
100070a1:	85 f6                	test   esi,esi
100070a3:	74 07                	je     100070ac <_putc_r+0x1c>
100070a5:	8b 56 38             	mov    edx,DWORD PTR [esi+0x38]
100070a8:	85 d2                	test   edx,edx
100070aa:	74 28                	je     100070d4 <_putc_r+0x44>
100070ac:	8b 4b 08             	mov    ecx,DWORD PTR [ebx+0x8]
100070af:	8d 51 ff             	lea    edx,[ecx-0x1]
100070b2:	89 53 08             	mov    DWORD PTR [ebx+0x8],edx
100070b5:	85 d2                	test   edx,edx
100070b7:	79 09                	jns    100070c2 <_putc_r+0x32>
100070b9:	3b 53 18             	cmp    edx,DWORD PTR [ebx+0x18]
100070bc:	7c 2e                	jl     100070ec <_putc_r+0x5c>
100070be:	3c 0a                	cmp    al,0xa
100070c0:	74 2a                	je     100070ec <_putc_r+0x5c>
100070c2:	8b 13                	mov    edx,DWORD PTR [ebx]
100070c4:	8d 4a 01             	lea    ecx,[edx+0x1]
100070c7:	89 0b                	mov    DWORD PTR [ebx],ecx
100070c9:	88 02                	mov    BYTE PTR [edx],al
100070cb:	0f b6 c0             	movzx  eax,al
100070ce:	83 c4 14             	add    esp,0x14
100070d1:	5b                   	pop    ebx
100070d2:	5e                   	pop    esi
100070d3:	c3                   	ret    
100070d4:	89 44 24 0c          	mov    DWORD PTR [esp+0xc],eax
100070d8:	83 ec 0c             	sub    esp,0xc
100070db:	56                   	push   esi
100070dc:	e8 37 e6 ff ff       	call   10005718 <__sinit>
100070e1:	83 c4 10             	add    esp,0x10
100070e4:	8b 44 24 0c          	mov    eax,DWORD PTR [esp+0xc]
100070e8:	eb c2                	jmp    100070ac <_putc_r+0x1c>
100070ea:	66 90                	xchg   ax,ax
100070ec:	89 5c 24 28          	mov    DWORD PTR [esp+0x28],ebx
100070f0:	89 44 24 24          	mov    DWORD PTR [esp+0x24],eax
100070f4:	89 74 24 20          	mov    DWORD PTR [esp+0x20],esi
100070f8:	83 c4 14             	add    esp,0x14
100070fb:	5b                   	pop    ebx
100070fc:	5e                   	pop    esi
100070fd:	e9 b6 1a 00 00       	jmp    10008bb8 <__swbuf_r>
10007102:	66 90                	xchg   ax,ax

10007104 <putc>:
10007104:	56                   	push   esi
10007105:	53                   	push   ebx
10007106:	51                   	push   ecx
10007107:	8b 44 24 10          	mov    eax,DWORD PTR [esp+0x10]
1000710b:	8b 5c 24 14          	mov    ebx,DWORD PTR [esp+0x14]
1000710f:	8b 35 20 e0 00 10    	mov    esi,DWORD PTR ds:0x1000e020
10007115:	85 f6                	test   esi,esi
10007117:	74 07                	je     10007120 <putc+0x1c>
10007119:	8b 56 38             	mov    edx,DWORD PTR [esi+0x38]
1000711c:	85 d2                	test   edx,edx
1000711e:	74 28                	je     10007148 <putc+0x44>
10007120:	8b 4b 08             	mov    ecx,DWORD PTR [ebx+0x8]
10007123:	8d 51 ff             	lea    edx,[ecx-0x1]
10007126:	89 53 08             	mov    DWORD PTR [ebx+0x8],edx
10007129:	85 d2                	test   edx,edx
1000712b:	79 09                	jns    10007136 <putc+0x32>
1000712d:	3b 53 18             	cmp    edx,DWORD PTR [ebx+0x18]
10007130:	7c 2a                	jl     1000715c <putc+0x58>
10007132:	3c 0a                	cmp    al,0xa
10007134:	74 26                	je     1000715c <putc+0x58>
10007136:	8b 13                	mov    edx,DWORD PTR [ebx]
10007138:	8d 4a 01             	lea    ecx,[edx+0x1]
1000713b:	89 0b                	mov    DWORD PTR [ebx],ecx
1000713d:	88 02                	mov    BYTE PTR [edx],al
1000713f:	0f b6 c0             	movzx  eax,al
10007142:	5a                   	pop    edx
10007143:	5b                   	pop    ebx
10007144:	5e                   	pop    esi
10007145:	c3                   	ret    
10007146:	66 90                	xchg   ax,ax
10007148:	83 ec 0c             	sub    esp,0xc
1000714b:	56                   	push   esi
1000714c:	e8 c7 e5 ff ff       	call   10005718 <__sinit>
10007151:	83 c4 10             	add    esp,0x10
10007154:	8b 44 24 10          	mov    eax,DWORD PTR [esp+0x10]
10007158:	eb c6                	jmp    10007120 <putc+0x1c>
1000715a:	66 90                	xchg   ax,ax
1000715c:	51                   	push   ecx
1000715d:	53                   	push   ebx
1000715e:	50                   	push   eax
1000715f:	56                   	push   esi
10007160:	e8 53 1a 00 00       	call   10008bb8 <__swbuf_r>
10007165:	83 c4 10             	add    esp,0x10
10007168:	5a                   	pop    edx
10007169:	5b                   	pop    ebx
1000716a:	5e                   	pop    esi
1000716b:	c3                   	ret    

1000716c <_realloc_r>:
1000716c:	55                   	push   ebp
1000716d:	57                   	push   edi
1000716e:	56                   	push   esi
1000716f:	53                   	push   ebx
10007170:	83 ec 2c             	sub    esp,0x2c
10007173:	8b 44 24 40          	mov    eax,DWORD PTR [esp+0x40]
10007177:	89 44 24 08          	mov    DWORD PTR [esp+0x8],eax
1000717b:	8b 5c 24 44          	mov    ebx,DWORD PTR [esp+0x44]
1000717f:	8b 7c 24 48          	mov    edi,DWORD PTR [esp+0x48]
10007183:	85 db                	test   ebx,ebx
10007185:	0f 84 49 02 00 00    	je     100073d4 <_realloc_r+0x268>
1000718b:	83 ec 0c             	sub    esp,0xc
1000718e:	ff 74 24 14          	push   DWORD PTR [esp+0x14]
10007192:	e8 55 9a ff ff       	call   10000bec <__malloc_lock>
10007197:	8d 47 0b             	lea    eax,[edi+0xb]
1000719a:	83 c4 10             	add    esp,0x10
1000719d:	83 f8 16             	cmp    eax,0x16
100071a0:	0f 87 3e 01 00 00    	ja     100072e4 <_realloc_r+0x178>
100071a6:	c7 44 24 0c 10 00 00 00 	mov    DWORD PTR [esp+0xc],0x10
100071ae:	c7 44 24 10 10 00 00 00 	mov    DWORD PTR [esp+0x10],0x10
100071b6:	3b 7c 24 0c          	cmp    edi,DWORD PTR [esp+0xc]
100071ba:	0f 87 35 01 00 00    	ja     100072f5 <_realloc_r+0x189>
100071c0:	8d 6b f8             	lea    ebp,[ebx-0x8]
100071c3:	8b 43 fc             	mov    eax,DWORD PTR [ebx-0x4]
100071c6:	89 c6                	mov    esi,eax
100071c8:	83 e6 fc             	and    esi,0xfffffffc
100071cb:	8d 4c 35 00          	lea    ecx,[ebp+esi*1+0x0]
100071cf:	3b 74 24 10          	cmp    esi,DWORD PTR [esp+0x10]
100071d3:	0f 8d a3 01 00 00    	jge    1000737c <_realloc_r+0x210>
100071d9:	8b 51 04             	mov    edx,DWORD PTR [ecx+0x4]
100071dc:	89 54 24 14          	mov    DWORD PTR [esp+0x14],edx
100071e0:	39 0d a8 e4 00 10    	cmp    DWORD PTR ds:0x1000e4a8,ecx
100071e6:	0f 84 24 02 00 00    	je     10007410 <_realloc_r+0x2a4>
100071ec:	83 e2 fe             	and    edx,0xfffffffe
100071ef:	f6 44 11 04 01       	test   BYTE PTR [ecx+edx*1+0x4],0x1
100071f4:	0f 85 ba 01 00 00    	jne    100073b4 <_realloc_r+0x248>
100071fa:	8b 54 24 14          	mov    edx,DWORD PTR [esp+0x14]
100071fe:	83 e2 fc             	and    edx,0xfffffffc
10007201:	89 54 24 18          	mov    DWORD PTR [esp+0x18],edx
10007205:	01 f2                	add    edx,esi
10007207:	89 54 24 14          	mov    DWORD PTR [esp+0x14],edx
1000720b:	3b 54 24 10          	cmp    edx,DWORD PTR [esp+0x10]
1000720f:	0f 8d 2f 03 00 00    	jge    10007544 <_realloc_r+0x3d8>
10007215:	a8 01                	test   al,0x1
10007217:	75 39                	jne    10007252 <_realloc_r+0xe6>
10007219:	89 e8                	mov    eax,ebp
1000721b:	2b 43 f8             	sub    eax,DWORD PTR [ebx-0x8]
1000721e:	89 44 24 14          	mov    DWORD PTR [esp+0x14],eax
10007222:	8b 40 04             	mov    eax,DWORD PTR [eax+0x4]
10007225:	89 44 24 1c          	mov    DWORD PTR [esp+0x1c],eax
10007229:	83 e0 fc             	and    eax,0xfffffffc
1000722c:	8b 54 24 18          	mov    edx,DWORD PTR [esp+0x18]
10007230:	01 c2                	add    edx,eax
10007232:	01 f2                	add    edx,esi
10007234:	89 54 24 18          	mov    DWORD PTR [esp+0x18],edx
10007238:	3b 54 24 10          	cmp    edx,DWORD PTR [esp+0x10]
1000723c:	0f 8d ca 00 00 00    	jge    1000730c <_realloc_r+0x1a0>
10007242:	01 f0                	add    eax,esi
10007244:	89 44 24 18          	mov    DWORD PTR [esp+0x18],eax
10007248:	3b 44 24 10          	cmp    eax,DWORD PTR [esp+0x10]
1000724c:	0f 8d c6 00 00 00    	jge    10007318 <_realloc_r+0x1ac>
10007252:	83 ec 08             	sub    esp,0x8
10007255:	57                   	push   edi
10007256:	ff 74 24 14          	push   DWORD PTR [esp+0x14]
1000725a:	e8 65 91 ff ff       	call   100003c4 <_malloc_r>
1000725f:	89 c7                	mov    edi,eax
10007261:	83 c4 10             	add    esp,0x10
10007264:	85 c0                	test   eax,eax
10007266:	0f 84 81 03 00 00    	je     100075ed <_realloc_r+0x481>
1000726c:	8b 43 fc             	mov    eax,DWORD PTR [ebx-0x4]
1000726f:	83 e0 fe             	and    eax,0xfffffffe
10007272:	01 e8                	add    eax,ebp
10007274:	8d 57 f8             	lea    edx,[edi-0x8]
10007277:	39 d0                	cmp    eax,edx
10007279:	0f 84 e1 02 00 00    	je     10007560 <_realloc_r+0x3f4>
1000727f:	83 ee 04             	sub    esi,0x4
10007282:	83 fe 24             	cmp    esi,0x24
10007285:	0f 87 e9 02 00 00    	ja     10007574 <_realloc_r+0x408>
1000728b:	8b 0b                	mov    ecx,DWORD PTR [ebx]
1000728d:	83 fe 13             	cmp    esi,0x13
10007290:	0f 86 56 02 00 00    	jbe    100074ec <_realloc_r+0x380>
10007296:	89 0f                	mov    DWORD PTR [edi],ecx
10007298:	8b 43 04             	mov    eax,DWORD PTR [ebx+0x4]
1000729b:	89 47 04             	mov    DWORD PTR [edi+0x4],eax
1000729e:	83 fe 1b             	cmp    esi,0x1b
100072a1:	0f 87 e9 02 00 00    	ja     10007590 <_realloc_r+0x424>
100072a7:	8d 53 08             	lea    edx,[ebx+0x8]
100072aa:	8d 47 08             	lea    eax,[edi+0x8]
100072ad:	8b 4b 08             	mov    ecx,DWORD PTR [ebx+0x8]
100072b0:	89 08                	mov    DWORD PTR [eax],ecx
100072b2:	8b 4a 04             	mov    ecx,DWORD PTR [edx+0x4]
100072b5:	89 48 04             	mov    DWORD PTR [eax+0x4],ecx
100072b8:	8b 52 08             	mov    edx,DWORD PTR [edx+0x8]
100072bb:	89 50 08             	mov    DWORD PTR [eax+0x8],edx
100072be:	83 ec 08             	sub    esp,0x8
100072c1:	53                   	push   ebx
100072c2:	8b 5c 24 14          	mov    ebx,DWORD PTR [esp+0x14]
100072c6:	53                   	push   ebx
100072c7:	e8 74 e5 ff ff       	call   10005840 <_free_r>
100072cc:	89 1c 24             	mov    DWORD PTR [esp],ebx
100072cf:	e8 1c 99 ff ff       	call   10000bf0 <__malloc_unlock>
100072d4:	83 c4 10             	add    esp,0x10
100072d7:	89 f8                	mov    eax,edi
100072d9:	83 c4 2c             	add    esp,0x2c
100072dc:	5b                   	pop    ebx
100072dd:	5e                   	pop    esi
100072de:	5f                   	pop    edi
100072df:	5d                   	pop    ebp
100072e0:	c3                   	ret    
100072e1:	8d 76 00             	lea    esi,[esi+0x0]
100072e4:	83 e0 f8             	and    eax,0xfffffff8
100072e7:	89 44 24 0c          	mov    DWORD PTR [esp+0xc],eax
100072eb:	89 44 24 10          	mov    DWORD PTR [esp+0x10],eax
100072ef:	0f 89 c1 fe ff ff    	jns    100071b6 <_realloc_r+0x4a>
100072f5:	8b 44 24 08          	mov    eax,DWORD PTR [esp+0x8]
100072f9:	c7 00 0c 00 00 00    	mov    DWORD PTR [eax],0xc
100072ff:	31 ff                	xor    edi,edi
10007301:	89 f8                	mov    eax,edi
10007303:	83 c4 2c             	add    esp,0x2c
10007306:	5b                   	pop    ebx
10007307:	5e                   	pop    esi
10007308:	5f                   	pop    edi
10007309:	5d                   	pop    ebp
1000730a:	c3                   	ret    
1000730b:	90                   	nop
1000730c:	8b 41 0c             	mov    eax,DWORD PTR [ecx+0xc]
1000730f:	8b 51 08             	mov    edx,DWORD PTR [ecx+0x8]
10007312:	89 42 0c             	mov    DWORD PTR [edx+0xc],eax
10007315:	89 50 08             	mov    DWORD PTR [eax+0x8],edx
10007318:	8b 4c 24 14          	mov    ecx,DWORD PTR [esp+0x14]
1000731c:	8b 41 0c             	mov    eax,DWORD PTR [ecx+0xc]
1000731f:	8b 51 08             	mov    edx,DWORD PTR [ecx+0x8]
10007322:	89 42 0c             	mov    DWORD PTR [edx+0xc],eax
10007325:	89 50 08             	mov    DWORD PTR [eax+0x8],edx
10007328:	89 cd                	mov    ebp,ecx
1000732a:	8d 79 08             	lea    edi,[ecx+0x8]
1000732d:	83 ee 04             	sub    esi,0x4
10007330:	03 4c 24 18          	add    ecx,DWORD PTR [esp+0x18]
10007334:	83 fe 24             	cmp    esi,0x24
10007337:	0f 87 bb 01 00 00    	ja     100074f8 <_realloc_r+0x38c>
1000733d:	8b 13                	mov    edx,DWORD PTR [ebx]
1000733f:	83 fe 13             	cmp    esi,0x13
10007342:	0f 86 40 02 00 00    	jbe    10007588 <_realloc_r+0x41c>
10007348:	89 55 08             	mov    DWORD PTR [ebp+0x8],edx
1000734b:	8b 43 04             	mov    eax,DWORD PTR [ebx+0x4]
1000734e:	89 45 0c             	mov    DWORD PTR [ebp+0xc],eax
10007351:	83 fe 1b             	cmp    esi,0x1b
10007354:	0f 87 56 02 00 00    	ja     100075b0 <_realloc_r+0x444>
1000735a:	8d 45 10             	lea    eax,[ebp+0x10]
1000735d:	8b 53 08             	mov    edx,DWORD PTR [ebx+0x8]
10007360:	83 c3 08             	add    ebx,0x8
10007363:	89 10                	mov    DWORD PTR [eax],edx
10007365:	8b 53 04             	mov    edx,DWORD PTR [ebx+0x4]
10007368:	89 50 04             	mov    DWORD PTR [eax+0x4],edx
1000736b:	8b 53 08             	mov    edx,DWORD PTR [ebx+0x8]
1000736e:	89 50 08             	mov    DWORD PTR [eax+0x8],edx
10007371:	89 fb                	mov    ebx,edi
10007373:	8b 74 24 18          	mov    esi,DWORD PTR [esp+0x18]
10007377:	8b 6c 24 14          	mov    ebp,DWORD PTR [esp+0x14]
1000737b:	90                   	nop
1000737c:	89 f2                	mov    edx,esi
1000737e:	2b 54 24 0c          	sub    edx,DWORD PTR [esp+0xc]
10007382:	8b 45 04             	mov    eax,DWORD PTR [ebp+0x4]
10007385:	83 e0 01             	and    eax,0x1
10007388:	83 fa 0f             	cmp    edx,0xf
1000738b:	77 57                	ja     100073e4 <_realloc_r+0x278>
1000738d:	09 c6                	or     esi,eax
1000738f:	89 75 04             	mov    DWORD PTR [ebp+0x4],esi
10007392:	83 49 04 01          	or     DWORD PTR [ecx+0x4],0x1
10007396:	83 ec 0c             	sub    esp,0xc
10007399:	ff 74 24 14          	push   DWORD PTR [esp+0x14]
1000739d:	e8 4e 98 ff ff       	call   10000bf0 <__malloc_unlock>
100073a2:	83 c4 10             	add    esp,0x10
100073a5:	89 df                	mov    edi,ebx
100073a7:	89 f8                	mov    eax,edi
100073a9:	83 c4 2c             	add    esp,0x2c
100073ac:	5b                   	pop    ebx
100073ad:	5e                   	pop    esi
100073ae:	5f                   	pop    edi
100073af:	5d                   	pop    ebp
100073b0:	c3                   	ret    
100073b1:	8d 76 00             	lea    esi,[esi+0x0]
100073b4:	a8 01                	test   al,0x1
100073b6:	0f 85 96 fe ff ff    	jne    10007252 <_realloc_r+0xe6>
100073bc:	89 e8                	mov    eax,ebp
100073be:	2b 43 f8             	sub    eax,DWORD PTR [ebx-0x8]
100073c1:	89 44 24 14          	mov    DWORD PTR [esp+0x14],eax
100073c5:	8b 40 04             	mov    eax,DWORD PTR [eax+0x4]
100073c8:	89 44 24 18          	mov    DWORD PTR [esp+0x18],eax
100073cc:	83 e0 fc             	and    eax,0xfffffffc
100073cf:	e9 6e fe ff ff       	jmp    10007242 <_realloc_r+0xd6>
100073d4:	89 7c 24 44          	mov    DWORD PTR [esp+0x44],edi
100073d8:	83 c4 2c             	add    esp,0x2c
100073db:	5b                   	pop    ebx
100073dc:	5e                   	pop    esi
100073dd:	5f                   	pop    edi
100073de:	5d                   	pop    ebp
100073df:	e9 e0 8f ff ff       	jmp    100003c4 <_malloc_r>
100073e4:	8b 7c 24 0c          	mov    edi,DWORD PTR [esp+0xc]
100073e8:	8d 74 3d 00          	lea    esi,[ebp+edi*1+0x0]
100073ec:	09 f8                	or     eax,edi
100073ee:	89 45 04             	mov    DWORD PTR [ebp+0x4],eax
100073f1:	83 ca 01             	or     edx,0x1
100073f4:	89 56 04             	mov    DWORD PTR [esi+0x4],edx
100073f7:	83 49 04 01          	or     DWORD PTR [ecx+0x4],0x1
100073fb:	83 ec 08             	sub    esp,0x8
100073fe:	8d 4e 08             	lea    ecx,[esi+0x8]
10007401:	51                   	push   ecx
10007402:	ff 74 24 14          	push   DWORD PTR [esp+0x14]
10007406:	e8 35 e4 ff ff       	call   10005840 <_free_r>
1000740b:	83 c4 10             	add    esp,0x10
1000740e:	eb 86                	jmp    10007396 <_realloc_r+0x22a>
10007410:	8b 4c 24 14          	mov    ecx,DWORD PTR [esp+0x14]
10007414:	83 e1 fc             	and    ecx,0xfffffffc
10007417:	89 4c 24 18          	mov    DWORD PTR [esp+0x18],ecx
1000741b:	01 f1                	add    ecx,esi
1000741d:	8b 54 24 0c          	mov    edx,DWORD PTR [esp+0xc]
10007421:	83 c2 10             	add    edx,0x10
10007424:	39 d1                	cmp    ecx,edx
10007426:	0f 8d f0 00 00 00    	jge    1000751c <_realloc_r+0x3b0>
1000742c:	a8 01                	test   al,0x1
1000742e:	0f 85 1e fe ff ff    	jne    10007252 <_realloc_r+0xe6>
10007434:	89 e8                	mov    eax,ebp
10007436:	2b 43 f8             	sub    eax,DWORD PTR [ebx-0x8]
10007439:	89 44 24 14          	mov    DWORD PTR [esp+0x14],eax
1000743d:	8b 40 04             	mov    eax,DWORD PTR [eax+0x4]
10007440:	89 44 24 1c          	mov    DWORD PTR [esp+0x1c],eax
10007444:	83 e0 fc             	and    eax,0xfffffffc
10007447:	8b 4c 24 18          	mov    ecx,DWORD PTR [esp+0x18]
1000744b:	01 c1                	add    ecx,eax
1000744d:	01 f1                	add    ecx,esi
1000744f:	39 ca                	cmp    edx,ecx
10007451:	0f 8f eb fd ff ff    	jg     10007242 <_realloc_r+0xd6>
10007457:	8b 7c 24 14          	mov    edi,DWORD PTR [esp+0x14]
1000745b:	8b 47 0c             	mov    eax,DWORD PTR [edi+0xc]
1000745e:	89 fd                	mov    ebp,edi
10007460:	8b 57 08             	mov    edx,DWORD PTR [edi+0x8]
10007463:	89 42 0c             	mov    DWORD PTR [edx+0xc],eax
10007466:	89 50 08             	mov    DWORD PTR [eax+0x8],edx
10007469:	8d 7f 08             	lea    edi,[edi+0x8]
1000746c:	83 ee 04             	sub    esi,0x4
1000746f:	83 fe 24             	cmp    esi,0x24
10007472:	0f 87 ae 01 00 00    	ja     10007626 <_realloc_r+0x4ba>
10007478:	8b 13                	mov    edx,DWORD PTR [ebx]
1000747a:	83 fe 13             	cmp    esi,0x13
1000747d:	0f 86 9c 01 00 00    	jbe    1000761f <_realloc_r+0x4b3>
10007483:	89 55 08             	mov    DWORD PTR [ebp+0x8],edx
10007486:	8b 43 04             	mov    eax,DWORD PTR [ebx+0x4]
10007489:	89 45 0c             	mov    DWORD PTR [ebp+0xc],eax
1000748c:	83 fe 1b             	cmp    esi,0x1b
1000748f:	0f 87 aa 01 00 00    	ja     1000763f <_realloc_r+0x4d3>
10007495:	8d 45 10             	lea    eax,[ebp+0x10]
10007498:	8b 53 08             	mov    edx,DWORD PTR [ebx+0x8]
1000749b:	83 c3 08             	add    ebx,0x8
1000749e:	89 10                	mov    DWORD PTR [eax],edx
100074a0:	8b 53 04             	mov    edx,DWORD PTR [ebx+0x4]
100074a3:	89 50 04             	mov    DWORD PTR [eax+0x4],edx
100074a6:	8b 53 08             	mov    edx,DWORD PTR [ebx+0x8]
100074a9:	89 50 08             	mov    DWORD PTR [eax+0x8],edx
100074ac:	8b 5c 24 14          	mov    ebx,DWORD PTR [esp+0x14]
100074b0:	89 d8                	mov    eax,ebx
100074b2:	8b 74 24 0c          	mov    esi,DWORD PTR [esp+0xc]
100074b6:	01 f0                	add    eax,esi
100074b8:	a3 a8 e4 00 10       	mov    ds:0x1000e4a8,eax
100074bd:	29 f1                	sub    ecx,esi
100074bf:	89 ca                	mov    edx,ecx
100074c1:	83 ca 01             	or     edx,0x1
100074c4:	89 50 04             	mov    DWORD PTR [eax+0x4],edx
100074c7:	8b 43 04             	mov    eax,DWORD PTR [ebx+0x4]
100074ca:	89 44 24 0c          	mov    DWORD PTR [esp+0xc],eax
100074ce:	83 e0 01             	and    eax,0x1
100074d1:	09 f0                	or     eax,esi
100074d3:	89 43 04             	mov    DWORD PTR [ebx+0x4],eax
100074d6:	83 ec 0c             	sub    esp,0xc
100074d9:	ff 74 24 14          	push   DWORD PTR [esp+0x14]
100074dd:	e8 0e 97 ff ff       	call   10000bf0 <__malloc_unlock>
100074e2:	83 c4 10             	add    esp,0x10
100074e5:	e9 17 fe ff ff       	jmp    10007301 <_realloc_r+0x195>
100074ea:	66 90                	xchg   ax,ax
100074ec:	89 f8                	mov    eax,edi
100074ee:	89 da                	mov    edx,ebx
100074f0:	e9 bb fd ff ff       	jmp    100072b0 <_realloc_r+0x144>
100074f5:	8d 76 00             	lea    esi,[esi+0x0]
100074f8:	89 4c 24 10          	mov    DWORD PTR [esp+0x10],ecx
100074fc:	52                   	push   edx
100074fd:	56                   	push   esi
100074fe:	53                   	push   ebx
100074ff:	57                   	push   edi
10007500:	e8 4b ed ff ff       	call   10006250 <memmove>
10007505:	83 c4 10             	add    esp,0x10
10007508:	89 fb                	mov    ebx,edi
1000750a:	8b 74 24 18          	mov    esi,DWORD PTR [esp+0x18]
1000750e:	8b 6c 24 14          	mov    ebp,DWORD PTR [esp+0x14]
10007512:	8b 4c 24 10          	mov    ecx,DWORD PTR [esp+0x10]
10007516:	e9 61 fe ff ff       	jmp    1000737c <_realloc_r+0x210>
1000751b:	90                   	nop
1000751c:	8b 7c 24 0c          	mov    edi,DWORD PTR [esp+0xc]
10007520:	01 fd                	add    ebp,edi
10007522:	89 2d a8 e4 00 10    	mov    DWORD PTR ds:0x1000e4a8,ebp
10007528:	29 f9                	sub    ecx,edi
1000752a:	89 ca                	mov    edx,ecx
1000752c:	83 ca 01             	or     edx,0x1
1000752f:	89 55 04             	mov    DWORD PTR [ebp+0x4],edx
10007532:	8b 43 fc             	mov    eax,DWORD PTR [ebx-0x4]
10007535:	83 e0 01             	and    eax,0x1
10007538:	09 f8                	or     eax,edi
1000753a:	89 43 fc             	mov    DWORD PTR [ebx-0x4],eax
1000753d:	e9 54 fe ff ff       	jmp    10007396 <_realloc_r+0x22a>
10007542:	66 90                	xchg   ax,ax
10007544:	8b 41 0c             	mov    eax,DWORD PTR [ecx+0xc]
10007547:	8b 51 08             	mov    edx,DWORD PTR [ecx+0x8]
1000754a:	89 42 0c             	mov    DWORD PTR [edx+0xc],eax
1000754d:	89 50 08             	mov    DWORD PTR [eax+0x8],edx
10007550:	8b 74 24 14          	mov    esi,DWORD PTR [esp+0x14]
10007554:	8d 4c 35 00          	lea    ecx,[ebp+esi*1+0x0]
10007558:	e9 1f fe ff ff       	jmp    1000737c <_realloc_r+0x210>
1000755d:	8d 76 00             	lea    esi,[esi+0x0]
10007560:	8b 47 fc             	mov    eax,DWORD PTR [edi-0x4]
10007563:	83 e0 fc             	and    eax,0xfffffffc
10007566:	01 c6                	add    esi,eax
10007568:	8d 4c 35 00          	lea    ecx,[ebp+esi*1+0x0]
1000756c:	e9 0b fe ff ff       	jmp    1000737c <_realloc_r+0x210>
10007571:	8d 76 00             	lea    esi,[esi+0x0]
10007574:	50                   	push   eax
10007575:	56                   	push   esi
10007576:	53                   	push   ebx
10007577:	57                   	push   edi
10007578:	e8 d3 ec ff ff       	call   10006250 <memmove>
1000757d:	83 c4 10             	add    esp,0x10
10007580:	e9 39 fd ff ff       	jmp    100072be <_realloc_r+0x152>
10007585:	8d 76 00             	lea    esi,[esi+0x0]
10007588:	89 f8                	mov    eax,edi
1000758a:	e9 d4 fd ff ff       	jmp    10007363 <_realloc_r+0x1f7>
1000758f:	90                   	nop
10007590:	8b 43 08             	mov    eax,DWORD PTR [ebx+0x8]
10007593:	89 47 08             	mov    DWORD PTR [edi+0x8],eax
10007596:	8b 43 0c             	mov    eax,DWORD PTR [ebx+0xc]
10007599:	89 47 0c             	mov    DWORD PTR [edi+0xc],eax
1000759c:	83 fe 24             	cmp    esi,0x24
1000759f:	74 32                	je     100075d3 <_realloc_r+0x467>
100075a1:	8d 53 10             	lea    edx,[ebx+0x10]
100075a4:	8d 47 10             	lea    eax,[edi+0x10]
100075a7:	8b 4b 10             	mov    ecx,DWORD PTR [ebx+0x10]
100075aa:	e9 01 fd ff ff       	jmp    100072b0 <_realloc_r+0x144>
100075af:	90                   	nop
100075b0:	8b 43 08             	mov    eax,DWORD PTR [ebx+0x8]
100075b3:	8b 54 24 14          	mov    edx,DWORD PTR [esp+0x14]
100075b7:	89 42 10             	mov    DWORD PTR [edx+0x10],eax
100075ba:	8b 43 0c             	mov    eax,DWORD PTR [ebx+0xc]
100075bd:	89 42 14             	mov    DWORD PTR [edx+0x14],eax
100075c0:	83 fe 24             	cmp    esi,0x24
100075c3:	74 3c                	je     10007601 <_realloc_r+0x495>
100075c5:	8d 42 18             	lea    eax,[edx+0x18]
100075c8:	8b 53 10             	mov    edx,DWORD PTR [ebx+0x10]
100075cb:	83 c3 10             	add    ebx,0x10
100075ce:	e9 90 fd ff ff       	jmp    10007363 <_realloc_r+0x1f7>
100075d3:	8b 43 10             	mov    eax,DWORD PTR [ebx+0x10]
100075d6:	89 47 10             	mov    DWORD PTR [edi+0x10],eax
100075d9:	8d 53 18             	lea    edx,[ebx+0x18]
100075dc:	8d 47 18             	lea    eax,[edi+0x18]
100075df:	8b 4b 14             	mov    ecx,DWORD PTR [ebx+0x14]
100075e2:	89 4f 14             	mov    DWORD PTR [edi+0x14],ecx
100075e5:	8b 4b 18             	mov    ecx,DWORD PTR [ebx+0x18]
100075e8:	e9 c3 fc ff ff       	jmp    100072b0 <_realloc_r+0x144>
100075ed:	83 ec 0c             	sub    esp,0xc
100075f0:	ff 74 24 14          	push   DWORD PTR [esp+0x14]
100075f4:	e8 f7 95 ff ff       	call   10000bf0 <__malloc_unlock>
100075f9:	83 c4 10             	add    esp,0x10
100075fc:	e9 00 fd ff ff       	jmp    10007301 <_realloc_r+0x195>
10007601:	8b 43 10             	mov    eax,DWORD PTR [ebx+0x10]
10007604:	8b 74 24 14          	mov    esi,DWORD PTR [esp+0x14]
10007608:	89 46 18             	mov    DWORD PTR [esi+0x18],eax
1000760b:	8d 46 20             	lea    eax,[esi+0x20]
1000760e:	8b 53 14             	mov    edx,DWORD PTR [ebx+0x14]
10007611:	89 56 1c             	mov    DWORD PTR [esi+0x1c],edx
10007614:	8b 53 18             	mov    edx,DWORD PTR [ebx+0x18]
10007617:	83 c3 18             	add    ebx,0x18
1000761a:	e9 44 fd ff ff       	jmp    10007363 <_realloc_r+0x1f7>
1000761f:	89 f8                	mov    eax,edi
10007621:	e9 78 fe ff ff       	jmp    1000749e <_realloc_r+0x332>
10007626:	89 4c 24 10          	mov    DWORD PTR [esp+0x10],ecx
1000762a:	51                   	push   ecx
1000762b:	56                   	push   esi
1000762c:	53                   	push   ebx
1000762d:	57                   	push   edi
1000762e:	e8 1d ec ff ff       	call   10006250 <memmove>
10007633:	83 c4 10             	add    esp,0x10
10007636:	8b 4c 24 10          	mov    ecx,DWORD PTR [esp+0x10]
1000763a:	e9 6d fe ff ff       	jmp    100074ac <_realloc_r+0x340>
1000763f:	8b 43 08             	mov    eax,DWORD PTR [ebx+0x8]
10007642:	8b 54 24 14          	mov    edx,DWORD PTR [esp+0x14]
10007646:	89 42 10             	mov    DWORD PTR [edx+0x10],eax
10007649:	8b 43 0c             	mov    eax,DWORD PTR [ebx+0xc]
1000764c:	89 42 14             	mov    DWORD PTR [edx+0x14],eax
1000764f:	83 fe 24             	cmp    esi,0x24
10007652:	74 0e                	je     10007662 <_realloc_r+0x4f6>
10007654:	8d 42 18             	lea    eax,[edx+0x18]
10007657:	8b 53 10             	mov    edx,DWORD PTR [ebx+0x10]
1000765a:	83 c3 10             	add    ebx,0x10
1000765d:	e9 3c fe ff ff       	jmp    1000749e <_realloc_r+0x332>
10007662:	8b 43 10             	mov    eax,DWORD PTR [ebx+0x10]
10007665:	8b 74 24 14          	mov    esi,DWORD PTR [esp+0x14]
10007669:	89 46 18             	mov    DWORD PTR [esi+0x18],eax
1000766c:	8d 46 20             	lea    eax,[esi+0x20]
1000766f:	8b 53 14             	mov    edx,DWORD PTR [ebx+0x14]
10007672:	89 56 1c             	mov    DWORD PTR [esi+0x1c],edx
10007675:	8b 53 18             	mov    edx,DWORD PTR [ebx+0x18]
10007678:	83 c3 18             	add    ebx,0x18
1000767b:	e9 1e fe ff ff       	jmp    1000749e <_realloc_r+0x332>

10007680 <cleanup_glue>:
10007680:	56                   	push   esi
10007681:	53                   	push   ebx
10007682:	52                   	push   edx
10007683:	8b 74 24 10          	mov    esi,DWORD PTR [esp+0x10]
10007687:	8b 5c 24 14          	mov    ebx,DWORD PTR [esp+0x14]
1000768b:	8b 03                	mov    eax,DWORD PTR [ebx]
1000768d:	85 c0                	test   eax,eax
1000768f:	74 0d                	je     1000769e <cleanup_glue+0x1e>
10007691:	83 ec 08             	sub    esp,0x8
10007694:	50                   	push   eax
10007695:	56                   	push   esi
10007696:	e8 e5 ff ff ff       	call   10007680 <cleanup_glue>
1000769b:	83 c4 10             	add    esp,0x10
1000769e:	89 5c 24 14          	mov    DWORD PTR [esp+0x14],ebx
100076a2:	89 74 24 10          	mov    DWORD PTR [esp+0x10],esi
100076a6:	58                   	pop    eax
100076a7:	5b                   	pop    ebx
100076a8:	5e                   	pop    esi
100076a9:	e9 92 e1 ff ff       	jmp    10005840 <_free_r>
100076ae:	66 90                	xchg   ax,ax

100076b0 <_reclaim_reent>:
100076b0:	57                   	push   edi
100076b1:	56                   	push   esi
100076b2:	53                   	push   ebx
100076b3:	8b 74 24 10          	mov    esi,DWORD PTR [esp+0x10]
100076b7:	39 35 20 e0 00 10    	cmp    DWORD PTR ds:0x1000e020,esi
100076bd:	0f 84 ba 00 00 00    	je     1000777d <_reclaim_reent+0xcd>
100076c3:	8b 56 4c             	mov    edx,DWORD PTR [esi+0x4c]
100076c6:	85 d2                	test   edx,edx
100076c8:	74 3a                	je     10007704 <_reclaim_reent+0x54>
100076ca:	31 ff                	xor    edi,edi
100076cc:	8b 04 3a             	mov    eax,DWORD PTR [edx+edi*1]
100076cf:	85 c0                	test   eax,eax
100076d1:	74 19                	je     100076ec <_reclaim_reent+0x3c>
100076d3:	90                   	nop
100076d4:	8b 18                	mov    ebx,DWORD PTR [eax]
100076d6:	83 ec 08             	sub    esp,0x8
100076d9:	50                   	push   eax
100076da:	56                   	push   esi
100076db:	e8 60 e1 ff ff       	call   10005840 <_free_r>
100076e0:	89 d8                	mov    eax,ebx
100076e2:	83 c4 10             	add    esp,0x10
100076e5:	85 db                	test   ebx,ebx
100076e7:	75 eb                	jne    100076d4 <_reclaim_reent+0x24>
100076e9:	8b 56 4c             	mov    edx,DWORD PTR [esi+0x4c]
100076ec:	83 c7 04             	add    edi,0x4
100076ef:	81 ff 80 00 00 00    	cmp    edi,0x80
100076f5:	75 d5                	jne    100076cc <_reclaim_reent+0x1c>
100076f7:	83 ec 08             	sub    esp,0x8
100076fa:	52                   	push   edx
100076fb:	56                   	push   esi
100076fc:	e8 3f e1 ff ff       	call   10005840 <_free_r>
10007701:	83 c4 10             	add    esp,0x10
10007704:	8b 46 40             	mov    eax,DWORD PTR [esi+0x40]
10007707:	85 c0                	test   eax,eax
10007709:	74 0d                	je     10007718 <_reclaim_reent+0x68>
1000770b:	83 ec 08             	sub    esp,0x8
1000770e:	50                   	push   eax
1000770f:	56                   	push   esi
10007710:	e8 2b e1 ff ff       	call   10005840 <_free_r>
10007715:	83 c4 10             	add    esp,0x10
10007718:	8b 86 48 01 00 00    	mov    eax,DWORD PTR [esi+0x148]
1000771e:	85 c0                	test   eax,eax
10007720:	74 1f                	je     10007741 <_reclaim_reent+0x91>
10007722:	8d be 4c 01 00 00    	lea    edi,[esi+0x14c]
10007728:	39 f8                	cmp    eax,edi
1000772a:	74 15                	je     10007741 <_reclaim_reent+0x91>
1000772c:	8b 18                	mov    ebx,DWORD PTR [eax]
1000772e:	83 ec 08             	sub    esp,0x8
10007731:	50                   	push   eax
10007732:	56                   	push   esi
10007733:	e8 08 e1 ff ff       	call   10005840 <_free_r>
10007738:	89 d8                	mov    eax,ebx
1000773a:	83 c4 10             	add    esp,0x10
1000773d:	39 df                	cmp    edi,ebx
1000773f:	75 eb                	jne    1000772c <_reclaim_reent+0x7c>
10007741:	8b 46 54             	mov    eax,DWORD PTR [esi+0x54]
10007744:	85 c0                	test   eax,eax
10007746:	74 0d                	je     10007755 <_reclaim_reent+0xa5>
10007748:	83 ec 08             	sub    esp,0x8
1000774b:	50                   	push   eax
1000774c:	56                   	push   esi
1000774d:	e8 ee e0 ff ff       	call   10005840 <_free_r>
10007752:	83 c4 10             	add    esp,0x10
10007755:	8b 46 38             	mov    eax,DWORD PTR [esi+0x38]
10007758:	85 c0                	test   eax,eax
1000775a:	74 21                	je     1000777d <_reclaim_reent+0xcd>
1000775c:	83 ec 0c             	sub    esp,0xc
1000775f:	56                   	push   esi
10007760:	ff 56 3c             	call   DWORD PTR [esi+0x3c]
10007763:	8b 86 e0 02 00 00    	mov    eax,DWORD PTR [esi+0x2e0]
10007769:	83 c4 10             	add    esp,0x10
1000776c:	85 c0                	test   eax,eax
1000776e:	74 0d                	je     1000777d <_reclaim_reent+0xcd>
10007770:	83 ec 08             	sub    esp,0x8
10007773:	50                   	push   eax
10007774:	56                   	push   esi
10007775:	e8 06 ff ff ff       	call   10007680 <cleanup_glue>
1000777a:	83 c4 10             	add    esp,0x10
1000777d:	5b                   	pop    ebx
1000777e:	5e                   	pop    esi
1000777f:	5f                   	pop    edi
10007780:	c3                   	ret    
10007781:	66 90                	xchg   ax,ax
10007783:	90                   	nop

10007784 <__sread>:
10007784:	53                   	push   ebx
10007785:	83 ec 08             	sub    esp,0x8
10007788:	8b 5c 24 14          	mov    ebx,DWORD PTR [esp+0x14]
1000778c:	ff 74 24 1c          	push   DWORD PTR [esp+0x1c]
10007790:	ff 74 24 1c          	push   DWORD PTR [esp+0x1c]
10007794:	0f bf 43 0e          	movsx  eax,WORD PTR [ebx+0xe]
10007798:	50                   	push   eax
10007799:	ff 74 24 1c          	push   DWORD PTR [esp+0x1c]
1000779d:	e8 1e 1a 00 00       	call   100091c0 <_read_r>
100077a2:	83 c4 10             	add    esp,0x10
100077a5:	85 c0                	test   eax,eax
100077a7:	78 0b                	js     100077b4 <__sread+0x30>
100077a9:	01 43 50             	add    DWORD PTR [ebx+0x50],eax
100077ac:	83 c4 08             	add    esp,0x8
100077af:	5b                   	pop    ebx
100077b0:	c3                   	ret    
100077b1:	8d 76 00             	lea    esi,[esi+0x0]
100077b4:	66 81 63 0c ff ef    	and    WORD PTR [ebx+0xc],0xefff
100077ba:	83 c4 08             	add    esp,0x8
100077bd:	5b                   	pop    ebx
100077be:	c3                   	ret    
100077bf:	90                   	nop

100077c0 <__seofread>:
100077c0:	31 c0                	xor    eax,eax
100077c2:	c3                   	ret    
100077c3:	90                   	nop

100077c4 <__swrite>:
100077c4:	55                   	push   ebp
100077c5:	57                   	push   edi
100077c6:	56                   	push   esi
100077c7:	53                   	push   ebx
100077c8:	83 ec 0c             	sub    esp,0xc
100077cb:	8b 74 24 20          	mov    esi,DWORD PTR [esp+0x20]
100077cf:	8b 5c 24 24          	mov    ebx,DWORD PTR [esp+0x24]
100077d3:	8b 7c 24 28          	mov    edi,DWORD PTR [esp+0x28]
100077d7:	8b 6c 24 2c          	mov    ebp,DWORD PTR [esp+0x2c]
100077db:	8b 43 0c             	mov    eax,DWORD PTR [ebx+0xc]
100077de:	0f bf 53 0e          	movsx  edx,WORD PTR [ebx+0xe]
100077e2:	f6 c4 01             	test   ah,0x1
100077e5:	75 25                	jne    1000780c <__swrite+0x48>
100077e7:	80 e4 ef             	and    ah,0xef
100077ea:	66 89 43 0c          	mov    WORD PTR [ebx+0xc],ax
100077ee:	89 6c 24 2c          	mov    DWORD PTR [esp+0x2c],ebp
100077f2:	89 7c 24 28          	mov    DWORD PTR [esp+0x28],edi
100077f6:	89 54 24 24          	mov    DWORD PTR [esp+0x24],edx
100077fa:	89 74 24 20          	mov    DWORD PTR [esp+0x20],esi
100077fe:	83 c4 0c             	add    esp,0xc
10007801:	5b                   	pop    ebx
10007802:	5e                   	pop    esi
10007803:	5f                   	pop    edi
10007804:	5d                   	pop    ebp
10007805:	e9 ca 14 00 00       	jmp    10008cd4 <_write_r>
1000780a:	66 90                	xchg   ax,ax
1000780c:	6a 02                	push   0x2
1000780e:	6a 00                	push   0x0
10007810:	52                   	push   edx
10007811:	56                   	push   esi
10007812:	e8 19 19 00 00       	call   10009130 <_lseek_r>
10007817:	8b 43 0c             	mov    eax,DWORD PTR [ebx+0xc]
1000781a:	0f bf 53 0e          	movsx  edx,WORD PTR [ebx+0xe]
1000781e:	83 c4 10             	add    esp,0x10
10007821:	eb c4                	jmp    100077e7 <__swrite+0x23>
10007823:	90                   	nop

10007824 <__sseek>:
10007824:	53                   	push   ebx
10007825:	83 ec 08             	sub    esp,0x8
10007828:	8b 5c 24 14          	mov    ebx,DWORD PTR [esp+0x14]
1000782c:	ff 74 24 1c          	push   DWORD PTR [esp+0x1c]
10007830:	ff 74 24 1c          	push   DWORD PTR [esp+0x1c]
10007834:	0f bf 43 0e          	movsx  eax,WORD PTR [ebx+0xe]
10007838:	50                   	push   eax
10007839:	ff 74 24 1c          	push   DWORD PTR [esp+0x1c]
1000783d:	e8 ee 18 00 00       	call   10009130 <_lseek_r>
10007842:	83 c4 10             	add    esp,0x10
10007845:	83 f8 ff             	cmp    eax,0xffffffff
10007848:	74 0e                	je     10007858 <__sseek+0x34>
1000784a:	66 81 4b 0c 00 10    	or     WORD PTR [ebx+0xc],0x1000
10007850:	89 43 50             	mov    DWORD PTR [ebx+0x50],eax
10007853:	83 c4 08             	add    esp,0x8
10007856:	5b                   	pop    ebx
10007857:	c3                   	ret    
10007858:	66 81 63 0c ff ef    	and    WORD PTR [ebx+0xc],0xefff
1000785e:	83 c4 08             	add    esp,0x8
10007861:	5b                   	pop    ebx
10007862:	c3                   	ret    
10007863:	90                   	nop

10007864 <__sclose>:
10007864:	8b 44 24 08          	mov    eax,DWORD PTR [esp+0x8]
10007868:	0f bf 40 0e          	movsx  eax,WORD PTR [eax+0xe]
1000786c:	89 44 24 08          	mov    DWORD PTR [esp+0x8],eax
10007870:	e9 fb 14 00 00       	jmp    10008d70 <_close_r>
10007875:	66 90                	xchg   ax,ax
10007877:	90                   	nop

10007878 <strcpy>:
10007878:	57                   	push   edi
10007879:	56                   	push   esi
1000787a:	53                   	push   ebx
1000787b:	8b 44 24 10          	mov    eax,DWORD PTR [esp+0x10]
1000787f:	8b 5c 24 14          	mov    ebx,DWORD PTR [esp+0x14]
10007883:	89 da                	mov    edx,ebx
10007885:	09 c2                	or     edx,eax
10007887:	83 e2 03             	and    edx,0x3
1000788a:	75 4c                	jne    100078d8 <strcpy+0x60>
1000788c:	8b 13                	mov    edx,DWORD PTR [ebx]
1000788e:	8d 8a ff fe fe fe    	lea    ecx,[edx-0x1010101]
10007894:	89 d6                	mov    esi,edx
10007896:	f7 d6                	not    esi
10007898:	21 f1                	and    ecx,esi
1000789a:	81 e1 80 80 80 80    	and    ecx,0x80808080
100078a0:	75 36                	jne    100078d8 <strcpy+0x60>
100078a2:	89 c6                	mov    esi,eax
100078a4:	83 c3 04             	add    ebx,0x4
100078a7:	83 c6 04             	add    esi,0x4
100078aa:	89 56 fc             	mov    DWORD PTR [esi-0x4],edx
100078ad:	8b 13                	mov    edx,DWORD PTR [ebx]
100078af:	8d 8a ff fe fe fe    	lea    ecx,[edx-0x1010101]
100078b5:	89 d7                	mov    edi,edx
100078b7:	f7 d7                	not    edi
100078b9:	21 f9                	and    ecx,edi
100078bb:	81 e1 80 80 80 80    	and    ecx,0x80808080
100078c1:	74 e1                	je     100078a4 <strcpy+0x2c>
100078c3:	31 d2                	xor    edx,edx
100078c5:	8d 76 00             	lea    esi,[esi+0x0]
100078c8:	8a 0c 13             	mov    cl,BYTE PTR [ebx+edx*1]
100078cb:	88 0c 16             	mov    BYTE PTR [esi+edx*1],cl
100078ce:	42                   	inc    edx
100078cf:	84 c9                	test   cl,cl
100078d1:	75 f5                	jne    100078c8 <strcpy+0x50>
100078d3:	5b                   	pop    ebx
100078d4:	5e                   	pop    esi
100078d5:	5f                   	pop    edi
100078d6:	c3                   	ret    
100078d7:	90                   	nop
100078d8:	89 c6                	mov    esi,eax
100078da:	eb e7                	jmp    100078c3 <strcpy+0x4b>

100078dc <__sprint_r.part.0>:
100078dc:	55                   	push   ebp
100078dd:	57                   	push   edi
100078de:	56                   	push   esi
100078df:	53                   	push   ebx
100078e0:	83 ec 1c             	sub    esp,0x1c
100078e3:	89 c7                	mov    edi,eax
100078e5:	89 d3                	mov    ebx,edx
100078e7:	89 4c 24 04          	mov    DWORD PTR [esp+0x4],ecx
100078eb:	f6 42 65 20          	test   BYTE PTR [edx+0x65],0x20
100078ef:	0f 84 83 00 00 00    	je     10007978 <__sprint_r.part.0+0x9c>
100078f5:	8b 11                	mov    edx,DWORD PTR [ecx]
100078f7:	89 54 24 08          	mov    DWORD PTR [esp+0x8],edx
100078fb:	8b 49 08             	mov    ecx,DWORD PTR [ecx+0x8]
100078fe:	85 c9                	test   ecx,ecx
10007900:	74 71                	je     10007973 <__sprint_r.part.0+0x97>
10007902:	8b 44 24 08          	mov    eax,DWORD PTR [esp+0x8]
10007906:	8b 30                	mov    esi,DWORD PTR [eax]
10007908:	8b 40 04             	mov    eax,DWORD PTR [eax+0x4]
1000790b:	89 44 24 0c          	mov    DWORD PTR [esp+0xc],eax
1000790f:	c1 e8 02             	shr    eax,0x2
10007912:	89 04 24             	mov    DWORD PTR [esp],eax
10007915:	74 3d                	je     10007954 <__sprint_r.part.0+0x78>
10007917:	31 ed                	xor    ebp,ebp
10007919:	eb 07                	jmp    10007922 <__sprint_r.part.0+0x46>
1000791b:	90                   	nop
1000791c:	45                   	inc    ebp
1000791d:	39 2c 24             	cmp    DWORD PTR [esp],ebp
10007920:	74 32                	je     10007954 <__sprint_r.part.0+0x78>
10007922:	52                   	push   edx
10007923:	53                   	push   ebx
10007924:	ff 34 ae             	push   DWORD PTR [esi+ebp*4]
10007927:	57                   	push   edi
10007928:	e8 87 16 00 00       	call   10008fb4 <_fputwc_r>
1000792d:	83 c4 10             	add    esp,0x10
10007930:	40                   	inc    eax
10007931:	75 e9                	jne    1000791c <__sprint_r.part.0+0x40>
10007933:	b8 ff ff ff ff       	mov    eax,0xffffffff
10007938:	8b 54 24 04          	mov    edx,DWORD PTR [esp+0x4]
1000793c:	c7 42 08 00 00 00 00 	mov    DWORD PTR [edx+0x8],0x0
10007943:	c7 42 04 00 00 00 00 	mov    DWORD PTR [edx+0x4],0x0
1000794a:	83 c4 1c             	add    esp,0x1c
1000794d:	5b                   	pop    ebx
1000794e:	5e                   	pop    esi
1000794f:	5f                   	pop    edi
10007950:	5d                   	pop    ebp
10007951:	c3                   	ret    
10007952:	66 90                	xchg   ax,ax
10007954:	8b 44 24 0c          	mov    eax,DWORD PTR [esp+0xc]
10007958:	83 e0 fc             	and    eax,0xfffffffc
1000795b:	8b 4c 24 04          	mov    ecx,DWORD PTR [esp+0x4]
1000795f:	8b 51 08             	mov    edx,DWORD PTR [ecx+0x8]
10007962:	89 14 24             	mov    DWORD PTR [esp],edx
10007965:	29 c2                	sub    edx,eax
10007967:	89 51 08             	mov    DWORD PTR [ecx+0x8],edx
1000796a:	83 44 24 08 08       	add    DWORD PTR [esp+0x8],0x8
1000796f:	85 d2                	test   edx,edx
10007971:	75 8f                	jne    10007902 <__sprint_r.part.0+0x26>
10007973:	31 c0                	xor    eax,eax
10007975:	eb c1                	jmp    10007938 <__sprint_r.part.0+0x5c>
10007977:	90                   	nop
10007978:	50                   	push   eax
10007979:	ff 74 24 08          	push   DWORD PTR [esp+0x8]
1000797d:	52                   	push   edx
1000797e:	57                   	push   edi
1000797f:	e8 8c e1 ff ff       	call   10005b10 <__sfvwrite_r>
10007984:	83 c4 10             	add    esp,0x10
10007987:	eb af                	jmp    10007938 <__sprint_r.part.0+0x5c>
10007989:	8d 76 00             	lea    esi,[esi+0x0]

1000798c <__sprint_r>:
1000798c:	8b 44 24 04          	mov    eax,DWORD PTR [esp+0x4]
10007990:	8b 54 24 08          	mov    edx,DWORD PTR [esp+0x8]
10007994:	8b 4c 24 0c          	mov    ecx,DWORD PTR [esp+0xc]
10007998:	83 79 08 00          	cmp    DWORD PTR [ecx+0x8],0x0
1000799c:	74 06                	je     100079a4 <__sprint_r+0x18>
1000799e:	e9 39 ff ff ff       	jmp    100078dc <__sprint_r.part.0>
100079a3:	90                   	nop
100079a4:	c7 41 04 00 00 00 00 	mov    DWORD PTR [ecx+0x4],0x0
100079ab:	31 c0                	xor    eax,eax
100079ad:	c3                   	ret    
100079ae:	66 90                	xchg   ax,ax

100079b0 <_vfiprintf_r>:
100079b0:	55                   	push   ebp
100079b1:	57                   	push   edi
100079b2:	56                   	push   esi
100079b3:	53                   	push   ebx
100079b4:	81 ec bc 00 00 00    	sub    esp,0xbc
100079ba:	8b b4 24 d0 00 00 00 	mov    esi,DWORD PTR [esp+0xd0]
100079c1:	85 f6                	test   esi,esi
100079c3:	74 12                	je     100079d7 <_vfiprintf_r+0x27>
100079c5:	8b 84 24 d0 00 00 00 	mov    eax,DWORD PTR [esp+0xd0]
100079cc:	8b 58 38             	mov    ebx,DWORD PTR [eax+0x38]
100079cf:	85 db                	test   ebx,ebx
100079d1:	0f 84 f3 08 00 00    	je     100082ca <_vfiprintf_r+0x91a>
100079d7:	8b 84 24 d4 00 00 00 	mov    eax,DWORD PTR [esp+0xd4]
100079de:	8b 40 0c             	mov    eax,DWORD PTR [eax+0xc]
100079e1:	f6 c4 20             	test   ah,0x20
100079e4:	75 15                	jne    100079fb <_vfiprintf_r+0x4b>
100079e6:	80 cc 20             	or     ah,0x20
100079e9:	8b bc 24 d4 00 00 00 	mov    edi,DWORD PTR [esp+0xd4]
100079f0:	66 89 47 0c          	mov    WORD PTR [edi+0xc],ax
100079f4:	81 67 64 ff df ff ff 	and    DWORD PTR [edi+0x64],0xffffdfff
100079fb:	a8 08                	test   al,0x8
100079fd:	0f 84 09 01 00 00    	je     10007b0c <_vfiprintf_r+0x15c>
10007a03:	8b bc 24 d4 00 00 00 	mov    edi,DWORD PTR [esp+0xd4]
10007a0a:	8b 4f 10             	mov    ecx,DWORD PTR [edi+0x10]
10007a0d:	85 c9                	test   ecx,ecx
10007a0f:	0f 84 f7 00 00 00    	je     10007b0c <_vfiprintf_r+0x15c>
10007a15:	83 e0 1a             	and    eax,0x1a
10007a18:	66 83 f8 0a          	cmp    ax,0xa
10007a1c:	0f 84 22 01 00 00    	je     10007b44 <_vfiprintf_r+0x194>
10007a22:	8d 44 24 70          	lea    eax,[esp+0x70]
10007a26:	89 44 24 3c          	mov    DWORD PTR [esp+0x3c],eax
10007a2a:	c7 44 24 44 00 00 00 00 	mov    DWORD PTR [esp+0x44],0x0
10007a32:	c7 44 24 40 00 00 00 00 	mov    DWORD PTR [esp+0x40],0x0
10007a3a:	89 c5                	mov    ebp,eax
10007a3c:	c7 44 24 2c 00 00 00 00 	mov    DWORD PTR [esp+0x2c],0x0
10007a44:	c7 44 24 20 00 00 00 00 	mov    DWORD PTR [esp+0x20],0x0
10007a4c:	8b 84 24 d8 00 00 00 	mov    eax,DWORD PTR [esp+0xd8]
10007a53:	8a 00                	mov    al,BYTE PTR [eax]
10007a55:	84 c0                	test   al,al
10007a57:	0f 84 67 01 00 00    	je     10007bc4 <_vfiprintf_r+0x214>
10007a5d:	3c 25                	cmp    al,0x25
10007a5f:	0f 84 3c 0e 00 00    	je     100088a1 <_vfiprintf_r+0xef1>
10007a65:	8b 9c 24 d8 00 00 00 	mov    ebx,DWORD PTR [esp+0xd8]
10007a6c:	eb 0c                	jmp    10007a7a <_vfiprintf_r+0xca>
10007a6e:	66 90                	xchg   ax,ax
10007a70:	3c 25                	cmp    al,0x25
10007a72:	0f 84 0c 01 00 00    	je     10007b84 <_vfiprintf_r+0x1d4>
10007a78:	89 f3                	mov    ebx,esi
10007a7a:	8d 73 01             	lea    esi,[ebx+0x1]
10007a7d:	8a 43 01             	mov    al,BYTE PTR [ebx+0x1]
10007a80:	84 c0                	test   al,al
10007a82:	75 ec                	jne    10007a70 <_vfiprintf_r+0xc0>
10007a84:	89 f7                	mov    edi,esi
10007a86:	2b bc 24 d8 00 00 00 	sub    edi,DWORD PTR [esp+0xd8]
10007a8d:	0f 84 31 01 00 00    	je     10007bc4 <_vfiprintf_r+0x214>
10007a93:	8b 84 24 d8 00 00 00 	mov    eax,DWORD PTR [esp+0xd8]
10007a9a:	89 45 00             	mov    DWORD PTR [ebp+0x0],eax
10007a9d:	89 7d 04             	mov    DWORD PTR [ebp+0x4],edi
10007aa0:	8b 54 24 44          	mov    edx,DWORD PTR [esp+0x44]
10007aa4:	01 fa                	add    edx,edi
10007aa6:	89 54 24 44          	mov    DWORD PTR [esp+0x44],edx
10007aaa:	8b 44 24 40          	mov    eax,DWORD PTR [esp+0x40]
10007aae:	40                   	inc    eax
10007aaf:	89 44 24 40          	mov    DWORD PTR [esp+0x40],eax
10007ab3:	83 f8 07             	cmp    eax,0x7
10007ab6:	0f 8f dc 00 00 00    	jg     10007b98 <_vfiprintf_r+0x1e8>
10007abc:	83 c5 08             	add    ebp,0x8
10007abf:	01 7c 24 20          	add    DWORD PTR [esp+0x20],edi
10007ac3:	80 7b 01 00          	cmp    BYTE PTR [ebx+0x1],0x0
10007ac7:	0f 84 f7 00 00 00    	je     10007bc4 <_vfiprintf_r+0x214>
10007acd:	46                   	inc    esi
10007ace:	c6 44 24 39 00       	mov    BYTE PTR [esp+0x39],0x0
10007ad3:	31 c9                	xor    ecx,ecx
10007ad5:	31 ff                	xor    edi,edi
10007ad7:	c7 44 24 14 ff ff ff ff 	mov    DWORD PTR [esp+0x14],0xffffffff
10007adf:	c7 44 24 1c 00 00 00 00 	mov    DWORD PTR [esp+0x1c],0x0
10007ae7:	31 db                	xor    ebx,ebx
10007ae9:	8d 56 01             	lea    edx,[esi+0x1]
10007aec:	0f be 06             	movsx  eax,BYTE PTR [esi]
10007aef:	8d 70 e0             	lea    esi,[eax-0x20]
10007af2:	83 fe 58             	cmp    esi,0x58
10007af5:	0f 87 81 01 00 00    	ja     10007c7c <_vfiprintf_r+0x2cc>
10007afb:	ff 24 b5 e8 cd 00 10 	jmp    DWORD PTR [esi*4+0x1000cde8]
10007b02:	66 90                	xchg   ax,ax
10007b04:	83 cb 10             	or     ebx,0x10
10007b07:	89 d6                	mov    esi,edx
10007b09:	eb de                	jmp    10007ae9 <_vfiprintf_r+0x139>
10007b0b:	90                   	nop
10007b0c:	83 ec 08             	sub    esp,0x8
10007b0f:	ff b4 24 dc 00 00 00 	push   DWORD PTR [esp+0xdc]
10007b16:	ff b4 24 dc 00 00 00 	push   DWORD PTR [esp+0xdc]
10007b1d:	e8 42 b5 ff ff       	call   10003064 <__swsetup_r>
10007b22:	83 c4 10             	add    esp,0x10
10007b25:	85 c0                	test   eax,eax
10007b27:	0f 85 78 0f 00 00    	jne    10008aa5 <_vfiprintf_r+0x10f5>
10007b2d:	8b 84 24 d4 00 00 00 	mov    eax,DWORD PTR [esp+0xd4]
10007b34:	8b 40 0c             	mov    eax,DWORD PTR [eax+0xc]
10007b37:	83 e0 1a             	and    eax,0x1a
10007b3a:	66 83 f8 0a          	cmp    ax,0xa
10007b3e:	0f 85 de fe ff ff    	jne    10007a22 <_vfiprintf_r+0x72>
10007b44:	8b 84 24 d4 00 00 00 	mov    eax,DWORD PTR [esp+0xd4]
10007b4b:	66 83 78 0e 00       	cmp    WORD PTR [eax+0xe],0x0
10007b50:	0f 88 cc fe ff ff    	js     10007a22 <_vfiprintf_r+0x72>
10007b56:	83 ec 0c             	sub    esp,0xc
10007b59:	ff b4 24 e8 00 00 00 	push   DWORD PTR [esp+0xe8]
10007b60:	8b 8c 24 e8 00 00 00 	mov    ecx,DWORD PTR [esp+0xe8]
10007b67:	8b 94 24 e4 00 00 00 	mov    edx,DWORD PTR [esp+0xe4]
10007b6e:	8b 84 24 e0 00 00 00 	mov    eax,DWORD PTR [esp+0xe0]
10007b75:	e8 96 0f 00 00       	call   10008b10 <__sbprintf>
10007b7a:	89 44 24 30          	mov    DWORD PTR [esp+0x30],eax
10007b7e:	83 c4 10             	add    esp,0x10
10007b81:	eb 72                	jmp    10007bf5 <_vfiprintf_r+0x245>
10007b83:	90                   	nop
10007b84:	89 f7                	mov    edi,esi
10007b86:	2b bc 24 d8 00 00 00 	sub    edi,DWORD PTR [esp+0xd8]
10007b8d:	0f 84 3a ff ff ff    	je     10007acd <_vfiprintf_r+0x11d>
10007b93:	e9 fb fe ff ff       	jmp    10007a93 <_vfiprintf_r+0xe3>
10007b98:	85 d2                	test   edx,edx
10007b9a:	0f 84 a1 0c 00 00    	je     10008841 <_vfiprintf_r+0xe91>
10007ba0:	8d 4c 24 3c          	lea    ecx,[esp+0x3c]
10007ba4:	8b 94 24 d4 00 00 00 	mov    edx,DWORD PTR [esp+0xd4]
10007bab:	8b 84 24 d0 00 00 00 	mov    eax,DWORD PTR [esp+0xd0]
10007bb2:	e8 25 fd ff ff       	call   100078dc <__sprint_r.part.0>
10007bb7:	85 c0                	test   eax,eax
10007bb9:	75 29                	jne    10007be4 <_vfiprintf_r+0x234>
10007bbb:	8d 6c 24 70          	lea    ebp,[esp+0x70]
10007bbf:	e9 fb fe ff ff       	jmp    10007abf <_vfiprintf_r+0x10f>
10007bc4:	8b 4c 24 44          	mov    ecx,DWORD PTR [esp+0x44]
10007bc8:	85 c9                	test   ecx,ecx
10007bca:	74 18                	je     10007be4 <_vfiprintf_r+0x234>
10007bcc:	8d 4c 24 3c          	lea    ecx,[esp+0x3c]
10007bd0:	8b 94 24 d4 00 00 00 	mov    edx,DWORD PTR [esp+0xd4]
10007bd7:	8b 84 24 d0 00 00 00 	mov    eax,DWORD PTR [esp+0xd0]
10007bde:	e8 f9 fc ff ff       	call   100078dc <__sprint_r.part.0>
10007be3:	90                   	nop
10007be4:	8b 84 24 d4 00 00 00 	mov    eax,DWORD PTR [esp+0xd4]
10007beb:	f6 40 0c 40          	test   BYTE PTR [eax+0xc],0x40
10007bef:	0f 85 b0 0e 00 00    	jne    10008aa5 <_vfiprintf_r+0x10f5>
10007bf5:	8b 44 24 20          	mov    eax,DWORD PTR [esp+0x20]
10007bf9:	81 c4 bc 00 00 00    	add    esp,0xbc
10007bff:	5b                   	pop    ebx
10007c00:	5e                   	pop    esi
10007c01:	5f                   	pop    edi
10007c02:	5d                   	pop    ebp
10007c03:	c3                   	ret    
10007c04:	8b 84 24 dc 00 00 00 	mov    eax,DWORD PTR [esp+0xdc]
10007c0b:	83 c0 04             	add    eax,0x4
10007c0e:	8b b4 24 dc 00 00 00 	mov    esi,DWORD PTR [esp+0xdc]
10007c15:	8b 36                	mov    esi,DWORD PTR [esi]
10007c17:	89 74 24 1c          	mov    DWORD PTR [esp+0x1c],esi
10007c1b:	85 f6                	test   esi,esi
10007c1d:	0f 89 8a 0c 00 00    	jns    100088ad <_vfiprintf_r+0xefd>
10007c23:	f7 de                	neg    esi
10007c25:	89 74 24 1c          	mov    DWORD PTR [esp+0x1c],esi
10007c29:	89 84 24 dc 00 00 00 	mov    DWORD PTR [esp+0xdc],eax
10007c30:	83 cb 04             	or     ebx,0x4
10007c33:	89 d6                	mov    esi,edx
10007c35:	e9 af fe ff ff       	jmp    10007ae9 <_vfiprintf_r+0x139>
10007c3a:	b1 01                	mov    cl,0x1
10007c3c:	bf 2b 00 00 00       	mov    edi,0x2b
10007c41:	89 d6                	mov    esi,edx
10007c43:	e9 a1 fe ff ff       	jmp    10007ae9 <_vfiprintf_r+0x139>
10007c48:	8d 70 d0             	lea    esi,[eax-0x30]
10007c4b:	89 5c 24 0c          	mov    DWORD PTR [esp+0xc],ebx
10007c4f:	31 db                	xor    ebx,ebx
10007c51:	8d 76 00             	lea    esi,[esi+0x0]
10007c54:	8d 1c 9b             	lea    ebx,[ebx+ebx*4]
10007c57:	01 db                	add    ebx,ebx
10007c59:	01 f3                	add    ebx,esi
10007c5b:	42                   	inc    edx
10007c5c:	0f be 42 ff          	movsx  eax,BYTE PTR [edx-0x1]
10007c60:	8d 70 d0             	lea    esi,[eax-0x30]
10007c63:	83 fe 09             	cmp    esi,0x9
10007c66:	76 ec                	jbe    10007c54 <_vfiprintf_r+0x2a4>
10007c68:	89 5c 24 1c          	mov    DWORD PTR [esp+0x1c],ebx
10007c6c:	8b 5c 24 0c          	mov    ebx,DWORD PTR [esp+0xc]
10007c70:	8d 70 e0             	lea    esi,[eax-0x20]
10007c73:	83 fe 58             	cmp    esi,0x58
10007c76:	0f 86 7f fe ff ff    	jbe    10007afb <_vfiprintf_r+0x14b>
10007c7c:	89 94 24 d8 00 00 00 	mov    DWORD PTR [esp+0xd8],edx
10007c83:	84 c9                	test   cl,cl
10007c85:	0f 85 b8 0d 00 00    	jne    10008a43 <_vfiprintf_r+0x1093>
10007c8b:	85 c0                	test   eax,eax
10007c8d:	0f 84 31 ff ff ff    	je     10007bc4 <_vfiprintf_r+0x214>
10007c93:	88 44 24 48          	mov    BYTE PTR [esp+0x48],al
10007c97:	c6 44 24 39 00       	mov    BYTE PTR [esp+0x39],0x0
10007c9c:	c7 44 24 0c 01 00 00 00 	mov    DWORD PTR [esp+0xc],0x1
10007ca4:	c7 44 24 18 01 00 00 00 	mov    DWORD PTR [esp+0x18],0x1
10007cac:	8d 7c 24 48          	lea    edi,[esp+0x48]
10007cb0:	e9 36 01 00 00       	jmp    10007deb <_vfiprintf_r+0x43b>
10007cb5:	89 94 24 d8 00 00 00 	mov    DWORD PTR [esp+0xd8],edx
10007cbc:	84 c9                	test   cl,cl
10007cbe:	0f 85 95 0d 00 00    	jne    10008a59 <_vfiprintf_r+0x10a9>
10007cc4:	83 cb 10             	or     ebx,0x10
10007cc7:	8b 84 24 dc 00 00 00 	mov    eax,DWORD PTR [esp+0xdc]
10007cce:	83 c0 04             	add    eax,0x4
10007cd1:	8b bc 24 dc 00 00 00 	mov    edi,DWORD PTR [esp+0xdc]
10007cd8:	8b 17                	mov    edx,DWORD PTR [edi]
10007cda:	89 d1                	mov    ecx,edx
10007cdc:	89 84 24 dc 00 00 00 	mov    DWORD PTR [esp+0xdc],eax
10007ce3:	85 d2                	test   edx,edx
10007ce5:	0f 88 66 05 00 00    	js     10008251 <_vfiprintf_r+0x8a1>
10007ceb:	8a 44 24 39          	mov    al,BYTE PTR [esp+0x39]
10007cef:	88 44 24 24          	mov    BYTE PTR [esp+0x24],al
10007cf3:	83 7c 24 14 ff       	cmp    DWORD PTR [esp+0x14],0xffffffff
10007cf8:	0f 84 df 08 00 00    	je     100085dd <_vfiprintf_r+0xc2d>
10007cfe:	80 e3 7f             	and    bl,0x7f
10007d01:	89 5c 24 10          	mov    DWORD PTR [esp+0x10],ebx
10007d05:	85 c9                	test   ecx,ecx
10007d07:	0f 85 0d 0c 00 00    	jne    1000891a <_vfiprintf_r+0xf6a>
10007d0d:	8b 44 24 14          	mov    eax,DWORD PTR [esp+0x14]
10007d11:	85 c0                	test   eax,eax
10007d13:	0f 85 ee 0c 00 00    	jne    10008a07 <_vfiprintf_r+0x1057>
10007d19:	c7 44 24 14 00 00 00 00 	mov    DWORD PTR [esp+0x14],0x0
10007d21:	c7 44 24 18 00 00 00 00 	mov    DWORD PTR [esp+0x18],0x0
10007d29:	8d 7c 24 70          	lea    edi,[esp+0x70]
10007d2d:	e9 1c 06 00 00       	jmp    1000834e <_vfiprintf_r+0x99e>
10007d32:	89 f8                	mov    eax,edi
10007d34:	84 c0                	test   al,al
10007d36:	0f 85 cb fd ff ff    	jne    10007b07 <_vfiprintf_r+0x157>
10007d3c:	b1 01                	mov    cl,0x1
10007d3e:	bf 20 00 00 00       	mov    edi,0x20
10007d43:	89 d6                	mov    esi,edx
10007d45:	e9 9f fd ff ff       	jmp    10007ae9 <_vfiprintf_r+0x139>
10007d4a:	83 cb 01             	or     ebx,0x1
10007d4d:	89 d6                	mov    esi,edx
10007d4f:	e9 95 fd ff ff       	jmp    10007ae9 <_vfiprintf_r+0x139>
10007d54:	80 cb 80             	or     bl,0x80
10007d57:	89 d6                	mov    esi,edx
10007d59:	e9 8b fd ff ff       	jmp    10007ae9 <_vfiprintf_r+0x139>
10007d5e:	8d 42 01             	lea    eax,[edx+0x1]
10007d61:	89 44 24 0c          	mov    DWORD PTR [esp+0xc],eax
10007d65:	0f be 02             	movsx  eax,BYTE PTR [edx]
10007d68:	83 f8 2a             	cmp    eax,0x2a
10007d6b:	0f 84 48 0d 00 00    	je     10008ab9 <_vfiprintf_r+0x1109>
10007d71:	8d 70 d0             	lea    esi,[eax-0x30]
10007d74:	8b 54 24 0c          	mov    edx,DWORD PTR [esp+0xc]
10007d78:	83 fe 09             	cmp    esi,0x9
10007d7b:	0f 87 0f 0d 00 00    	ja     10008a90 <_vfiprintf_r+0x10e0>
10007d81:	31 c0                	xor    eax,eax
10007d83:	89 5c 24 0c          	mov    DWORD PTR [esp+0xc],ebx
10007d87:	89 c3                	mov    ebx,eax
10007d89:	8d 76 00             	lea    esi,[esi+0x0]
10007d8c:	8d 1c 9b             	lea    ebx,[ebx+ebx*4]
10007d8f:	01 db                	add    ebx,ebx
10007d91:	01 f3                	add    ebx,esi
10007d93:	42                   	inc    edx
10007d94:	0f be 42 ff          	movsx  eax,BYTE PTR [edx-0x1]
10007d98:	8d 70 d0             	lea    esi,[eax-0x30]
10007d9b:	83 fe 09             	cmp    esi,0x9
10007d9e:	76 ec                	jbe    10007d8c <_vfiprintf_r+0x3dc>
10007da0:	89 5c 24 14          	mov    DWORD PTR [esp+0x14],ebx
10007da4:	8b 5c 24 0c          	mov    ebx,DWORD PTR [esp+0xc]
10007da8:	e9 42 fd ff ff       	jmp    10007aef <_vfiprintf_r+0x13f>
10007dad:	89 94 24 d8 00 00 00 	mov    DWORD PTR [esp+0xd8],edx
10007db4:	8b 84 24 dc 00 00 00 	mov    eax,DWORD PTR [esp+0xdc]
10007dbb:	8b 00                	mov    eax,DWORD PTR [eax]
10007dbd:	88 44 24 48          	mov    BYTE PTR [esp+0x48],al
10007dc1:	c6 44 24 39 00       	mov    BYTE PTR [esp+0x39],0x0
10007dc6:	8b 84 24 dc 00 00 00 	mov    eax,DWORD PTR [esp+0xdc]
10007dcd:	83 c0 04             	add    eax,0x4
10007dd0:	89 84 24 dc 00 00 00 	mov    DWORD PTR [esp+0xdc],eax
10007dd7:	c7 44 24 0c 01 00 00 00 	mov    DWORD PTR [esp+0xc],0x1
10007ddf:	c7 44 24 18 01 00 00 00 	mov    DWORD PTR [esp+0x18],0x1
10007de7:	8d 7c 24 48          	lea    edi,[esp+0x48]
10007deb:	89 5c 24 10          	mov    DWORD PTR [esp+0x10],ebx
10007def:	c7 44 24 14 00 00 00 00 	mov    DWORD PTR [esp+0x14],0x0
10007df7:	90                   	nop
10007df8:	8b 44 24 10          	mov    eax,DWORD PTR [esp+0x10]
10007dfc:	83 e0 02             	and    eax,0x2
10007dff:	89 44 24 24          	mov    DWORD PTR [esp+0x24],eax
10007e03:	74 05                	je     10007e0a <_vfiprintf_r+0x45a>
10007e05:	83 44 24 0c 02       	add    DWORD PTR [esp+0xc],0x2
10007e0a:	8b 44 24 44          	mov    eax,DWORD PTR [esp+0x44]
10007e0e:	8b 54 24 40          	mov    edx,DWORD PTR [esp+0x40]
10007e12:	8d 72 01             	lea    esi,[edx+0x1]
10007e15:	89 f1                	mov    ecx,esi
10007e17:	8b 5c 24 10          	mov    ebx,DWORD PTR [esp+0x10]
10007e1b:	81 e3 84 00 00 00    	and    ebx,0x84
10007e21:	89 5c 24 28          	mov    DWORD PTR [esp+0x28],ebx
10007e25:	75 10                	jne    10007e37 <_vfiprintf_r+0x487>
10007e27:	8b 5c 24 1c          	mov    ebx,DWORD PTR [esp+0x1c]
10007e2b:	2b 5c 24 0c          	sub    ebx,DWORD PTR [esp+0xc]
10007e2f:	85 db                	test   ebx,ebx
10007e31:	0f 8f cd 07 00 00    	jg     10008604 <_vfiprintf_r+0xc54>
10007e37:	8d 75 08             	lea    esi,[ebp+0x8]
10007e3a:	80 7c 24 39 00       	cmp    BYTE PTR [esp+0x39],0x0
10007e3f:	74 28                	je     10007e69 <_vfiprintf_r+0x4b9>
10007e41:	8d 54 24 39          	lea    edx,[esp+0x39]
10007e45:	89 55 00             	mov    DWORD PTR [ebp+0x0],edx
10007e48:	c7 45 04 01 00 00 00 	mov    DWORD PTR [ebp+0x4],0x1
10007e4f:	40                   	inc    eax
10007e50:	89 44 24 44          	mov    DWORD PTR [esp+0x44],eax
10007e54:	89 4c 24 40          	mov    DWORD PTR [esp+0x40],ecx
10007e58:	83 f9 07             	cmp    ecx,0x7
10007e5b:	0f 8f f7 06 00 00    	jg     10008558 <_vfiprintf_r+0xba8>
10007e61:	89 ca                	mov    edx,ecx
10007e63:	41                   	inc    ecx
10007e64:	89 f5                	mov    ebp,esi
10007e66:	83 c6 08             	add    esi,0x8
10007e69:	8b 5c 24 24          	mov    ebx,DWORD PTR [esp+0x24]
10007e6d:	85 db                	test   ebx,ebx
10007e6f:	74 5f                	je     10007ed0 <_vfiprintf_r+0x520>
10007e71:	8d 54 24 3a          	lea    edx,[esp+0x3a]
10007e75:	89 55 00             	mov    DWORD PTR [ebp+0x0],edx
10007e78:	c7 45 04 02 00 00 00 	mov    DWORD PTR [ebp+0x4],0x2
10007e7f:	83 c0 02             	add    eax,0x2
10007e82:	89 44 24 44          	mov    DWORD PTR [esp+0x44],eax
10007e86:	89 4c 24 40          	mov    DWORD PTR [esp+0x40],ecx
10007e8a:	83 f9 07             	cmp    ecx,0x7
10007e8d:	0f 8e 2d 07 00 00    	jle    100085c0 <_vfiprintf_r+0xc10>
10007e93:	85 c0                	test   eax,eax
10007e95:	0f 84 b7 09 00 00    	je     10008852 <_vfiprintf_r+0xea2>
10007e9b:	8d 4c 24 3c          	lea    ecx,[esp+0x3c]
10007e9f:	8b 94 24 d4 00 00 00 	mov    edx,DWORD PTR [esp+0xd4]
10007ea6:	8b 84 24 d0 00 00 00 	mov    eax,DWORD PTR [esp+0xd0]
10007ead:	e8 2a fa ff ff       	call   100078dc <__sprint_r.part.0>
10007eb2:	85 c0                	test   eax,eax
10007eb4:	0f 85 2a fd ff ff    	jne    10007be4 <_vfiprintf_r+0x234>
10007eba:	8b 44 24 44          	mov    eax,DWORD PTR [esp+0x44]
10007ebe:	8b 54 24 40          	mov    edx,DWORD PTR [esp+0x40]
10007ec2:	8d 4a 01             	lea    ecx,[edx+0x1]
10007ec5:	8d 74 24 78          	lea    esi,[esp+0x78]
10007ec9:	8d 6c 24 70          	lea    ebp,[esp+0x70]
10007ecd:	8d 76 00             	lea    esi,[esi+0x0]
10007ed0:	81 7c 24 28 80 00 00 00 	cmp    DWORD PTR [esp+0x28],0x80
10007ed8:	0f 84 96 04 00 00    	je     10008374 <_vfiprintf_r+0x9c4>
10007ede:	8b 5c 24 14          	mov    ebx,DWORD PTR [esp+0x14]
10007ee2:	2b 5c 24 18          	sub    ebx,DWORD PTR [esp+0x18]
10007ee6:	85 db                	test   ebx,ebx
10007ee8:	0f 8f 82 05 00 00    	jg     10008470 <_vfiprintf_r+0xac0>
10007eee:	89 7d 00             	mov    DWORD PTR [ebp+0x0],edi
10007ef1:	8b 7c 24 18          	mov    edi,DWORD PTR [esp+0x18]
10007ef5:	89 7d 04             	mov    DWORD PTR [ebp+0x4],edi
10007ef8:	01 f8                	add    eax,edi
10007efa:	89 44 24 44          	mov    DWORD PTR [esp+0x44],eax
10007efe:	89 4c 24 40          	mov    DWORD PTR [esp+0x40],ecx
10007f02:	83 f9 07             	cmp    ecx,0x7
10007f05:	7e 2f                	jle    10007f36 <_vfiprintf_r+0x586>
10007f07:	85 c0                	test   eax,eax
10007f09:	0f 84 a5 07 00 00    	je     100086b4 <_vfiprintf_r+0xd04>
10007f0f:	8d 4c 24 3c          	lea    ecx,[esp+0x3c]
10007f13:	8b 94 24 d4 00 00 00 	mov    edx,DWORD PTR [esp+0xd4]
10007f1a:	8b 84 24 d0 00 00 00 	mov    eax,DWORD PTR [esp+0xd0]
10007f21:	e8 b6 f9 ff ff       	call   100078dc <__sprint_r.part.0>
10007f26:	85 c0                	test   eax,eax
10007f28:	0f 85 b6 fc ff ff    	jne    10007be4 <_vfiprintf_r+0x234>
10007f2e:	8b 44 24 44          	mov    eax,DWORD PTR [esp+0x44]
10007f32:	8d 74 24 70          	lea    esi,[esp+0x70]
10007f36:	f6 44 24 10 04       	test   BYTE PTR [esp+0x10],0x4
10007f3b:	74 10                	je     10007f4d <_vfiprintf_r+0x59d>
10007f3d:	8b 5c 24 1c          	mov    ebx,DWORD PTR [esp+0x1c]
10007f41:	2b 5c 24 0c          	sub    ebx,DWORD PTR [esp+0xc]
10007f45:	85 db                	test   ebx,ebx
10007f47:	0f 8f 8f 07 00 00    	jg     100086dc <_vfiprintf_r+0xd2c>
10007f4d:	8b 54 24 1c          	mov    edx,DWORD PTR [esp+0x1c]
10007f51:	8b 7c 24 0c          	mov    edi,DWORD PTR [esp+0xc]
10007f55:	39 fa                	cmp    edx,edi
10007f57:	7d 02                	jge    10007f5b <_vfiprintf_r+0x5ab>
10007f59:	89 fa                	mov    edx,edi
10007f5b:	01 54 24 20          	add    DWORD PTR [esp+0x20],edx
10007f5f:	85 c0                	test   eax,eax
10007f61:	0f 85 bd 05 00 00    	jne    10008524 <_vfiprintf_r+0xb74>
10007f67:	c7 44 24 40 00 00 00 00 	mov    DWORD PTR [esp+0x40],0x0
10007f6f:	8d 6c 24 70          	lea    ebp,[esp+0x70]
10007f73:	e9 d4 fa ff ff       	jmp    10007a4c <_vfiprintf_r+0x9c>
10007f78:	89 94 24 d8 00 00 00 	mov    DWORD PTR [esp+0xd8],edx
10007f7f:	83 cb 10             	or     ebx,0x10
10007f82:	8b 84 24 dc 00 00 00 	mov    eax,DWORD PTR [esp+0xdc]
10007f89:	83 c0 04             	add    eax,0x4
10007f8c:	8b bc 24 dc 00 00 00 	mov    edi,DWORD PTR [esp+0xdc]
10007f93:	8b 0f                	mov    ecx,DWORD PTR [edi]
10007f95:	89 84 24 dc 00 00 00 	mov    DWORD PTR [esp+0xdc],eax
10007f9c:	b8 01 00 00 00       	mov    eax,0x1
10007fa1:	8d 76 00             	lea    esi,[esi+0x0]
10007fa4:	c6 44 24 39 00       	mov    BYTE PTR [esp+0x39],0x0
10007fa9:	c6 44 24 24 00       	mov    BYTE PTR [esp+0x24],0x0
10007fae:	8b 7c 24 14          	mov    edi,DWORD PTR [esp+0x14]
10007fb2:	83 ff ff             	cmp    edi,0xffffffff
10007fb5:	0f 84 b5 02 00 00    	je     10008270 <_vfiprintf_r+0x8c0>
10007fbb:	89 da                	mov    edx,ebx
10007fbd:	80 e2 7f             	and    dl,0x7f
10007fc0:	89 54 24 10          	mov    DWORD PTR [esp+0x10],edx
10007fc4:	85 c9                	test   ecx,ecx
10007fc6:	0f 85 04 06 00 00    	jne    100085d0 <_vfiprintf_r+0xc20>
10007fcc:	85 ff                	test   edi,edi
10007fce:	0f 85 f7 07 00 00    	jne    100087cb <_vfiprintf_r+0xe1b>
10007fd4:	85 c0                	test   eax,eax
10007fd6:	0f 85 3d fd ff ff    	jne    10007d19 <_vfiprintf_r+0x369>
10007fdc:	83 e3 01             	and    ebx,0x1
10007fdf:	89 5c 24 18          	mov    DWORD PTR [esp+0x18],ebx
10007fe3:	0f 84 d2 08 00 00    	je     100088bb <_vfiprintf_r+0xf0b>
10007fe9:	c6 44 24 6f 30       	mov    BYTE PTR [esp+0x6f],0x30
10007fee:	8d 7c 24 6f          	lea    edi,[esp+0x6f]
10007ff2:	e9 57 03 00 00       	jmp    1000834e <_vfiprintf_r+0x99e>
10007ff7:	89 94 24 d8 00 00 00 	mov    DWORD PTR [esp+0xd8],edx
10007ffe:	84 c9                	test   cl,cl
10008000:	0f 85 32 0a 00 00    	jne    10008a38 <_vfiprintf_r+0x1088>
10008006:	c7 44 24 2c fc c9 00 10 	mov    DWORD PTR [esp+0x2c],0x1000c9fc
1000800e:	8b bc 24 dc 00 00 00 	mov    edi,DWORD PTR [esp+0xdc]
10008015:	8b 0f                	mov    ecx,DWORD PTR [edi]
10008017:	83 84 24 dc 00 00 00 04 	add    DWORD PTR [esp+0xdc],0x4
1000801f:	f6 c3 10             	test   bl,0x10
10008022:	75 09                	jne    1000802d <_vfiprintf_r+0x67d>
10008024:	f6 c3 40             	test   bl,0x40
10008027:	0f 85 a4 08 00 00    	jne    100088d1 <_vfiprintf_r+0xf21>
1000802d:	f6 c3 01             	test   bl,0x1
10008030:	0f 84 ae 02 00 00    	je     100082e4 <_vfiprintf_r+0x934>
10008036:	85 c9                	test   ecx,ecx
10008038:	0f 84 a6 02 00 00    	je     100082e4 <_vfiprintf_r+0x934>
1000803e:	c6 44 24 3a 30       	mov    BYTE PTR [esp+0x3a],0x30
10008043:	88 44 24 3b          	mov    BYTE PTR [esp+0x3b],al
10008047:	83 cb 02             	or     ebx,0x2
1000804a:	b8 02 00 00 00       	mov    eax,0x2
1000804f:	e9 50 ff ff ff       	jmp    10007fa4 <_vfiprintf_r+0x5f4>
10008054:	89 94 24 d8 00 00 00 	mov    DWORD PTR [esp+0xd8],edx
1000805b:	83 cb 10             	or     ebx,0x10
1000805e:	8b 84 24 dc 00 00 00 	mov    eax,DWORD PTR [esp+0xdc]
10008065:	83 c0 04             	add    eax,0x4
10008068:	8b bc 24 dc 00 00 00 	mov    edi,DWORD PTR [esp+0xdc]
1000806f:	8b 0f                	mov    ecx,DWORD PTR [edi]
10008071:	89 84 24 dc 00 00 00 	mov    DWORD PTR [esp+0xdc],eax
10008078:	31 c0                	xor    eax,eax
1000807a:	e9 25 ff ff ff       	jmp    10007fa4 <_vfiprintf_r+0x5f4>
1000807f:	89 94 24 d8 00 00 00 	mov    DWORD PTR [esp+0xd8],edx
10008086:	84 c9                	test   cl,cl
10008088:	0f 85 d6 09 00 00    	jne    10008a64 <_vfiprintf_r+0x10b4>
1000808e:	8b 84 24 dc 00 00 00 	mov    eax,DWORD PTR [esp+0xdc]
10008095:	8b 08                	mov    ecx,DWORD PTR [eax]
10008097:	83 c0 04             	add    eax,0x4
1000809a:	f6 c3 10             	test   bl,0x10
1000809d:	0f 85 e9 fe ff ff    	jne    10007f8c <_vfiprintf_r+0x5dc>
100080a3:	f6 c3 40             	test   bl,0x40
100080a6:	0f 84 2d 08 00 00    	je     100088d9 <_vfiprintf_r+0xf29>
100080ac:	0f b7 c9             	movzx  ecx,cx
100080af:	89 84 24 dc 00 00 00 	mov    DWORD PTR [esp+0xdc],eax
100080b6:	b8 01 00 00 00       	mov    eax,0x1
100080bb:	e9 e4 fe ff ff       	jmp    10007fa4 <_vfiprintf_r+0x5f4>
100080c0:	89 94 24 d8 00 00 00 	mov    DWORD PTR [esp+0xd8],edx
100080c7:	8b 84 24 dc 00 00 00 	mov    eax,DWORD PTR [esp+0xdc]
100080ce:	8d 70 04             	lea    esi,[eax+0x4]
100080d1:	8b 38                	mov    edi,DWORD PTR [eax]
100080d3:	c6 44 24 39 00       	mov    BYTE PTR [esp+0x39],0x0
100080d8:	8b 44 24 14          	mov    eax,DWORD PTR [esp+0x14]
100080dc:	85 ff                	test   edi,edi
100080de:	0f 84 bb 08 00 00    	je     1000899f <_vfiprintf_r+0xfef>
100080e4:	83 f8 ff             	cmp    eax,0xffffffff
100080e7:	0f 84 36 08 00 00    	je     10008923 <_vfiprintf_r+0xf73>
100080ed:	52                   	push   edx
100080ee:	50                   	push   eax
100080ef:	6a 00                	push   0x0
100080f1:	57                   	push   edi
100080f2:	e8 79 e0 ff ff       	call   10006170 <memchr>
100080f7:	83 c4 10             	add    esp,0x10
100080fa:	85 c0                	test   eax,eax
100080fc:	0f 84 0e 09 00 00    	je     10008a10 <_vfiprintf_r+0x1060>
10008102:	29 f8                	sub    eax,edi
10008104:	89 44 24 18          	mov    DWORD PTR [esp+0x18],eax
10008108:	8a 44 24 39          	mov    al,BYTE PTR [esp+0x39]
1000810c:	88 44 24 24          	mov    BYTE PTR [esp+0x24],al
10008110:	89 b4 24 dc 00 00 00 	mov    DWORD PTR [esp+0xdc],esi
10008117:	89 5c 24 10          	mov    DWORD PTR [esp+0x10],ebx
1000811b:	c7 44 24 14 00 00 00 00 	mov    DWORD PTR [esp+0x14],0x0
10008123:	e9 26 02 00 00       	jmp    1000834e <_vfiprintf_r+0x99e>
10008128:	89 94 24 d8 00 00 00 	mov    DWORD PTR [esp+0xd8],edx
1000812f:	8b 84 24 dc 00 00 00 	mov    eax,DWORD PTR [esp+0xdc]
10008136:	8b 08                	mov    ecx,DWORD PTR [eax]
10008138:	83 cb 02             	or     ebx,0x2
1000813b:	66 c7 44 24 3a 30 78 	mov    WORD PTR [esp+0x3a],0x7830
10008142:	83 c0 04             	add    eax,0x4
10008145:	89 84 24 dc 00 00 00 	mov    DWORD PTR [esp+0xdc],eax
1000814c:	c7 44 24 2c 0d ca 00 10 	mov    DWORD PTR [esp+0x2c],0x1000ca0d
10008154:	b8 02 00 00 00       	mov    eax,0x2
10008159:	e9 46 fe ff ff       	jmp    10007fa4 <_vfiprintf_r+0x5f4>
1000815e:	89 94 24 d8 00 00 00 	mov    DWORD PTR [esp+0xd8],edx
10008165:	84 c9                	test   cl,cl
10008167:	0f 85 18 09 00 00    	jne    10008a85 <_vfiprintf_r+0x10d5>
1000816d:	8b 84 24 dc 00 00 00 	mov    eax,DWORD PTR [esp+0xdc]
10008174:	8b 08                	mov    ecx,DWORD PTR [eax]
10008176:	83 c0 04             	add    eax,0x4
10008179:	f6 c3 10             	test   bl,0x10
1000817c:	0f 85 e6 fe ff ff    	jne    10008068 <_vfiprintf_r+0x6b8>
10008182:	f6 c3 40             	test   bl,0x40
10008185:	0f 84 6d 07 00 00    	je     100088f8 <_vfiprintf_r+0xf48>
1000818b:	0f b7 c9             	movzx  ecx,cx
1000818e:	89 84 24 dc 00 00 00 	mov    DWORD PTR [esp+0xdc],eax
10008195:	31 c0                	xor    eax,eax
10008197:	e9 08 fe ff ff       	jmp    10007fa4 <_vfiprintf_r+0x5f4>
1000819c:	89 94 24 d8 00 00 00 	mov    DWORD PTR [esp+0xd8],edx
100081a3:	84 c9                	test   cl,cl
100081a5:	0f 85 a3 08 00 00    	jne    10008a4e <_vfiprintf_r+0x109e>
100081ab:	8b 84 24 dc 00 00 00 	mov    eax,DWORD PTR [esp+0xdc]
100081b2:	83 c0 04             	add    eax,0x4
100081b5:	f6 c3 10             	test   bl,0x10
100081b8:	0f 85 30 01 00 00    	jne    100082ee <_vfiprintf_r+0x93e>
100081be:	83 e3 40             	and    ebx,0x40
100081c1:	0f 84 27 01 00 00    	je     100082ee <_vfiprintf_r+0x93e>
100081c7:	8b bc 24 dc 00 00 00 	mov    edi,DWORD PTR [esp+0xdc]
100081ce:	8b 17                	mov    edx,DWORD PTR [edi]
100081d0:	8b 7c 24 20          	mov    edi,DWORD PTR [esp+0x20]
100081d4:	66 89 3a             	mov    WORD PTR [edx],di
100081d7:	89 84 24 dc 00 00 00 	mov    DWORD PTR [esp+0xdc],eax
100081de:	e9 69 f8 ff ff       	jmp    10007a4c <_vfiprintf_r+0x9c>
100081e3:	89 94 24 d8 00 00 00 	mov    DWORD PTR [esp+0xd8],edx
100081ea:	84 c9                	test   cl,cl
100081ec:	0f 85 7d 08 00 00    	jne    10008a6f <_vfiprintf_r+0x10bf>
100081f2:	c7 44 24 2c 0d ca 00 10 	mov    DWORD PTR [esp+0x2c],0x1000ca0d
100081fa:	e9 0f fe ff ff       	jmp    1000800e <_vfiprintf_r+0x65e>
100081ff:	83 cb 40             	or     ebx,0x40
10008202:	89 d6                	mov    esi,edx
10008204:	e9 e0 f8 ff ff       	jmp    10007ae9 <_vfiprintf_r+0x139>
10008209:	89 94 24 d8 00 00 00 	mov    DWORD PTR [esp+0xd8],edx
10008210:	84 c9                	test   cl,cl
10008212:	0f 85 62 08 00 00    	jne    10008a7a <_vfiprintf_r+0x10ca>
10008218:	8b 84 24 dc 00 00 00 	mov    eax,DWORD PTR [esp+0xdc]
1000821f:	83 c0 04             	add    eax,0x4
10008222:	f6 c3 10             	test   bl,0x10
10008225:	0f 85 a6 fa ff ff    	jne    10007cd1 <_vfiprintf_r+0x321>
1000822b:	8b bc 24 dc 00 00 00 	mov    edi,DWORD PTR [esp+0xdc]
10008232:	8b 0f                	mov    ecx,DWORD PTR [edi]
10008234:	f6 c3 40             	test   bl,0x40
10008237:	0f 84 ad 06 00 00    	je     100088ea <_vfiprintf_r+0xf3a>
1000823d:	0f bf c9             	movsx  ecx,cx
10008240:	89 ca                	mov    edx,ecx
10008242:	89 84 24 dc 00 00 00 	mov    DWORD PTR [esp+0xdc],eax
10008249:	85 d2                	test   edx,edx
1000824b:	0f 89 9a fa ff ff    	jns    10007ceb <_vfiprintf_r+0x33b>
10008251:	f7 d9                	neg    ecx
10008253:	c6 44 24 39 2d       	mov    BYTE PTR [esp+0x39],0x2d
10008258:	c6 44 24 24 2d       	mov    BYTE PTR [esp+0x24],0x2d
1000825d:	b8 01 00 00 00       	mov    eax,0x1
10008262:	8b 7c 24 14          	mov    edi,DWORD PTR [esp+0x14]
10008266:	83 ff ff             	cmp    edi,0xffffffff
10008269:	0f 85 4c fd ff ff    	jne    10007fbb <_vfiprintf_r+0x60b>
1000826f:	90                   	nop
10008270:	83 f8 01             	cmp    eax,0x1
10008273:	0f 84 64 03 00 00    	je     100085dd <_vfiprintf_r+0xc2d>
10008279:	83 f8 02             	cmp    eax,0x2
1000827c:	0f 84 62 05 00 00    	je     100087e4 <_vfiprintf_r+0xe34>
10008282:	8d 54 24 70          	lea    edx,[esp+0x70]
10008286:	eb 02                	jmp    1000828a <_vfiprintf_r+0x8da>
10008288:	89 fa                	mov    edx,edi
1000828a:	8d 7a ff             	lea    edi,[edx-0x1]
1000828d:	88 c8                	mov    al,cl
1000828f:	83 e0 07             	and    eax,0x7
10008292:	83 c0 30             	add    eax,0x30
10008295:	88 42 ff             	mov    BYTE PTR [edx-0x1],al
10008298:	c1 e9 03             	shr    ecx,0x3
1000829b:	75 eb                	jne    10008288 <_vfiprintf_r+0x8d8>
1000829d:	f6 c3 01             	test   bl,0x1
100082a0:	0f 84 9a 00 00 00    	je     10008340 <_vfiprintf_r+0x990>
100082a6:	3c 30                	cmp    al,0x30
100082a8:	0f 84 92 00 00 00    	je     10008340 <_vfiprintf_r+0x990>
100082ae:	83 ea 02             	sub    edx,0x2
100082b1:	c6 47 ff 30          	mov    BYTE PTR [edi-0x1],0x30
100082b5:	8d 44 24 70          	lea    eax,[esp+0x70]
100082b9:	29 d0                	sub    eax,edx
100082bb:	89 44 24 18          	mov    DWORD PTR [esp+0x18],eax
100082bf:	89 5c 24 10          	mov    DWORD PTR [esp+0x10],ebx
100082c3:	89 d7                	mov    edi,edx
100082c5:	e9 84 00 00 00       	jmp    1000834e <_vfiprintf_r+0x99e>
100082ca:	83 ec 0c             	sub    esp,0xc
100082cd:	ff b4 24 dc 00 00 00 	push   DWORD PTR [esp+0xdc]
100082d4:	e8 3f d4 ff ff       	call   10005718 <__sinit>
100082d9:	83 c4 10             	add    esp,0x10
100082dc:	e9 f6 f6 ff ff       	jmp    100079d7 <_vfiprintf_r+0x27>
100082e1:	8d 76 00             	lea    esi,[esi+0x0]
100082e4:	b8 02 00 00 00       	mov    eax,0x2
100082e9:	e9 b6 fc ff ff       	jmp    10007fa4 <_vfiprintf_r+0x5f4>
100082ee:	8b bc 24 dc 00 00 00 	mov    edi,DWORD PTR [esp+0xdc]
100082f5:	8b 17                	mov    edx,DWORD PTR [edi]
100082f7:	8b 7c 24 20          	mov    edi,DWORD PTR [esp+0x20]
100082fb:	89 3a                	mov    DWORD PTR [edx],edi
100082fd:	89 84 24 dc 00 00 00 	mov    DWORD PTR [esp+0xdc],eax
10008304:	e9 43 f7 ff ff       	jmp    10007a4c <_vfiprintf_r+0x9c>
10008309:	8d 7c 24 70          	lea    edi,[esp+0x70]
1000830d:	be cd cc cc cc       	mov    esi,0xcccccccd
10008312:	89 5c 24 0c          	mov    DWORD PTR [esp+0xc],ebx
10008316:	eb 02                	jmp    1000831a <_vfiprintf_r+0x96a>
10008318:	89 c1                	mov    ecx,eax
1000831a:	4f                   	dec    edi
1000831b:	89 c8                	mov    eax,ecx
1000831d:	bb 0a 00 00 00       	mov    ebx,0xa
10008322:	31 d2                	xor    edx,edx
10008324:	f7 f3                	div    ebx
10008326:	83 c2 30             	add    edx,0x30
10008329:	88 17                	mov    BYTE PTR [edi],dl
1000832b:	89 c8                	mov    eax,ecx
1000832d:	f7 e6                	mul    esi
1000832f:	89 d0                	mov    eax,edx
10008331:	c1 e8 03             	shr    eax,0x3
10008334:	83 f9 09             	cmp    ecx,0x9
10008337:	77 df                	ja     10008318 <_vfiprintf_r+0x968>
10008339:	8b 5c 24 0c          	mov    ebx,DWORD PTR [esp+0xc]
1000833d:	8d 76 00             	lea    esi,[esi+0x0]
10008340:	8d 44 24 70          	lea    eax,[esp+0x70]
10008344:	29 f8                	sub    eax,edi
10008346:	89 44 24 18          	mov    DWORD PTR [esp+0x18],eax
1000834a:	89 5c 24 10          	mov    DWORD PTR [esp+0x10],ebx
1000834e:	8b 44 24 14          	mov    eax,DWORD PTR [esp+0x14]
10008352:	89 44 24 0c          	mov    DWORD PTR [esp+0xc],eax
10008356:	8b 4c 24 18          	mov    ecx,DWORD PTR [esp+0x18]
1000835a:	39 c8                	cmp    eax,ecx
1000835c:	7d 04                	jge    10008362 <_vfiprintf_r+0x9b2>
1000835e:	89 4c 24 0c          	mov    DWORD PTR [esp+0xc],ecx
10008362:	80 7c 24 24 01       	cmp    BYTE PTR [esp+0x24],0x1
10008367:	83 5c 24 0c ff       	sbb    DWORD PTR [esp+0xc],0xffffffff
1000836c:	e9 87 fa ff ff       	jmp    10007df8 <_vfiprintf_r+0x448>
10008371:	8d 76 00             	lea    esi,[esi+0x0]
10008374:	8b 5c 24 1c          	mov    ebx,DWORD PTR [esp+0x1c]
10008378:	2b 5c 24 0c          	sub    ebx,DWORD PTR [esp+0xc]
1000837c:	85 db                	test   ebx,ebx
1000837e:	0f 8e 5a fb ff ff    	jle    10007ede <_vfiprintf_r+0x52e>
10008384:	83 fb 10             	cmp    ebx,0x10
10008387:	7f 17                	jg     100083a0 <_vfiprintf_r+0x9f0>
10008389:	e9 24 07 00 00       	jmp    10008ab2 <_vfiprintf_r+0x1102>
1000838e:	66 90                	xchg   ax,ax
10008390:	83 c5 08             	add    ebp,0x8
10008393:	8d 72 02             	lea    esi,[edx+0x2]
10008396:	89 ca                	mov    edx,ecx
10008398:	83 eb 10             	sub    ebx,0x10
1000839b:	83 fb 10             	cmp    ebx,0x10
1000839e:	7e 5f                	jle    100083ff <_vfiprintf_r+0xa4f>
100083a0:	c7 45 00 4c cf 00 10 	mov    DWORD PTR [ebp+0x0],0x1000cf4c
100083a7:	c7 45 04 10 00 00 00 	mov    DWORD PTR [ebp+0x4],0x10
100083ae:	83 c0 10             	add    eax,0x10
100083b1:	89 44 24 44          	mov    DWORD PTR [esp+0x44],eax
100083b5:	8d 4a 01             	lea    ecx,[edx+0x1]
100083b8:	89 4c 24 40          	mov    DWORD PTR [esp+0x40],ecx
100083bc:	83 f9 07             	cmp    ecx,0x7
100083bf:	7e cf                	jle    10008390 <_vfiprintf_r+0x9e0>
100083c1:	85 c0                	test   eax,eax
100083c3:	0f 84 7f 01 00 00    	je     10008548 <_vfiprintf_r+0xb98>
100083c9:	8d 4c 24 3c          	lea    ecx,[esp+0x3c]
100083cd:	8b 94 24 d4 00 00 00 	mov    edx,DWORD PTR [esp+0xd4]
100083d4:	8b 84 24 d0 00 00 00 	mov    eax,DWORD PTR [esp+0xd0]
100083db:	e8 fc f4 ff ff       	call   100078dc <__sprint_r.part.0>
100083e0:	85 c0                	test   eax,eax
100083e2:	0f 85 fc f7 ff ff    	jne    10007be4 <_vfiprintf_r+0x234>
100083e8:	8b 44 24 44          	mov    eax,DWORD PTR [esp+0x44]
100083ec:	8b 54 24 40          	mov    edx,DWORD PTR [esp+0x40]
100083f0:	8d 72 01             	lea    esi,[edx+0x1]
100083f3:	8d 6c 24 70          	lea    ebp,[esp+0x70]
100083f7:	83 eb 10             	sub    ebx,0x10
100083fa:	83 fb 10             	cmp    ebx,0x10
100083fd:	7f a1                	jg     100083a0 <_vfiprintf_r+0x9f0>
100083ff:	89 f2                	mov    edx,esi
10008401:	8d 4d 08             	lea    ecx,[ebp+0x8]
10008404:	89 ce                	mov    esi,ecx
10008406:	c7 45 00 4c cf 00 10 	mov    DWORD PTR [ebp+0x0],0x1000cf4c
1000840d:	89 5d 04             	mov    DWORD PTR [ebp+0x4],ebx
10008410:	01 d8                	add    eax,ebx
10008412:	89 44 24 44          	mov    DWORD PTR [esp+0x44],eax
10008416:	89 54 24 40          	mov    DWORD PTR [esp+0x40],edx
1000841a:	83 fa 07             	cmp    edx,0x7
1000841d:	0f 8e a1 04 00 00    	jle    100088c4 <_vfiprintf_r+0xf14>
10008423:	85 c0                	test   eax,eax
10008425:	0f 84 a5 05 00 00    	je     100089d0 <_vfiprintf_r+0x1020>
1000842b:	8d 4c 24 3c          	lea    ecx,[esp+0x3c]
1000842f:	8b 94 24 d4 00 00 00 	mov    edx,DWORD PTR [esp+0xd4]
10008436:	8b 84 24 d0 00 00 00 	mov    eax,DWORD PTR [esp+0xd0]
1000843d:	e8 9a f4 ff ff       	call   100078dc <__sprint_r.part.0>
10008442:	85 c0                	test   eax,eax
10008444:	0f 85 9a f7 ff ff    	jne    10007be4 <_vfiprintf_r+0x234>
1000844a:	8b 44 24 44          	mov    eax,DWORD PTR [esp+0x44]
1000844e:	8b 54 24 40          	mov    edx,DWORD PTR [esp+0x40]
10008452:	8d 4a 01             	lea    ecx,[edx+0x1]
10008455:	8d 74 24 78          	lea    esi,[esp+0x78]
10008459:	8d 6c 24 70          	lea    ebp,[esp+0x70]
1000845d:	8b 5c 24 14          	mov    ebx,DWORD PTR [esp+0x14]
10008461:	2b 5c 24 18          	sub    ebx,DWORD PTR [esp+0x18]
10008465:	85 db                	test   ebx,ebx
10008467:	0f 8e 81 fa ff ff    	jle    10007eee <_vfiprintf_r+0x53e>
1000846d:	8d 76 00             	lea    esi,[esi+0x0]
10008470:	83 fb 10             	cmp    ebx,0x10
10008473:	7f 17                	jg     1000848c <_vfiprintf_r+0xadc>
10008475:	e9 4f 05 00 00       	jmp    100089c9 <_vfiprintf_r+0x1019>
1000847a:	66 90                	xchg   ax,ax
1000847c:	83 c5 08             	add    ebp,0x8
1000847f:	8d 4a 02             	lea    ecx,[edx+0x2]
10008482:	89 f2                	mov    edx,esi
10008484:	83 eb 10             	sub    ebx,0x10
10008487:	83 fb 10             	cmp    ebx,0x10
1000848a:	7e 5b                	jle    100084e7 <_vfiprintf_r+0xb37>
1000848c:	c7 45 00 4c cf 00 10 	mov    DWORD PTR [ebp+0x0],0x1000cf4c
10008493:	c7 45 04 10 00 00 00 	mov    DWORD PTR [ebp+0x4],0x10
1000849a:	83 c0 10             	add    eax,0x10
1000849d:	89 44 24 44          	mov    DWORD PTR [esp+0x44],eax
100084a1:	8d 72 01             	lea    esi,[edx+0x1]
100084a4:	89 74 24 40          	mov    DWORD PTR [esp+0x40],esi
100084a8:	83 fe 07             	cmp    esi,0x7
100084ab:	7e cf                	jle    1000847c <_vfiprintf_r+0xacc>
100084ad:	85 c0                	test   eax,eax
100084af:	74 63                	je     10008514 <_vfiprintf_r+0xb64>
100084b1:	8d 4c 24 3c          	lea    ecx,[esp+0x3c]
100084b5:	8b 94 24 d4 00 00 00 	mov    edx,DWORD PTR [esp+0xd4]
100084bc:	8b 84 24 d0 00 00 00 	mov    eax,DWORD PTR [esp+0xd0]
100084c3:	e8 14 f4 ff ff       	call   100078dc <__sprint_r.part.0>
100084c8:	85 c0                	test   eax,eax
100084ca:	0f 85 14 f7 ff ff    	jne    10007be4 <_vfiprintf_r+0x234>
100084d0:	8b 44 24 44          	mov    eax,DWORD PTR [esp+0x44]
100084d4:	8b 54 24 40          	mov    edx,DWORD PTR [esp+0x40]
100084d8:	8d 4a 01             	lea    ecx,[edx+0x1]
100084db:	8d 6c 24 70          	lea    ebp,[esp+0x70]
100084df:	83 eb 10             	sub    ebx,0x10
100084e2:	83 fb 10             	cmp    ebx,0x10
100084e5:	7f a5                	jg     1000848c <_vfiprintf_r+0xadc>
100084e7:	8d 55 08             	lea    edx,[ebp+0x8]
100084ea:	c7 45 00 4c cf 00 10 	mov    DWORD PTR [ebp+0x0],0x1000cf4c
100084f1:	89 5d 04             	mov    DWORD PTR [ebp+0x4],ebx
100084f4:	01 d8                	add    eax,ebx
100084f6:	89 44 24 44          	mov    DWORD PTR [esp+0x44],eax
100084fa:	89 4c 24 40          	mov    DWORD PTR [esp+0x40],ecx
100084fe:	83 f9 07             	cmp    ecx,0x7
10008501:	0f 8f fd 02 00 00    	jg     10008804 <_vfiprintf_r+0xe54>
10008507:	41                   	inc    ecx
10008508:	8d 72 08             	lea    esi,[edx+0x8]
1000850b:	89 d5                	mov    ebp,edx
1000850d:	e9 dc f9 ff ff       	jmp    10007eee <_vfiprintf_r+0x53e>
10008512:	66 90                	xchg   ax,ax
10008514:	b9 01 00 00 00       	mov    ecx,0x1
10008519:	31 d2                	xor    edx,edx
1000851b:	8d 6c 24 70          	lea    ebp,[esp+0x70]
1000851f:	e9 60 ff ff ff       	jmp    10008484 <_vfiprintf_r+0xad4>
10008524:	8d 4c 24 3c          	lea    ecx,[esp+0x3c]
10008528:	8b 94 24 d4 00 00 00 	mov    edx,DWORD PTR [esp+0xd4]
1000852f:	8b 84 24 d0 00 00 00 	mov    eax,DWORD PTR [esp+0xd0]
10008536:	e8 a1 f3 ff ff       	call   100078dc <__sprint_r.part.0>
1000853b:	85 c0                	test   eax,eax
1000853d:	0f 84 24 fa ff ff    	je     10007f67 <_vfiprintf_r+0x5b7>
10008543:	e9 9c f6 ff ff       	jmp    10007be4 <_vfiprintf_r+0x234>
10008548:	be 01 00 00 00       	mov    esi,0x1
1000854d:	31 d2                	xor    edx,edx
1000854f:	8d 6c 24 70          	lea    ebp,[esp+0x70]
10008553:	e9 40 fe ff ff       	jmp    10008398 <_vfiprintf_r+0x9e8>
10008558:	85 c0                	test   eax,eax
1000855a:	74 37                	je     10008593 <_vfiprintf_r+0xbe3>
1000855c:	8d 4c 24 3c          	lea    ecx,[esp+0x3c]
10008560:	8b 94 24 d4 00 00 00 	mov    edx,DWORD PTR [esp+0xd4]
10008567:	8b 84 24 d0 00 00 00 	mov    eax,DWORD PTR [esp+0xd0]
1000856e:	e8 69 f3 ff ff       	call   100078dc <__sprint_r.part.0>
10008573:	85 c0                	test   eax,eax
10008575:	0f 85 69 f6 ff ff    	jne    10007be4 <_vfiprintf_r+0x234>
1000857b:	8b 44 24 44          	mov    eax,DWORD PTR [esp+0x44]
1000857f:	8b 54 24 40          	mov    edx,DWORD PTR [esp+0x40]
10008583:	8d 4a 01             	lea    ecx,[edx+0x1]
10008586:	8d 74 24 78          	lea    esi,[esp+0x78]
1000858a:	8d 6c 24 70          	lea    ebp,[esp+0x70]
1000858e:	e9 d6 f8 ff ff       	jmp    10007e69 <_vfiprintf_r+0x4b9>
10008593:	8b 74 24 24          	mov    esi,DWORD PTR [esp+0x24]
10008597:	85 f6                	test   esi,esi
10008599:	0f 84 67 03 00 00    	je     10008906 <_vfiprintf_r+0xf56>
1000859f:	8d 44 24 3a          	lea    eax,[esp+0x3a]
100085a3:	89 44 24 70          	mov    DWORD PTR [esp+0x70],eax
100085a7:	c7 44 24 74 02 00 00 00 	mov    DWORD PTR [esp+0x74],0x2
100085af:	8d 74 24 78          	lea    esi,[esp+0x78]
100085b3:	b9 01 00 00 00       	mov    ecx,0x1
100085b8:	b8 02 00 00 00       	mov    eax,0x2
100085bd:	8d 76 00             	lea    esi,[esi+0x0]
100085c0:	89 ca                	mov    edx,ecx
100085c2:	41                   	inc    ecx
100085c3:	89 f5                	mov    ebp,esi
100085c5:	83 c6 08             	add    esi,0x8
100085c8:	e9 03 f9 ff ff       	jmp    10007ed0 <_vfiprintf_r+0x520>
100085cd:	8d 76 00             	lea    esi,[esi+0x0]
100085d0:	8b 5c 24 10          	mov    ebx,DWORD PTR [esp+0x10]
100085d4:	83 f8 01             	cmp    eax,0x1
100085d7:	0f 85 9c fc ff ff    	jne    10008279 <_vfiprintf_r+0x8c9>
100085dd:	83 f9 09             	cmp    ecx,0x9
100085e0:	0f 87 23 fd ff ff    	ja     10008309 <_vfiprintf_r+0x959>
100085e6:	83 c1 30             	add    ecx,0x30
100085e9:	88 4c 24 6f          	mov    BYTE PTR [esp+0x6f],cl
100085ed:	89 5c 24 10          	mov    DWORD PTR [esp+0x10],ebx
100085f1:	c7 44 24 18 01 00 00 00 	mov    DWORD PTR [esp+0x18],0x1
100085f9:	8d 7c 24 6f          	lea    edi,[esp+0x6f]
100085fd:	e9 4c fd ff ff       	jmp    1000834e <_vfiprintf_r+0x99e>
10008602:	66 90                	xchg   ax,ax
10008604:	83 fb 10             	cmp    ebx,0x10
10008607:	7f 16                	jg     1000861f <_vfiprintf_r+0xc6f>
10008609:	eb 6c                	jmp    10008677 <_vfiprintf_r+0xcc7>
1000860b:	90                   	nop
1000860c:	83 c5 08             	add    ebp,0x8
1000860f:	8d 4a 02             	lea    ecx,[edx+0x2]
10008612:	89 f2                	mov    edx,esi
10008614:	83 eb 10             	sub    ebx,0x10
10008617:	83 fb 10             	cmp    ebx,0x10
1000861a:	7e 5b                	jle    10008677 <_vfiprintf_r+0xcc7>
1000861c:	8d 72 01             	lea    esi,[edx+0x1]
1000861f:	c7 45 00 5c cf 00 10 	mov    DWORD PTR [ebp+0x0],0x1000cf5c
10008626:	c7 45 04 10 00 00 00 	mov    DWORD PTR [ebp+0x4],0x10
1000862d:	83 c0 10             	add    eax,0x10
10008630:	89 44 24 44          	mov    DWORD PTR [esp+0x44],eax
10008634:	89 74 24 40          	mov    DWORD PTR [esp+0x40],esi
10008638:	83 fe 07             	cmp    esi,0x7
1000863b:	7e cf                	jle    1000860c <_vfiprintf_r+0xc5c>
1000863d:	85 c0                	test   eax,eax
1000863f:	74 63                	je     100086a4 <_vfiprintf_r+0xcf4>
10008641:	8d 4c 24 3c          	lea    ecx,[esp+0x3c]
10008645:	8b 94 24 d4 00 00 00 	mov    edx,DWORD PTR [esp+0xd4]
1000864c:	8b 84 24 d0 00 00 00 	mov    eax,DWORD PTR [esp+0xd0]
10008653:	e8 84 f2 ff ff       	call   100078dc <__sprint_r.part.0>
10008658:	85 c0                	test   eax,eax
1000865a:	0f 85 84 f5 ff ff    	jne    10007be4 <_vfiprintf_r+0x234>
10008660:	8b 44 24 44          	mov    eax,DWORD PTR [esp+0x44]
10008664:	8b 54 24 40          	mov    edx,DWORD PTR [esp+0x40]
10008668:	8d 4a 01             	lea    ecx,[edx+0x1]
1000866b:	8d 6c 24 70          	lea    ebp,[esp+0x70]
1000866f:	83 eb 10             	sub    ebx,0x10
10008672:	83 fb 10             	cmp    ebx,0x10
10008675:	7f a5                	jg     1000861c <_vfiprintf_r+0xc6c>
10008677:	c7 45 00 5c cf 00 10 	mov    DWORD PTR [ebp+0x0],0x1000cf5c
1000867e:	89 5d 04             	mov    DWORD PTR [ebp+0x4],ebx
10008681:	01 d8                	add    eax,ebx
10008683:	89 44 24 44          	mov    DWORD PTR [esp+0x44],eax
10008687:	89 ca                	mov    edx,ecx
10008689:	89 4c 24 40          	mov    DWORD PTR [esp+0x40],ecx
1000868d:	83 f9 07             	cmp    ecx,0x7
10008690:	0f 8f d0 01 00 00    	jg     10008866 <_vfiprintf_r+0xeb6>
10008696:	83 c5 08             	add    ebp,0x8
10008699:	8d 49 01             	lea    ecx,[ecx+0x1]
1000869c:	e9 96 f7 ff ff       	jmp    10007e37 <_vfiprintf_r+0x487>
100086a1:	8d 76 00             	lea    esi,[esi+0x0]
100086a4:	31 d2                	xor    edx,edx
100086a6:	b9 01 00 00 00       	mov    ecx,0x1
100086ab:	8d 6c 24 70          	lea    ebp,[esp+0x70]
100086af:	e9 60 ff ff ff       	jmp    10008614 <_vfiprintf_r+0xc64>
100086b4:	c7 44 24 40 00 00 00 00 	mov    DWORD PTR [esp+0x40],0x0
100086bc:	f6 44 24 10 04       	test   BYTE PTR [esp+0x10],0x4
100086c1:	0f 84 ed 00 00 00    	je     100087b4 <_vfiprintf_r+0xe04>
100086c7:	8b 5c 24 1c          	mov    ebx,DWORD PTR [esp+0x1c]
100086cb:	2b 5c 24 0c          	sub    ebx,DWORD PTR [esp+0xc]
100086cf:	85 db                	test   ebx,ebx
100086d1:	0f 8e dd 00 00 00    	jle    100087b4 <_vfiprintf_r+0xe04>
100086d7:	8d 74 24 70          	lea    esi,[esp+0x70]
100086db:	90                   	nop
100086dc:	8b 4c 24 40          	mov    ecx,DWORD PTR [esp+0x40]
100086e0:	83 fb 10             	cmp    ebx,0x10
100086e3:	0f 8e b4 03 00 00    	jle    10008a9d <_vfiprintf_r+0x10ed>
100086e9:	8b ac 24 d0 00 00 00 	mov    ebp,DWORD PTR [esp+0xd0]
100086f0:	eb 12                	jmp    10008704 <_vfiprintf_r+0xd54>
100086f2:	66 90                	xchg   ax,ax
100086f4:	83 c6 08             	add    esi,0x8
100086f7:	8d 79 02             	lea    edi,[ecx+0x2]
100086fa:	89 d1                	mov    ecx,edx
100086fc:	83 eb 10             	sub    ebx,0x10
100086ff:	83 fb 10             	cmp    ebx,0x10
10008702:	7e 55                	jle    10008759 <_vfiprintf_r+0xda9>
10008704:	c7 06 5c cf 00 10    	mov    DWORD PTR [esi],0x1000cf5c
1000870a:	c7 46 04 10 00 00 00 	mov    DWORD PTR [esi+0x4],0x10
10008711:	83 c0 10             	add    eax,0x10
10008714:	89 44 24 44          	mov    DWORD PTR [esp+0x44],eax
10008718:	8d 51 01             	lea    edx,[ecx+0x1]
1000871b:	89 54 24 40          	mov    DWORD PTR [esp+0x40],edx
1000871f:	83 fa 07             	cmp    edx,0x7
10008722:	7e d0                	jle    100086f4 <_vfiprintf_r+0xd44>
10008724:	85 c0                	test   eax,eax
10008726:	74 7c                	je     100087a4 <_vfiprintf_r+0xdf4>
10008728:	8d 4c 24 3c          	lea    ecx,[esp+0x3c]
1000872c:	8b 94 24 d4 00 00 00 	mov    edx,DWORD PTR [esp+0xd4]
10008733:	89 e8                	mov    eax,ebp
10008735:	e8 a2 f1 ff ff       	call   100078dc <__sprint_r.part.0>
1000873a:	85 c0                	test   eax,eax
1000873c:	0f 85 a2 f4 ff ff    	jne    10007be4 <_vfiprintf_r+0x234>
10008742:	8b 44 24 44          	mov    eax,DWORD PTR [esp+0x44]
10008746:	8b 4c 24 40          	mov    ecx,DWORD PTR [esp+0x40]
1000874a:	8d 79 01             	lea    edi,[ecx+0x1]
1000874d:	8d 74 24 70          	lea    esi,[esp+0x70]
10008751:	83 eb 10             	sub    ebx,0x10
10008754:	83 fb 10             	cmp    ebx,0x10
10008757:	7f ab                	jg     10008704 <_vfiprintf_r+0xd54>
10008759:	c7 06 5c cf 00 10    	mov    DWORD PTR [esi],0x1000cf5c
1000875f:	89 5e 04             	mov    DWORD PTR [esi+0x4],ebx
10008762:	01 d8                	add    eax,ebx
10008764:	89 44 24 44          	mov    DWORD PTR [esp+0x44],eax
10008768:	89 7c 24 40          	mov    DWORD PTR [esp+0x40],edi
1000876c:	83 ff 07             	cmp    edi,0x7
1000876f:	0f 8e d8 f7 ff ff    	jle    10007f4d <_vfiprintf_r+0x59d>
10008775:	85 c0                	test   eax,eax
10008777:	74 3b                	je     100087b4 <_vfiprintf_r+0xe04>
10008779:	8d 4c 24 3c          	lea    ecx,[esp+0x3c]
1000877d:	8b 94 24 d4 00 00 00 	mov    edx,DWORD PTR [esp+0xd4]
10008784:	8b 84 24 d0 00 00 00 	mov    eax,DWORD PTR [esp+0xd0]
1000878b:	e8 4c f1 ff ff       	call   100078dc <__sprint_r.part.0>
10008790:	85 c0                	test   eax,eax
10008792:	0f 85 4c f4 ff ff    	jne    10007be4 <_vfiprintf_r+0x234>
10008798:	8b 44 24 44          	mov    eax,DWORD PTR [esp+0x44]
1000879c:	e9 ac f7 ff ff       	jmp    10007f4d <_vfiprintf_r+0x59d>
100087a1:	8d 76 00             	lea    esi,[esi+0x0]
100087a4:	bf 01 00 00 00       	mov    edi,0x1
100087a9:	31 c9                	xor    ecx,ecx
100087ab:	8d 74 24 70          	lea    esi,[esp+0x70]
100087af:	e9 48 ff ff ff       	jmp    100086fc <_vfiprintf_r+0xd4c>
100087b4:	8b 44 24 1c          	mov    eax,DWORD PTR [esp+0x1c]
100087b8:	8b 7c 24 0c          	mov    edi,DWORD PTR [esp+0xc]
100087bc:	39 f8                	cmp    eax,edi
100087be:	7d 02                	jge    100087c2 <_vfiprintf_r+0xe12>
100087c0:	89 f8                	mov    eax,edi
100087c2:	01 44 24 20          	add    DWORD PTR [esp+0x20],eax
100087c6:	e9 9c f7 ff ff       	jmp    10007f67 <_vfiprintf_r+0x5b7>
100087cb:	83 f8 01             	cmp    eax,0x1
100087ce:	0f 84 33 02 00 00    	je     10008a07 <_vfiprintf_r+0x1057>
100087d4:	8b 5c 24 10          	mov    ebx,DWORD PTR [esp+0x10]
100087d8:	83 f8 02             	cmp    eax,0x2
100087db:	0f 85 a1 fa ff ff    	jne    10008282 <_vfiprintf_r+0x8d2>
100087e1:	8d 76 00             	lea    esi,[esi+0x0]
100087e4:	8d 7c 24 70          	lea    edi,[esp+0x70]
100087e8:	8b 54 24 2c          	mov    edx,DWORD PTR [esp+0x2c]
100087ec:	4f                   	dec    edi
100087ed:	89 c8                	mov    eax,ecx
100087ef:	83 e0 0f             	and    eax,0xf
100087f2:	8a 04 02             	mov    al,BYTE PTR [edx+eax*1]
100087f5:	88 07                	mov    BYTE PTR [edi],al
100087f7:	c1 e9 04             	shr    ecx,0x4
100087fa:	75 f0                	jne    100087ec <_vfiprintf_r+0xe3c>
100087fc:	e9 3f fb ff ff       	jmp    10008340 <_vfiprintf_r+0x990>
10008801:	8d 76 00             	lea    esi,[esi+0x0]
10008804:	85 c0                	test   eax,eax
10008806:	0f 84 72 01 00 00    	je     1000897e <_vfiprintf_r+0xfce>
1000880c:	8d 4c 24 3c          	lea    ecx,[esp+0x3c]
10008810:	8b 94 24 d4 00 00 00 	mov    edx,DWORD PTR [esp+0xd4]
10008817:	8b 84 24 d0 00 00 00 	mov    eax,DWORD PTR [esp+0xd0]
1000881e:	e8 b9 f0 ff ff       	call   100078dc <__sprint_r.part.0>
10008823:	85 c0                	test   eax,eax
10008825:	0f 85 b9 f3 ff ff    	jne    10007be4 <_vfiprintf_r+0x234>
1000882b:	8b 44 24 44          	mov    eax,DWORD PTR [esp+0x44]
1000882f:	8b 4c 24 40          	mov    ecx,DWORD PTR [esp+0x40]
10008833:	41                   	inc    ecx
10008834:	8d 74 24 78          	lea    esi,[esp+0x78]
10008838:	8d 6c 24 70          	lea    ebp,[esp+0x70]
1000883c:	e9 ad f6 ff ff       	jmp    10007eee <_vfiprintf_r+0x53e>
10008841:	c7 44 24 40 00 00 00 00 	mov    DWORD PTR [esp+0x40],0x0
10008849:	8d 6c 24 70          	lea    ebp,[esp+0x70]
1000884d:	e9 6d f2 ff ff       	jmp    10007abf <_vfiprintf_r+0x10f>
10008852:	8d 74 24 78          	lea    esi,[esp+0x78]
10008856:	b9 01 00 00 00       	mov    ecx,0x1
1000885b:	31 d2                	xor    edx,edx
1000885d:	8d 6c 24 70          	lea    ebp,[esp+0x70]
10008861:	e9 6a f6 ff ff       	jmp    10007ed0 <_vfiprintf_r+0x520>
10008866:	85 c0                	test   eax,eax
10008868:	0f 84 e5 00 00 00    	je     10008953 <_vfiprintf_r+0xfa3>
1000886e:	8d 4c 24 3c          	lea    ecx,[esp+0x3c]
10008872:	8b 94 24 d4 00 00 00 	mov    edx,DWORD PTR [esp+0xd4]
10008879:	8b 84 24 d0 00 00 00 	mov    eax,DWORD PTR [esp+0xd0]
10008880:	e8 57 f0 ff ff       	call   100078dc <__sprint_r.part.0>
10008885:	85 c0                	test   eax,eax
10008887:	0f 85 57 f3 ff ff    	jne    10007be4 <_vfiprintf_r+0x234>
1000888d:	8b 44 24 44          	mov    eax,DWORD PTR [esp+0x44]
10008891:	8b 54 24 40          	mov    edx,DWORD PTR [esp+0x40]
10008895:	8d 4a 01             	lea    ecx,[edx+0x1]
10008898:	8d 6c 24 70          	lea    ebp,[esp+0x70]
1000889c:	e9 96 f5 ff ff       	jmp    10007e37 <_vfiprintf_r+0x487>
100088a1:	8b b4 24 d8 00 00 00 	mov    esi,DWORD PTR [esp+0xd8]
100088a8:	e9 20 f2 ff ff       	jmp    10007acd <_vfiprintf_r+0x11d>
100088ad:	89 84 24 dc 00 00 00 	mov    DWORD PTR [esp+0xdc],eax
100088b4:	89 d6                	mov    esi,edx
100088b6:	e9 2e f2 ff ff       	jmp    10007ae9 <_vfiprintf_r+0x139>
100088bb:	8d 7c 24 70          	lea    edi,[esp+0x70]
100088bf:	e9 8a fa ff ff       	jmp    1000834e <_vfiprintf_r+0x99e>
100088c4:	8d 4a 01             	lea    ecx,[edx+0x1]
100088c7:	89 f5                	mov    ebp,esi
100088c9:	8d 76 08             	lea    esi,[esi+0x8]
100088cc:	e9 0d f6 ff ff       	jmp    10007ede <_vfiprintf_r+0x52e>
100088d1:	0f b7 c9             	movzx  ecx,cx
100088d4:	e9 54 f7 ff ff       	jmp    1000802d <_vfiprintf_r+0x67d>
100088d9:	89 84 24 dc 00 00 00 	mov    DWORD PTR [esp+0xdc],eax
100088e0:	b8 01 00 00 00       	mov    eax,0x1
100088e5:	e9 ba f6 ff ff       	jmp    10007fa4 <_vfiprintf_r+0x5f4>
100088ea:	89 ca                	mov    edx,ecx
100088ec:	89 84 24 dc 00 00 00 	mov    DWORD PTR [esp+0xdc],eax
100088f3:	e9 eb f3 ff ff       	jmp    10007ce3 <_vfiprintf_r+0x333>
100088f8:	89 84 24 dc 00 00 00 	mov    DWORD PTR [esp+0xdc],eax
100088ff:	31 c0                	xor    eax,eax
10008901:	e9 9e f6 ff ff       	jmp    10007fa4 <_vfiprintf_r+0x5f4>
10008906:	31 d2                	xor    edx,edx
10008908:	8d 74 24 78          	lea    esi,[esp+0x78]
1000890c:	b9 01 00 00 00       	mov    ecx,0x1
10008911:	8d 6c 24 70          	lea    ebp,[esp+0x70]
10008915:	e9 b6 f5 ff ff       	jmp    10007ed0 <_vfiprintf_r+0x520>
1000891a:	8b 5c 24 10          	mov    ebx,DWORD PTR [esp+0x10]
1000891e:	e9 ba fc ff ff       	jmp    100085dd <_vfiprintf_r+0xc2d>
10008923:	83 ec 0c             	sub    esp,0xc
10008926:	57                   	push   edi
10008927:	e8 84 84 ff ff       	call   10000db0 <strlen>
1000892c:	89 44 24 28          	mov    DWORD PTR [esp+0x28],eax
10008930:	8a 44 24 49          	mov    al,BYTE PTR [esp+0x49]
10008934:	88 44 24 34          	mov    BYTE PTR [esp+0x34],al
10008938:	83 c4 10             	add    esp,0x10
1000893b:	89 b4 24 dc 00 00 00 	mov    DWORD PTR [esp+0xdc],esi
10008942:	89 5c 24 10          	mov    DWORD PTR [esp+0x10],ebx
10008946:	c7 44 24 14 00 00 00 00 	mov    DWORD PTR [esp+0x14],0x0
1000894e:	e9 fb f9 ff ff       	jmp    1000834e <_vfiprintf_r+0x99e>
10008953:	80 7c 24 39 00       	cmp    BYTE PTR [esp+0x39],0x0
10008958:	0f 85 86 00 00 00    	jne    100089e4 <_vfiprintf_r+0x1034>
1000895e:	8b 54 24 24          	mov    edx,DWORD PTR [esp+0x24]
10008962:	85 d2                	test   edx,edx
10008964:	0f 85 35 fc ff ff    	jne    1000859f <_vfiprintf_r+0xbef>
1000896a:	31 d2                	xor    edx,edx
1000896c:	8d 74 24 78          	lea    esi,[esp+0x78]
10008970:	b9 01 00 00 00       	mov    ecx,0x1
10008975:	8d 6c 24 70          	lea    ebp,[esp+0x70]
10008979:	e9 60 f5 ff ff       	jmp    10007ede <_vfiprintf_r+0x52e>
1000897e:	89 7c 24 70          	mov    DWORD PTR [esp+0x70],edi
10008982:	8b 44 24 18          	mov    eax,DWORD PTR [esp+0x18]
10008986:	89 44 24 74          	mov    DWORD PTR [esp+0x74],eax
1000898a:	89 44 24 44          	mov    DWORD PTR [esp+0x44],eax
1000898e:	c7 44 24 40 01 00 00 00 	mov    DWORD PTR [esp+0x40],0x1
10008996:	8d 74 24 78          	lea    esi,[esp+0x78]
1000899a:	e9 97 f5 ff ff       	jmp    10007f36 <_vfiprintf_r+0x586>
1000899f:	89 44 24 18          	mov    DWORD PTR [esp+0x18],eax
100089a3:	83 f8 06             	cmp    eax,0x6
100089a6:	76 08                	jbe    100089b0 <_vfiprintf_r+0x1000>
100089a8:	c7 44 24 18 06 00 00 00 	mov    DWORD PTR [esp+0x18],0x6
100089b0:	8b 44 24 18          	mov    eax,DWORD PTR [esp+0x18]
100089b4:	89 44 24 0c          	mov    DWORD PTR [esp+0xc],eax
100089b8:	89 b4 24 dc 00 00 00 	mov    DWORD PTR [esp+0xdc],esi
100089bf:	bf 1e ca 00 10       	mov    edi,0x1000ca1e
100089c4:	e9 22 f4 ff ff       	jmp    10007deb <_vfiprintf_r+0x43b>
100089c9:	89 f2                	mov    edx,esi
100089cb:	e9 1a fb ff ff       	jmp    100084ea <_vfiprintf_r+0xb3a>
100089d0:	8d 74 24 78          	lea    esi,[esp+0x78]
100089d4:	b9 01 00 00 00       	mov    ecx,0x1
100089d9:	31 d2                	xor    edx,edx
100089db:	8d 6c 24 70          	lea    ebp,[esp+0x70]
100089df:	e9 fa f4 ff ff       	jmp    10007ede <_vfiprintf_r+0x52e>
100089e4:	8d 44 24 39          	lea    eax,[esp+0x39]
100089e8:	89 44 24 70          	mov    DWORD PTR [esp+0x70],eax
100089ec:	c7 44 24 74 01 00 00 00 	mov    DWORD PTR [esp+0x74],0x1
100089f4:	8d 74 24 78          	lea    esi,[esp+0x78]
100089f8:	b9 01 00 00 00       	mov    ecx,0x1
100089fd:	b8 01 00 00 00       	mov    eax,0x1
10008a02:	e9 5a f4 ff ff       	jmp    10007e61 <_vfiprintf_r+0x4b1>
10008a07:	8b 5c 24 10          	mov    ebx,DWORD PTR [esp+0x10]
10008a0b:	e9 d6 fb ff ff       	jmp    100085e6 <_vfiprintf_r+0xc36>
10008a10:	8a 44 24 39          	mov    al,BYTE PTR [esp+0x39]
10008a14:	88 44 24 24          	mov    BYTE PTR [esp+0x24],al
10008a18:	89 b4 24 dc 00 00 00 	mov    DWORD PTR [esp+0xdc],esi
10008a1f:	8b 44 24 14          	mov    eax,DWORD PTR [esp+0x14]
10008a23:	89 44 24 18          	mov    DWORD PTR [esp+0x18],eax
10008a27:	89 5c 24 10          	mov    DWORD PTR [esp+0x10],ebx
10008a2b:	c7 44 24 14 00 00 00 00 	mov    DWORD PTR [esp+0x14],0x0
10008a33:	e9 16 f9 ff ff       	jmp    1000834e <_vfiprintf_r+0x99e>
10008a38:	89 f9                	mov    ecx,edi
10008a3a:	88 4c 24 39          	mov    BYTE PTR [esp+0x39],cl
10008a3e:	e9 c3 f5 ff ff       	jmp    10008006 <_vfiprintf_r+0x656>
10008a43:	89 f9                	mov    ecx,edi
10008a45:	88 4c 24 39          	mov    BYTE PTR [esp+0x39],cl
10008a49:	e9 3d f2 ff ff       	jmp    10007c8b <_vfiprintf_r+0x2db>
10008a4e:	89 f8                	mov    eax,edi
10008a50:	88 44 24 39          	mov    BYTE PTR [esp+0x39],al
10008a54:	e9 52 f7 ff ff       	jmp    100081ab <_vfiprintf_r+0x7fb>
10008a59:	89 f8                	mov    eax,edi
10008a5b:	88 44 24 39          	mov    BYTE PTR [esp+0x39],al
10008a5f:	e9 60 f2 ff ff       	jmp    10007cc4 <_vfiprintf_r+0x314>
10008a64:	89 f8                	mov    eax,edi
10008a66:	88 44 24 39          	mov    BYTE PTR [esp+0x39],al
10008a6a:	e9 1f f6 ff ff       	jmp    1000808e <_vfiprintf_r+0x6de>
10008a6f:	89 f9                	mov    ecx,edi
10008a71:	88 4c 24 39          	mov    BYTE PTR [esp+0x39],cl
10008a75:	e9 78 f7 ff ff       	jmp    100081f2 <_vfiprintf_r+0x842>
10008a7a:	89 f8                	mov    eax,edi
10008a7c:	88 44 24 39          	mov    BYTE PTR [esp+0x39],al
10008a80:	e9 93 f7 ff ff       	jmp    10008218 <_vfiprintf_r+0x868>
10008a85:	89 f8                	mov    eax,edi
10008a87:	88 44 24 39          	mov    BYTE PTR [esp+0x39],al
10008a8b:	e9 dd f6 ff ff       	jmp    1000816d <_vfiprintf_r+0x7bd>
10008a90:	c7 44 24 14 00 00 00 00 	mov    DWORD PTR [esp+0x14],0x0
10008a98:	e9 52 f0 ff ff       	jmp    10007aef <_vfiprintf_r+0x13f>
10008a9d:	8d 79 01             	lea    edi,[ecx+0x1]
10008aa0:	e9 b4 fc ff ff       	jmp    10008759 <_vfiprintf_r+0xda9>
10008aa5:	c7 44 24 20 ff ff ff ff 	mov    DWORD PTR [esp+0x20],0xffffffff
10008aad:	e9 43 f1 ff ff       	jmp    10007bf5 <_vfiprintf_r+0x245>
10008ab2:	89 ca                	mov    edx,ecx
10008ab4:	e9 4d f9 ff ff       	jmp    10008406 <_vfiprintf_r+0xa56>
10008ab9:	8b 84 24 dc 00 00 00 	mov    eax,DWORD PTR [esp+0xdc]
10008ac0:	83 c0 04             	add    eax,0x4
10008ac3:	8b 94 24 dc 00 00 00 	mov    edx,DWORD PTR [esp+0xdc]
10008aca:	8b 12                	mov    edx,DWORD PTR [edx]
10008acc:	89 54 24 14          	mov    DWORD PTR [esp+0x14],edx
10008ad0:	85 d2                	test   edx,edx
10008ad2:	79 08                	jns    10008adc <_vfiprintf_r+0x112c>
10008ad4:	c7 44 24 14 ff ff ff ff 	mov    DWORD PTR [esp+0x14],0xffffffff
10008adc:	89 84 24 dc 00 00 00 	mov    DWORD PTR [esp+0xdc],eax
10008ae3:	8b 54 24 0c          	mov    edx,DWORD PTR [esp+0xc]
10008ae7:	89 d6                	mov    esi,edx
10008ae9:	e9 fb ef ff ff       	jmp    10007ae9 <_vfiprintf_r+0x139>
10008aee:	66 90                	xchg   ax,ax

10008af0 <vfiprintf>:
10008af0:	83 ec 0c             	sub    esp,0xc
10008af3:	ff 74 24 18          	push   DWORD PTR [esp+0x18]
10008af7:	ff 74 24 18          	push   DWORD PTR [esp+0x18]
10008afb:	ff 74 24 18          	push   DWORD PTR [esp+0x18]
10008aff:	ff 35 20 e0 00 10    	push   DWORD PTR ds:0x1000e020
10008b05:	e8 a6 ee ff ff       	call   100079b0 <_vfiprintf_r>
10008b0a:	83 c4 1c             	add    esp,0x1c
10008b0d:	c3                   	ret    
10008b0e:	66 90                	xchg   ax,ax

10008b10 <__sbprintf>:
10008b10:	55                   	push   ebp
10008b11:	57                   	push   edi
10008b12:	56                   	push   esi
10008b13:	53                   	push   ebx
10008b14:	81 ec 7c 04 00 00    	sub    esp,0x47c
10008b1a:	89 c7                	mov    edi,eax
10008b1c:	89 d3                	mov    ebx,edx
10008b1e:	8b 42 0c             	mov    eax,DWORD PTR [edx+0xc]
10008b21:	83 e0 fd             	and    eax,0xfffffffd
10008b24:	66 89 44 24 14       	mov    WORD PTR [esp+0x14],ax
10008b29:	8b 42 64             	mov    eax,DWORD PTR [edx+0x64]
10008b2c:	89 44 24 6c          	mov    DWORD PTR [esp+0x6c],eax
10008b30:	66 8b 42 0e          	mov    ax,WORD PTR [edx+0xe]
10008b34:	66 89 44 24 16       	mov    WORD PTR [esp+0x16],ax
10008b39:	8b 42 1c             	mov    eax,DWORD PTR [edx+0x1c]
10008b3c:	89 44 24 24          	mov    DWORD PTR [esp+0x24],eax
10008b40:	8b 42 24             	mov    eax,DWORD PTR [edx+0x24]
10008b43:	89 44 24 2c          	mov    DWORD PTR [esp+0x2c],eax
10008b47:	8d 44 24 70          	lea    eax,[esp+0x70]
10008b4b:	89 44 24 08          	mov    DWORD PTR [esp+0x8],eax
10008b4f:	89 44 24 18          	mov    DWORD PTR [esp+0x18],eax
10008b53:	c7 44 24 10 00 04 00 00 	mov    DWORD PTR [esp+0x10],0x400
10008b5b:	c7 44 24 1c 00 04 00 00 	mov    DWORD PTR [esp+0x1c],0x400
10008b63:	c7 44 24 20 00 00 00 00 	mov    DWORD PTR [esp+0x20],0x0
10008b6b:	ff b4 24 90 04 00 00 	push   DWORD PTR [esp+0x490]
10008b72:	51                   	push   ecx
10008b73:	8d 6c 24 10          	lea    ebp,[esp+0x10]
10008b77:	55                   	push   ebp
10008b78:	57                   	push   edi
10008b79:	e8 32 ee ff ff       	call   100079b0 <_vfiprintf_r>
10008b7e:	89 c6                	mov    esi,eax
10008b80:	83 c4 10             	add    esp,0x10
10008b83:	85 c0                	test   eax,eax
10008b85:	79 19                	jns    10008ba0 <__sbprintf+0x90>
10008b87:	f6 44 24 14 40       	test   BYTE PTR [esp+0x14],0x40
10008b8c:	74 05                	je     10008b93 <__sbprintf+0x83>
10008b8e:	66 83 4b 0c 40       	or     WORD PTR [ebx+0xc],0x40
10008b93:	89 f0                	mov    eax,esi
10008b95:	81 c4 7c 04 00 00    	add    esp,0x47c
10008b9b:	5b                   	pop    ebx
10008b9c:	5e                   	pop    esi
10008b9d:	5f                   	pop    edi
10008b9e:	5d                   	pop    ebp
10008b9f:	c3                   	ret    
10008ba0:	83 ec 08             	sub    esp,0x8
10008ba3:	55                   	push   ebp
10008ba4:	57                   	push   edi
10008ba5:	e8 fe c7 ff ff       	call   100053a8 <_fflush_r>
10008baa:	83 c4 10             	add    esp,0x10
10008bad:	85 c0                	test   eax,eax
10008baf:	74 d6                	je     10008b87 <__sbprintf+0x77>
10008bb1:	be ff ff ff ff       	mov    esi,0xffffffff
10008bb6:	eb cf                	jmp    10008b87 <__sbprintf+0x77>

10008bb8 <__swbuf_r>:
10008bb8:	55                   	push   ebp
10008bb9:	57                   	push   edi
10008bba:	56                   	push   esi
10008bbb:	53                   	push   ebx
10008bbc:	83 ec 0c             	sub    esp,0xc
10008bbf:	8b 7c 24 20          	mov    edi,DWORD PTR [esp+0x20]
10008bc3:	8b 5c 24 24          	mov    ebx,DWORD PTR [esp+0x24]
10008bc7:	8b 74 24 28          	mov    esi,DWORD PTR [esp+0x28]
10008bcb:	85 ff                	test   edi,edi
10008bcd:	74 0b                	je     10008bda <__swbuf_r+0x22>
10008bcf:	8b 47 38             	mov    eax,DWORD PTR [edi+0x38]
10008bd2:	85 c0                	test   eax,eax
10008bd4:	0f 84 ca 00 00 00    	je     10008ca4 <__swbuf_r+0xec>
10008bda:	8b 46 18             	mov    eax,DWORD PTR [esi+0x18]
10008bdd:	89 46 08             	mov    DWORD PTR [esi+0x8],eax
10008be0:	8b 46 0c             	mov    eax,DWORD PTR [esi+0xc]
10008be3:	a8 08                	test   al,0x8
10008be5:	74 41                	je     10008c28 <__swbuf_r+0x70>
10008be7:	8b 56 10             	mov    edx,DWORD PTR [esi+0x10]
10008bea:	85 d2                	test   edx,edx
10008bec:	74 3a                	je     10008c28 <__swbuf_r+0x70>
10008bee:	0f b6 eb             	movzx  ebp,bl
10008bf1:	f6 c4 20             	test   ah,0x20
10008bf4:	74 51                	je     10008c47 <__swbuf_r+0x8f>
10008bf6:	8b 0e                	mov    ecx,DWORD PTR [esi]
10008bf8:	89 c8                	mov    eax,ecx
10008bfa:	29 d0                	sub    eax,edx
10008bfc:	39 46 14             	cmp    DWORD PTR [esi+0x14],eax
10008bff:	7e 5f                	jle    10008c60 <__swbuf_r+0xa8>
10008c01:	40                   	inc    eax
10008c02:	ff 4e 08             	dec    DWORD PTR [esi+0x8]
10008c05:	8d 51 01             	lea    edx,[ecx+0x1]
10008c08:	89 16                	mov    DWORD PTR [esi],edx
10008c0a:	88 19                	mov    BYTE PTR [ecx],bl
10008c0c:	39 46 14             	cmp    DWORD PTR [esi+0x14],eax
10008c0f:	74 77                	je     10008c88 <__swbuf_r+0xd0>
10008c11:	f6 46 0c 01          	test   BYTE PTR [esi+0xc],0x1
10008c15:	74 05                	je     10008c1c <__swbuf_r+0x64>
10008c17:	83 fd 0a             	cmp    ebp,0xa
10008c1a:	74 6c                	je     10008c88 <__swbuf_r+0xd0>
10008c1c:	89 e8                	mov    eax,ebp
10008c1e:	83 c4 0c             	add    esp,0xc
10008c21:	5b                   	pop    ebx
10008c22:	5e                   	pop    esi
10008c23:	5f                   	pop    edi
10008c24:	5d                   	pop    ebp
10008c25:	c3                   	ret    
10008c26:	66 90                	xchg   ax,ax
10008c28:	83 ec 08             	sub    esp,0x8
10008c2b:	56                   	push   esi
10008c2c:	57                   	push   edi
10008c2d:	e8 32 a4 ff ff       	call   10003064 <__swsetup_r>
10008c32:	83 c4 10             	add    esp,0x10
10008c35:	85 c0                	test   eax,eax
10008c37:	75 60                	jne    10008c99 <__swbuf_r+0xe1>
10008c39:	8b 46 0c             	mov    eax,DWORD PTR [esi+0xc]
10008c3c:	8b 56 10             	mov    edx,DWORD PTR [esi+0x10]
10008c3f:	0f b6 eb             	movzx  ebp,bl
10008c42:	f6 c4 20             	test   ah,0x20
10008c45:	75 af                	jne    10008bf6 <__swbuf_r+0x3e>
10008c47:	80 cc 20             	or     ah,0x20
10008c4a:	66 89 46 0c          	mov    WORD PTR [esi+0xc],ax
10008c4e:	81 66 64 ff df ff ff 	and    DWORD PTR [esi+0x64],0xffffdfff
10008c55:	8b 0e                	mov    ecx,DWORD PTR [esi]
10008c57:	89 c8                	mov    eax,ecx
10008c59:	29 d0                	sub    eax,edx
10008c5b:	39 46 14             	cmp    DWORD PTR [esi+0x14],eax
10008c5e:	7f a1                	jg     10008c01 <__swbuf_r+0x49>
10008c60:	83 ec 08             	sub    esp,0x8
10008c63:	56                   	push   esi
10008c64:	57                   	push   edi
10008c65:	e8 3e c7 ff ff       	call   100053a8 <_fflush_r>
10008c6a:	83 c4 10             	add    esp,0x10
10008c6d:	85 c0                	test   eax,eax
10008c6f:	75 28                	jne    10008c99 <__swbuf_r+0xe1>
10008c71:	8b 0e                	mov    ecx,DWORD PTR [esi]
10008c73:	b8 01 00 00 00       	mov    eax,0x1
10008c78:	ff 4e 08             	dec    DWORD PTR [esi+0x8]
10008c7b:	8d 51 01             	lea    edx,[ecx+0x1]
10008c7e:	89 16                	mov    DWORD PTR [esi],edx
10008c80:	88 19                	mov    BYTE PTR [ecx],bl
10008c82:	39 46 14             	cmp    DWORD PTR [esi+0x14],eax
10008c85:	75 8a                	jne    10008c11 <__swbuf_r+0x59>
10008c87:	90                   	nop
10008c88:	83 ec 08             	sub    esp,0x8
10008c8b:	56                   	push   esi
10008c8c:	57                   	push   edi
10008c8d:	e8 16 c7 ff ff       	call   100053a8 <_fflush_r>
10008c92:	83 c4 10             	add    esp,0x10
10008c95:	85 c0                	test   eax,eax
10008c97:	74 83                	je     10008c1c <__swbuf_r+0x64>
10008c99:	bd ff ff ff ff       	mov    ebp,0xffffffff
10008c9e:	e9 79 ff ff ff       	jmp    10008c1c <__swbuf_r+0x64>
10008ca3:	90                   	nop
10008ca4:	83 ec 0c             	sub    esp,0xc
10008ca7:	57                   	push   edi
10008ca8:	e8 6b ca ff ff       	call   10005718 <__sinit>
10008cad:	83 c4 10             	add    esp,0x10
10008cb0:	e9 25 ff ff ff       	jmp    10008bda <__swbuf_r+0x22>
10008cb5:	8d 76 00             	lea    esi,[esi+0x0]

10008cb8 <__swbuf>:
10008cb8:	83 ec 10             	sub    esp,0x10
10008cbb:	ff 74 24 18          	push   DWORD PTR [esp+0x18]
10008cbf:	ff 74 24 18          	push   DWORD PTR [esp+0x18]
10008cc3:	ff 35 20 e0 00 10    	push   DWORD PTR ds:0x1000e020
10008cc9:	e8 ea fe ff ff       	call   10008bb8 <__swbuf_r>
10008cce:	83 c4 1c             	add    esp,0x1c
10008cd1:	c3                   	ret    
10008cd2:	66 90                	xchg   ax,ax

10008cd4 <_write_r>:
10008cd4:	83 ec 10             	sub    esp,0x10
10008cd7:	c7 05 10 f2 00 10 00 00 00 00 	mov    DWORD PTR ds:0x1000f210,0x0
10008ce1:	ff 74 24 20          	push   DWORD PTR [esp+0x20]
10008ce5:	ff 74 24 20          	push   DWORD PTR [esp+0x20]
10008ce9:	ff 74 24 20          	push   DWORD PTR [esp+0x20]
10008ced:	e8 03 aa ff ff       	call   100036f5 <write>
10008cf2:	83 c4 10             	add    esp,0x10
10008cf5:	83 f8 ff             	cmp    eax,0xffffffff
10008cf8:	74 06                	je     10008d00 <_write_r+0x2c>
10008cfa:	83 c4 0c             	add    esp,0xc
10008cfd:	c3                   	ret    
10008cfe:	66 90                	xchg   ax,ax
10008d00:	8b 15 10 f2 00 10    	mov    edx,DWORD PTR ds:0x1000f210
10008d06:	85 d2                	test   edx,edx
10008d08:	74 f0                	je     10008cfa <_write_r+0x26>
10008d0a:	8b 4c 24 10          	mov    ecx,DWORD PTR [esp+0x10]
10008d0e:	89 11                	mov    DWORD PTR [ecx],edx
10008d10:	83 c4 0c             	add    esp,0xc
10008d13:	c3                   	ret    

10008d14 <__assert_func>:
10008d14:	83 ec 0c             	sub    esp,0xc
10008d17:	8b 44 24 18          	mov    eax,DWORD PTR [esp+0x18]
10008d1b:	85 c0                	test   eax,eax
10008d1d:	74 2e                	je     10008d4d <__assert_func+0x39>
10008d1f:	ba 6c cf 00 10       	mov    edx,0x1000cf6c
10008d24:	51                   	push   ecx
10008d25:	50                   	push   eax
10008d26:	52                   	push   edx
10008d27:	ff 74 24 20          	push   DWORD PTR [esp+0x20]
10008d2b:	ff 74 24 20          	push   DWORD PTR [esp+0x20]
10008d2f:	ff 74 24 30          	push   DWORD PTR [esp+0x30]
10008d33:	68 7c cf 00 10       	push   0x1000cf7c
10008d38:	a1 20 e0 00 10       	mov    eax,ds:0x1000e020
10008d3d:	ff 70 0c             	push   DWORD PTR [eax+0xc]
10008d40:	e8 87 01 00 00       	call   10008ecc <fiprintf>
10008d45:	83 c4 20             	add    esp,0x20
10008d48:	e8 a7 05 00 00       	call   100092f4 <abort>
10008d4d:	b8 c1 93 00 10       	mov    eax,0x100093c1
10008d52:	89 c2                	mov    edx,eax
10008d54:	eb ce                	jmp    10008d24 <__assert_func+0x10>
10008d56:	66 90                	xchg   ax,ax

10008d58 <__assert>:
10008d58:	83 ec 0c             	sub    esp,0xc
10008d5b:	ff 74 24 18          	push   DWORD PTR [esp+0x18]
10008d5f:	6a 00                	push   0x0
10008d61:	ff 74 24 1c          	push   DWORD PTR [esp+0x1c]
10008d65:	ff 74 24 1c          	push   DWORD PTR [esp+0x1c]
10008d69:	e8 a6 ff ff ff       	call   10008d14 <__assert_func>
10008d6e:	66 90                	xchg   ax,ax

10008d70 <_close_r>:
10008d70:	83 ec 18             	sub    esp,0x18
10008d73:	c7 05 10 f2 00 10 00 00 00 00 	mov    DWORD PTR ds:0x1000f210,0x0
10008d7d:	ff 74 24 20          	push   DWORD PTR [esp+0x20]
10008d81:	e8 6b a4 ff ff       	call   100031f1 <close>
10008d86:	83 c4 10             	add    esp,0x10
10008d89:	83 f8 ff             	cmp    eax,0xffffffff
10008d8c:	74 06                	je     10008d94 <_close_r+0x24>
10008d8e:	83 c4 0c             	add    esp,0xc
10008d91:	c3                   	ret    
10008d92:	66 90                	xchg   ax,ax
10008d94:	8b 15 10 f2 00 10    	mov    edx,DWORD PTR ds:0x1000f210
10008d9a:	85 d2                	test   edx,edx
10008d9c:	74 f0                	je     10008d8e <_close_r+0x1e>
10008d9e:	8b 4c 24 10          	mov    ecx,DWORD PTR [esp+0x10]
10008da2:	89 11                	mov    DWORD PTR [ecx],edx
10008da4:	83 c4 0c             	add    esp,0xc
10008da7:	c3                   	ret    

10008da8 <_fclose_r>:
10008da8:	57                   	push   edi
10008da9:	56                   	push   esi
10008daa:	53                   	push   ebx
10008dab:	8b 74 24 10          	mov    esi,DWORD PTR [esp+0x10]
10008daf:	8b 5c 24 14          	mov    ebx,DWORD PTR [esp+0x14]
10008db3:	85 db                	test   ebx,ebx
10008db5:	74 16                	je     10008dcd <_fclose_r+0x25>
10008db7:	85 f6                	test   esi,esi
10008db9:	74 0b                	je     10008dc6 <_fclose_r+0x1e>
10008dbb:	8b 46 38             	mov    eax,DWORD PTR [esi+0x38]
10008dbe:	85 c0                	test   eax,eax
10008dc0:	0f 84 92 00 00 00    	je     10008e58 <_fclose_r+0xb0>
10008dc6:	66 83 7b 0c 00       	cmp    WORD PTR [ebx+0xc],0x0
10008dcb:	75 0b                	jne    10008dd8 <_fclose_r+0x30>
10008dcd:	31 ff                	xor    edi,edi
10008dcf:	89 f8                	mov    eax,edi
10008dd1:	5b                   	pop    ebx
10008dd2:	5e                   	pop    esi
10008dd3:	5f                   	pop    edi
10008dd4:	c3                   	ret    
10008dd5:	8d 76 00             	lea    esi,[esi+0x0]
10008dd8:	83 ec 08             	sub    esp,0x8
10008ddb:	53                   	push   ebx
10008ddc:	56                   	push   esi
10008ddd:	e8 16 c4 ff ff       	call   100051f8 <__sflush_r>
10008de2:	89 c7                	mov    edi,eax
10008de4:	8b 43 2c             	mov    eax,DWORD PTR [ebx+0x2c]
10008de7:	83 c4 10             	add    esp,0x10
10008dea:	85 c0                	test   eax,eax
10008dec:	74 10                	je     10008dfe <_fclose_r+0x56>
10008dee:	83 ec 08             	sub    esp,0x8
10008df1:	ff 73 1c             	push   DWORD PTR [ebx+0x1c]
10008df4:	56                   	push   esi
10008df5:	ff d0                	call   eax
10008df7:	83 c4 10             	add    esp,0x10
10008dfa:	85 c0                	test   eax,eax
10008dfc:	78 76                	js     10008e74 <_fclose_r+0xcc>
10008dfe:	f6 43 0c 80          	test   BYTE PTR [ebx+0xc],0x80
10008e02:	75 7b                	jne    10008e7f <_fclose_r+0xd7>
10008e04:	8b 43 30             	mov    eax,DWORD PTR [ebx+0x30]
10008e07:	85 c0                	test   eax,eax
10008e09:	74 1b                	je     10008e26 <_fclose_r+0x7e>
10008e0b:	8d 53 40             	lea    edx,[ebx+0x40]
10008e0e:	39 d0                	cmp    eax,edx
10008e10:	74 0d                	je     10008e1f <_fclose_r+0x77>
10008e12:	83 ec 08             	sub    esp,0x8
10008e15:	50                   	push   eax
10008e16:	56                   	push   esi
10008e17:	e8 24 ca ff ff       	call   10005840 <_free_r>
10008e1c:	83 c4 10             	add    esp,0x10
10008e1f:	c7 43 30 00 00 00 00 	mov    DWORD PTR [ebx+0x30],0x0
10008e26:	8b 43 44             	mov    eax,DWORD PTR [ebx+0x44]
10008e29:	85 c0                	test   eax,eax
10008e2b:	74 14                	je     10008e41 <_fclose_r+0x99>
10008e2d:	83 ec 08             	sub    esp,0x8
10008e30:	50                   	push   eax
10008e31:	56                   	push   esi
10008e32:	e8 09 ca ff ff       	call   10005840 <_free_r>
10008e37:	c7 43 44 00 00 00 00 	mov    DWORD PTR [ebx+0x44],0x0
10008e3e:	83 c4 10             	add    esp,0x10
10008e41:	e8 e6 c8 ff ff       	call   1000572c <__sfp_lock_acquire>
10008e46:	66 c7 43 0c 00 00    	mov    WORD PTR [ebx+0xc],0x0
10008e4c:	e8 df c8 ff ff       	call   10005730 <__sfp_lock_release>
10008e51:	89 f8                	mov    eax,edi
10008e53:	5b                   	pop    ebx
10008e54:	5e                   	pop    esi
10008e55:	5f                   	pop    edi
10008e56:	c3                   	ret    
10008e57:	90                   	nop
10008e58:	83 ec 0c             	sub    esp,0xc
10008e5b:	56                   	push   esi
10008e5c:	e8 b7 c8 ff ff       	call   10005718 <__sinit>
10008e61:	83 c4 10             	add    esp,0x10
10008e64:	66 83 7b 0c 00       	cmp    WORD PTR [ebx+0xc],0x0
10008e69:	0f 84 5e ff ff ff    	je     10008dcd <_fclose_r+0x25>
10008e6f:	e9 64 ff ff ff       	jmp    10008dd8 <_fclose_r+0x30>
10008e74:	bf ff ff ff ff       	mov    edi,0xffffffff
10008e79:	f6 43 0c 80          	test   BYTE PTR [ebx+0xc],0x80
10008e7d:	74 85                	je     10008e04 <_fclose_r+0x5c>
10008e7f:	83 ec 08             	sub    esp,0x8
10008e82:	ff 73 10             	push   DWORD PTR [ebx+0x10]
10008e85:	56                   	push   esi
10008e86:	e8 b5 c9 ff ff       	call   10005840 <_free_r>
10008e8b:	83 c4 10             	add    esp,0x10
10008e8e:	e9 71 ff ff ff       	jmp    10008e04 <_fclose_r+0x5c>
10008e93:	90                   	nop

10008e94 <fclose>:
10008e94:	83 ec 14             	sub    esp,0x14
10008e97:	ff 74 24 18          	push   DWORD PTR [esp+0x18]
10008e9b:	ff 35 20 e0 00 10    	push   DWORD PTR ds:0x1000e020
10008ea1:	e8 02 ff ff ff       	call   10008da8 <_fclose_r>
10008ea6:	83 c4 1c             	add    esp,0x1c
10008ea9:	c3                   	ret    
10008eaa:	66 90                	xchg   ax,ax

10008eac <_fiprintf_r>:
10008eac:	83 ec 0c             	sub    esp,0xc
10008eaf:	8d 44 24 1c          	lea    eax,[esp+0x1c]
10008eb3:	50                   	push   eax
10008eb4:	ff 74 24 1c          	push   DWORD PTR [esp+0x1c]
10008eb8:	ff 74 24 1c          	push   DWORD PTR [esp+0x1c]
10008ebc:	ff 74 24 1c          	push   DWORD PTR [esp+0x1c]
10008ec0:	e8 eb ea ff ff       	call   100079b0 <_vfiprintf_r>
10008ec5:	83 c4 1c             	add    esp,0x1c
10008ec8:	c3                   	ret    
10008ec9:	8d 76 00             	lea    esi,[esi+0x0]

10008ecc <fiprintf>:
10008ecc:	83 ec 0c             	sub    esp,0xc
10008ecf:	8d 44 24 18          	lea    eax,[esp+0x18]
10008ed3:	50                   	push   eax
10008ed4:	ff 74 24 18          	push   DWORD PTR [esp+0x18]
10008ed8:	ff 74 24 18          	push   DWORD PTR [esp+0x18]
10008edc:	ff 35 20 e0 00 10    	push   DWORD PTR ds:0x1000e020
10008ee2:	e8 c9 ea ff ff       	call   100079b0 <_vfiprintf_r>
10008ee7:	83 c4 1c             	add    esp,0x1c
10008eea:	c3                   	ret    
10008eeb:	90                   	nop

10008eec <__fputwc>:
10008eec:	55                   	push   ebp
10008eed:	57                   	push   edi
10008eee:	56                   	push   esi
10008eef:	53                   	push   ebx
10008ef0:	83 ec 1c             	sub    esp,0x1c
10008ef3:	8b 7c 24 30          	mov    edi,DWORD PTR [esp+0x30]
10008ef7:	8b 5c 24 38          	mov    ebx,DWORD PTR [esp+0x38]
10008efb:	e8 0c 02 00 00       	call   1000910c <__locale_mb_cur_max>
10008f00:	48                   	dec    eax
10008f01:	75 69                	jne    10008f6c <__fputwc+0x80>
10008f03:	8b 44 24 34          	mov    eax,DWORD PTR [esp+0x34]
10008f07:	48                   	dec    eax
10008f08:	3d fe 00 00 00       	cmp    eax,0xfe
10008f0d:	77 5d                	ja     10008f6c <__fputwc+0x80>
10008f0f:	0f b6 44 24 34       	movzx  eax,BYTE PTR [esp+0x34]
10008f14:	88 44 24 0f          	mov    BYTE PTR [esp+0xf],al
10008f18:	bd 01 00 00 00       	mov    ebp,0x1
10008f1d:	8d 76 00             	lea    esi,[esi+0x0]
10008f20:	31 f6                	xor    esi,esi
10008f22:	eb 13                	jmp    10008f37 <__fputwc+0x4b>
10008f24:	8b 13                	mov    edx,DWORD PTR [ebx]
10008f26:	8d 4a 01             	lea    ecx,[edx+0x1]
10008f29:	89 0b                	mov    DWORD PTR [ebx],ecx
10008f2b:	88 02                	mov    BYTE PTR [edx],al
10008f2d:	46                   	inc    esi
10008f2e:	39 ee                	cmp    esi,ebp
10008f30:	73 62                	jae    10008f94 <__fputwc+0xa8>
10008f32:	0f b6 44 34 0f       	movzx  eax,BYTE PTR [esp+esi*1+0xf]
10008f37:	8b 4b 08             	mov    ecx,DWORD PTR [ebx+0x8]
10008f3a:	8d 51 ff             	lea    edx,[ecx-0x1]
10008f3d:	89 53 08             	mov    DWORD PTR [ebx+0x8],edx
10008f40:	85 d2                	test   edx,edx
10008f42:	79 e0                	jns    10008f24 <__fputwc+0x38>
10008f44:	3b 53 18             	cmp    edx,DWORD PTR [ebx+0x18]
10008f47:	7c 04                	jl     10008f4d <__fputwc+0x61>
10008f49:	3c 0a                	cmp    al,0xa
10008f4b:	75 d7                	jne    10008f24 <__fputwc+0x38>
10008f4d:	52                   	push   edx
10008f4e:	53                   	push   ebx
10008f4f:	50                   	push   eax
10008f50:	57                   	push   edi
10008f51:	e8 62 fc ff ff       	call   10008bb8 <__swbuf_r>
10008f56:	83 c4 10             	add    esp,0x10
10008f59:	40                   	inc    eax
10008f5a:	75 d1                	jne    10008f2d <__fputwc+0x41>
10008f5c:	b8 ff ff ff ff       	mov    eax,0xffffffff
10008f61:	83 c4 1c             	add    esp,0x1c
10008f64:	5b                   	pop    ebx
10008f65:	5e                   	pop    esi
10008f66:	5f                   	pop    edi
10008f67:	5d                   	pop    ebp
10008f68:	c3                   	ret    
10008f69:	8d 76 00             	lea    esi,[esi+0x0]
10008f6c:	8d 43 5c             	lea    eax,[ebx+0x5c]
10008f6f:	50                   	push   eax
10008f70:	ff 74 24 38          	push   DWORD PTR [esp+0x38]
10008f74:	8d 44 24 17          	lea    eax,[esp+0x17]
10008f78:	50                   	push   eax
10008f79:	57                   	push   edi
10008f7a:	e8 81 02 00 00       	call   10009200 <_wcrtomb_r>
10008f7f:	89 c5                	mov    ebp,eax
10008f81:	83 c4 10             	add    esp,0x10
10008f84:	83 f8 ff             	cmp    eax,0xffffffff
10008f87:	74 17                	je     10008fa0 <__fputwc+0xb4>
10008f89:	85 c0                	test   eax,eax
10008f8b:	74 07                	je     10008f94 <__fputwc+0xa8>
10008f8d:	0f b6 44 24 0f       	movzx  eax,BYTE PTR [esp+0xf]
10008f92:	eb 8c                	jmp    10008f20 <__fputwc+0x34>
10008f94:	8b 44 24 34          	mov    eax,DWORD PTR [esp+0x34]
10008f98:	83 c4 1c             	add    esp,0x1c
10008f9b:	5b                   	pop    ebx
10008f9c:	5e                   	pop    esi
10008f9d:	5f                   	pop    edi
10008f9e:	5d                   	pop    ebp
10008f9f:	c3                   	ret    
10008fa0:	66 83 4b 0c 40       	or     WORD PTR [ebx+0xc],0x40
10008fa5:	b8 ff ff ff ff       	mov    eax,0xffffffff
10008faa:	83 c4 1c             	add    esp,0x1c
10008fad:	5b                   	pop    ebx
10008fae:	5e                   	pop    esi
10008faf:	5f                   	pop    edi
10008fb0:	5d                   	pop    ebp
10008fb1:	c3                   	ret    
10008fb2:	66 90                	xchg   ax,ax

10008fb4 <_fputwc_r>:
10008fb4:	53                   	push   ebx
10008fb5:	8b 4c 24 08          	mov    ecx,DWORD PTR [esp+0x8]
10008fb9:	8b 5c 24 0c          	mov    ebx,DWORD PTR [esp+0xc]
10008fbd:	8b 44 24 10          	mov    eax,DWORD PTR [esp+0x10]
10008fc1:	8b 50 0c             	mov    edx,DWORD PTR [eax+0xc]
10008fc4:	f6 c6 20             	test   dh,0x20
10008fc7:	75 0e                	jne    10008fd7 <_fputwc_r+0x23>
10008fc9:	80 ce 20             	or     dh,0x20
10008fcc:	66 89 50 0c          	mov    WORD PTR [eax+0xc],dx
10008fd0:	81 48 64 00 20 00 00 	or     DWORD PTR [eax+0x64],0x2000
10008fd7:	89 44 24 10          	mov    DWORD PTR [esp+0x10],eax
10008fdb:	89 5c 24 0c          	mov    DWORD PTR [esp+0xc],ebx
10008fdf:	89 4c 24 08          	mov    DWORD PTR [esp+0x8],ecx
10008fe3:	5b                   	pop    ebx
10008fe4:	e9 03 ff ff ff       	jmp    10008eec <__fputwc>
10008fe9:	8d 76 00             	lea    esi,[esi+0x0]

10008fec <fputwc>:
10008fec:	56                   	push   esi
10008fed:	53                   	push   ebx
10008fee:	51                   	push   ecx
10008fef:	8b 5c 24 14          	mov    ebx,DWORD PTR [esp+0x14]
10008ff3:	8b 35 20 e0 00 10    	mov    esi,DWORD PTR ds:0x1000e020
10008ff9:	85 f6                	test   esi,esi
10008ffb:	74 07                	je     10009004 <fputwc+0x18>
10008ffd:	8b 56 38             	mov    edx,DWORD PTR [esi+0x38]
10009000:	85 d2                	test   edx,edx
10009002:	74 28                	je     1000902c <fputwc+0x40>
10009004:	8b 43 0c             	mov    eax,DWORD PTR [ebx+0xc]
10009007:	f6 c4 20             	test   ah,0x20
1000900a:	75 0e                	jne    1000901a <fputwc+0x2e>
1000900c:	80 cc 20             	or     ah,0x20
1000900f:	66 89 43 0c          	mov    WORD PTR [ebx+0xc],ax
10009013:	81 4b 64 00 20 00 00 	or     DWORD PTR [ebx+0x64],0x2000
1000901a:	50                   	push   eax
1000901b:	53                   	push   ebx
1000901c:	ff 74 24 18          	push   DWORD PTR [esp+0x18]
10009020:	56                   	push   esi
10009021:	e8 c6 fe ff ff       	call   10008eec <__fputwc>
10009026:	83 c4 14             	add    esp,0x14
10009029:	5b                   	pop    ebx
1000902a:	5e                   	pop    esi
1000902b:	c3                   	ret    
1000902c:	83 ec 0c             	sub    esp,0xc
1000902f:	56                   	push   esi
10009030:	e8 e3 c6 ff ff       	call   10005718 <__sinit>
10009035:	83 c4 10             	add    esp,0x10
10009038:	eb ca                	jmp    10009004 <fputwc+0x18>
1000903a:	66 90                	xchg   ax,ax

1000903c <_fstat_r>:
1000903c:	83 ec 14             	sub    esp,0x14
1000903f:	c7 05 10 f2 00 10 00 00 00 00 	mov    DWORD PTR ds:0x1000f210,0x0
10009049:	ff 74 24 20          	push   DWORD PTR [esp+0x20]
1000904d:	ff 74 24 20          	push   DWORD PTR [esp+0x20]
10009051:	e8 99 a2 ff ff       	call   100032ef <fstat>
10009056:	83 c4 10             	add    esp,0x10
10009059:	83 f8 ff             	cmp    eax,0xffffffff
1000905c:	74 06                	je     10009064 <_fstat_r+0x28>
1000905e:	83 c4 0c             	add    esp,0xc
10009061:	c3                   	ret    
10009062:	66 90                	xchg   ax,ax
10009064:	8b 15 10 f2 00 10    	mov    edx,DWORD PTR ds:0x1000f210
1000906a:	85 d2                	test   edx,edx
1000906c:	74 f0                	je     1000905e <_fstat_r+0x22>
1000906e:	8b 4c 24 10          	mov    ecx,DWORD PTR [esp+0x10]
10009072:	89 11                	mov    DWORD PTR [ecx],edx
10009074:	83 c4 0c             	add    esp,0xc
10009077:	c3                   	ret    

10009078 <_isatty_r>:
10009078:	83 ec 18             	sub    esp,0x18
1000907b:	c7 05 10 f2 00 10 00 00 00 00 	mov    DWORD PTR ds:0x1000f210,0x0
10009085:	ff 74 24 20          	push   DWORD PTR [esp+0x20]
10009089:	e8 d7 a2 ff ff       	call   10003365 <isatty>
1000908e:	83 c4 10             	add    esp,0x10
10009091:	83 f8 ff             	cmp    eax,0xffffffff
10009094:	74 06                	je     1000909c <_isatty_r+0x24>
10009096:	83 c4 0c             	add    esp,0xc
10009099:	c3                   	ret    
1000909a:	66 90                	xchg   ax,ax
1000909c:	8b 15 10 f2 00 10    	mov    edx,DWORD PTR ds:0x1000f210
100090a2:	85 d2                	test   edx,edx
100090a4:	74 f0                	je     10009096 <_isatty_r+0x1e>
100090a6:	8b 4c 24 10          	mov    ecx,DWORD PTR [esp+0x10]
100090aa:	89 11                	mov    DWORD PTR [ecx],edx
100090ac:	83 c4 0c             	add    esp,0xc
100090af:	c3                   	ret    

100090b0 <_setlocale_r>:
100090b0:	53                   	push   ebx
100090b1:	83 ec 08             	sub    esp,0x8
100090b4:	8b 5c 24 18          	mov    ebx,DWORD PTR [esp+0x18]
100090b8:	85 db                	test   ebx,ebx
100090ba:	74 15                	je     100090d1 <_setlocale_r+0x21>
100090bc:	83 ec 08             	sub    esp,0x8
100090bf:	68 ae cf 00 10       	push   0x1000cfae
100090c4:	53                   	push   ebx
100090c5:	e8 7e 7c ff ff       	call   10000d48 <strcmp>
100090ca:	83 c4 10             	add    esp,0x10
100090cd:	85 c0                	test   eax,eax
100090cf:	75 0b                	jne    100090dc <_setlocale_r+0x2c>
100090d1:	b8 ac cf 00 10       	mov    eax,0x1000cfac
100090d6:	83 c4 08             	add    esp,0x8
100090d9:	5b                   	pop    ebx
100090da:	c3                   	ret    
100090db:	90                   	nop
100090dc:	83 ec 08             	sub    esp,0x8
100090df:	68 ac cf 00 10       	push   0x1000cfac
100090e4:	53                   	push   ebx
100090e5:	e8 5e 7c ff ff       	call   10000d48 <strcmp>
100090ea:	83 c4 10             	add    esp,0x10
100090ed:	85 c0                	test   eax,eax
100090ef:	74 e0                	je     100090d1 <_setlocale_r+0x21>
100090f1:	83 ec 08             	sub    esp,0x8
100090f4:	68 c1 93 00 10       	push   0x100093c1
100090f9:	53                   	push   ebx
100090fa:	e8 49 7c ff ff       	call   10000d48 <strcmp>
100090ff:	83 c4 10             	add    esp,0x10
10009102:	85 c0                	test   eax,eax
10009104:	74 cb                	je     100090d1 <_setlocale_r+0x21>
10009106:	31 c0                	xor    eax,eax
10009108:	eb cc                	jmp    100090d6 <_setlocale_r+0x26>
1000910a:	66 90                	xchg   ax,ax

1000910c <__locale_mb_cur_max>:
1000910c:	0f be 05 e8 e9 00 10 	movsx  eax,BYTE PTR ds:0x1000e9e8
10009113:	c3                   	ret    

10009114 <setlocale>:
10009114:	83 ec 10             	sub    esp,0x10
10009117:	ff 74 24 18          	push   DWORD PTR [esp+0x18]
1000911b:	ff 74 24 18          	push   DWORD PTR [esp+0x18]
1000911f:	ff 35 20 e0 00 10    	push   DWORD PTR ds:0x1000e020
10009125:	e8 86 ff ff ff       	call   100090b0 <_setlocale_r>
1000912a:	83 c4 1c             	add    esp,0x1c
1000912d:	c3                   	ret    
1000912e:	66 90                	xchg   ax,ax

10009130 <_lseek_r>:
10009130:	83 ec 10             	sub    esp,0x10
10009133:	c7 05 10 f2 00 10 00 00 00 00 	mov    DWORD PTR ds:0x1000f210,0x0
1000913d:	ff 74 24 20          	push   DWORD PTR [esp+0x20]
10009141:	ff 74 24 20          	push   DWORD PTR [esp+0x20]
10009145:	ff 74 24 20          	push   DWORD PTR [esp+0x20]
10009149:	e8 6f a2 ff ff       	call   100033bd <lseek>
1000914e:	83 c4 10             	add    esp,0x10
10009151:	83 f8 ff             	cmp    eax,0xffffffff
10009154:	74 06                	je     1000915c <_lseek_r+0x2c>
10009156:	83 c4 0c             	add    esp,0xc
10009159:	c3                   	ret    
1000915a:	66 90                	xchg   ax,ax
1000915c:	8b 15 10 f2 00 10    	mov    edx,DWORD PTR ds:0x1000f210
10009162:	85 d2                	test   edx,edx
10009164:	74 f0                	je     10009156 <_lseek_r+0x26>
10009166:	8b 4c 24 10          	mov    ecx,DWORD PTR [esp+0x10]
1000916a:	89 11                	mov    DWORD PTR [ecx],edx
1000916c:	83 c4 0c             	add    esp,0xc
1000916f:	c3                   	ret    

10009170 <_mbtowc_r>:
10009170:	ff 25 a4 e9 00 10    	jmp    DWORD PTR ds:0x1000e9a4
10009176:	66 90                	xchg   ax,ax

10009178 <__ascii_mbtowc>:
10009178:	83 ec 10             	sub    esp,0x10
1000917b:	8b 54 24 18          	mov    edx,DWORD PTR [esp+0x18]
1000917f:	8b 44 24 1c          	mov    eax,DWORD PTR [esp+0x1c]
10009183:	85 d2                	test   edx,edx
10009185:	74 21                	je     100091a8 <__ascii_mbtowc+0x30>
10009187:	85 c0                	test   eax,eax
10009189:	74 25                	je     100091b0 <__ascii_mbtowc+0x38>
1000918b:	8b 4c 24 20          	mov    ecx,DWORD PTR [esp+0x20]
1000918f:	85 c9                	test   ecx,ecx
10009191:	74 23                	je     100091b6 <__ascii_mbtowc+0x3e>
10009193:	0f b6 08             	movzx  ecx,BYTE PTR [eax]
10009196:	89 0a                	mov    DWORD PTR [edx],ecx
10009198:	80 38 00             	cmp    BYTE PTR [eax],0x0
1000919b:	0f 95 c0             	setne  al
1000919e:	0f b6 c0             	movzx  eax,al
100091a1:	83 c4 10             	add    esp,0x10
100091a4:	c3                   	ret    
100091a5:	8d 76 00             	lea    esi,[esi+0x0]
100091a8:	8d 54 24 0c          	lea    edx,[esp+0xc]
100091ac:	85 c0                	test   eax,eax
100091ae:	75 db                	jne    1000918b <__ascii_mbtowc+0x13>
100091b0:	31 c0                	xor    eax,eax
100091b2:	83 c4 10             	add    esp,0x10
100091b5:	c3                   	ret    
100091b6:	b8 fe ff ff ff       	mov    eax,0xfffffffe
100091bb:	eb e4                	jmp    100091a1 <__ascii_mbtowc+0x29>
100091bd:	66 90                	xchg   ax,ax
100091bf:	90                   	nop

100091c0 <_read_r>:
100091c0:	83 ec 10             	sub    esp,0x10
100091c3:	c7 05 10 f2 00 10 00 00 00 00 	mov    DWORD PTR ds:0x1000f210,0x0
100091cd:	ff 74 24 20          	push   DWORD PTR [esp+0x20]
100091d1:	ff 74 24 20          	push   DWORD PTR [esp+0x20]
100091d5:	ff 74 24 20          	push   DWORD PTR [esp+0x20]
100091d9:	e8 4d a4 ff ff       	call   1000362b <read>
100091de:	83 c4 10             	add    esp,0x10
100091e1:	83 f8 ff             	cmp    eax,0xffffffff
100091e4:	74 06                	je     100091ec <_read_r+0x2c>
100091e6:	83 c4 0c             	add    esp,0xc
100091e9:	c3                   	ret    
100091ea:	66 90                	xchg   ax,ax
100091ec:	8b 15 10 f2 00 10    	mov    edx,DWORD PTR ds:0x1000f210
100091f2:	85 d2                	test   edx,edx
100091f4:	74 f0                	je     100091e6 <_read_r+0x26>
100091f6:	8b 4c 24 10          	mov    ecx,DWORD PTR [esp+0x10]
100091fa:	89 11                	mov    DWORD PTR [ecx],edx
100091fc:	83 c4 0c             	add    esp,0xc
100091ff:	c3                   	ret    

10009200 <_wcrtomb_r>:
10009200:	56                   	push   esi
10009201:	53                   	push   ebx
10009202:	83 ec 14             	sub    esp,0x14
10009205:	8b 5c 24 20          	mov    ebx,DWORD PTR [esp+0x20]
10009209:	8b 44 24 24          	mov    eax,DWORD PTR [esp+0x24]
1000920d:	8b 74 24 2c          	mov    esi,DWORD PTR [esp+0x2c]
10009211:	8b 15 a0 e9 00 10    	mov    edx,DWORD PTR ds:0x1000e9a0
10009217:	85 c0                	test   eax,eax
10009219:	74 19                	je     10009234 <_wcrtomb_r+0x34>
1000921b:	56                   	push   esi
1000921c:	ff 74 24 2c          	push   DWORD PTR [esp+0x2c]
10009220:	50                   	push   eax
10009221:	53                   	push   ebx
10009222:	ff d2                	call   edx
10009224:	83 c4 10             	add    esp,0x10
10009227:	83 f8 ff             	cmp    eax,0xffffffff
1000922a:	74 1b                	je     10009247 <_wcrtomb_r+0x47>
1000922c:	83 c4 14             	add    esp,0x14
1000922f:	5b                   	pop    ebx
10009230:	5e                   	pop    esi
10009231:	c3                   	ret    
10009232:	66 90                	xchg   ax,ax
10009234:	56                   	push   esi
10009235:	6a 00                	push   0x0
10009237:	8d 44 24 0e          	lea    eax,[esp+0xe]
1000923b:	50                   	push   eax
1000923c:	53                   	push   ebx
1000923d:	ff d2                	call   edx
1000923f:	83 c4 10             	add    esp,0x10
10009242:	83 f8 ff             	cmp    eax,0xffffffff
10009245:	75 e5                	jne    1000922c <_wcrtomb_r+0x2c>
10009247:	c7 06 00 00 00 00    	mov    DWORD PTR [esi],0x0
1000924d:	c7 03 8a 00 00 00    	mov    DWORD PTR [ebx],0x8a
10009253:	83 c4 14             	add    esp,0x14
10009256:	5b                   	pop    ebx
10009257:	5e                   	pop    esi
10009258:	c3                   	ret    
10009259:	8d 76 00             	lea    esi,[esi+0x0]

1000925c <wcrtomb>:
1000925c:	56                   	push   esi
1000925d:	53                   	push   ebx
1000925e:	83 ec 14             	sub    esp,0x14
10009261:	8b 44 24 20          	mov    eax,DWORD PTR [esp+0x20]
10009265:	8b 74 24 28          	mov    esi,DWORD PTR [esp+0x28]
10009269:	8b 1d 20 e0 00 10    	mov    ebx,DWORD PTR ds:0x1000e020
1000926f:	8b 15 a0 e9 00 10    	mov    edx,DWORD PTR ds:0x1000e9a0
10009275:	85 c0                	test   eax,eax
10009277:	74 17                	je     10009290 <wcrtomb+0x34>
10009279:	56                   	push   esi
1000927a:	ff 74 24 28          	push   DWORD PTR [esp+0x28]
1000927e:	50                   	push   eax
1000927f:	53                   	push   ebx
10009280:	ff d2                	call   edx
10009282:	83 c4 10             	add    esp,0x10
10009285:	83 f8 ff             	cmp    eax,0xffffffff
10009288:	74 19                	je     100092a3 <wcrtomb+0x47>
1000928a:	83 c4 14             	add    esp,0x14
1000928d:	5b                   	pop    ebx
1000928e:	5e                   	pop    esi
1000928f:	c3                   	ret    
10009290:	56                   	push   esi
10009291:	6a 00                	push   0x0
10009293:	8d 44 24 0e          	lea    eax,[esp+0xe]
10009297:	50                   	push   eax
10009298:	53                   	push   ebx
10009299:	ff d2                	call   edx
1000929b:	83 c4 10             	add    esp,0x10
1000929e:	83 f8 ff             	cmp    eax,0xffffffff
100092a1:	75 e7                	jne    1000928a <wcrtomb+0x2e>
100092a3:	c7 06 00 00 00 00    	mov    DWORD PTR [esi],0x0
100092a9:	c7 03 8a 00 00 00    	mov    DWORD PTR [ebx],0x8a
100092af:	83 c4 14             	add    esp,0x14
100092b2:	5b                   	pop    ebx
100092b3:	5e                   	pop    esi
100092b4:	c3                   	ret    
100092b5:	66 90                	xchg   ax,ax
100092b7:	90                   	nop

100092b8 <_wctomb_r>:
100092b8:	ff 25 a0 e9 00 10    	jmp    DWORD PTR ds:0x1000e9a0
100092be:	66 90                	xchg   ax,ax

100092c0 <__ascii_wctomb>:
100092c0:	8b 44 24 08          	mov    eax,DWORD PTR [esp+0x8]
100092c4:	85 c0                	test   eax,eax
100092c6:	74 28                	je     100092f0 <__ascii_wctomb+0x30>
100092c8:	81 7c 24 0c ff 00 00 00 	cmp    DWORD PTR [esp+0xc],0xff
100092d0:	77 0e                	ja     100092e0 <__ascii_wctomb+0x20>
100092d2:	8a 54 24 0c          	mov    dl,BYTE PTR [esp+0xc]
100092d6:	88 10                	mov    BYTE PTR [eax],dl
100092d8:	b8 01 00 00 00       	mov    eax,0x1
100092dd:	c3                   	ret    
100092de:	66 90                	xchg   ax,ax
100092e0:	8b 44 24 04          	mov    eax,DWORD PTR [esp+0x4]
100092e4:	c7 00 8a 00 00 00    	mov    DWORD PTR [eax],0x8a
100092ea:	b8 ff ff ff ff       	mov    eax,0xffffffff
100092ef:	c3                   	ret    
100092f0:	31 c0                	xor    eax,eax
100092f2:	c3                   	ret    
100092f3:	90                   	nop

100092f4 <abort>:
100092f4:	83 ec 18             	sub    esp,0x18
100092f7:	6a 06                	push   0x6
100092f9:	e8 0e 00 00 00       	call   1000930c <raise>
100092fe:	c7 04 24 01 00 00 00 	mov    DWORD PTR [esp],0x1
10009305:	e8 cf 9e ff ff       	call   100031d9 <_exit>
1000930a:	66 90                	xchg   ax,ax

1000930c <raise>:
1000930c:	53                   	push   ebx
1000930d:	83 ec 14             	sub    esp,0x14
10009310:	8b 1d 20 e0 00 10    	mov    ebx,DWORD PTR ds:0x1000e020
10009316:	53                   	push   ebx
10009317:	e8 74 00 00 00       	call   10009390 <_getpid_r>
1000931c:	83 c4 0c             	add    esp,0xc
1000931f:	ff 74 24 14          	push   DWORD PTR [esp+0x14]
10009323:	50                   	push   eax
10009324:	53                   	push   ebx
10009325:	e8 2a 00 00 00       	call   10009354 <_kill_r>
1000932a:	83 c4 18             	add    esp,0x18
1000932d:	5b                   	pop    ebx
1000932e:	c3                   	ret    
1000932f:	90                   	nop

10009330 <_raise_r>:
10009330:	53                   	push   ebx
10009331:	83 ec 14             	sub    esp,0x14
10009334:	8b 5c 24 1c          	mov    ebx,DWORD PTR [esp+0x1c]
10009338:	53                   	push   ebx
10009339:	e8 52 00 00 00       	call   10009390 <_getpid_r>
1000933e:	83 c4 0c             	add    esp,0xc
10009341:	ff 74 24 18          	push   DWORD PTR [esp+0x18]
10009345:	50                   	push   eax
10009346:	53                   	push   ebx
10009347:	e8 08 00 00 00       	call   10009354 <_kill_r>
1000934c:	83 c4 18             	add    esp,0x18
1000934f:	5b                   	pop    ebx
10009350:	c3                   	ret    
10009351:	66 90                	xchg   ax,ax
10009353:	90                   	nop

10009354 <_kill_r>:
10009354:	83 ec 14             	sub    esp,0x14
10009357:	c7 05 10 f2 00 10 00 00 00 00 	mov    DWORD PTR ds:0x1000f210,0x0
10009361:	ff 74 24 20          	push   DWORD PTR [esp+0x20]
10009365:	ff 74 24 20          	push   DWORD PTR [esp+0x20]
10009369:	e8 d3 a3 ff ff       	call   10003741 <kill>
1000936e:	83 c4 10             	add    esp,0x10
10009371:	83 f8 ff             	cmp    eax,0xffffffff
10009374:	74 06                	je     1000937c <_kill_r+0x28>
10009376:	83 c4 0c             	add    esp,0xc
10009379:	c3                   	ret    
1000937a:	66 90                	xchg   ax,ax
1000937c:	8b 15 10 f2 00 10    	mov    edx,DWORD PTR ds:0x1000f210
10009382:	85 d2                	test   edx,edx
10009384:	74 f0                	je     10009376 <_kill_r+0x22>
10009386:	8b 4c 24 10          	mov    ecx,DWORD PTR [esp+0x10]
1000938a:	89 11                	mov    DWORD PTR [ecx],edx
1000938c:	83 c4 0c             	add    esp,0xc
1000938f:	c3                   	ret    

10009390 <_getpid_r>:
10009390:	e9 bb 9f ff ff       	jmp    10003350 <getpid>
10009395:	66 90                	xchg   ax,ax
10009397:	90                   	nop

10009398 <__do_global_ctors_aux>:
10009398:	a1 2c ea 00 10       	mov    eax,ds:0x1000ea2c
1000939d:	83 f8 ff             	cmp    eax,0xffffffff
100093a0:	74 1a                	je     100093bc <__do_global_ctors_aux+0x24>
100093a2:	55                   	push   ebp
100093a3:	89 e5                	mov    ebp,esp
100093a5:	53                   	push   ebx
100093a6:	52                   	push   edx
100093a7:	bb 2c ea 00 10       	mov    ebx,0x1000ea2c
100093ac:	ff d0                	call   eax
100093ae:	83 eb 04             	sub    ebx,0x4
100093b1:	8b 03                	mov    eax,DWORD PTR [ebx]
100093b3:	83 f8 ff             	cmp    eax,0xffffffff
100093b6:	75 f4                	jne    100093ac <__do_global_ctors_aux+0x14>
100093b8:	58                   	pop    eax
100093b9:	5b                   	pop    ebx
100093ba:	5d                   	pop    ebp
100093bb:	c3                   	ret    
100093bc:	c3                   	ret    
100093bd:	2f                   	das    
100093be:	25 73 0a 00 68       	and    eax,0x68000a73
100093c3:	65 6c                	gs ins BYTE PTR es:[edi],dx
100093c5:	70 00                	jo     100093c7 <__do_global_ctors_aux+0x2f>
100093c7:	43                   	inc    ebx
100093c8:	6f                   	outs   dx,DWORD PTR ds:[esi]
100093c9:	6d                   	ins    DWORD PTR es:[edi],dx
100093ca:	6d                   	ins    DWORD PTR es:[edi],dx
100093cb:	61                   	popa   
100093cc:	6e                   	outs   dx,BYTE PTR ds:[esi]
100093cd:	64 73 3a             	fs jae 1000940a <__do_global_ctors_aux+0x72>
100093d0:	20 74 72 65          	and    BYTE PTR [edx+esi*2+0x65],dh
100093d4:	65 2c 20             	gs sub al,0x20
100093d7:	68 65 6c 70 0a       	push   0xa706c65
100093dc:	45                   	inc    ebp
100093dd:	78 61                	js     10009440 <_bna_misc+0xc>
100093df:	6d                   	ins    DWORD PTR es:[edi],dx
100093e0:	70 6c                	jo     1000944e <_bna_misc+0x1a>
100093e2:	65 20 75 73          	and    BYTE PTR gs:[ebp+0x73],dh
100093e6:	61                   	popa   
100093e7:	67 65 3a 20          	cmp    ah,BYTE PTR gs:[bx+si]
100093eb:	72 65                	jb     10009452 <_bna_misc+0x1e>
100093ed:	67 65 64 69 74 20 74 72 65 65 	gs imul esi,DWORD PTR fs:[si+0x20],0x65657274
100093f7:	00 43 3a             	add    BYTE PTR [ebx+0x3a],al
100093fa:	2f                   	das    
100093fb:	42                   	inc    edx
100093fc:	61                   	popa   
100093fd:	6e                   	outs   dx,BYTE PTR ds:[esi]
100093fe:	61                   	popa   
100093ff:	6e                   	outs   dx,BYTE PTR ds:[esi]
10009400:	61                   	popa   
10009401:	2f                   	das    
10009402:	52                   	push   edx
10009403:	65 67 69 73 74 72 79 2f 53 	imul   esi,DWORD PTR gs:[bp+di+0x74],0x532f7972
1000940c:	79 73                	jns    10009481 <_bna_misc+0x4d>
1000940e:	74 65                	je     10009475 <_bna_misc+0x41>
10009410:	6d                   	ins    DWORD PTR es:[edi],dx
10009411:	2f                   	das    
10009412:	53                   	push   ebx
10009413:	59                   	pop    ecx
10009414:	53                   	push   ebx
10009415:	54                   	push   esp
10009416:	45                   	inc    ebp
10009417:	4d                   	dec    ebp
10009418:	2e 52                	cs push edx
1000941a:	45                   	inc    ebp
1000941b:	47                   	inc    edi
1000941c:	00 55 6e             	add    BYTE PTR [ebp+0x6e],dl
1000941f:	73 75                	jae    10009496 <_bna_misc+0x62>
10009421:	70 70                	jo     10009493 <_bna_misc+0x5f>
10009423:	6f                   	outs   dx,DWORD PTR ds:[esi]
10009424:	72 74                	jb     1000949a <_bna_misc+0x66>
10009426:	65 64 20 63 6f       	gs and BYTE PTR fs:[ebx+0x6f],ah
1000942b:	6d                   	ins    DWORD PTR es:[edi],dx
1000942c:	6d                   	ins    DWORD PTR es:[edi],dx
1000942d:	61                   	popa   
1000942e:	6e                   	outs   dx,BYTE PTR ds:[esi]
1000942f:	64 2e 00 66 90       	fs add BYTE PTR cs:[esi-0x70],ah

10009434 <_bna_misc>:
10009434:	4e 41 4d 45 0d 0a 52 65 67 65 64 69 74 2e 65 78     NAME..Regedit.ex
10009444:	65 0d 0a 0d 0a 44 45 53 43 52 49 50 54 49 4f 4e     e....DESCRIPTION
10009454:	0d 0a 49 6e 73 65 72 74 20 61 20 64 65 73 63 72     ..Insert a descr
10009464:	69 70 74 69 6f 6e 20 6f 66 20 74 68 65 20 61 70     iption of the ap
10009474:	70 6c 69 63 61 74 69 6f 6e 20 68 65 72 65 2e 2e     plication here..
10009484:	2e 0d 0a 0d 0a 56 45 52 53 49 4f 4e 0d 0a 31 2e     .....VERSION..1.
10009494:	30 2e 30 2e 30 0d 0a 0d 0a 43 4f 4e 53 4f 4c 45     0.0.0....CONSOLE
100094a4:	0d 0a 31 0d 0a 0d 0a 44 52 49 56 45 52 0d 0a 30     ..1....DRIVER..0
100094b4:	0d 0a 0d 0a 41 55 54 48 4f 52 0d 0a 0d 0a 0d 0a     ....AUTHOR......
100094c4:	43 4f 50 59 52 49 47 48 54 0d 0a 43 6f 70 79 72     COPYRIGHT..Copyr
100094d4:	69 67 68 74 20 32 30 32 31 20 2e 20 41 6c 6c 20     ight 2021 . All 
100094e4:	72 69 67 68 74 73 20 72 65 73 65 72 76 65 64 2e     rights reserved.
100094f4:	0d 0a 0d 0a 45 58 54 45 52 4e 41 4c 48 45 4c 50     ....EXTERNALHELP
10009504:	0d 0a 30 0d 0a 0d 0a 45 58 54 45 52 4e 41 4c 48     ..0....EXTERNALH
10009514:	45 4c 50 46 49 4c 45 0d 0a 6e 2f 61 0d 0a 0d 0a     ELPFILE..n/a....
10009524:	4b 45 59 57 4f 52 44 53 0d 0a 61 64 64 20 6b 65     KEYWORDS..add ke
10009534:	79 77 6f 72 64 73 20 68 65 72 65 0d 0a 0d 0a 42     ywords here....B
10009544:	55 47 43 52 41 53 48 45 4d 41 49 4c 4f 4e 0d 0a     UGCRASHEMAILON..
10009554:	30 0d 0a 0d 0a 42 55 47 43 52 41 53 48 45 4d 41     0....BUGCRASHEMA
10009564:	49 4c 0d 0a 6e 2f 61 0d 0a                          IL..n/a..

1000956d <_bna_misc_end>:
1000956d:	00 00                	add    BYTE PTR [eax],al
	...

10009570 <_bna_misc_size>:
10009570:	39 01 00 00                                         9...

10009574 <_bna_icon8x8>:
10009574:	42 4d f6 00 00 00 00 00 00 00 36 00 00 00 28 00     BM........6...(.
10009584:	00 00 08 00 00 00 08 00 00 00 01 00 18 00 00 00     ................
10009594:	00 00 c0 00 00 00 00 00 00 00 00 00 00 00 00 00     ................
100095a4:	00 00 00 00 00 00 ff ff ff ff ff ff ff ff ff ff     ................
100095b4:	ff ff ff ff ff ff ff ff ff ff ff ff ff ff ff ff     ................
100095c4:	ff ff ff ff ff ff ff 00 00 00 00 00 00 ff ff ff     ................
100095d4:	ff ff ff ff ff ff ff ff ff ff ff ff ff ff ff ff     ................
100095e4:	ff ff ff ff ff ff ff ff ff ff ff ff ff ff ff ff     ................
100095f4:	ff ff ff ff ff ff ff 00 00 00 00 00 00 ff ff ff     ................
10009604:	ff ff ff ff ff ff ff ff ff ff ff ff ff ff ff ff     ................
10009614:	ff ff 00 00 00 00 00 00 ff ff ff ff ff ff ff ff     ................
10009624:	ff 00 00 00 00 00 00 ff ff ff ff ff ff 00 00 00     ................
10009634:	00 00 00 ff ff ff ff ff ff ff ff ff 00 00 00 00     ................
	...
1000964c:	ff ff ff ff ff ff ff ff ff ff ff ff ff ff ff ff     ................
1000965c:	ff ff ff ff ff ff ff ff ff ff ff ff ff ff           ..............

1000966a <_bna_icon8x8_end>:
	...

1000966c <_bna_icon8x8_size>:
1000966c:	f6 00 00 00                                         ....

10009670 <_bna_icon16x16>:
10009670:	42 4d 36 03 00 00 00 00 00 00 36 00 00 00 28 00     BM6.......6...(.
10009680:	00 00 10 00 00 00 10 00 00 00 01 00 18 00 00 00     ................
10009690:	00 00 00 03 00 00 00 00 00 00 00 00 00 00 00 00     ................
100096a0:	00 00 00 00 00 00 ff ff ff ff ff ff ff ff ff ff     ................
100096b0:	ff ff ff ff ff ff ff ff ff ff ff ff ff ff ff ff     ................
100096c0:	ff ff ff ff ff ff ff ff ff ff ff ff ff ff ff ff     ................
100096d0:	ff ff ff ff ff ff ff ff ff ff ff ff ff ff ff ff     ................
100096e0:	ff ff ff ff ff ff ff ff ff ff ff ff ff ff ff ff     ................
100096f0:	ff ff ff ff ff ff ff ff ff ff ff ff ff ff ff ff     ................
10009700:	ff ff ff ff ff ff ff ff ff ff ff ff ff ff ff ff     ................
10009710:	ff ff ff ff ff ff ff ff 00 00 00 00 00 00 00 00     ................
10009720:	00 00 00 00 ff ff ff ff ff ff ff ff ff ff ff ff     ................
10009730:	ff ff ff ff ff ff ff ff ff ff ff ff ff ff ff ff     ................
10009740:	ff ff ff ff ff ff ff ff 00 00 00 00 00 00 00 00     ................
10009750:	00 00 00 00 ff ff ff ff ff ff ff ff ff ff ff ff     ................
10009760:	ff ff ff ff ff ff ff ff ff ff ff ff ff ff ff ff     ................
10009770:	ff ff ff ff ff ff ff ff ff ff ff ff ff ff ff ff     ................
10009780:	ff ff ff ff ff ff ff ff ff ff ff ff ff ff ff ff     ................
10009790:	ff ff ff ff ff ff ff ff ff ff ff ff ff ff ff ff     ................
100097a0:	ff ff ff ff ff ff ff ff ff ff ff ff ff ff ff ff     ................
100097b0:	ff ff ff ff ff ff ff ff ff ff ff ff ff ff ff ff     ................
100097c0:	ff ff ff ff ff ff ff ff ff ff ff ff ff ff ff ff     ................
100097d0:	ff ff ff ff ff ff ff ff 00 00 00 00 00 00 00 00     ................
100097e0:	00 00 00 00 ff ff ff ff ff ff ff ff ff ff ff ff     ................
100097f0:	ff ff ff ff ff ff ff ff ff ff ff ff ff ff ff ff     ................
10009800:	ff ff ff ff ff ff ff ff 00 00 00 00 00 00 00 00     ................
10009810:	00 00 00 00 00 00 00 ff ff ff ff ff ff ff ff ff     ................
10009820:	ff ff ff ff ff ff ff ff ff ff ff ff ff ff ff ff     ................
10009830:	ff ff ff ff ff ff ff ff ff ff ff 00 00 00 00 00     ................
	...
10009848:	00 00 ff ff ff ff ff ff ff ff ff ff ff ff ff ff     ................
10009858:	ff ff ff ff ff ff ff 00 00 00 00 00 00 ff ff ff     ................
10009868:	ff ff ff ff ff ff 00 00 00 00 00 00 00 00 00 00     ................
10009878:	00 00 00 00 00 ff ff ff ff ff ff ff ff ff ff ff     ................
10009888:	ff ff ff ff 00 00 00 00 00 00 00 00 00 00 00 00     ................
10009898:	ff ff ff ff ff ff ff ff ff 00 00 00 00 00 00 00     ................
	...
100098b0:	ff ff ff ff ff ff ff ff ff ff ff ff 00 00 00 00     ................
	...
100098c8:	ff ff ff ff ff ff ff ff ff ff ff ff 00 00 00 00     ................
	...
100098e0:	ff ff ff ff ff ff ff ff ff ff ff ff ff ff ff 00     ................
	...
1000990c:	00 ff ff ff ff ff ff ff ff ff ff ff ff ff ff ff     ................
1000991c:	ff ff ff ff ff ff 00 00 00 00 00 00 00 00 00 00     ................
	...
10009938:	00 00 ff ff ff ff ff ff ff ff ff ff ff ff ff ff     ................
10009948:	ff ff ff ff ff ff ff ff ff ff ff ff ff ff ff ff     ................
10009958:	ff ff ff ff ff ff ff ff ff ff ff ff ff ff ff ff     ................
10009968:	ff ff ff ff ff ff ff ff ff ff ff ff ff ff ff ff     ................
10009978:	ff ff ff ff ff ff ff ff ff ff ff ff ff ff ff ff     ................
10009988:	ff ff ff ff ff ff ff ff ff ff ff ff ff ff ff ff     ................
10009998:	ff ff ff ff ff ff ff ff ff ff ff ff ff ff           ..............

100099a6 <_bna_icon16x16_end>:
	...

100099a8 <_bna_icon16x16_size>:
100099a8:	36 03 00 00                                         6...

100099ac <_bna_icon64x64>:
100099ac:	42 4d 36 30 00 00 00 00 00 00 36 00 00 00 28 00     BM60......6...(.
100099bc:	00 00 40 00 00 00 40 00 00 00 01 00 18 00 00 00     ..@...@.........
100099cc:	00 00 00 30 00 00 00 00 00 00 00 00 00 00 00 00     ...0............
100099dc:	00 00 00 00 00 00 ff ff ff ff ff ff ff ff ff ff     ................
100099ec:	ff ff ff ff ff ff ff ff ff ff ff ff ff ff ff ff     ................
100099fc:	ff ff ff ff ff ff ff ff ff ff ff ff ff ff ff ff     ................
10009a0c:	ff ff ff ff ff ff ff ff ff ff ff ff ff ff ff ff     ................
10009a1c:	ff ff ff ff ff ff ff ff ff ff ff ff ff ff ff ff     ................
10009a2c:	ff ff ff ff ff ff ff ff ff ff ff ff ff ff ff ff     ................
10009a3c:	ff ff ff ff ff ff ff ff ff ff ff ff ff ff ff ff     ................
10009a4c:	ff ff ff ff ff ff ff ff ff ff ff ff ff ff ff ff     ................
10009a5c:	ff ff ff ff ff ff ff ff ff ff ff ff ff ff ff ff     ................
10009a6c:	ff ff ff ff ff ff ff ff ff ff ff ff ff ff ff ff     ................
10009a7c:	ff ff ff ff ff ff ff ff ff ff ff ff ff ff ff ff     ................
10009a8c:	ff ff ff ff ff ff ff ff ff ff ff ff ff ff ff ff     ................
10009a9c:	ff ff ff ff ff ff ff ff ff ff ff ff ff ff ff ff     ................
10009aac:	ff ff ff ff ff ff ff ff ff ff ff ff ff ff ff ff     ................
10009abc:	ff ff ff ff ff ff ff ff ff ff ff ff ff ff ff ff     ................
10009acc:	ff ff ff ff ff ff ff ff ff ff ff ff ff ff ff ff     ................
10009adc:	ff ff ff ff ff ff ff ff ff ff ff ff ff ff ff ff     ................
10009aec:	ff ff ff ff ff ff ff ff ff ff ff ff ff ff ff ff     ................
10009afc:	ff ff ff ff ff ff ff ff ff ff ff ff ff ff ff ff     ................
10009b0c:	ff ff ff ff ff ff ff ff ff ff ff ff ff ff ff ff     ................
10009b1c:	ff ff ff ff ff ff ff ff ff ff ff ff ff ff ff ff     ................
10009b2c:	ff ff ff ff ff ff ff ff ff ff ff ff ff ff ff ff     ................
10009b3c:	ff ff ff ff ff ff ff ff ff ff ff ff ff ff ff ff     ................
10009b4c:	ff ff ff ff ff ff ff ff ff ff ff ff ff ff ff ff     ................
10009b5c:	ff ff ff ff ff ff ff ff ff ff ff ff ff ff ff ff     ................
10009b6c:	ff ff ff ff ff ff ff ff ff ff ff ff ff ff ff ff     ................
10009b7c:	ff ff ff ff ff ff ff ff ff ff ff ff ff ff ff ff     ................
10009b8c:	ff ff ff ff ff ff ff ff ff ff ff ff ff ff ff ff     ................
10009b9c:	ff ff ff ff ff ff ff ff ff ff ff ff ff ff ff ff     ................
10009bac:	ff ff ff ff ff ff ff ff ff ff ff ff ff ff ff ff     ................
10009bbc:	ff ff ff ff ff ff ff ff ff ff ff ff ff ff ff ff     ................
10009bcc:	ff ff ff ff ff ff ff ff ff ff ff ff ff ff ff ff     ................
10009bdc:	ff ff ff ff ff ff ff ff ff ff ff ff ff ff ff ff     ................
10009bec:	ff ff ff ff ff ff ff ff ff ff ff ff ff ff ff ff     ................
10009bfc:	ff ff ff ff ff ff ff ff ff ff ff ff ff ff ff ff     ................
10009c0c:	ff ff ff ff ff ff ff ff ff ff ff ff ff ff ff ff     ................
10009c1c:	ff ff ff ff ff ff ff ff ff ff ff ff ff ff ff ff     ................
10009c2c:	ff ff ff ff ff ff ff ff ff ff ff ff ff ff ff ff     ................
10009c3c:	ff ff ff ff ff ff ff ff ff ff ff ff ff ff ff ff     ................
10009c4c:	ff ff ff ff ff ff ff ff ff ff ff ff ff ff ff ff     ................
10009c5c:	ff ff ff ff ff ff ff ff ff ff ff ff ff ff ff ff     ................
10009c6c:	ff ff ff ff ff ff ff ff ff ff ff ff ff ff ff ff     ................
10009c7c:	ff ff ff ff ff ff ff ff ff ff ff ff ff ff ff ff     ................
10009c8c:	ff ff ff ff ff ff ff ff ff ff ff ff ff ff ff ff     ................
10009c9c:	ff ff ff ff ff ff ff ff ff ff ff ff ff ff ff ff     ................
10009cac:	ff ff ff ff ff ff ff ff ff ff ff ff ff ff ff ff     ................
10009cbc:	ff ff ff ff ff ff ff ff ff ff ff ff ff ff ff ff     ................
10009ccc:	ff ff ff ff ff ff ff ff ff ff ff ff ff ff ff ff     ................
10009cdc:	ff ff ff ff ff ff ff ff ff ff ff ff ff ff ff ff     ................
10009cec:	ff ff ff ff ff ff ff ff ff ff ff ff ff ff ff ff     ................
10009cfc:	ff ff ff ff ff ff ff ff ff ff ff ff ff ff ff ff     ................
10009d0c:	ff ff ff ff ff ff ff ff ff ff ff ff ff ff ff ff     ................
10009d1c:	ff ff ff ff ff ff ff ff ff ff ff ff ff ff ff ff     ................
10009d2c:	ff ff ff ff ff ff ff ff ff ff ff ff ff ff ff ff     ................
10009d3c:	ff ff ff ff ff ff ff ff ff ff ff ff ff ff ff ff     ................
10009d4c:	ff ff ff ff ff ff ff ff ff ff ff ff ff ff ff ff     ................
10009d5c:	ff ff ff ff ff ff ff ff ff ff ff ff ff ff ff ff     ................
10009d6c:	ff ff ff ff ff ff ff ff ff ff ff ff ff ff ff ff     ................
10009d7c:	ff ff ff ff ff ff ff ff ff ff ff ff ff ff ff ff     ................
10009d8c:	ff ff ff ff ff ff ff ff ff ff ff ff ff ff ff ff     ................
10009d9c:	ff ff ff ff ff ff ff ff ff ff ff ff ff ff ff ff     ................
10009dac:	ff ff ff ff ff ff ff ff ff ff ff ff ff ff ff ff     ................
10009dbc:	ff ff ff ff ff ff ff ff ff ff ff ff ff ff ff ff     ................
10009dcc:	ff ff ff ff ff ff ff ff ff ff ff ff ff ff ff ff     ................
10009ddc:	ff ff ff ff ff ff ff ff ff ff ff ff ff ff ff ff     ................
10009dec:	ff ff ff ff ff ff ff ff ff ff ff ff ff ff ff ff     ................
10009dfc:	ff ff ff ff ff ff ff ff ff ff ff ff ff ff ff ff     ................
10009e0c:	ff ff ff ff ff ff ff ff ff ff ff ff ff ff ff ff     ................
10009e1c:	ff ff ff ff ff ff ff ff ff ff ff ff ff ff ff ff     ................
10009e2c:	ff ff ff ff ff ff ff ff ff ff ff ff ff ff ff ff     ................
10009e3c:	ff ff ff ff ff ff ff ff ff ff ff ff ff ff ff ff     ................
10009e4c:	ff ff ff ff ff ff ff ff ff ff ff ff ff ff ff ff     ................
10009e5c:	ff ff ff ff ff ff ff ff ff ff ff ff ff ff ff ff     ................
10009e6c:	ff ff ff ff ff ff ff ff ff ff ff ff ff ff ff ff     ................
10009e7c:	ff ff ff ff ff ff ff ff ff ff ff ff ff ff ff ff     ................
10009e8c:	ff ff ff ff ff ff ff ff ff ff ff ff ff ff ff ff     ................
10009e9c:	ff ff ff ff ff ff ff ff ff ff ff ff ff ff ff ff     ................
10009eac:	ff ff ff ff ff ff ff ff ff ff ff ff ff ff ff ff     ................
10009ebc:	ff ff ff ff ff ff ff ff ff ff ff ff ff ff ff ff     ................
10009ecc:	ff ff ff ff ff ff ff ff ff ff ff ff ff ff ff ff     ................
10009edc:	ff ff ff ff ff ff ff ff ff ff ff ff ff ff ff ff     ................
10009eec:	ff ff ff ff ff ff ff ff ff ff ff ff ff ff ff ff     ................
10009efc:	ff ff ff ff ff ff ff ff ff ff ff ff ff ff ff ff     ................
10009f0c:	ff ff ff ff ff ff ff ff ff ff ff ff ff ff ff ff     ................
10009f1c:	ff ff ff ff ff ff ff ff ff ff ff ff ff ff ff ff     ................
10009f2c:	ff ff ff ff ff ff ff ff ff ff ff ff ff ff ff ff     ................
10009f3c:	ff ff ff ff ff ff ff ff ff ff ff ff ff ff ff ff     ................
10009f4c:	ff ff ff ff ff ff ff ff ff ff ff ff ff ff ff ff     ................
10009f5c:	ff ff ff ff ff ff ff ff ff ff ff ff ff ff 00 00     ................
	...
10009f98:	00 00 ff ff ff ff ff ff ff ff ff ff ff ff ff ff     ................
10009fa8:	ff ff ff ff ff ff ff ff ff ff ff ff ff ff ff ff     ................
10009fb8:	ff ff ff ff ff ff ff ff ff ff ff ff ff ff ff ff     ................
10009fc8:	ff ff ff ff ff ff ff ff ff ff ff ff ff ff ff ff     ................
10009fd8:	ff ff ff ff ff ff ff ff ff ff ff ff ff ff ff ff     ................
10009fe8:	ff ff ff ff ff ff ff ff ff ff ff ff ff ff ff ff     ................
10009ff8:	ff ff ff ff ff ff ff ff ff ff ff ff ff ff ff ff     ................
1000a008:	ff ff ff ff ff ff ff ff ff ff ff ff ff ff ff ff     ................
1000a018:	ff ff ff ff ff ff ff ff ff ff ff ff ff ff ff ff     ................
1000a028:	ff ff 00 00 00 00 00 00 00 00 00 00 00 00 00 00     ................
	...
1000a058:	00 00 ff ff ff ff ff ff ff ff ff ff ff ff ff ff     ................
1000a068:	ff ff ff ff ff ff ff ff ff ff ff ff ff ff ff ff     ................
1000a078:	ff ff ff ff ff ff ff ff ff ff ff ff ff ff ff ff     ................
1000a088:	ff ff ff ff ff ff ff ff ff ff ff ff ff ff ff ff     ................
1000a098:	ff ff ff ff ff ff ff ff ff ff ff ff ff ff ff ff     ................
1000a0a8:	ff ff ff ff ff ff ff ff ff ff ff ff ff ff ff ff     ................
1000a0b8:	ff ff ff ff ff ff ff ff ff ff ff ff ff ff ff ff     ................
1000a0c8:	ff ff ff ff ff ff ff ff ff ff ff ff ff ff ff ff     ................
1000a0d8:	ff ff ff ff ff ff ff ff ff ff ff ff ff ff ff ff     ................
1000a0e8:	ff ff 00 00 00 00 00 00 00 00 00 00 00 00 00 00     ................
	...
1000a118:	00 00 ff ff ff ff ff ff ff ff ff ff ff ff ff ff     ................
1000a128:	ff ff ff ff ff ff ff ff ff ff ff ff ff ff ff ff     ................
1000a138:	ff ff ff ff ff ff ff ff ff ff ff ff ff ff ff ff     ................
1000a148:	ff ff ff ff ff ff ff ff ff ff ff ff ff ff ff ff     ................
1000a158:	ff ff ff ff ff ff ff ff ff ff ff ff ff ff ff ff     ................
1000a168:	ff ff ff ff ff ff ff ff ff ff ff ff ff ff ff ff     ................
1000a178:	ff ff ff ff ff ff ff ff ff ff ff ff ff ff ff ff     ................
1000a188:	ff ff ff ff ff ff ff ff ff ff ff ff ff ff ff ff     ................
1000a198:	ff ff ff ff ff ff ff ff ff ff ff ff ff ff ff ff     ................
1000a1a8:	ff ff 00 00 00 00 00 00 00 00 00 00 00 00 00 00     ................
	...
1000a1d8:	00 00 ff ff ff ff ff ff ff ff ff ff ff ff ff ff     ................
1000a1e8:	ff ff ff ff ff ff ff ff ff ff ff ff ff ff ff ff     ................
1000a1f8:	ff ff ff ff ff ff ff ff ff ff ff ff ff ff ff ff     ................
1000a208:	ff ff ff ff ff ff ff ff ff ff ff ff ff ff ff ff     ................
1000a218:	ff ff ff ff ff ff ff ff ff ff ff ff ff ff ff ff     ................
1000a228:	ff ff ff ff ff ff ff ff ff ff ff ff ff ff ff ff     ................
1000a238:	ff ff ff ff ff ff ff ff ff ff ff ff ff ff ff ff     ................
1000a248:	ff ff ff ff ff ff ff ff ff ff ff ff ff ff ff ff     ................
1000a258:	ff ff ff ff ff ff ff ff ff ff ff ff ff ff ff ff     ................
1000a268:	ff ff 00 00 00 00 00 00 00 00 00 00 00 00 00 00     ................
	...
1000a298:	00 00 ff ff ff ff ff ff ff ff ff ff ff ff ff ff     ................
1000a2a8:	ff ff ff ff ff ff ff ff ff ff ff ff ff ff ff ff     ................
1000a2b8:	ff ff ff ff ff ff ff ff ff ff ff ff ff ff ff ff     ................
1000a2c8:	ff ff ff ff ff ff ff ff ff ff ff ff ff ff ff ff     ................
1000a2d8:	ff ff ff ff ff ff ff ff ff ff ff ff ff ff ff ff     ................
1000a2e8:	ff ff ff ff ff ff ff ff ff ff ff ff ff ff ff ff     ................
1000a2f8:	ff ff ff ff ff ff ff ff ff ff ff ff ff ff ff ff     ................
1000a308:	ff ff ff ff ff ff ff ff ff ff ff ff ff ff ff ff     ................
1000a318:	ff ff ff ff ff ff ff ff ff ff ff ff ff ff ff ff     ................
1000a328:	ff ff 00 00 00 00 00 00 00 00 00 00 00 00 00 00     ................
	...
1000a358:	00 00 ff ff ff ff ff ff ff ff ff ff ff ff ff ff     ................
1000a368:	ff ff ff ff ff ff ff ff ff ff ff ff ff ff ff ff     ................
1000a378:	ff ff ff ff ff ff ff ff ff ff ff ff ff ff ff ff     ................
1000a388:	ff ff ff ff ff ff ff ff ff ff ff ff ff ff ff ff     ................
1000a398:	ff ff ff ff ff ff ff ff ff ff ff ff ff ff ff ff     ................
1000a3a8:	ff ff ff ff ff ff ff ff ff ff ff ff ff ff ff ff     ................
1000a3b8:	ff ff ff ff ff ff ff ff ff ff ff ff ff ff ff ff     ................
1000a3c8:	ff ff ff ff ff ff ff ff ff ff ff ff ff ff ff ff     ................
1000a3d8:	ff ff ff ff ff ff ff ff ff ff ff ff ff ff ff ff     ................
1000a3e8:	ff ff 00 00 00 00 00 00 00 00 00 00 00 00 00 00     ................
	...
1000a418:	00 00 ff ff ff ff ff ff ff ff ff ff ff ff ff ff     ................
1000a428:	ff ff ff ff ff ff ff ff ff ff ff ff ff ff ff ff     ................
1000a438:	ff ff ff ff ff ff ff ff ff ff ff ff ff ff ff ff     ................
1000a448:	ff ff ff ff ff ff ff ff ff ff ff ff ff ff ff ff     ................
1000a458:	ff ff ff ff ff ff ff ff ff ff ff ff ff ff ff ff     ................
1000a468:	ff ff ff ff ff ff ff ff ff ff ff ff ff ff ff ff     ................
1000a478:	ff ff ff ff ff ff ff ff ff ff ff ff ff ff ff ff     ................
1000a488:	ff ff ff ff ff ff ff ff ff ff ff ff ff ff ff ff     ................
1000a498:	ff ff ff ff ff ff ff ff ff ff ff ff ff ff ff ff     ................
1000a4a8:	ff ff 00 00 00 00 00 00 00 00 00 00 00 00 00 00     ................
	...
1000a4d8:	00 00 ff ff ff ff ff ff ff ff ff ff ff ff ff ff     ................
1000a4e8:	ff ff ff ff ff ff ff ff ff ff ff ff ff ff ff ff     ................
1000a4f8:	ff ff ff ff ff ff ff ff ff ff ff ff ff ff ff ff     ................
1000a508:	ff ff ff ff ff ff ff ff ff ff ff ff ff ff ff ff     ................
1000a518:	ff ff ff ff ff ff ff ff ff ff ff ff ff ff ff ff     ................
1000a528:	ff ff ff ff ff ff ff ff ff ff ff ff ff ff ff ff     ................
1000a538:	ff ff ff ff ff ff ff ff ff ff ff ff ff ff ff ff     ................
1000a548:	ff ff ff ff ff ff ff ff ff ff ff ff ff ff ff ff     ................
1000a558:	ff ff ff ff ff ff ff ff ff ff ff ff ff ff ff ff     ................
1000a568:	ff ff ff ff ff ff ff ff ff ff ff ff ff ff ff ff     ................
1000a578:	ff ff ff ff ff ff ff ff ff ff ff ff ff ff ff ff     ................
1000a588:	ff ff ff ff ff ff ff ff ff ff ff ff ff ff ff ff     ................
1000a598:	ff ff ff ff ff ff ff ff ff ff ff ff ff ff ff ff     ................
1000a5a8:	ff ff ff ff ff ff ff ff ff ff ff ff ff ff ff ff     ................
1000a5b8:	ff ff ff ff ff ff ff ff ff ff ff ff ff ff ff ff     ................
1000a5c8:	ff ff ff ff ff ff ff ff ff ff ff ff ff ff ff ff     ................
1000a5d8:	ff ff ff ff ff ff ff ff ff ff ff ff ff ff ff ff     ................
1000a5e8:	ff ff ff ff ff ff ff ff ff ff ff ff ff ff ff ff     ................
1000a5f8:	ff ff ff ff ff ff ff ff ff ff ff ff ff ff ff ff     ................
1000a608:	ff ff ff ff ff ff ff ff ff ff ff ff ff ff ff ff     ................
1000a618:	ff ff ff ff ff ff ff ff ff ff ff ff ff ff ff ff     ................
1000a628:	ff ff ff ff ff ff ff ff ff ff ff ff ff ff ff ff     ................
1000a638:	ff ff ff ff ff ff ff ff ff ff ff ff ff ff ff ff     ................
1000a648:	ff ff ff ff ff ff ff ff ff ff ff ff ff ff ff ff     ................
1000a658:	ff ff ff ff ff ff ff ff ff ff ff ff ff ff ff ff     ................
1000a668:	ff ff ff ff ff ff ff ff ff ff ff ff ff ff ff ff     ................
1000a678:	ff ff ff ff ff ff ff ff ff ff ff ff ff ff ff ff     ................
1000a688:	ff ff ff ff ff ff ff ff ff ff ff ff ff ff ff ff     ................
1000a698:	ff ff ff ff ff ff ff ff ff ff ff ff ff ff ff ff     ................
1000a6a8:	ff ff ff ff ff ff ff ff ff ff ff ff ff ff ff ff     ................
1000a6b8:	ff ff ff ff ff ff ff ff ff ff ff ff ff ff ff ff     ................
1000a6c8:	ff ff ff ff ff ff ff ff ff ff ff ff ff ff ff ff     ................
1000a6d8:	ff ff ff ff ff ff ff ff ff ff ff ff ff ff ff ff     ................
1000a6e8:	ff ff ff ff ff ff ff ff ff ff ff ff ff ff ff ff     ................
1000a6f8:	ff ff ff ff ff ff ff ff ff ff ff ff ff ff ff ff     ................
1000a708:	ff ff ff ff ff ff ff ff ff ff ff ff ff ff ff ff     ................
1000a718:	ff ff ff ff ff ff ff ff ff ff ff ff ff ff ff ff     ................
1000a728:	ff ff ff ff ff ff ff ff ff ff ff ff ff ff ff ff     ................
1000a738:	ff ff ff ff ff ff ff ff ff ff ff ff ff ff ff ff     ................
1000a748:	ff ff ff ff ff ff ff ff ff ff ff ff ff ff ff ff     ................
1000a758:	ff ff ff ff ff ff ff ff ff ff ff ff ff ff ff ff     ................
1000a768:	ff ff ff ff ff ff ff ff ff ff ff ff ff ff ff ff     ................
1000a778:	ff ff ff ff ff ff ff ff ff ff ff ff ff ff ff ff     ................
1000a788:	ff ff ff ff ff ff ff ff ff ff ff ff ff ff ff ff     ................
1000a798:	ff ff ff ff ff ff ff ff ff ff ff ff ff ff ff ff     ................
1000a7a8:	ff ff ff ff ff ff ff ff ff ff ff ff ff ff ff ff     ................
1000a7b8:	ff ff ff ff ff ff ff ff ff ff ff ff ff ff ff ff     ................
1000a7c8:	ff ff ff ff ff ff ff ff ff ff ff ff ff ff ff ff     ................
1000a7d8:	ff ff ff ff ff ff ff ff ff ff ff ff ff ff ff ff     ................
1000a7e8:	ff ff ff ff ff ff ff ff ff ff ff ff ff ff ff ff     ................
1000a7f8:	ff ff ff ff ff ff ff ff ff ff ff ff ff ff ff ff     ................
1000a808:	ff ff ff ff ff ff ff ff ff ff ff ff ff ff ff ff     ................
1000a818:	ff ff ff ff ff ff ff ff ff ff ff ff ff ff ff ff     ................
1000a828:	ff ff ff ff ff ff ff ff ff ff ff ff ff ff ff ff     ................
1000a838:	ff ff ff ff ff ff ff ff ff ff ff ff ff ff ff ff     ................
1000a848:	ff ff ff ff ff ff ff ff ff ff ff ff ff ff ff ff     ................
1000a858:	ff ff ff ff ff ff ff ff ff ff ff ff ff ff ff ff     ................
1000a868:	ff ff ff ff ff ff ff ff ff ff ff ff ff ff ff ff     ................
1000a878:	ff ff ff ff ff ff ff ff ff ff ff ff ff ff ff ff     ................
1000a888:	ff ff ff ff ff ff ff ff ff ff ff ff ff ff ff ff     ................
1000a898:	ff ff ff ff ff ff ff ff ff ff ff ff ff ff ff ff     ................
1000a8a8:	ff ff ff ff ff ff ff ff ff ff ff ff ff ff ff ff     ................
1000a8b8:	ff ff ff ff ff ff ff ff ff ff ff ff ff ff ff ff     ................
1000a8c8:	ff ff ff ff ff ff ff ff ff ff ff ff ff ff ff ff     ................
1000a8d8:	ff ff ff ff ff ff ff ff ff ff ff ff ff ff ff ff     ................
1000a8e8:	ff ff ff ff ff ff ff ff ff ff ff ff ff ff ff ff     ................
1000a8f8:	ff ff ff ff ff ff ff ff ff ff ff ff ff ff ff ff     ................
1000a908:	ff ff ff ff ff ff ff ff ff ff ff ff ff ff ff ff     ................
1000a918:	ff ff ff ff ff ff ff ff ff ff ff ff ff ff ff ff     ................
1000a928:	ff ff ff ff ff ff ff ff ff ff ff ff ff ff ff ff     ................
1000a938:	ff ff ff ff ff ff ff ff ff ff ff ff ff ff ff ff     ................
1000a948:	ff ff ff ff ff ff ff ff ff ff ff ff ff ff ff ff     ................
1000a958:	ff ff ff ff ff ff ff ff ff ff ff ff ff ff ff ff     ................
1000a968:	ff ff ff ff ff ff ff ff ff ff ff ff ff ff ff ff     ................
1000a978:	ff ff ff ff ff ff ff ff ff ff ff ff ff ff ff ff     ................
1000a988:	ff ff ff ff ff ff ff ff ff ff ff ff ff ff ff ff     ................
1000a998:	ff ff ff ff ff ff ff ff ff ff ff ff ff ff ff ff     ................
1000a9a8:	ff ff ff ff ff ff ff ff ff ff ff ff ff ff ff ff     ................
1000a9b8:	ff ff ff ff ff ff ff ff ff ff ff ff ff ff ff ff     ................
1000a9c8:	ff ff ff ff ff ff ff ff ff ff ff ff ff ff ff ff     ................
1000a9d8:	ff ff ff ff ff ff ff ff ff ff ff ff ff ff ff ff     ................
1000a9e8:	ff ff ff ff ff ff ff ff ff ff ff ff ff ff ff ff     ................
1000a9f8:	ff ff ff ff ff ff ff ff ff ff ff ff ff ff ff ff     ................
1000aa08:	ff ff ff ff ff ff ff ff ff ff ff ff ff ff ff ff     ................
1000aa18:	ff ff ff ff ff ff ff ff ff ff ff ff ff ff ff ff     ................
1000aa28:	ff ff ff ff ff ff ff ff ff ff ff ff ff ff ff ff     ................
1000aa38:	ff ff ff ff ff ff ff ff ff ff ff ff ff ff ff ff     ................
1000aa48:	ff ff ff ff ff ff ff ff ff ff ff ff ff ff ff ff     ................
1000aa58:	ff ff ff ff ff ff ff ff ff ff ff ff ff ff ff ff     ................
1000aa68:	ff ff ff ff ff ff ff ff ff ff ff ff ff ff ff ff     ................
1000aa78:	ff ff ff ff ff ff ff ff ff ff ff ff ff ff ff ff     ................
1000aa88:	ff ff ff ff ff ff ff ff ff ff ff ff ff ff ff ff     ................
1000aa98:	ff ff ff ff ff ff ff ff ff ff ff ff ff ff ff ff     ................
1000aaa8:	ff ff ff ff ff ff ff ff ff ff ff ff ff ff ff ff     ................
1000aab8:	ff ff ff ff ff ff ff ff ff ff ff ff ff ff ff ff     ................
1000aac8:	ff ff ff ff ff ff ff ff ff ff ff ff ff ff ff ff     ................
1000aad8:	ff ff ff ff ff ff ff ff ff ff ff ff ff ff ff ff     ................
1000aae8:	ff ff ff ff ff ff ff ff ff ff ff ff ff ff ff ff     ................
1000aaf8:	ff ff ff ff ff ff ff ff ff ff ff ff ff ff ff ff     ................
1000ab08:	ff ff ff ff ff ff ff ff ff ff ff ff ff ff ff ff     ................
1000ab18:	ff ff ff ff ff ff ff ff ff ff ff ff ff ff ff ff     ................
1000ab28:	ff ff ff ff ff ff ff ff ff ff ff ff ff ff ff ff     ................
1000ab38:	ff ff ff ff ff ff ff ff ff ff ff ff ff ff ff ff     ................
1000ab48:	ff ff ff ff ff ff ff ff ff ff ff ff ff ff ff ff     ................
1000ab58:	ff ff ff ff ff ff ff ff ff ff ff ff ff ff ff ff     ................
1000ab68:	ff ff 00 00 00 00 00 00 00 00 00 00 00 00 00 00     ................
	...
1000ab98:	00 00 ff ff ff ff ff ff ff ff ff ff ff ff ff ff     ................
1000aba8:	ff ff ff ff ff ff ff ff ff ff ff ff ff ff ff ff     ................
1000abb8:	ff ff ff ff ff ff ff ff ff ff ff ff ff ff ff ff     ................
1000abc8:	ff ff ff ff ff ff ff ff ff ff ff ff ff ff ff ff     ................
1000abd8:	ff ff ff ff ff ff ff ff ff ff ff ff ff ff ff ff     ................
1000abe8:	ff ff ff ff ff ff ff ff ff ff ff ff ff ff ff ff     ................
1000abf8:	ff ff ff ff ff ff ff ff ff ff ff ff ff ff ff ff     ................
1000ac08:	ff ff ff ff ff ff ff ff ff ff ff ff ff ff ff ff     ................
1000ac18:	ff ff ff ff ff ff ff ff ff ff ff ff ff ff ff ff     ................
1000ac28:	ff ff 00 00 00 00 00 00 00 00 00 00 00 00 00 00     ................
	...
1000ac58:	00 00 ff ff ff ff ff ff ff ff ff ff ff ff ff ff     ................
1000ac68:	ff ff ff ff ff ff ff ff ff ff ff ff ff ff ff ff     ................
1000ac78:	ff ff ff ff ff ff ff ff ff ff ff ff ff ff ff ff     ................
1000ac88:	ff ff ff ff ff ff ff ff ff ff ff ff ff ff ff ff     ................
1000ac98:	ff ff ff ff ff ff ff ff ff ff ff ff ff ff ff ff     ................
1000aca8:	ff ff ff ff ff ff ff ff ff ff ff ff ff ff ff ff     ................
1000acb8:	ff ff ff ff ff ff ff ff ff ff ff ff ff ff ff ff     ................
1000acc8:	ff ff ff ff ff ff ff ff ff ff ff ff ff ff ff ff     ................
1000acd8:	ff ff ff ff ff ff ff ff ff ff ff ff ff ff ff ff     ................
1000ace8:	ff ff 00 00 00 00 00 00 00 00 00 00 00 00 00 00     ................
	...
1000ad18:	00 00 ff ff ff ff ff ff ff ff ff ff ff ff ff ff     ................
1000ad28:	ff ff ff ff ff ff ff ff ff ff ff ff ff ff ff ff     ................
1000ad38:	ff ff ff ff ff ff ff ff ff ff ff ff ff ff ff ff     ................
1000ad48:	ff ff ff ff ff ff ff ff ff ff ff ff ff ff ff ff     ................
1000ad58:	ff ff ff ff ff ff ff ff ff ff ff ff ff ff ff ff     ................
1000ad68:	ff ff ff ff ff ff ff ff ff ff ff ff ff ff ff ff     ................
1000ad78:	ff ff ff ff ff ff ff ff ff ff ff ff ff ff ff ff     ................
1000ad88:	ff ff ff ff ff ff ff ff ff ff ff ff ff ff ff ff     ................
1000ad98:	ff ff ff ff ff ff ff ff ff ff ff ff ff ff ff ff     ................
1000ada8:	ff ff 00 00 00 00 00 00 00 00 00 00 00 00 00 00     ................
	...
1000add8:	00 00 ff ff ff ff ff ff ff ff ff ff ff ff ff ff     ................
1000ade8:	ff ff ff ff ff ff ff ff ff ff ff ff ff ff ff ff     ................
1000adf8:	ff ff ff ff ff ff ff ff ff ff ff ff ff ff ff ff     ................
1000ae08:	ff ff ff ff ff ff ff ff ff ff ff ff ff ff ff ff     ................
1000ae18:	ff ff ff ff ff ff ff ff ff ff ff ff ff ff ff ff     ................
1000ae28:	ff ff ff ff ff ff ff ff ff ff ff ff ff ff ff ff     ................
1000ae38:	ff ff ff ff ff ff ff ff ff ff ff ff ff ff ff ff     ................
1000ae48:	ff ff ff ff ff ff ff ff ff ff ff ff ff ff ff ff     ................
1000ae58:	ff ff ff ff ff ff ff ff ff ff ff ff ff ff ff ff     ................
1000ae68:	ff ff 00 00 00 00 00 00 00 00 00 00 00 00 00 00     ................
	...
1000aea4:	00 00 ff ff ff ff ff ff ff ff ff ff ff ff ff ff     ................
1000aeb4:	ff ff ff ff ff ff ff ff ff ff ff ff ff ff ff ff     ................
1000aec4:	ff ff ff ff ff ff ff ff ff ff ff ff ff ff ff ff     ................
1000aed4:	ff ff ff ff ff ff ff ff ff ff ff ff ff ff ff ff     ................
1000aee4:	ff ff ff ff ff ff ff ff ff ff ff ff ff ff ff ff     ................
1000aef4:	ff ff ff ff ff ff ff ff ff ff ff ff ff ff ff ff     ................
1000af04:	ff ff ff ff ff ff ff ff ff ff ff ff ff ff ff ff     ................
1000af14:	ff ff ff ff ff ff ff ff ff ff ff ff ff ff ff ff     ................
1000af24:	ff ff ff ff ff ff 00 00 00 00 00 00 00 00 00 00     ................
	...
1000af64:	00 00 ff ff ff ff ff ff ff ff ff ff ff ff ff ff     ................
1000af74:	ff ff ff ff ff ff ff ff ff ff ff ff ff ff ff ff     ................
1000af84:	ff ff ff ff ff ff ff ff ff ff ff ff ff ff ff ff     ................
1000af94:	ff ff ff ff ff ff ff ff ff ff ff ff ff ff ff ff     ................
1000afa4:	ff ff ff ff ff ff ff ff ff ff ff ff ff ff ff ff     ................
1000afb4:	ff ff ff ff ff ff ff ff ff ff ff ff ff ff ff ff     ................
1000afc4:	ff ff ff ff ff ff ff ff ff ff ff ff ff ff ff ff     ................
1000afd4:	ff ff ff ff ff ff ff ff ff ff ff ff ff ff ff ff     ................
1000afe4:	ff ff ff ff ff ff 00 00 00 00 00 00 00 00 00 00     ................
	...
1000b024:	00 00 ff ff ff ff ff ff ff ff ff ff ff ff ff ff     ................
1000b034:	ff ff ff ff ff ff ff ff ff ff ff ff ff ff ff ff     ................
1000b044:	ff ff ff ff ff ff ff ff ff ff ff ff ff ff ff ff     ................
1000b054:	ff ff ff ff ff ff ff ff ff ff ff ff ff ff ff ff     ................
1000b064:	ff ff ff ff ff ff ff ff ff ff ff ff ff ff ff ff     ................
1000b074:	ff ff ff ff ff ff ff ff ff ff ff ff ff ff ff ff     ................
1000b084:	ff ff ff ff ff ff ff ff ff ff ff ff ff ff ff ff     ................
1000b094:	ff ff ff ff ff ff ff ff ff ff ff ff ff ff ff ff     ................
1000b0a4:	ff ff ff ff ff ff 00 00 00 00 00 00 00 00 00 00     ................
	...
1000b0e4:	00 00 ff ff ff ff ff ff ff ff ff ff ff ff ff ff     ................
1000b0f4:	ff ff ff ff ff ff ff ff ff ff ff ff ff ff ff ff     ................
1000b104:	ff ff ff ff ff ff ff ff ff ff ff ff ff ff ff ff     ................
1000b114:	ff ff ff ff ff ff ff ff ff ff ff ff ff ff ff ff     ................
1000b124:	ff ff ff ff ff ff ff ff ff ff ff ff ff ff ff ff     ................
1000b134:	ff ff ff ff ff ff ff ff ff ff ff ff ff ff ff ff     ................
1000b144:	ff ff ff ff ff ff ff ff ff ff ff ff ff ff ff ff     ................
1000b154:	ff ff ff ff ff ff ff ff ff ff ff ff ff ff ff ff     ................
1000b164:	ff ff ff ff ff ff 00 00 00 00 00 00 00 00 00 00     ................
	...
1000b1a4:	00 00 ff ff ff ff ff ff ff ff ff ff ff ff ff ff     ................
1000b1b4:	ff ff ff ff ff ff ff ff ff ff ff ff ff ff ff ff     ................
1000b1c4:	ff ff ff ff ff ff ff ff ff ff ff ff ff ff ff ff     ................
1000b1d4:	ff ff ff ff ff ff ff ff ff ff ff ff ff ff ff ff     ................
1000b1e4:	ff ff ff ff ff ff ff ff ff ff ff ff ff ff ff ff     ................
1000b1f4:	ff ff ff ff ff ff ff ff ff ff ff ff ff ff ff ff     ................
1000b204:	ff ff ff ff ff ff ff ff ff ff ff ff ff ff ff ff     ................
1000b214:	ff ff ff ff ff ff ff ff ff ff ff ff ff ff ff ff     ................
1000b224:	ff ff ff ff ff ff ff ff ff ff ff ff ff ff ff ff     ................
1000b234:	ff ff 00 00 00 00 00 00 00 00 00 00 00 00 00 00     ................
	...
1000b270:	00 00 ff ff ff ff ff ff ff ff ff ff ff ff ff ff     ................
1000b280:	ff ff ff ff ff ff ff ff ff ff ff ff ff ff ff ff     ................
1000b290:	ff ff ff ff ff ff ff ff ff ff ff ff ff ff ff ff     ................
1000b2a0:	ff ff ff ff ff ff ff ff ff ff ff ff ff ff ff ff     ................
1000b2b0:	ff ff ff ff ff ff ff ff ff ff ff ff ff ff ff ff     ................
1000b2c0:	ff ff ff ff ff ff ff ff ff ff ff ff ff ff ff ff     ................
1000b2d0:	ff ff ff ff ff ff ff ff ff ff ff ff ff ff ff ff     ................
1000b2e0:	ff ff ff ff ff ff ff ff ff ff ff ff ff ff ff ff     ................
1000b2f0:	ff ff ff ff ff ff 00 00 00 00 00 00 00 00 00 00     ................
	...
1000b330:	00 00 ff ff ff ff ff ff ff ff ff ff ff ff ff ff     ................
1000b340:	ff ff ff ff ff ff ff ff ff ff ff ff ff ff ff ff     ................
1000b350:	ff ff ff ff ff ff ff ff ff ff ff ff ff ff ff ff     ................
1000b360:	ff ff ff ff ff ff ff ff ff ff ff ff ff ff ff ff     ................
1000b370:	ff ff ff ff ff ff ff ff ff ff ff ff ff ff ff ff     ................
1000b380:	ff ff ff ff ff ff ff ff ff ff ff ff ff ff ff ff     ................
1000b390:	ff ff ff ff ff ff ff ff ff ff ff ff ff ff ff ff     ................
1000b3a0:	ff ff ff ff ff ff ff ff ff ff ff ff ff ff ff ff     ................
1000b3b0:	ff ff ff ff ff ff 00 00 00 00 00 00 00 00 00 00     ................
	...
1000b3f0:	00 00 ff ff ff ff ff ff ff ff ff ff ff ff ff ff     ................
1000b400:	ff ff ff ff ff ff ff ff ff ff ff ff ff ff ff ff     ................
1000b410:	ff ff ff ff ff ff ff ff ff ff ff ff ff ff ff ff     ................
1000b420:	ff ff ff ff ff ff ff ff ff ff ff ff ff ff ff ff     ................
1000b430:	ff ff ff ff ff ff ff ff ff ff ff ff ff ff ff ff     ................
1000b440:	ff ff ff ff ff ff ff ff ff ff ff ff ff ff ff ff     ................
1000b450:	ff ff ff ff ff ff ff ff ff ff ff ff ff ff ff ff     ................
1000b460:	ff ff ff ff ff ff ff ff ff ff ff ff ff ff ff ff     ................
1000b470:	ff ff ff ff ff ff 00 00 00 00 00 00 00 00 00 00     ................
	...
1000b4b0:	00 00 ff ff ff ff ff ff ff ff ff ff ff ff ff ff     ................
1000b4c0:	ff ff ff ff ff ff ff ff ff ff ff ff ff ff ff ff     ................
1000b4d0:	ff ff ff ff ff ff ff ff ff ff ff ff ff ff ff ff     ................
1000b4e0:	ff ff ff ff ff ff ff ff ff ff ff ff ff ff ff ff     ................
1000b4f0:	ff ff ff ff ff ff ff ff ff ff ff ff ff ff ff ff     ................
1000b500:	ff ff ff ff ff ff 00 00 00 00 00 00 00 00 00 00     ................
	...
1000b51c:	00 00 ff ff ff ff ff ff ff ff ff ff ff ff ff ff     ................
1000b52c:	ff ff ff ff ff ff ff ff ff ff ff ff ff ff ff ff     ................
1000b53c:	ff ff ff ff ff ff 00 00 00 00 00 00 00 00 00 00     ................
	...
1000b57c:	00 00 ff ff ff ff ff ff ff ff ff ff ff ff ff ff     ................
1000b58c:	ff ff ff ff ff ff ff ff ff ff ff ff ff ff ff ff     ................
1000b59c:	ff ff ff ff ff ff ff ff ff ff ff ff ff ff ff ff     ................
1000b5ac:	ff ff ff ff ff ff ff ff ff ff ff ff ff ff ff ff     ................
1000b5bc:	ff ff ff ff ff ff ff ff ff ff 00 00 00 00 00 00     ................
	...
1000b5dc:	00 00 ff ff ff ff ff ff ff ff ff ff ff ff ff ff     ................
1000b5ec:	ff ff ff ff ff ff ff ff ff ff ff ff ff ff ff ff     ................
1000b5fc:	ff ff ff ff ff ff 00 00 00 00 00 00 00 00 00 00     ................
	...
1000b63c:	00 00 ff ff ff ff ff ff ff ff ff ff ff ff ff ff     ................
1000b64c:	ff ff ff ff ff ff ff ff ff ff ff ff ff ff ff ff     ................
1000b65c:	ff ff ff ff ff ff ff ff ff ff ff ff ff ff ff ff     ................
1000b66c:	ff ff ff ff ff ff ff ff ff ff ff ff ff ff ff ff     ................
1000b67c:	ff ff ff ff ff ff ff ff ff ff 00 00 00 00 00 00     ................
	...
1000b69c:	00 00 ff ff ff ff ff ff ff ff ff ff ff ff ff ff     ................
1000b6ac:	ff ff ff ff ff ff ff ff ff ff ff ff ff ff ff ff     ................
1000b6bc:	ff ff ff ff ff ff 00 00 00 00 00 00 00 00 00 00     ................
	...
1000b6fc:	00 00 ff ff ff ff ff ff ff ff ff ff ff ff ff ff     ................
1000b70c:	ff ff ff ff ff ff ff ff ff ff ff ff ff ff ff ff     ................
1000b71c:	ff ff ff ff ff ff ff ff ff ff ff ff ff ff ff ff     ................
1000b72c:	ff ff ff ff ff ff ff ff ff ff ff ff ff ff ff ff     ................
1000b73c:	ff ff ff ff ff ff ff ff ff ff 00 00 00 00 00 00     ................
	...
1000b75c:	00 00 ff ff ff ff ff ff ff ff ff ff ff ff ff ff     ................
1000b76c:	ff ff ff ff ff ff ff ff ff ff ff ff ff ff ff ff     ................
1000b77c:	ff ff ff ff ff ff 00 00 00 00 00 00 00 00 00 00     ................
	...
1000b7bc:	00 00 ff ff ff ff ff ff ff ff ff ff ff ff ff ff     ................
1000b7cc:	ff ff ff ff ff ff ff ff ff ff ff ff ff ff ff ff     ................
1000b7dc:	ff ff ff ff ff ff ff ff ff ff ff ff ff ff ff ff     ................
1000b7ec:	ff ff ff ff ff ff ff ff ff ff ff ff ff ff 00 00     ................
	...
1000b828:	00 00 ff ff ff ff ff ff ff ff ff ff ff ff ff ff     ................
1000b838:	ff ff ff ff ff ff ff ff ff ff ff ff ff ff ff ff     ................
1000b848:	ff ff ff ff ff ff 00 00 00 00 00 00 00 00 00 00     ................
	...
1000b888:	00 00 ff ff ff ff ff ff ff ff ff ff ff ff ff ff     ................
1000b898:	ff ff ff ff ff ff ff ff ff ff ff ff ff ff ff ff     ................
1000b8a8:	ff ff ff ff ff ff ff ff ff ff ff ff ff ff ff ff     ................
1000b8b8:	ff ff 00 00 00 00 00 00 00 00 00 00 00 00 00 00     ................
	...
1000b8e8:	00 00 ff ff ff ff ff ff ff ff ff ff ff ff ff ff     ................
1000b8f8:	ff ff ff ff ff ff ff ff ff ff ff ff ff ff ff ff     ................
1000b908:	ff ff ff ff ff ff 00 00 00 00 00 00 00 00 00 00     ................
	...
1000b948:	00 00 ff ff ff ff ff ff ff ff ff ff ff ff ff ff     ................
1000b958:	ff ff ff ff ff ff ff ff ff ff ff ff ff ff ff ff     ................
1000b968:	ff ff ff ff ff ff ff ff ff ff ff ff ff ff ff ff     ................
1000b978:	ff ff 00 00 00 00 00 00 00 00 00 00 00 00 00 00     ................
	...
1000b9a8:	00 00 ff ff ff ff ff ff ff ff ff ff ff ff ff ff     ................
1000b9b8:	ff ff ff ff ff ff ff ff ff ff ff ff ff ff ff ff     ................
1000b9c8:	ff ff ff ff ff ff 00 00 00 00 00 00 00 00 00 00     ................
	...
1000ba08:	00 00 ff ff ff ff ff ff ff ff ff ff ff ff ff ff     ................
1000ba18:	ff ff ff ff ff ff ff ff ff ff ff ff ff ff ff ff     ................
1000ba28:	ff ff ff ff ff ff ff ff ff ff ff ff ff ff ff ff     ................
1000ba38:	ff ff 00 00 00 00 00 00 00 00 00 00 00 00 00 00     ................
	...
1000ba68:	00 00 ff ff ff ff ff ff ff ff ff ff ff ff ff ff     ................
1000ba78:	ff ff ff ff ff ff ff ff ff ff ff ff ff ff ff ff     ................
1000ba88:	ff ff ff ff ff ff 00 00 00 00 00 00 00 00 00 00     ................
	...
1000bac8:	00 00 ff ff ff ff ff ff ff ff ff ff ff ff ff ff     ................
1000bad8:	ff ff ff ff ff ff ff ff ff ff ff ff ff ff ff ff     ................
1000bae8:	ff ff ff ff ff ff ff ff ff ff ff ff ff ff ff ff     ................
1000baf8:	ff ff 00 00 00 00 00 00 00 00 00 00 00 00 00 00     ................
	...
1000bb28:	00 00 ff ff ff ff ff ff ff ff ff ff ff ff ff ff     ................
1000bb38:	ff ff ff ff ff ff ff ff ff ff ff ff ff ff ff ff     ................
1000bb48:	ff ff ff ff ff ff ff ff ff ff ff ff ff ff ff ff     ................
1000bb58:	ff ff 00 00 00 00 00 00 00 00 00 00 00 00 00 00     ................
	...
1000bb88:	00 00 ff ff ff ff ff ff ff ff ff ff ff ff ff ff     ................
1000bb98:	ff ff ff ff ff ff ff ff ff ff ff ff ff ff ff ff     ................
1000bba8:	ff ff ff ff ff ff ff ff ff ff ff ff ff ff ff ff     ................
1000bbb8:	ff ff 00 00 00 00 00 00 00 00 00 00 00 00 00 00     ................
	...
1000bbe8:	00 00 ff ff ff ff ff ff ff ff ff ff ff ff ff ff     ................
1000bbf8:	ff ff ff ff ff ff ff ff ff ff ff ff ff ff ff ff     ................
1000bc08:	ff ff ff ff ff ff ff ff ff ff ff ff ff ff ff ff     ................
1000bc18:	ff ff 00 00 00 00 00 00 00 00 00 00 00 00 00 00     ................
	...
1000bc48:	00 00 ff ff ff ff ff ff ff ff ff ff ff ff ff ff     ................
1000bc58:	ff ff ff ff ff ff ff ff ff ff ff ff ff ff ff ff     ................
1000bc68:	ff ff ff ff ff ff ff ff ff ff ff ff ff ff ff ff     ................
1000bc78:	ff ff 00 00 00 00 00 00 00 00 00 00 00 00 00 00     ................
	...
1000bca8:	00 00 ff ff ff ff ff ff ff ff ff ff ff ff ff ff     ................
1000bcb8:	ff ff ff ff ff ff ff ff ff ff ff ff ff ff ff ff     ................
1000bcc8:	ff ff ff ff ff ff ff ff ff ff ff ff ff ff ff ff     ................
1000bcd8:	ff ff 00 00 00 00 00 00 00 00 00 00 00 00 00 00     ................
	...
1000bd08:	00 00 ff ff ff ff ff ff ff ff ff ff ff ff ff ff     ................
1000bd18:	ff ff ff ff ff ff ff ff ff ff ff ff ff ff ff ff     ................
1000bd28:	ff ff ff ff ff ff ff ff ff ff ff ff ff ff ff ff     ................
1000bd38:	ff ff 00 00 00 00 00 00 00 00 00 00 00 00 00 00     ................
	...
1000bd68:	00 00 ff ff ff ff ff ff ff ff ff ff ff ff ff ff     ................
1000bd78:	ff ff ff ff ff ff ff ff ff ff ff ff ff ff ff ff     ................
1000bd88:	ff ff ff ff ff ff ff ff ff ff ff ff ff ff ff ff     ................
1000bd98:	ff ff 00 00 00 00 00 00 00 00 00 00 00 00 00 00     ................
	...
1000bdc8:	00 00 ff ff ff ff ff ff ff ff ff ff ff ff ff ff     ................
1000bdd8:	ff ff ff ff ff ff ff ff ff ff ff ff ff ff ff ff     ................
1000bde8:	ff ff ff ff ff ff ff ff ff ff ff ff ff ff ff ff     ................
1000bdf8:	ff ff ff ff ff ff ff ff ff ff ff ff ff ff 00 00     ................
	...
1000be7c:	00 00 ff ff ff ff ff ff ff ff ff ff ff ff ff ff     ................
1000be8c:	ff ff ff ff ff ff ff ff ff ff ff ff ff ff ff ff     ................
1000be9c:	ff ff ff ff ff ff ff ff ff ff ff ff ff ff ff ff     ................
1000beac:	ff ff ff ff ff ff ff ff ff ff ff ff ff ff ff ff     ................
1000bebc:	ff ff ff ff ff ff ff ff ff ff 00 00 00 00 00 00     ................
	...
1000bf3c:	00 00 ff ff ff ff ff ff ff ff ff ff ff ff ff ff     ................
1000bf4c:	ff ff ff ff ff ff ff ff ff ff ff ff ff ff ff ff     ................
1000bf5c:	ff ff ff ff ff ff ff ff ff ff ff ff ff ff ff ff     ................
1000bf6c:	ff ff ff ff ff ff ff ff ff ff ff ff ff ff ff ff     ................
1000bf7c:	ff ff ff ff ff ff ff ff ff ff 00 00 00 00 00 00     ................
	...
1000bffc:	00 00 ff ff ff ff ff ff ff ff ff ff ff ff ff ff     ................
1000c00c:	ff ff ff ff ff ff ff ff ff ff ff ff ff ff ff ff     ................
1000c01c:	ff ff ff ff ff ff ff ff ff ff ff ff ff ff ff ff     ................
1000c02c:	ff ff ff ff ff ff ff ff ff ff ff ff ff ff ff ff     ................
1000c03c:	ff ff ff ff ff ff ff ff ff ff 00 00 00 00 00 00     ................
	...
1000c0bc:	00 00 ff ff ff ff ff ff ff ff ff ff ff ff ff ff     ................
1000c0cc:	ff ff ff ff ff ff ff ff ff ff ff ff ff ff ff ff     ................
1000c0dc:	ff ff ff ff ff ff ff ff ff ff ff ff ff ff ff ff     ................
1000c0ec:	ff ff ff ff ff ff ff ff ff ff ff ff ff ff ff ff     ................
1000c0fc:	ff ff ff ff ff ff ff ff ff ff ff ff ff ff ff ff     ................
1000c10c:	ff ff ff ff ff ff 00 00 00 00 00 00 00 00 00 00     ................
	...
1000c170:	00 00 ff ff ff ff ff ff ff ff ff ff ff ff ff ff     ................
1000c180:	ff ff ff ff ff ff ff ff ff ff ff ff ff ff ff ff     ................
1000c190:	ff ff ff ff ff ff ff ff ff ff ff ff ff ff ff ff     ................
1000c1a0:	ff ff ff ff ff ff ff ff ff ff ff ff ff ff ff ff     ................
1000c1b0:	ff ff ff ff ff ff ff ff ff ff ff ff ff ff ff ff     ................
1000c1c0:	ff ff ff ff ff ff ff ff ff ff ff ff ff ff ff ff     ................
1000c1d0:	ff ff 00 00 00 00 00 00 00 00 00 00 00 00 00 00     ................
	...
1000c230:	00 00 ff ff ff ff ff ff ff ff ff ff ff ff ff ff     ................
1000c240:	ff ff ff ff ff ff ff ff ff ff ff ff ff ff ff ff     ................
1000c250:	ff ff ff ff ff ff ff ff ff ff ff ff ff ff ff ff     ................
1000c260:	ff ff ff ff ff ff ff ff ff ff ff ff ff ff ff ff     ................
1000c270:	ff ff ff ff ff ff ff ff ff ff ff ff ff ff ff ff     ................
1000c280:	ff ff ff ff ff ff ff ff ff ff ff ff ff ff ff ff     ................
1000c290:	ff ff 00 00 00 00 00 00 00 00 00 00 00 00 00 00     ................
	...
1000c2f0:	00 00 ff ff ff ff ff ff ff ff ff ff ff ff ff ff     ................
1000c300:	ff ff ff ff ff ff ff ff ff ff ff ff ff ff ff ff     ................
1000c310:	ff ff ff ff ff ff ff ff ff ff ff ff ff ff ff ff     ................
1000c320:	ff ff ff ff ff ff ff ff ff ff ff ff ff ff ff ff     ................
1000c330:	ff ff ff ff ff ff ff ff ff ff ff ff ff ff ff ff     ................
1000c340:	ff ff ff ff ff ff ff ff ff ff ff ff ff ff ff ff     ................
1000c350:	ff ff 00 00 00 00 00 00 00 00 00 00 00 00 00 00     ................
	...
1000c3b0:	00 00 ff ff ff ff ff ff ff ff ff ff ff ff ff ff     ................
1000c3c0:	ff ff ff ff ff ff ff ff ff ff ff ff ff ff ff ff     ................
1000c3d0:	ff ff ff ff ff ff ff ff ff ff ff ff ff ff ff ff     ................
1000c3e0:	ff ff ff ff ff ff ff ff ff ff ff ff ff ff ff ff     ................
1000c3f0:	ff ff ff ff ff ff ff ff ff ff ff ff ff ff ff ff     ................
1000c400:	ff ff ff ff ff ff ff ff ff ff ff ff ff ff ff ff     ................
1000c410:	ff ff ff ff ff ff ff ff ff ff ff ff ff ff ff ff     ................
1000c420:	ff ff ff ff ff ff ff ff ff ff ff ff ff ff ff ff     ................
1000c430:	ff ff ff ff ff ff ff ff ff ff ff ff ff ff ff ff     ................
1000c440:	ff ff ff ff ff ff ff ff ff ff ff ff ff ff ff ff     ................
1000c450:	ff ff ff ff ff ff ff ff ff ff ff ff ff ff ff ff     ................
1000c460:	ff ff ff ff ff ff ff ff ff ff ff ff ff ff ff ff     ................
1000c470:	ff ff ff ff ff ff ff ff ff ff ff ff ff ff ff ff     ................
1000c480:	ff ff ff ff ff ff ff ff ff ff ff ff ff ff ff ff     ................
1000c490:	ff ff ff ff ff ff ff ff ff ff ff ff ff ff ff ff     ................
1000c4a0:	ff ff ff ff ff ff ff ff ff ff ff ff ff ff ff ff     ................
1000c4b0:	ff ff ff ff ff ff ff ff ff ff ff ff ff ff ff ff     ................
1000c4c0:	ff ff ff ff ff ff ff ff ff ff ff ff ff ff ff ff     ................
1000c4d0:	ff ff ff ff ff ff ff ff ff ff ff ff ff ff ff ff     ................
1000c4e0:	ff ff ff ff ff ff ff ff ff ff ff ff ff ff ff ff     ................
1000c4f0:	ff ff ff ff ff ff ff ff ff ff ff ff ff ff ff ff     ................
1000c500:	ff ff ff ff ff ff ff ff ff ff ff ff ff ff ff ff     ................
1000c510:	ff ff ff ff ff ff ff ff ff ff ff ff ff ff ff ff     ................
1000c520:	ff ff ff ff ff ff ff ff ff ff ff ff ff ff ff ff     ................
1000c530:	ff ff ff ff ff ff ff ff ff ff ff ff ff ff ff ff     ................
1000c540:	ff ff ff ff ff ff ff ff ff ff ff ff ff ff ff ff     ................
1000c550:	ff ff ff ff ff ff ff ff ff ff ff ff ff ff ff ff     ................
1000c560:	ff ff ff ff ff ff ff ff ff ff ff ff ff ff ff ff     ................
1000c570:	ff ff ff ff ff ff ff ff ff ff ff ff ff ff ff ff     ................
1000c580:	ff ff ff ff ff ff ff ff ff ff ff ff ff ff ff ff     ................
1000c590:	ff ff ff ff ff ff ff ff ff ff ff ff ff ff ff ff     ................
1000c5a0:	ff ff ff ff ff ff ff ff ff ff ff ff ff ff ff ff     ................
1000c5b0:	ff ff ff ff ff ff ff ff ff ff ff ff ff ff ff ff     ................
1000c5c0:	ff ff ff ff ff ff ff ff ff ff ff ff ff ff ff ff     ................
1000c5d0:	ff ff ff ff ff ff ff ff ff ff ff ff ff ff ff ff     ................
1000c5e0:	ff ff ff ff ff ff ff ff ff ff ff ff ff ff ff ff     ................
1000c5f0:	ff ff ff ff ff ff ff ff ff ff ff ff ff ff ff ff     ................
1000c600:	ff ff ff ff ff ff ff ff ff ff ff ff ff ff ff ff     ................
1000c610:	ff ff ff ff ff ff ff ff ff ff ff ff ff ff ff ff     ................
1000c620:	ff ff ff ff ff ff ff ff ff ff ff ff ff ff ff ff     ................
1000c630:	ff ff ff ff ff ff ff ff ff ff ff ff ff ff ff ff     ................
1000c640:	ff ff ff ff ff ff ff ff ff ff ff ff ff ff ff ff     ................
1000c650:	ff ff ff ff ff ff ff ff ff ff ff ff ff ff ff ff     ................
1000c660:	ff ff ff ff ff ff ff ff ff ff ff ff ff ff ff ff     ................
1000c670:	ff ff ff ff ff ff ff ff ff ff ff ff ff ff ff ff     ................
1000c680:	ff ff ff ff ff ff ff ff ff ff ff ff ff ff ff ff     ................
1000c690:	ff ff ff ff ff ff ff ff ff ff ff ff ff ff ff ff     ................
1000c6a0:	ff ff ff ff ff ff ff ff ff ff ff ff ff ff ff ff     ................
1000c6b0:	ff ff ff ff ff ff ff ff ff ff ff ff ff ff ff ff     ................
1000c6c0:	ff ff ff ff ff ff ff ff ff ff ff ff ff ff ff ff     ................
1000c6d0:	ff ff ff ff ff ff ff ff ff ff ff ff ff ff ff ff     ................
1000c6e0:	ff ff ff ff ff ff ff ff ff ff ff ff ff ff ff ff     ................
1000c6f0:	ff ff ff ff ff ff ff ff ff ff ff ff ff ff ff ff     ................
1000c700:	ff ff ff ff ff ff ff ff ff ff ff ff ff ff ff ff     ................
1000c710:	ff ff ff ff ff ff ff ff ff ff ff ff ff ff ff ff     ................
1000c720:	ff ff ff ff ff ff ff ff ff ff ff ff ff ff ff ff     ................
1000c730:	ff ff ff ff ff ff ff ff ff ff ff ff ff ff ff ff     ................
1000c740:	ff ff ff ff ff ff ff ff ff ff ff ff ff ff ff ff     ................
1000c750:	ff ff ff ff ff ff ff ff ff ff ff ff ff ff ff ff     ................
1000c760:	ff ff ff ff ff ff ff ff ff ff ff ff ff ff ff ff     ................
1000c770:	ff ff ff ff ff ff ff ff ff ff ff ff ff ff ff ff     ................
1000c780:	ff ff ff ff ff ff ff ff ff ff ff ff ff ff ff ff     ................
1000c790:	ff ff ff ff ff ff ff ff ff ff ff ff ff ff ff ff     ................
1000c7a0:	ff ff ff ff ff ff ff ff ff ff ff ff ff ff ff ff     ................
1000c7b0:	ff ff ff ff ff ff ff ff ff ff ff ff ff ff ff ff     ................
1000c7c0:	ff ff ff ff ff ff ff ff ff ff ff ff ff ff ff ff     ................
1000c7d0:	ff ff ff ff ff ff ff ff ff ff ff ff ff ff ff ff     ................
1000c7e0:	ff ff ff ff ff ff ff ff ff ff ff ff ff ff ff ff     ................
1000c7f0:	ff ff ff ff ff ff ff ff ff ff ff ff ff ff ff ff     ................
1000c800:	ff ff ff ff ff ff ff ff ff ff ff ff ff ff ff ff     ................
1000c810:	ff ff ff ff ff ff ff ff ff ff ff ff ff ff ff ff     ................
1000c820:	ff ff ff ff ff ff ff ff ff ff ff ff ff ff ff ff     ................
1000c830:	ff ff ff ff ff ff ff ff ff ff ff ff ff ff ff ff     ................
1000c840:	ff ff ff ff ff ff ff ff ff ff ff ff ff ff ff ff     ................
1000c850:	ff ff ff ff ff ff ff ff ff ff ff ff ff ff ff ff     ................
1000c860:	ff ff ff ff ff ff ff ff ff ff ff ff ff ff ff ff     ................
1000c870:	ff ff ff ff ff ff ff ff ff ff ff ff ff ff ff ff     ................
1000c880:	ff ff ff ff ff ff ff ff ff ff ff ff ff ff ff ff     ................
1000c890:	ff ff ff ff ff ff ff ff ff ff ff ff ff ff ff ff     ................
1000c8a0:	ff ff ff ff ff ff ff ff ff ff ff ff ff ff ff ff     ................
1000c8b0:	ff ff ff ff ff ff ff ff ff ff ff ff ff ff ff ff     ................
1000c8c0:	ff ff ff ff ff ff ff ff ff ff ff ff ff ff ff ff     ................
1000c8d0:	ff ff ff ff ff ff ff ff ff ff ff ff ff ff ff ff     ................
1000c8e0:	ff ff ff ff ff ff ff ff ff ff ff ff ff ff ff ff     ................
1000c8f0:	ff ff ff ff ff ff ff ff ff ff ff ff ff ff ff ff     ................
1000c900:	ff ff ff ff ff ff ff ff ff ff ff ff ff ff ff ff     ................
1000c910:	ff ff ff ff ff ff ff ff ff ff ff ff ff ff ff ff     ................
1000c920:	ff ff ff ff ff ff ff ff ff ff ff ff ff ff ff ff     ................
1000c930:	ff ff ff ff ff ff ff ff ff ff ff ff ff ff ff ff     ................
1000c940:	ff ff ff ff ff ff ff ff ff ff ff ff ff ff ff ff     ................
1000c950:	ff ff ff ff ff ff ff ff ff ff ff ff ff ff ff ff     ................
1000c960:	ff ff ff ff ff ff ff ff ff ff ff ff ff ff ff ff     ................
1000c970:	ff ff ff ff ff ff ff ff ff ff ff ff ff ff ff ff     ................
1000c980:	ff ff ff ff ff ff ff ff ff ff ff ff ff ff ff ff     ................
1000c990:	ff ff ff ff ff ff ff ff ff ff ff ff ff ff ff ff     ................
1000c9a0:	ff ff ff ff ff ff ff ff ff ff ff ff ff ff ff ff     ................
1000c9b0:	ff ff ff ff ff ff ff ff ff ff ff ff ff ff ff ff     ................
1000c9c0:	ff ff ff ff ff ff ff ff ff ff ff ff ff ff ff ff     ................
1000c9d0:	ff ff ff ff ff ff ff ff ff ff ff ff ff ff ff ff     ................
1000c9e0:	ff ff                                               ..

1000c9e2 <_bna_icon64x64_end>:
	...

1000c9e4 <_bna_icon64x64_size>:
1000c9e4:	36 30 00 00                                         60..

1000c9e8 <_global_impure_ptr>:
1000c9e8:	40 e0 00 10 49 4e 46 00 69 6e 66 00 4e 41 4e 00     @...INF.inf.NAN.
1000c9f8:	6e 61 6e 00 30 31 32 33 34 35 36 37 38 39 41 42     nan.0123456789AB
1000ca08:	43 44 45 46 00 30 31 32 33 34 35 36 37 38 39 61     CDEF.0123456789a
1000ca18:	62 63 64 65 66 00 28 6e 75 6c 6c 29 00 30 00 90     bcdef.(null).0..
1000ca28:	a5 11 00 10 54 11 00 10 54 11 00 10 99 11 00 10     ....T...T.......
1000ca38:	54 11 00 10 54 11 00 10 54 11 00 10 54 11 00 10     T...T...T...T...
1000ca48:	54 11 00 10 54 11 00 10 e0 10 00 10 18 11 00 10     T...T...........
1000ca58:	54 11 00 10 0c 11 00 10 44 13 00 10 54 11 00 10     T.......D...T...
1000ca68:	35 13 00 10 23 11 00 10 23 11 00 10 23 11 00 10     5...#...#...#...
1000ca78:	23 11 00 10 23 11 00 10 23 11 00 10 23 11 00 10     #...#...#...#...
1000ca88:	23 11 00 10 23 11 00 10 54 11 00 10 54 11 00 10     #...#...T...T...
1000ca98:	54 11 00 10 54 11 00 10 54 11 00 10 54 11 00 10     T...T...T...T...
1000caa8:	54 11 00 10 54 11 00 10 54 11 00 10 54 11 00 10     T...T...T...T...
1000cab8:	7e 12 00 10 dd 17 00 10 54 11 00 10 dd 17 00 10     ~.......T.......
1000cac8:	54 11 00 10 54 11 00 10 54 11 00 10 54 11 00 10     T...T...T...T...
1000cad8:	d1 17 00 10 54 11 00 10 54 11 00 10 76 18 00 10     ....T...T...v...
1000cae8:	54 11 00 10 54 11 00 10 54 11 00 10 54 11 00 10     T...T...T...T...
1000caf8:	54 11 00 10 0a 15 00 10 54 11 00 10 54 11 00 10     T.......T...T...
1000cb08:	b5 17 00 10 54 11 00 10 54 11 00 10 54 11 00 10     ....T...T...T...
1000cb18:	54 11 00 10 54 11 00 10 54 11 00 10 54 11 00 10     T...T...T...T...
1000cb28:	54 11 00 10 54 11 00 10 54 11 00 10 0e 16 00 10     T...T...T.......
1000cb38:	46 15 00 10 dd 17 00 10 dd 17 00 10 dd 17 00 10     F...............
1000cb48:	3a 15 00 10 46 15 00 10 54 11 00 10 54 11 00 10     :...F...T...T...
1000cb58:	c8 0f 00 10 54 11 00 10 56 14 00 10 14 14 00 10     ....T...V.......
1000cb68:	7d 13 00 10 c8 0f 00 10 54 11 00 10 fd 11 00 10     }.......T.......
1000cb78:	54 11 00 10 b8 11 00 10 54 11 00 10 54 11 00 10     T.......T...T...
1000cb88:	a1 14 00 10                                         ....

1000cb8c <zeroes.4529>:
1000cb8c:	30 30 30 30 30 30 30 30 30 30 30 30 30 30 30 30     0000000000000000

1000cb9c <blanks.4528>:
1000cb9c:	20 20 20 20 20 20 20 20 20 20 20 20 20 20 20 20                     
1000cbac:	66 90 66 90 ff ff ff ff ff ff ef 7f 4e 61 4e 00     f.f.........NaN.
1000cbbc:	49 6e 66 69 6e 69 74 79 00 42 61 6c 6c 6f 63 20     Infinity.Balloc 
1000cbcc:	73 75 63 63 65 65 64 65 64 00 66 90 2e 2e 2f 2e     succeeded.f.../.
1000cbdc:	2e 2f 2e 2e 2f 2e 2e 2f 2e 2e 2f 6e 65 77 6c 69     ./../../../newli
1000cbec:	62 2d 33 2e 33 2e 30 2f 6e 65 77 6c 69 62 2f 6c     b-3.3.0/newlib/l
1000cbfc:	69 62 63 2f 73 74 64 6c 69 62 2f 64 74 6f 61 2e     ibc/stdlib/dtoa.
1000cc0c:	63 00 66 90 00 00 c0 3f 00 00 80 3f 00 00 20 41     c.f....?...?.. A
1000cc1c:	00 00 e0 40 00 00 a0 40 00 00 00 3f 61 43 6f 63     ...@...@...?aCoc
1000cc2c:	a7 87 d2 3f b3 c8 60 8b 28 8a c6 3f fb 79 9f 50     ...?..`.(..?.y.P
1000cc3c:	13 44 d3 3f 2e 2e 2f 2e 2e 2f 2e 2e 2f 2e 2e 2f     .D.?../../../../
1000cc4c:	2e 2e 2f 6e 65 77 6c 69 62 2d 33 2e 33 2e 30 2f     ../newlib-3.3.0/
1000cc5c:	6e 65 77 6c 69 62 2f 6c 69 62 63 2f 73 74 64 6c     newlib/libc/stdl
1000cc6c:	69 62 2f 6d 70 72 65 63 2e 63 00 66 90 66 90 66     ib/mprec.c.f.f.f
1000cc7c:	90 66 90 90                                         .f..

1000cc80 <p05.3354>:
1000cc80:	05 00 00 00 19 00 00 00 7d 00 00 00 00 00 00 00     ........}.......
	...

1000cca0 <__mprec_tinytens>:
1000cca0:	bc 89 d8 97 b2 d2 9c 3c 33 a7 a8 d5 23 f6 49 39     .......<3...#.I9
1000ccb0:	3d a7 f4 44 fd 0f a5 32 9d 97 8c cf 08 ba 5b 25     =..D...2......[%
1000ccc0:	43 6f ac 64 28 06 c8 0a 00 00 00 00 00 00 00 00     Co.d(...........
	...

1000cce0 <__mprec_bigtens>:
1000cce0:	00 80 e0 37 79 c3 41 43 17 6e 05 b5 b5 b8 93 46     ...7y.AC.n.....F
1000ccf0:	f5 f9 3f e9 03 4f 38 4d 32 1d 30 f9 48 77 82 5a     ..?..O8M2.0.Hw.Z
1000cd00:	3c bf 73 7f dd 4f 15 75 00 00 00 00 00 00 00 00     <.s..O.u........
	...

1000cd20 <__mprec_tens>:
1000cd20:	00 00 00 00 00 00 f0 3f 00 00 00 00 00 00 24 40     .......?......$@
1000cd30:	00 00 00 00 00 00 59 40 00 00 00 00 00 40 8f 40     ......Y@.....@.@
1000cd40:	00 00 00 00 00 88 c3 40 00 00 00 00 00 6a f8 40     .......@.....j.@
1000cd50:	00 00 00 00 80 84 2e 41 00 00 00 00 d0 12 63 41     .......A......cA
1000cd60:	00 00 00 00 84 d7 97 41 00 00 00 00 65 cd cd 41     .......A....e..A
1000cd70:	00 00 00 20 5f a0 02 42 00 00 00 e8 76 48 37 42     ... _..B....vH7B
1000cd80:	00 00 00 a2 94 1a 6d 42 00 00 40 e5 9c 30 a2 42     ......mB..@..0.B
1000cd90:	00 00 90 1e c4 bc d6 42 00 00 34 26 f5 6b 0c 43     .......B..4&.k.C
1000cda0:	00 80 e0 37 79 c3 41 43 00 a0 d8 85 57 34 76 43     ...7y.AC....W4vC
1000cdb0:	00 c8 4e 67 6d c1 ab 43 00 3d 91 60 e4 58 e1 43     ..Ngm..C.=.`.X.C
1000cdc0:	40 8c b5 78 1d af 15 44 50 ef e2 d6 e4 1a 4b 44     @..x...DP.....KD
1000cdd0:	92 d5 4d 06 cf f0 80 44 f6 4a e1 c7 02 2d b5 44     ..M....D.J...-.D
1000cde0:	b4 9d d9 79 43 78 ea 44 32 7d 00 10 7c 7c 00 10     ...yCx.D2}..||..
1000cdf0:	7c 7c 00 10 4a 7d 00 10 7c 7c 00 10 7c 7c 00 10     ||..J}..||..||..
1000ce00:	7c 7c 00 10 7c 7c 00 10 7c 7c 00 10 7c 7c 00 10     ||..||..||..||..
1000ce10:	04 7c 00 10 3a 7c 00 10 7c 7c 00 10 30 7c 00 10     .|..:|..||..0|..
1000ce20:	5e 7d 00 10 7c 7c 00 10 54 7d 00 10 48 7c 00 10     ^}..||..T}..H|..
1000ce30:	48 7c 00 10 48 7c 00 10 48 7c 00 10 48 7c 00 10     H|..H|..H|..H|..
1000ce40:	48 7c 00 10 48 7c 00 10 48 7c 00 10 48 7c 00 10     H|..H|..H|..H|..
1000ce50:	7c 7c 00 10 7c 7c 00 10 7c 7c 00 10 7c 7c 00 10     ||..||..||..||..
1000ce60:	7c 7c 00 10 7c 7c 00 10 7c 7c 00 10 7c 7c 00 10     ||..||..||..||..
1000ce70:	7c 7c 00 10 7c 7c 00 10 b5 7c 00 10 7c 7c 00 10     ||..||...|..||..
1000ce80:	7c 7c 00 10 7c 7c 00 10 7c 7c 00 10 7c 7c 00 10     ||..||..||..||..
1000ce90:	7c 7c 00 10 7c 7c 00 10 7c 7c 00 10 7c 7c 00 10     ||..||..||..||..
1000cea0:	7c 7c 00 10 54 80 00 10 7c 7c 00 10 7c 7c 00 10     ||..T...||..||..
1000ceb0:	7c 7c 00 10 7c 7c 00 10 7c 7c 00 10 78 7f 00 10     ||..||..||..x...
1000cec0:	7c 7c 00 10 7c 7c 00 10 f7 7f 00 10 7c 7c 00 10     ||..||......||..
1000ced0:	7c 7c 00 10 7c 7c 00 10 7c 7c 00 10 7c 7c 00 10     ||..||..||..||..
1000cee0:	7c 7c 00 10 7c 7c 00 10 7c 7c 00 10 7c 7c 00 10     ||..||..||..||..
1000cef0:	7c 7c 00 10 ad 7d 00 10 09 82 00 10 7c 7c 00 10     ||...}......||..
1000cf00:	7c 7c 00 10 7c 7c 00 10 ff 81 00 10 09 82 00 10     ||..||..........
1000cf10:	7c 7c 00 10 7c 7c 00 10 04 7b 00 10 7c 7c 00 10     ||..||...{..||..
1000cf20:	9c 81 00 10 5e 81 00 10 28 81 00 10 04 7b 00 10     ....^...(....{..
1000cf30:	7c 7c 00 10 c0 80 00 10 7c 7c 00 10 7f 80 00 10     ||......||......
1000cf40:	7c 7c 00 10 7c 7c 00 10 e3 81 00 10                 ||..||......

1000cf4c <zeroes.4508>:
1000cf4c:	30 30 30 30 30 30 30 30 30 30 30 30 30 30 30 30     0000000000000000

1000cf5c <blanks.4507>:
1000cf5c:	20 20 20 20 20 20 20 20 20 20 20 20 20 20 20 20                     
1000cf6c:	2c 20 66 75 6e 63 74 69 6f 6e 3a 20 00 66 90 90     , function: .f..
1000cf7c:	61 73 73 65 72 74 69 6f 6e 20 22 25 73 22 20 66     assertion "%s" f
1000cf8c:	61 69 6c 65 64 3a 20 66 69 6c 65 20 22 25 73 22     ailed: file "%s"
1000cf9c:	2c 20 6c 69 6e 65 20 25 64 25 73 25 73 0a 00 00     , line %d%s%s...
1000cfac:	43 00 50 4f 53 49 58 00 66 90 66 90 66 90 66 90     C.POSIX.f.f.f.f.
1000cfbc:	66 90 66 90                                         f.f.

1000cfc0 <_ctype_>:
1000cfc0:	00 20 20 20 20 20 20 20 20 20 28 28 28 28 28 20     .         ((((( 
1000cfd0:	20 20 20 20 20 20 20 20 20 20 20 20 20 20 20 20                     
1000cfe0:	20 88 10 10 10 10 10 10 10 10 10 10 10 10 10 10      ...............
1000cff0:	10 04 04 04 04 04 04 04 04 04 04 10 10 10 10 10     ................
1000d000:	10 10 41 41 41 41 41 41 01 01 01 01 01 01 01 01     ..AAAAAA........
1000d010:	01 01 01 01 01 01 01 01 01 01 01 01 10 10 10 10     ................
1000d020:	10 10 42 42 42 42 42 42 02 02 02 02 02 02 02 02     ..BBBBBB........
1000d030:	02 02 02 02 02 02 02 02 02 02 02 02 10 10 10 10     ................
1000d040:	20 00 00 00 00 00 00 00 00 00 00 00 00 00 00 00      ...............
	...

1000d0e0 <_ctype_b>:
	...
1000d160:	20 20 20 20 20 20 20 20 20 28 28 28 28 28 20 20              (((((  
1000d170:	20 20 20 20 20 20 20 20 20 20 20 20 20 20 20 20                     
1000d180:	88 10 10 10 10 10 10 10 10 10 10 10 10 10 10 10     ................
1000d190:	04 04 04 04 04 04 04 04 04 04 10 10 10 10 10 10     ................
1000d1a0:	10 41 41 41 41 41 41 01 01 01 01 01 01 01 01 01     .AAAAAA.........
1000d1b0:	01 01 01 01 01 01 01 01 01 01 01 10 10 10 10 10     ................
1000d1c0:	10 42 42 42 42 42 42 02 02 02 02 02 02 02 02 02     .BBBBBB.........
1000d1d0:	02 02 02 02 02 02 02 02 02 02 02 10 10 10 10 20     ............... 
	...

Disassembly of section .init:

1000d260 <_init>:
1000d260:	e8 63 2f ff ff       	call   100001c8 <frame_dummy>
1000d265:	e8 2e c1 ff ff       	call   10009398 <__do_global_ctors_aux>
1000d26a:	c2 00 00             	ret    0x0

Disassembly of section .fini:

1000d26d <_fini>:
1000d26d:	e8 e6 2e ff ff       	call   10000158 <__do_global_dtors_aux>
1000d272:	c2 00 00             	ret    0x0

Disassembly of section .text.startup:

1000d275 <main>:
1000d275:	8d 4c 24 04          	lea    ecx,[esp+0x4]
1000d279:	83 e4 f0             	and    esp,0xfffffff0
1000d27c:	ff 71 fc             	push   DWORD PTR [ecx-0x4]
1000d27f:	55                   	push   ebp
1000d280:	89 e5                	mov    ebp,esp
1000d282:	53                   	push   ebx
1000d283:	51                   	push   ecx
1000d284:	8b 41 04             	mov    eax,DWORD PTR [ecx+0x4]
1000d287:	83 39 01             	cmp    DWORD PTR [ecx],0x1
1000d28a:	74 17                	je     1000d2a3 <main+0x2e>
1000d28c:	8b 58 04             	mov    ebx,DWORD PTR [eax+0x4]
1000d28f:	52                   	push   edx
1000d290:	52                   	push   edx
1000d291:	68 c2 93 00 10       	push   0x100093c2
1000d296:	53                   	push   ebx
1000d297:	e8 ac 3a ff ff       	call   10000d48 <strcmp>
1000d29c:	83 c4 10             	add    esp,0x10
1000d29f:	85 c0                	test   eax,eax
1000d2a1:	75 0a                	jne    1000d2ad <main+0x38>
1000d2a3:	83 ec 0c             	sub    esp,0xc
1000d2a6:	68 c7 93 00 10       	push   0x100093c7
1000d2ab:	eb 3b                	jmp    1000d2e8 <main+0x73>
1000d2ad:	50                   	push   eax
1000d2ae:	50                   	push   eax
1000d2af:	68 f3 93 00 10       	push   0x100093f3
1000d2b4:	53                   	push   ebx
1000d2b5:	e8 8e 3a ff ff       	call   10000d48 <strcmp>
1000d2ba:	83 c4 10             	add    esp,0x10
1000d2bd:	85 c0                	test   eax,eax
1000d2bf:	75 1f                	jne    1000d2e0 <main+0x6b>
1000d2c1:	68 f8 93 00 10       	push   0x100093f8
1000d2c6:	6a 00                	push   0x0
1000d2c8:	6a 00                	push   0x0
1000d2ca:	6a 3a                	push   0x3a
1000d2cc:	e8 af 5e ff ff       	call   10003180 <SystemCall>
1000d2d1:	83 c4 0c             	add    esp,0xc
1000d2d4:	6a 00                	push   0x0
1000d2d6:	6a 01                	push   0x1
1000d2d8:	50                   	push   eax
1000d2d9:	e8 17 2f ff ff       	call   100001f5 <regtree>
1000d2de:	eb 0d                	jmp    1000d2ed <main+0x78>
1000d2e0:	83 ec 0c             	sub    esp,0xc
1000d2e3:	68 1d 94 00 10       	push   0x1000941d
1000d2e8:	e8 0b 3a ff ff       	call   10000cf8 <puts>
1000d2ed:	83 c4 10             	add    esp,0x10
1000d2f0:	31 c0                	xor    eax,eax
1000d2f2:	8d 65 f8             	lea    esp,[ebp-0x8]
1000d2f5:	59                   	pop    ecx
1000d2f6:	5b                   	pop    ebx
1000d2f7:	5d                   	pop    ebp
1000d2f8:	8d 61 fc             	lea    esp,[ecx-0x4]
1000d2fb:	c3                   	ret    
