
packages/banana/32/0001/wsbe.sys:     file format elf32-i386


Disassembly of section .text:

10000000 <start()>:
10000000:	55                   	push   ebp
10000001:	89 e5                	mov    ebp,esp
10000003:	83 ec 08             	sub    esp,0x8
10000006:	83 ec 08             	sub    esp,0x8
10000009:	6a 00                	push   0x0
1000000b:	6a 00                	push   0x0
1000000d:	e8 fc ff ff ff       	call   1000000e <start()+0xe>	1000000e: R_386_PC32	main
10000012:	83 c4 10             	add    esp,0x10
10000015:	90                   	nop
10000016:	c9                   	leave  
10000017:	c3                   	ret    

10000018 <bitblit>:
10000018:	55                   	push   ebp
10000019:	89 e5                	mov    ebp,esp
1000001b:	83 ec 08             	sub    esp,0x8
1000001e:	8b 15 00 00 00 00    	mov    edx,DWORD PTR ds:0x0	10000020: R_386_32	screen
10000024:	a1 00 00 00 00       	mov    eax,ds:0x0	10000025: R_386_32	screen
10000029:	8b 00                	mov    eax,DWORD PTR [eax]
1000002b:	83 c0 34             	add    eax,0x34
1000002e:	8b 00                	mov    eax,DWORD PTR [eax]
10000030:	83 ec 0c             	sub    esp,0xc
10000033:	ff 75 24             	push   DWORD PTR [ebp+0x24]
10000036:	ff 75 20             	push   DWORD PTR [ebp+0x20]
10000039:	ff 75 1c             	push   DWORD PTR [ebp+0x1c]
1000003c:	ff 75 18             	push   DWORD PTR [ebp+0x18]
1000003f:	ff 75 14             	push   DWORD PTR [ebp+0x14]
10000042:	ff 75 10             	push   DWORD PTR [ebp+0x10]
10000045:	ff 75 0c             	push   DWORD PTR [ebp+0xc]
10000048:	ff 75 08             	push   DWORD PTR [ebp+0x8]
1000004b:	52                   	push   edx
1000004c:	ff d0                	call   eax
1000004e:	83 c4 30             	add    esp,0x30
10000051:	90                   	nop
10000052:	c9                   	leave  
10000053:	c3                   	ret    

10000054 <screendrawcursor>:
10000054:	55                   	push   ebp
10000055:	89 e5                	mov    ebp,esp
10000057:	83 ec 08             	sub    esp,0x8
1000005a:	8b 15 00 00 00 00    	mov    edx,DWORD PTR ds:0x0	1000005c: R_386_32	screen
10000060:	a1 00 00 00 00       	mov    eax,ds:0x0	10000061: R_386_32	screen
10000065:	8b 00                	mov    eax,DWORD PTR [eax]
10000067:	83 c0 30             	add    eax,0x30
1000006a:	8b 00                	mov    eax,DWORD PTR [eax]
1000006c:	8a 0d 00 00 00 00    	mov    cl,BYTE PTR ds:0x0	1000006e: R_386_32	invertMouse
10000072:	0f b6 c9             	movzx  ecx,cl
10000075:	83 ec 0c             	sub    esp,0xc
10000078:	51                   	push   ecx
10000079:	ff 75 10             	push   DWORD PTR [ebp+0x10]
1000007c:	ff 75 0c             	push   DWORD PTR [ebp+0xc]
1000007f:	ff 75 08             	push   DWORD PTR [ebp+0x8]
10000082:	52                   	push   edx
10000083:	ff d0                	call   eax
10000085:	83 c4 20             	add    esp,0x20
10000088:	90                   	nop
10000089:	c9                   	leave  
1000008a:	c3                   	ret    

1000008b <screenputrect>:
1000008b:	55                   	push   ebp
1000008c:	89 e5                	mov    ebp,esp
1000008e:	53                   	push   ebx
1000008f:	83 ec 04             	sub    esp,0x4
10000092:	8b 15 00 00 00 00    	mov    edx,DWORD PTR ds:0x0	10000094: R_386_32	screen
10000098:	a1 00 00 00 00       	mov    eax,ds:0x0	10000099: R_386_32	screen
1000009d:	8b 00                	mov    eax,DWORD PTR [eax]
1000009f:	83 c0 28             	add    eax,0x28
100000a2:	8b 00                	mov    eax,DWORD PTR [eax]
100000a4:	8b 4d 14             	mov    ecx,DWORD PTR [ebp+0x14]
100000a7:	89 cb                	mov    ebx,ecx
100000a9:	2b 5d 0c             	sub    ebx,DWORD PTR [ebp+0xc]
100000ac:	8b 4d 10             	mov    ecx,DWORD PTR [ebp+0x10]
100000af:	2b 4d 08             	sub    ecx,DWORD PTR [ebp+0x8]
100000b2:	83 ec 08             	sub    esp,0x8
100000b5:	ff 75 18             	push   DWORD PTR [ebp+0x18]
100000b8:	53                   	push   ebx
100000b9:	51                   	push   ecx
100000ba:	ff 75 0c             	push   DWORD PTR [ebp+0xc]
100000bd:	ff 75 08             	push   DWORD PTR [ebp+0x8]
100000c0:	52                   	push   edx
100000c1:	ff d0                	call   eax
100000c3:	83 c4 20             	add    esp,0x20
100000c6:	90                   	nop
100000c7:	8b 5d fc             	mov    ebx,DWORD PTR [ebp-0x4]
100000ca:	c9                   	leave  
100000cb:	c3                   	ret    

100000cc <screenputpixel>:
100000cc:	55                   	push   ebp
100000cd:	89 e5                	mov    ebp,esp
100000cf:	83 ec 08             	sub    esp,0x8
100000d2:	8b 15 00 00 00 00    	mov    edx,DWORD PTR ds:0x0	100000d4: R_386_32	screen
100000d8:	a1 00 00 00 00       	mov    eax,ds:0x0	100000d9: R_386_32	screen
100000dd:	8b 00                	mov    eax,DWORD PTR [eax]
100000df:	83 c0 24             	add    eax,0x24
100000e2:	8b 00                	mov    eax,DWORD PTR [eax]
100000e4:	ff 75 10             	push   DWORD PTR [ebp+0x10]
100000e7:	ff 75 0c             	push   DWORD PTR [ebp+0xc]
100000ea:	ff 75 08             	push   DWORD PTR [ebp+0x8]
100000ed:	52                   	push   edx
100000ee:	ff d0                	call   eax
100000f0:	83 c4 10             	add    esp,0x10
100000f3:	90                   	nop
100000f4:	c9                   	leave  
100000f5:	c3                   	ret    

100000f6 <getNanoSinceBoot>:
100000f6:	a1 00 00 00 00       	mov    eax,ds:0x0	100000f7: R_386_32	nanoSinceBoot
100000fb:	8b 15 04 00 00 00    	mov    edx,DWORD PTR ds:0x4	100000fd: R_386_32	nanoSinceBoot
10000101:	c3                   	ret    

10000102 <loadCursors()>:
10000102:	55                   	push   ebp
10000103:	89 e5                	mov    ebp,esp
10000105:	53                   	push   ebx
10000106:	83 ec 34             	sub    esp,0x34
10000109:	83 ec 0c             	sub    esp,0xc
1000010c:	68 14 01 00 00       	push   0x114
10000111:	e8 fc ff ff ff       	call   10000112 <loadCursors()+0x10>	10000112: R_386_PC32	operator new(unsigned long)
10000116:	83 c4 10             	add    esp,0x10
10000119:	89 c3                	mov    ebx,eax
1000011b:	a1 00 00 00 00       	mov    eax,ds:0x0	1000011c: R_386_32	kernelProcess
10000120:	83 ec 04             	sub    esp,0x4
10000123:	50                   	push   eax
10000124:	68 08 3a 00 10       	push   0x10003a08	10000125: R_386_32	.text
10000129:	53                   	push   ebx
1000012a:	e8 fc ff ff ff       	call   1000012b <loadCursors()+0x29>	1000012b: R_386_PC32	File::File(char const*, Process*)
1000012f:	83 c4 10             	add    esp,0x10
10000132:	89 5d ec             	mov    DWORD PTR [ebp-0x14],ebx
10000135:	83 ec 08             	sub    esp,0x8
10000138:	6a 01                	push   0x1
1000013a:	ff 75 ec             	push   DWORD PTR [ebp-0x14]
1000013d:	e8 fc ff ff ff       	call   1000013e <loadCursors()+0x3c>	1000013e: R_386_PC32	File::open(FileOpenMode)
10000142:	83 c4 10             	add    esp,0x10
10000145:	89 45 e8             	mov    DWORD PTR [ebp-0x18],eax
10000148:	83 7d e8 00          	cmp    DWORD PTR [ebp-0x18],0x0
1000014c:	74 15                	je     10000163 <loadCursors()+0x61>
1000014e:	83 ec 0c             	sub    esp,0xc
10000151:	68 27 3a 00 10       	push   0x10003a27	10000152: R_386_32	.text
10000156:	e8 fc ff ff ff       	call   10000157 <loadCursors()+0x55>	10000157: R_386_PC32	Dbg::kprintf(char const*, ...)
1000015b:	83 c4 10             	add    esp,0x10
1000015e:	e9 5f 02 00 00       	jmp    100003c2 <loadCursors()+0x2c0>
10000163:	83 ec 04             	sub    esp,0x4
10000166:	8d 45 d7             	lea    eax,[ebp-0x29]
10000169:	50                   	push   eax
1000016a:	8d 45 d8             	lea    eax,[ebp-0x28]
1000016d:	50                   	push   eax
1000016e:	ff 75 ec             	push   DWORD PTR [ebp-0x14]
10000171:	e8 fc ff ff ff       	call   10000172 <loadCursors()+0x70>	10000172: R_386_PC32	File::stat(unsigned long long*, bool*)
10000176:	83 c4 10             	add    esp,0x10
10000179:	8b 45 d8             	mov    eax,DWORD PTR [ebp-0x28]
1000017c:	8b 55 dc             	mov    edx,DWORD PTR [ebp-0x24]
1000017f:	83 ec 0c             	sub    esp,0xc
10000182:	50                   	push   eax
10000183:	e8 fc ff ff ff       	call   10000184 <loadCursors()+0x82>	10000184: R_386_PC32	malloc
10000188:	83 c4 10             	add    esp,0x10
1000018b:	89 45 e4             	mov    DWORD PTR [ebp-0x1c],eax
1000018e:	8b 45 ec             	mov    eax,DWORD PTR [ebp-0x14]
10000191:	8b 00                	mov    eax,DWORD PTR [eax]
10000193:	83 c0 0c             	add    eax,0xc
10000196:	8b 08                	mov    ecx,DWORD PTR [eax]
10000198:	8b 45 d8             	mov    eax,DWORD PTR [ebp-0x28]
1000019b:	8b 55 dc             	mov    edx,DWORD PTR [ebp-0x24]
1000019e:	83 ec 0c             	sub    esp,0xc
100001a1:	8d 5d d0             	lea    ebx,[ebp-0x30]
100001a4:	53                   	push   ebx
100001a5:	ff 75 e4             	push   DWORD PTR [ebp-0x1c]
100001a8:	52                   	push   edx
100001a9:	50                   	push   eax
100001aa:	ff 75 ec             	push   DWORD PTR [ebp-0x14]
100001ad:	ff d1                	call   ecx
100001af:	83 c4 20             	add    esp,0x20
100001b2:	8b 45 d8             	mov    eax,DWORD PTR [ebp-0x28]
100001b5:	8b 55 dc             	mov    edx,DWORD PTR [ebp-0x24]
100001b8:	89 c2                	mov    edx,eax
100001ba:	8b 45 d0             	mov    eax,DWORD PTR [ebp-0x30]
100001bd:	39 c2                	cmp    edx,eax
100001bf:	74 15                	je     100001d6 <loadCursors()+0xd4>
100001c1:	83 ec 0c             	sub    esp,0xc
100001c4:	68 3b 3a 00 10       	push   0x10003a3b	100001c5: R_386_32	.text
100001c9:	e8 fc ff ff ff       	call   100001ca <loadCursors()+0xc8>	100001ca: R_386_PC32	Dbg::kprintf(char const*, ...)
100001ce:	83 c4 10             	add    esp,0x10
100001d1:	e9 ec 01 00 00       	jmp    100003c2 <loadCursors()+0x2c0>
100001d6:	8b 45 d8             	mov    eax,DWORD PTR [ebp-0x28]
100001d9:	8b 55 dc             	mov    edx,DWORD PTR [ebp-0x24]
100001dc:	6a 00                	push   0x0
100001de:	68 04 01 00 00       	push   0x104
100001e3:	52                   	push   edx
100001e4:	50                   	push   eax
100001e5:	e8 fc ff ff ff       	call   100001e6 <loadCursors()+0xe4>	100001e6: R_386_PC32	__udivdi3
100001ea:	83 c4 10             	add    esp,0x10
100001ed:	89 45 e0             	mov    DWORD PTR [ebp-0x20],eax
100001f0:	83 ec 08             	sub    esp,0x8
100001f3:	ff 75 e0             	push   DWORD PTR [ebp-0x20]
100001f6:	68 4f 3a 00 10       	push   0x10003a4f	100001f7: R_386_32	.text
100001fb:	e8 fc ff ff ff       	call   100001fc <loadCursors()+0xfa>	100001fc: R_386_PC32	Dbg::kprintf(char const*, ...)
10000200:	83 c4 10             	add    esp,0x10
10000203:	83 ec 0c             	sub    esp,0xc
10000206:	ff 75 e4             	push   DWORD PTR [ebp-0x1c]
10000209:	e8 fc ff ff ff       	call   1000020a <loadCursors()+0x108>	1000020a: R_386_PC32	Dbg::kprintf(char const*, ...)
1000020e:	83 c4 10             	add    esp,0x10
10000211:	c7 45 f4 00 00 00 00 	mov    DWORD PTR [ebp-0xc],0x0
10000218:	8b 45 f4             	mov    eax,DWORD PTR [ebp-0xc]
1000021b:	3b 45 e0             	cmp    eax,DWORD PTR [ebp-0x20]
1000021e:	0f 8d 90 01 00 00    	jge    100003b4 <loadCursors()+0x2b2>
10000224:	8b 45 f4             	mov    eax,DWORD PTR [ebp-0xc]
10000227:	c1 e0 02             	shl    eax,0x2
1000022a:	89 c2                	mov    edx,eax
1000022c:	8b 45 e4             	mov    eax,DWORD PTR [ebp-0x1c]
1000022f:	01 d0                	add    eax,edx
10000231:	83 ec 04             	sub    esp,0x4
10000234:	6a 04                	push   0x4
10000236:	68 5c 3a 00 10       	push   0x10003a5c	10000237: R_386_32	.text
1000023b:	50                   	push   eax
1000023c:	e8 fc ff ff ff       	call   1000023d <loadCursors()+0x13b>	1000023d: R_386_PC32	memcmp
10000241:	83 c4 10             	add    esp,0x10
10000244:	85 c0                	test   eax,eax
10000246:	75 0c                	jne    10000254 <loadCursors()+0x152>
10000248:	c7 45 f0 00 00 00 00 	mov    DWORD PTR [ebp-0x10],0x0
1000024f:	e9 29 01 00 00       	jmp    1000037d <loadCursors()+0x27b>
10000254:	8b 45 f4             	mov    eax,DWORD PTR [ebp-0xc]
10000257:	c1 e0 02             	shl    eax,0x2
1000025a:	89 c2                	mov    edx,eax
1000025c:	8b 45 e4             	mov    eax,DWORD PTR [ebp-0x1c]
1000025f:	01 d0                	add    eax,edx
10000261:	83 ec 04             	sub    esp,0x4
10000264:	6a 04                	push   0x4
10000266:	68 61 3a 00 10       	push   0x10003a61	10000267: R_386_32	.text
1000026b:	50                   	push   eax
1000026c:	e8 fc ff ff ff       	call   1000026d <loadCursors()+0x16b>	1000026d: R_386_PC32	memcmp
10000271:	83 c4 10             	add    esp,0x10
10000274:	85 c0                	test   eax,eax
10000276:	75 0c                	jne    10000284 <loadCursors()+0x182>
10000278:	c7 45 f0 00 02 00 00 	mov    DWORD PTR [ebp-0x10],0x200
1000027f:	e9 f9 00 00 00       	jmp    1000037d <loadCursors()+0x27b>
10000284:	8b 45 f4             	mov    eax,DWORD PTR [ebp-0xc]
10000287:	c1 e0 02             	shl    eax,0x2
1000028a:	89 c2                	mov    edx,eax
1000028c:	8b 45 e4             	mov    eax,DWORD PTR [ebp-0x1c]
1000028f:	01 d0                	add    eax,edx
10000291:	83 ec 04             	sub    esp,0x4
10000294:	6a 04                	push   0x4
10000296:	68 66 3a 00 10       	push   0x10003a66	10000297: R_386_32	.text
1000029b:	50                   	push   eax
1000029c:	e8 fc ff ff ff       	call   1000029d <loadCursors()+0x19b>	1000029d: R_386_PC32	memcmp
100002a1:	83 c4 10             	add    esp,0x10
100002a4:	85 c0                	test   eax,eax
100002a6:	75 0c                	jne    100002b4 <loadCursors()+0x1b2>
100002a8:	c7 45 f0 00 03 00 00 	mov    DWORD PTR [ebp-0x10],0x300
100002af:	e9 c9 00 00 00       	jmp    1000037d <loadCursors()+0x27b>
100002b4:	8b 45 f4             	mov    eax,DWORD PTR [ebp-0xc]
100002b7:	c1 e0 02             	shl    eax,0x2
100002ba:	89 c2                	mov    edx,eax
100002bc:	8b 45 e4             	mov    eax,DWORD PTR [ebp-0x1c]
100002bf:	01 d0                	add    eax,edx
100002c1:	83 ec 04             	sub    esp,0x4
100002c4:	6a 04                	push   0x4
100002c6:	68 6b 3a 00 10       	push   0x10003a6b	100002c7: R_386_32	.text
100002cb:	50                   	push   eax
100002cc:	e8 fc ff ff ff       	call   100002cd <loadCursors()+0x1cb>	100002cd: R_386_PC32	memcmp
100002d1:	83 c4 10             	add    esp,0x10
100002d4:	85 c0                	test   eax,eax
100002d6:	75 0c                	jne    100002e4 <loadCursors()+0x1e2>
100002d8:	c7 45 f0 00 01 00 00 	mov    DWORD PTR [ebp-0x10],0x100
100002df:	e9 99 00 00 00       	jmp    1000037d <loadCursors()+0x27b>
100002e4:	8b 45 f4             	mov    eax,DWORD PTR [ebp-0xc]
100002e7:	c1 e0 02             	shl    eax,0x2
100002ea:	89 c2                	mov    edx,eax
100002ec:	8b 45 e4             	mov    eax,DWORD PTR [ebp-0x1c]
100002ef:	01 d0                	add    eax,edx
100002f1:	83 ec 04             	sub    esp,0x4
100002f4:	6a 04                	push   0x4
100002f6:	68 70 3a 00 10       	push   0x10003a70	100002f7: R_386_32	.text
100002fb:	50                   	push   eax
100002fc:	e8 fc ff ff ff       	call   100002fd <loadCursors()+0x1fb>	100002fd: R_386_PC32	memcmp
10000301:	83 c4 10             	add    esp,0x10
10000304:	85 c0                	test   eax,eax
10000306:	75 09                	jne    10000311 <loadCursors()+0x20f>
10000308:	c7 45 f0 00 04 00 00 	mov    DWORD PTR [ebp-0x10],0x400
1000030f:	eb 6c                	jmp    1000037d <loadCursors()+0x27b>
10000311:	8b 45 f4             	mov    eax,DWORD PTR [ebp-0xc]
10000314:	c1 e0 02             	shl    eax,0x2
10000317:	89 c2                	mov    edx,eax
10000319:	8b 45 e4             	mov    eax,DWORD PTR [ebp-0x1c]
1000031c:	01 d0                	add    eax,edx
1000031e:	83 ec 04             	sub    esp,0x4
10000321:	6a 04                	push   0x4
10000323:	68 75 3a 00 10       	push   0x10003a75	10000324: R_386_32	.text
10000328:	50                   	push   eax
10000329:	e8 fc ff ff ff       	call   1000032a <loadCursors()+0x228>	1000032a: R_386_PC32	memcmp
1000032e:	83 c4 10             	add    esp,0x10
10000331:	85 c0                	test   eax,eax
10000333:	75 09                	jne    1000033e <loadCursors()+0x23c>
10000335:	c7 45 f0 00 05 00 00 	mov    DWORD PTR [ebp-0x10],0x500
1000033c:	eb 3f                	jmp    1000037d <loadCursors()+0x27b>
1000033e:	8b 45 f4             	mov    eax,DWORD PTR [ebp-0xc]
10000341:	c1 e0 02             	shl    eax,0x2
10000344:	89 c2                	mov    edx,eax
10000346:	8b 45 e4             	mov    eax,DWORD PTR [ebp-0x1c]
10000349:	01 d0                	add    eax,edx
1000034b:	83 ec 04             	sub    esp,0x4
1000034e:	6a 04                	push   0x4
10000350:	68 7a 3a 00 10       	push   0x10003a7a	10000351: R_386_32	.text
10000355:	50                   	push   eax
10000356:	e8 fc ff ff ff       	call   10000357 <loadCursors()+0x255>	10000357: R_386_PC32	memcmp
1000035b:	83 c4 10             	add    esp,0x10
1000035e:	85 c0                	test   eax,eax
10000360:	75 09                	jne    1000036b <loadCursors()+0x269>
10000362:	c7 45 f0 00 06 00 00 	mov    DWORD PTR [ebp-0x10],0x600
10000369:	eb 12                	jmp    1000037d <loadCursors()+0x27b>
1000036b:	83 ec 0c             	sub    esp,0xc
1000036e:	68 7f 3a 00 10       	push   0x10003a7f	1000036f: R_386_32	.text
10000373:	e8 fc ff ff ff       	call   10000374 <loadCursors()+0x272>	10000374: R_386_PC32	Dbg::kprintf(char const*, ...)
10000378:	83 c4 10             	add    esp,0x10
1000037b:	eb 37                	jmp    100003b4 <loadCursors()+0x2b2>
1000037d:	8b 45 e0             	mov    eax,DWORD PTR [ebp-0x20]
10000380:	c1 e0 02             	shl    eax,0x2
10000383:	89 c2                	mov    edx,eax
10000385:	8b 45 f4             	mov    eax,DWORD PTR [ebp-0xc]
10000388:	c1 e0 08             	shl    eax,0x8
1000038b:	01 c2                	add    edx,eax
1000038d:	8b 45 e4             	mov    eax,DWORD PTR [ebp-0x1c]
10000390:	01 c2                	add    edx,eax
10000392:	8b 45 f0             	mov    eax,DWORD PTR [ebp-0x10]
10000395:	05 00 00 00 00       	add    eax,0x0	10000396: R_386_32	___mouse_data
1000039a:	83 ec 04             	sub    esp,0x4
1000039d:	68 00 01 00 00       	push   0x100
100003a2:	52                   	push   edx
100003a3:	50                   	push   eax
100003a4:	e8 fc ff ff ff       	call   100003a5 <loadCursors()+0x2a3>	100003a5: R_386_PC32	memcpy
100003a9:	83 c4 10             	add    esp,0x10
100003ac:	ff 45 f4             	inc    DWORD PTR [ebp-0xc]
100003af:	e9 64 fe ff ff       	jmp    10000218 <loadCursors()+0x116>
100003b4:	83 ec 0c             	sub    esp,0xc
100003b7:	ff 75 e4             	push   DWORD PTR [ebp-0x1c]
100003ba:	e8 fc ff ff ff       	call   100003bb <loadCursors()+0x2b9>	100003bb: R_386_PC32	free
100003bf:	83 c4 10             	add    esp,0x10
100003c2:	8b 5d fc             	mov    ebx,DWORD PTR [ebp-0x4]
100003c5:	c9                   	leave  
100003c6:	c3                   	ret    

100003c7 <handleKeyboard>:
100003c7:	55                   	push   ebp
100003c8:	89 e5                	mov    ebp,esp
100003ca:	57                   	push   edi
100003cb:	56                   	push   esi
100003cc:	53                   	push   ebx
100003cd:	83 ec 3c             	sub    esp,0x3c
100003d0:	a1 00 00 00 00       	mov    eax,ds:0x0	100003d1: R_386_32	active_window
100003d5:	85 c0                	test   eax,eax
100003d7:	0f 84 c9 00 00 00    	je     100004a6 <handleKeyboard+0xdf>
100003dd:	a1 00 00 00 00       	mov    eax,ds:0x0	100003de: R_386_32	active_window
100003e2:	89 45 d8             	mov    DWORD PTR [ebp-0x28],eax
100003e5:	8a 45 0a             	mov    al,BYTE PTR [ebp+0xa]
100003e8:	84 c0                	test   al,al
100003ea:	74 04                	je     100003f0 <handleKeyboard+0x29>
100003ec:	b0 12                	mov    al,0x12
100003ee:	eb 02                	jmp    100003f2 <handleKeyboard+0x2b>
100003f0:	b0 11                	mov    al,0x11
100003f2:	88 45 d4             	mov    BYTE PTR [ebp-0x2c],al
100003f5:	8b 45 08             	mov    eax,DWORD PTR [ebp+0x8]
100003f8:	66 89 45 dc          	mov    WORD PTR [ebp-0x24],ax
100003fc:	8b 45 10             	mov    eax,DWORD PTR [ebp+0x10]
100003ff:	05 04 01 00 00       	add    eax,0x104
10000404:	8a 10                	mov    dl,BYTE PTR [eax]
10000406:	8b 45 10             	mov    eax,DWORD PTR [ebp+0x10]
10000409:	05 14 01 00 00       	add    eax,0x114
1000040e:	8a 00                	mov    al,BYTE PTR [eax]
10000410:	09 d0                	or     eax,edx
10000412:	83 e0 01             	and    eax,0x1
10000415:	c1 e0 05             	shl    eax,0x5
10000418:	88 c2                	mov    dl,al
1000041a:	8a 45 d5             	mov    al,BYTE PTR [ebp-0x2b]
1000041d:	83 e0 df             	and    eax,0xffffffdf
10000420:	09 d0                	or     eax,edx
10000422:	88 45 d5             	mov    BYTE PTR [ebp-0x2b],al
10000425:	8b 45 10             	mov    eax,DWORD PTR [ebp+0x10]
10000428:	05 01 01 00 00       	add    eax,0x101
1000042d:	8a 10                	mov    dl,BYTE PTR [eax]
1000042f:	8b 45 10             	mov    eax,DWORD PTR [ebp+0x10]
10000432:	05 11 01 00 00       	add    eax,0x111
10000437:	8a 00                	mov    al,BYTE PTR [eax]
10000439:	09 d0                	or     eax,edx
1000043b:	83 e0 01             	and    eax,0x1
1000043e:	c1 e0 04             	shl    eax,0x4
10000441:	88 c2                	mov    dl,al
10000443:	8a 45 d5             	mov    al,BYTE PTR [ebp-0x2b]
10000446:	83 e0 ef             	and    eax,0xffffffef
10000449:	09 d0                	or     eax,edx
1000044b:	88 45 d5             	mov    BYTE PTR [ebp-0x2b],al
1000044e:	8b 45 10             	mov    eax,DWORD PTR [ebp+0x10]
10000451:	05 00 01 00 00       	add    eax,0x100
10000456:	8a 10                	mov    dl,BYTE PTR [eax]
10000458:	8b 45 10             	mov    eax,DWORD PTR [ebp+0x10]
1000045b:	05 10 01 00 00       	add    eax,0x110
10000460:	8a 00                	mov    al,BYTE PTR [eax]
10000462:	09 d0                	or     eax,edx
10000464:	83 e0 01             	and    eax,0x1
10000467:	8d 14 c5 00 00 00 00 	lea    edx,[eax*8+0x0]
1000046e:	8a 45 d5             	mov    al,BYTE PTR [ebp-0x2b]
10000471:	83 e0 f7             	and    eax,0xfffffff7
10000474:	09 d0                	or     eax,edx
10000476:	88 45 d5             	mov    BYTE PTR [ebp-0x2b],al
10000479:	8b 45 d8             	mov    eax,DWORD PTR [ebp-0x28]
1000047c:	89 45 c4             	mov    DWORD PTR [ebp-0x3c],eax
1000047f:	83 ec 08             	sub    esp,0x8
10000482:	83 ec 14             	sub    esp,0x14
10000485:	89 e0                	mov    eax,esp
10000487:	89 c3                	mov    ebx,eax
10000489:	8d 45 d4             	lea    eax,[ebp-0x2c]
1000048c:	ba 05 00 00 00       	mov    edx,0x5
10000491:	89 df                	mov    edi,ebx
10000493:	89 c6                	mov    esi,eax
10000495:	89 d1                	mov    ecx,edx
10000497:	f3 a5                	rep movs DWORD PTR es:[edi],DWORD PTR ds:[esi]
10000499:	ff 75 c4             	push   DWORD PTR [ebp-0x3c]
1000049c:	e8 fc ff ff ff       	call   1000049d <handleKeyboard+0xd6>	1000049d: R_386_PC32	dispatchMessage
100004a1:	83 c4 20             	add    esp,0x20
100004a4:	eb 01                	jmp    100004a7 <handleKeyboard+0xe0>
100004a6:	90                   	nop
100004a7:	8d 65 f4             	lea    esp,[ebp-0xc]
100004aa:	5b                   	pop    ebx
100004ab:	5e                   	pop    esi
100004ac:	5f                   	pop    edi
100004ad:	5d                   	pop    ebp
100004ae:	c3                   	ret    

100004af <handleMouse>:
100004af:	55                   	push   ebp
100004b0:	89 e5                	mov    ebp,esp
100004b2:	57                   	push   edi
100004b3:	56                   	push   esi
100004b4:	53                   	push   ebx
100004b5:	83 ec 3c             	sub    esp,0x3c
100004b8:	8b 15 00 00 00 00    	mov    edx,DWORD PTR ds:0x0	100004ba: R_386_32	mouse_x
100004be:	8b 45 08             	mov    eax,DWORD PTR [ebp+0x8]
100004c1:	01 d0                	add    eax,edx
100004c3:	a3 00 00 00 00       	mov    ds:0x0,eax	100004c4: R_386_32	mouse_x
100004c8:	8b 15 00 00 00 00    	mov    edx,DWORD PTR ds:0x0	100004ca: R_386_32	mouse_y
100004ce:	8b 45 0c             	mov    eax,DWORD PTR [ebp+0xc]
100004d1:	01 d0                	add    eax,edx
100004d3:	a3 00 00 00 00       	mov    ds:0x0,eax	100004d4: R_386_32	mouse_y
100004d8:	a1 00 00 00 00       	mov    eax,ds:0x0	100004d9: R_386_32	mouse_x
100004dd:	85 c0                	test   eax,eax
100004df:	7f 0a                	jg     100004eb <handleMouse+0x3c>
100004e1:	c7 05 00 00 00 00 01 00 00 00 	mov    DWORD PTR ds:0x0,0x1	100004e3: R_386_32	mouse_x
100004eb:	a1 00 00 00 00       	mov    eax,ds:0x0	100004ec: R_386_32	mouse_y
100004f0:	85 c0                	test   eax,eax
100004f2:	7f 0a                	jg     100004fe <handleMouse+0x4f>
100004f4:	c7 05 00 00 00 00 01 00 00 00 	mov    DWORD PTR ds:0x0,0x1	100004f6: R_386_32	mouse_y
100004fe:	a1 00 00 00 00       	mov    eax,ds:0x0	100004ff: R_386_32	desktop
10000503:	8b 40 08             	mov    eax,DWORD PTR [eax+0x8]
10000506:	98                   	cwde   
10000507:	8d 50 ff             	lea    edx,[eax-0x1]
1000050a:	a1 00 00 00 00       	mov    eax,ds:0x0	1000050b: R_386_32	mouse_x
1000050f:	39 c2                	cmp    edx,eax
10000511:	7f 11                	jg     10000524 <handleMouse+0x75>
10000513:	a1 00 00 00 00       	mov    eax,ds:0x0	10000514: R_386_32	desktop
10000518:	8b 40 08             	mov    eax,DWORD PTR [eax+0x8]
1000051b:	98                   	cwde   
1000051c:	83 e8 02             	sub    eax,0x2
1000051f:	a3 00 00 00 00       	mov    ds:0x0,eax	10000520: R_386_32	mouse_x
10000524:	a1 00 00 00 00       	mov    eax,ds:0x0	10000525: R_386_32	desktop
10000529:	66 8b 40 0a          	mov    ax,WORD PTR [eax+0xa]
1000052d:	98                   	cwde   
1000052e:	8d 50 ff             	lea    edx,[eax-0x1]
10000531:	a1 00 00 00 00       	mov    eax,ds:0x0	10000532: R_386_32	mouse_y
10000536:	39 c2                	cmp    edx,eax
10000538:	7f 12                	jg     1000054c <handleMouse+0x9d>
1000053a:	a1 00 00 00 00       	mov    eax,ds:0x0	1000053b: R_386_32	desktop
1000053f:	66 8b 40 0a          	mov    ax,WORD PTR [eax+0xa]
10000543:	98                   	cwde   
10000544:	83 e8 02             	sub    eax,0x2
10000547:	a3 00 00 00 00       	mov    ds:0x0,eax	10000548: R_386_32	mouse_y
1000054c:	c7 05 00 00 00 00 00 00 00 00 	mov    DWORD PTR ds:0x0,0x0	1000054e: R_386_32	buttons
10000556:	8b 45 10             	mov    eax,DWORD PTR [ebp+0x10]
10000559:	83 e0 01             	and    eax,0x1
1000055c:	85 c0                	test   eax,eax
1000055e:	74 0a                	je     1000056a <handleMouse+0xbb>
10000560:	c7 05 00 00 00 00 01 00 00 00 	mov    DWORD PTR ds:0x0,0x1	10000562: R_386_32	buttons
1000056a:	a1 00 00 00 00       	mov    eax,ds:0x0	1000056b: R_386_32	buttons
1000056f:	0f b6 d8             	movzx  ebx,al
10000572:	a1 00 00 00 00       	mov    eax,ds:0x0	10000573: R_386_32	mouse_y
10000577:	0f b7 c8             	movzx  ecx,ax
1000057a:	a1 00 00 00 00       	mov    eax,ds:0x0	1000057b: R_386_32	mouse_x
1000057f:	0f b7 d0             	movzx  edx,ax
10000582:	a1 00 00 00 00       	mov    eax,ds:0x0	10000583: R_386_32	desktop
10000587:	53                   	push   ebx
10000588:	51                   	push   ecx
10000589:	52                   	push   edx
1000058a:	50                   	push   eax
1000058b:	e8 fc ff ff ff       	call   1000058c <handleMouse+0xdd>	1000058c: R_386_PC32	Desktop_process_mouse
10000590:	83 c4 10             	add    esp,0x10
10000593:	a1 00 00 00 00       	mov    eax,ds:0x0	10000594: R_386_32	active_window
10000598:	85 c0                	test   eax,eax
1000059a:	0f 84 c0 00 00 00    	je     10000660 <handleMouse+0x1b1>
100005a0:	a1 00 00 00 00       	mov    eax,ds:0x0	100005a1: R_386_32	buttons
100005a5:	85 c0                	test   eax,eax
100005a7:	0f 84 b3 00 00 00    	je     10000660 <handleMouse+0x1b1>
100005ad:	a1 00 00 00 00       	mov    eax,ds:0x0	100005ae: R_386_32	lastClick
100005b2:	8b 15 04 00 00 00    	mov    edx,DWORD PTR ds:0x4	100005b4: R_386_32	lastClick
100005b8:	05 00 a3 e1 11       	add    eax,0x11e1a300
100005bd:	83 d2 00             	adc    edx,0x0
100005c0:	89 c1                	mov    ecx,eax
100005c2:	89 d3                	mov    ebx,edx
100005c4:	a1 00 00 00 00       	mov    eax,ds:0x0	100005c5: R_386_32	nanoSinceBoot
100005c9:	8b 15 04 00 00 00    	mov    edx,DWORD PTR ds:0x4	100005cb: R_386_32	nanoSinceBoot
100005cf:	39 c8                	cmp    eax,ecx
100005d1:	89 d0                	mov    eax,edx
100005d3:	19 d8                	sbb    eax,ebx
100005d5:	73 0d                	jae    100005e4 <handleMouse+0x135>
100005d7:	a1 00 00 00 00       	mov    eax,ds:0x0	100005d8: R_386_32	prevBtns
100005dc:	85 c0                	test   eax,eax
100005de:	75 04                	jne    100005e4 <handleMouse+0x135>
100005e0:	b0 01                	mov    al,0x1
100005e2:	eb 02                	jmp    100005e6 <handleMouse+0x137>
100005e4:	b0 00                	mov    al,0x0
100005e6:	88 45 e7             	mov    BYTE PTR [ebp-0x19],al
100005e9:	a1 00 00 00 00       	mov    eax,ds:0x0	100005ea: R_386_32	active_window
100005ee:	89 45 d4             	mov    DWORD PTR [ebp-0x2c],eax
100005f1:	80 7d e7 00          	cmp    BYTE PTR [ebp-0x19],0x0
100005f5:	74 04                	je     100005fb <handleMouse+0x14c>
100005f7:	b0 13                	mov    al,0x13
100005f9:	eb 0f                	jmp    1000060a <handleMouse+0x15b>
100005fb:	a1 00 00 00 00       	mov    eax,ds:0x0	100005fc: R_386_32	prevBtns
10000600:	85 c0                	test   eax,eax
10000602:	74 04                	je     10000608 <handleMouse+0x159>
10000604:	b0 0d                	mov    al,0xd
10000606:	eb 02                	jmp    1000060a <handleMouse+0x15b>
10000608:	b0 06                	mov    al,0x6
1000060a:	88 45 d0             	mov    BYTE PTR [ebp-0x30],al
1000060d:	a1 00 00 00 00       	mov    eax,ds:0x0	1000060e: R_386_32	mouse_x
10000612:	66 89 45 d8          	mov    WORD PTR [ebp-0x28],ax
10000616:	a1 00 00 00 00       	mov    eax,ds:0x0	10000617: R_386_32	mouse_y
1000061b:	66 89 45 da          	mov    WORD PTR [ebp-0x26],ax
1000061f:	8b 45 d4             	mov    eax,DWORD PTR [ebp-0x2c]
10000622:	89 45 c4             	mov    DWORD PTR [ebp-0x3c],eax
10000625:	83 ec 08             	sub    esp,0x8
10000628:	83 ec 14             	sub    esp,0x14
1000062b:	89 e0                	mov    eax,esp
1000062d:	89 c3                	mov    ebx,eax
1000062f:	8d 45 d0             	lea    eax,[ebp-0x30]
10000632:	ba 05 00 00 00       	mov    edx,0x5
10000637:	89 df                	mov    edi,ebx
10000639:	89 c6                	mov    esi,eax
1000063b:	89 d1                	mov    ecx,edx
1000063d:	f3 a5                	rep movs DWORD PTR es:[edi],DWORD PTR ds:[esi]
1000063f:	ff 75 c4             	push   DWORD PTR [ebp-0x3c]
10000642:	e8 fc ff ff ff       	call   10000643 <handleMouse+0x194>	10000643: R_386_PC32	dispatchMessage
10000647:	83 c4 20             	add    esp,0x20
1000064a:	a1 00 00 00 00       	mov    eax,ds:0x0	1000064b: R_386_32	nanoSinceBoot
1000064f:	8b 15 04 00 00 00    	mov    edx,DWORD PTR ds:0x4	10000651: R_386_32	nanoSinceBoot
10000655:	a3 00 00 00 00       	mov    ds:0x0,eax	10000656: R_386_32	lastClick
1000065a:	89 15 04 00 00 00    	mov    DWORD PTR ds:0x4,edx	1000065c: R_386_32	lastClick
10000660:	8b 45 10             	mov    eax,DWORD PTR [ebp+0x10]
10000663:	a3 00 00 00 00       	mov    ds:0x0,eax	10000664: R_386_32	prevBtns
10000668:	90                   	nop
10000669:	8d 65 f4             	lea    esp,[ebp-0xc]
1000066c:	5b                   	pop    ebx
1000066d:	5e                   	pop    esi
1000066e:	5f                   	pop    edi
1000066f:	5d                   	pop    ebp
10000670:	c3                   	ret    

10000671 <debugwrite>:
10000671:	55                   	push   ebp
10000672:	89 e5                	mov    ebp,esp
10000674:	83 ec 08             	sub    esp,0x8
10000677:	83 ec 0c             	sub    esp,0xc
1000067a:	ff 75 08             	push   DWORD PTR [ebp+0x8]
1000067d:	e8 fc ff ff ff       	call   1000067e <debugwrite+0xd>	1000067e: R_386_PC32	Dbg::kprintf(char const*, ...)
10000682:	83 c4 10             	add    esp,0x10
10000685:	90                   	nop
10000686:	c9                   	leave  
10000687:	c3                   	ret    

10000688 <debugwritestrhx>:
10000688:	55                   	push   ebp
10000689:	89 e5                	mov    ebp,esp
1000068b:	83 ec 08             	sub    esp,0x8
1000068e:	83 ec 04             	sub    esp,0x4
10000691:	ff 75 0c             	push   DWORD PTR [ebp+0xc]
10000694:	ff 75 08             	push   DWORD PTR [ebp+0x8]
10000697:	68 93 3a 00 10       	push   0x10003a93	10000698: R_386_32	.text
1000069c:	e8 fc ff ff ff       	call   1000069d <debugwritestrhx+0x15>	1000069d: R_386_PC32	Dbg::kprintf(char const*, ...)
100006a1:	83 c4 10             	add    esp,0x10
100006a4:	90                   	nop
100006a5:	c9                   	leave  
100006a6:	c3                   	ret    

100006a7 <faulthandler()>:
100006a7:	90                   	nop
100006a8:	c3                   	ret    

100006a9 <panichandler()>:
100006a9:	55                   	push   ebp
100006aa:	89 e5                	mov    ebp,esp
100006ac:	57                   	push   edi
100006ad:	56                   	push   esi
100006ae:	53                   	push   ebx
100006af:	83 ec 5c             	sub    esp,0x5c
100006b2:	8d 45 9c             	lea    eax,[ebp-0x64]
100006b5:	bb a0 3a 00 10       	mov    ebx,0x10003aa0	100006b6: R_386_32	.text
100006ba:	ba 10 00 00 00       	mov    edx,0x10
100006bf:	89 c7                	mov    edi,eax
100006c1:	89 de                	mov    esi,ebx
100006c3:	89 d1                	mov    ecx,edx
100006c5:	f3 a5                	rep movs DWORD PTR es:[edi],DWORD PTR ds:[esi]
100006c7:	c7 45 dc 00 00 00 00 	mov    DWORD PTR [ebp-0x24],0x0
100006ce:	c7 45 e4 00 00 00 00 	mov    DWORD PTR [ebp-0x1c],0x0
100006d5:	81 7d e4 df 01 00 00 	cmp    DWORD PTR [ebp-0x1c],0x1df
100006dc:	7f 67                	jg     10000745 <panichandler()+0x9c>
100006de:	c7 45 e0 00 00 00 00 	mov    DWORD PTR [ebp-0x20],0x0
100006e5:	81 7d e0 3f 01 00 00 	cmp    DWORD PTR [ebp-0x20],0x13f
100006ec:	7f 52                	jg     10000740 <panichandler()+0x97>
100006ee:	8b 15 00 00 00 00    	mov    edx,DWORD PTR ds:0x0	100006f0: R_386_32	screen
100006f4:	a1 00 00 00 00       	mov    eax,ds:0x0	100006f5: R_386_32	screen
100006f9:	8b 00                	mov    eax,DWORD PTR [eax]
100006fb:	83 c0 24             	add    eax,0x24
100006fe:	8b 00                	mov    eax,DWORD PTR [eax]
10000700:	8b 4d e0             	mov    ecx,DWORD PTR [ebp-0x20]
10000703:	01 c9                	add    ecx,ecx
10000705:	68 e0 00 00 00       	push   0xe0
1000070a:	ff 75 e4             	push   DWORD PTR [ebp-0x1c]
1000070d:	51                   	push   ecx
1000070e:	52                   	push   edx
1000070f:	ff d0                	call   eax
10000711:	83 c4 10             	add    esp,0x10
10000714:	8b 15 00 00 00 00    	mov    edx,DWORD PTR ds:0x0	10000716: R_386_32	screen
1000071a:	a1 00 00 00 00       	mov    eax,ds:0x0	1000071b: R_386_32	screen
1000071f:	8b 00                	mov    eax,DWORD PTR [eax]
10000721:	83 c0 24             	add    eax,0x24
10000724:	8b 00                	mov    eax,DWORD PTR [eax]
10000726:	8b 4d e0             	mov    ecx,DWORD PTR [ebp-0x20]
10000729:	01 c9                	add    ecx,ecx
1000072b:	41                   	inc    ecx
1000072c:	68 e0 00 00 00       	push   0xe0
10000731:	ff 75 e4             	push   DWORD PTR [ebp-0x1c]
10000734:	51                   	push   ecx
10000735:	52                   	push   edx
10000736:	ff d0                	call   eax
10000738:	83 c4 10             	add    esp,0x10
1000073b:	ff 45 e0             	inc    DWORD PTR [ebp-0x20]
1000073e:	eb a5                	jmp    100006e5 <panichandler()+0x3c>
10000740:	ff 45 e4             	inc    DWORD PTR [ebp-0x1c]
10000743:	eb 90                	jmp    100006d5 <panichandler()+0x2c>
10000745:	90                   	nop
10000746:	8d 65 f4             	lea    esp,[ebp-0xc]
10000749:	5b                   	pop    ebx
1000074a:	5e                   	pop    esi
1000074b:	5f                   	pop    edi
1000074c:	5d                   	pop    ebp
1000074d:	c3                   	ret    

1000074e <main>:
1000074e:	8d 4c 24 04          	lea    ecx,[esp+0x4]
10000752:	83 e4 f0             	and    esp,0xfffffff0
10000755:	ff 71 fc             	push   DWORD PTR [ecx-0x4]
10000758:	55                   	push   ebp
10000759:	89 e5                	mov    ebp,esp
1000075b:	57                   	push   edi
1000075c:	56                   	push   esi
1000075d:	53                   	push   ebx
1000075e:	51                   	push   ecx
1000075f:	81 ec 58 01 00 00    	sub    esp,0x158
10000765:	c7 05 bc 00 00 00 00 00 00 00 	mov    DWORD PTR ds:0xbc,0x0	10000767: R_386_32	systemCallHandlers
	1000076b: R_386_32	sysWSBE
1000076f:	83 ec 0c             	sub    esp,0xc
10000772:	68 3f 07 00 00       	push   0x73f
10000777:	e8 fc ff ff ff       	call   10000778 <main+0x2a>	10000778: R_386_PC32	operator new(unsigned long)
1000077c:	83 c4 10             	add    esp,0x10
1000077f:	89 c3                	mov    ebx,eax
10000781:	6a 00                	push   0x0
10000783:	6a 00                	push   0x0
10000785:	68 e0 3a 00 10       	push   0x10003ae0	10000786: R_386_32	.text
1000078a:	53                   	push   ebx
1000078b:	e8 fc ff ff ff       	call   1000078c <main+0x3e>	1000078c: R_386_PC32	Process::Process(char const*, Process*, char**)
10000790:	83 c4 10             	add    esp,0x10
10000793:	89 5d e4             	mov    DWORD PTR [ebp-0x1c],ebx
10000796:	83 ec 0c             	sub    esp,0xc
10000799:	ff 75 e4             	push   DWORD PTR [ebp-0x1c]
1000079c:	e8 fc ff ff ff       	call   1000079d <main+0x4f>	1000079d: R_386_PC32	Process::createUserThread()
100007a1:	83 c4 10             	add    esp,0x10
100007a4:	c7 05 00 00 00 00 00 00 00 00 	mov    DWORD PTR ds:0x0,0x0	100007a6: R_386_32	Krnl::guiPanicHandler
	100007aa: R_386_32	panichandler()
100007ae:	c7 05 00 00 00 00 00 00 00 00 	mov    DWORD PTR ds:0x0,0x0	100007b0: R_386_32	Krnl::guiProgramFaultHandler
	100007b4: R_386_32	faulthandler()
100007b8:	83 ec 0c             	sub    esp,0xc
100007bb:	68 fc 3a 00 10       	push   0x10003afc	100007bc: R_386_32	.text
100007c0:	68 ff 00 00 00       	push   0xff
100007c5:	8d 85 d4 fe ff ff    	lea    eax,[ebp-0x12c]
100007cb:	50                   	push   eax
100007cc:	68 1b 3b 00 10       	push   0x10003b1b	100007cd: R_386_32	.text
100007d1:	68 2e 3b 00 10       	push   0x10003b2e	100007d2: R_386_32	.text
100007d6:	e8 fc ff ff ff       	call   100007d7 <main+0x89>	100007d7: R_386_PC32	Reg::readStringWithDefault(char*, char*, char*, int, char*)
100007db:	83 c4 20             	add    esp,0x20
100007de:	83 ec 0c             	sub    esp,0xc
100007e1:	68 14 01 00 00       	push   0x114
100007e6:	e8 fc ff ff ff       	call   100007e7 <main+0x99>	100007e7: R_386_PC32	operator new(unsigned long)
100007eb:	83 c4 10             	add    esp,0x10
100007ee:	89 c3                	mov    ebx,eax
100007f0:	a1 00 00 00 00       	mov    eax,ds:0x0	100007f1: R_386_32	kernelProcess
100007f5:	83 ec 04             	sub    esp,0x4
100007f8:	50                   	push   eax
100007f9:	8d 85 d4 fe ff ff    	lea    eax,[ebp-0x12c]
100007ff:	50                   	push   eax
10000800:	53                   	push   ebx
10000801:	e8 fc ff ff ff       	call   10000802 <main+0xb4>	10000802: R_386_PC32	File::File(char const*, Process*)
10000806:	83 c4 10             	add    esp,0x10
10000809:	89 5d e0             	mov    DWORD PTR [ebp-0x20],ebx
1000080c:	83 ec 04             	sub    esp,0x4
1000080f:	8d 85 c7 fe ff ff    	lea    eax,[ebp-0x139]
10000815:	50                   	push   eax
10000816:	8d 85 c8 fe ff ff    	lea    eax,[ebp-0x138]
1000081c:	50                   	push   eax
1000081d:	ff 75 e0             	push   DWORD PTR [ebp-0x20]
10000820:	e8 fc ff ff ff       	call   10000821 <main+0xd3>	10000821: R_386_PC32	File::stat(unsigned long long*, bool*)
10000825:	83 c4 10             	add    esp,0x10
10000828:	8b 85 c8 fe ff ff    	mov    eax,DWORD PTR [ebp-0x138]
1000082e:	8b 95 cc fe ff ff    	mov    edx,DWORD PTR [ebp-0x134]
10000834:	83 ec 0c             	sub    esp,0xc
10000837:	50                   	push   eax
10000838:	e8 fc ff ff ff       	call   10000839 <main+0xeb>	10000839: R_386_PC32	malloc
1000083d:	83 c4 10             	add    esp,0x10
10000840:	89 45 dc             	mov    DWORD PTR [ebp-0x24],eax
10000843:	83 ec 08             	sub    esp,0x8
10000846:	6a 01                	push   0x1
10000848:	ff 75 e0             	push   DWORD PTR [ebp-0x20]
1000084b:	e8 fc ff ff ff       	call   1000084c <main+0xfe>	1000084c: R_386_PC32	File::open(FileOpenMode)
10000850:	83 c4 10             	add    esp,0x10
10000853:	8b 45 e0             	mov    eax,DWORD PTR [ebp-0x20]
10000856:	8b 00                	mov    eax,DWORD PTR [eax]
10000858:	83 c0 0c             	add    eax,0xc
1000085b:	8b 08                	mov    ecx,DWORD PTR [eax]
1000085d:	8b 85 c8 fe ff ff    	mov    eax,DWORD PTR [ebp-0x138]
10000863:	8b 95 cc fe ff ff    	mov    edx,DWORD PTR [ebp-0x134]
10000869:	83 ec 0c             	sub    esp,0xc
1000086c:	8d 5d d4             	lea    ebx,[ebp-0x2c]
1000086f:	53                   	push   ebx
10000870:	ff 75 dc             	push   DWORD PTR [ebp-0x24]
10000873:	52                   	push   edx
10000874:	50                   	push   eax
10000875:	ff 75 e0             	push   DWORD PTR [ebp-0x20]
10000878:	ff d1                	call   ecx
1000087a:	83 c4 20             	add    esp,0x20
1000087d:	83 ec 0c             	sub    esp,0xc
10000880:	ff 75 e0             	push   DWORD PTR [ebp-0x20]
10000883:	e8 fc ff ff ff       	call   10000884 <main+0x136>	10000884: R_386_PC32	File::close()
10000888:	83 c4 10             	add    esp,0x10
1000088b:	8b 0d 00 00 00 00    	mov    ecx,DWORD PTR ds:0x0	1000088d: R_386_32	screen
10000891:	8b 85 c8 fe ff ff    	mov    eax,DWORD PTR [ebp-0x138]
10000897:	8b 95 cc fe ff ff    	mov    edx,DWORD PTR [ebp-0x134]
1000089d:	89 c2                	mov    edx,eax
1000089f:	83 ec 0c             	sub    esp,0xc
100008a2:	8d 85 bc fe ff ff    	lea    eax,[ebp-0x144]
100008a8:	50                   	push   eax
100008a9:	8d 85 c0 fe ff ff    	lea    eax,[ebp-0x140]
100008af:	50                   	push   eax
100008b0:	52                   	push   edx
100008b1:	ff 75 dc             	push   DWORD PTR [ebp-0x24]
100008b4:	51                   	push   ecx
100008b5:	e8 fc ff ff ff       	call   100008b6 <main+0x168>	100008b6: R_386_PC32	Video::tgaParse(unsigned char*, int, int*, int*)
100008ba:	83 c4 20             	add    esp,0x20
100008bd:	a3 00 00 00 00       	mov    ds:0x0,eax	100008be: R_386_32	parsedTGA
100008c2:	8b 95 bc fe ff ff    	mov    edx,DWORD PTR [ebp-0x144]
100008c8:	8b 85 c0 fe ff ff    	mov    eax,DWORD PTR [ebp-0x140]
100008ce:	83 ec 04             	sub    esp,0x4
100008d1:	52                   	push   edx
100008d2:	50                   	push   eax
100008d3:	68 33 3b 00 10       	push   0x10003b33	100008d4: R_386_32	.text
100008d8:	e8 fc ff ff ff       	call   100008d9 <main+0x18b>	100008d9: R_386_PC32	Dbg::kprintf(char const*, ...)
100008dd:	83 c4 10             	add    esp,0x10
100008e0:	8b 85 c0 fe ff ff    	mov    eax,DWORD PTR [ebp-0x140]
100008e6:	a3 00 00 00 00       	mov    ds:0x0,eax	100008e7: R_386_32	desktopImageWidth
100008eb:	8b 85 bc fe ff ff    	mov    eax,DWORD PTR [ebp-0x144]
100008f1:	a3 00 00 00 00       	mov    ds:0x0,eax	100008f2: R_386_32	desktopImageHeight
100008f6:	c6 05 00 00 00 00 00 	mov    BYTE PTR ds:0x0,0x0	100008f8: R_386_32	canDoMouse
100008fd:	e8 fc ff ff ff       	call   100008fe <main+0x1b0>	100008fe: R_386_PC32	loadCursors()
10000902:	e8 fc ff ff ff       	call   10000903 <main+0x1b5>	10000903: R_386_PC32	loadbuiltinfonts
10000907:	83 ec 04             	sub    esp,0x4
1000090a:	6a 00                	push   0x0
1000090c:	68 45 3b 00 10       	push   0x10003b45	1000090d: R_386_32	.text
10000911:	68 2e 3b 00 10       	push   0x10003b2e	10000912: R_386_32	.text
10000916:	e8 fc ff ff ff       	call   10000917 <main+0x1c9>	10000917: R_386_PC32	Reg::readIntWithDefault(char*, char*, int)
1000091b:	83 c4 10             	add    esp,0x10
1000091e:	85 c0                	test   eax,eax
10000920:	0f 94 c0             	sete   al
10000923:	a2 00 00 00 00       	mov    ds:0x0,al	10000924: R_386_32	desktopUseBgCol
10000928:	83 ec 04             	sub    esp,0x4
1000092b:	68 80 80 00 00       	push   0x8080
10000930:	68 5d 3b 00 10       	push   0x10003b5d	10000931: R_386_32	.text
10000935:	68 2e 3b 00 10       	push   0x10003b2e	10000936: R_386_32	.text
1000093a:	e8 fc ff ff ff       	call   1000093b <main+0x1ed>	1000093b: R_386_PC32	Reg::readIntWithDefault(char*, char*, int)
1000093f:	83 c4 10             	add    esp,0x10
10000942:	a3 00 00 00 00       	mov    ds:0x0,eax	10000943: R_386_32	desktopBgCol
10000947:	83 ec 04             	sub    esp,0x4
1000094a:	6a 00                	push   0x0
1000094c:	68 72 3b 00 10       	push   0x10003b72	1000094d: R_386_32	.text
10000951:	68 2e 3b 00 10       	push   0x10003b2e	10000952: R_386_32	.text
10000956:	e8 fc ff ff ff       	call   10000957 <main+0x209>	10000957: R_386_PC32	Reg::readIntWithDefault(char*, char*, int)
1000095b:	83 c4 10             	add    esp,0x10
1000095e:	85 c0                	test   eax,eax
10000960:	0f 95 c0             	setne  al
10000963:	a2 00 00 00 00       	mov    ds:0x0,al	10000964: R_386_32	invertMouse
10000968:	c7 05 00 00 00 00 00 00 00 00 	mov    DWORD PTR ds:0x0,0x0	1000096a: R_386_32	guiMouseHandler
	1000096e: R_386_32	handleMouse
10000972:	c7 05 00 00 00 00 00 00 00 00 	mov    DWORD PTR ds:0x0,0x0	10000974: R_386_32	guiKeyboardHandler
	10000978: R_386_32	handleKeyboard
1000097c:	83 ec 04             	sub    esp,0x4
1000097f:	6a 00                	push   0x0
10000981:	6a 00                	push   0x0
10000983:	6a 00                	push   0x0
10000985:	e8 fc ff ff ff       	call   10000986 <main+0x238>	10000986: R_386_PC32	Context_new
1000098a:	83 c4 10             	add    esp,0x10
1000098d:	89 45 d8             	mov    DWORD PTR [ebp-0x28],eax
10000990:	8b 45 d8             	mov    eax,DWORD PTR [ebp-0x28]
10000993:	c7 00 00 00 00 00    	mov    DWORD PTR [eax],0x0
10000999:	a1 00 00 00 00       	mov    eax,ds:0x0	1000099a: R_386_32	screen
1000099e:	83 ec 0c             	sub    esp,0xc
100009a1:	50                   	push   eax
100009a2:	e8 fc ff ff ff       	call   100009a3 <main+0x255>	100009a3: R_386_PC32	Video::getWidth()
100009a7:	83 c4 10             	add    esp,0x10
100009aa:	8b 55 d8             	mov    edx,DWORD PTR [ebp-0x28]
100009ad:	66 89 42 04          	mov    WORD PTR [edx+0x4],ax
100009b1:	a1 00 00 00 00       	mov    eax,ds:0x0	100009b2: R_386_32	screen
100009b6:	83 ec 0c             	sub    esp,0xc
100009b9:	50                   	push   eax
100009ba:	e8 fc ff ff ff       	call   100009bb <main+0x26d>	100009bb: R_386_PC32	Video::getHeight()
100009bf:	83 c4 10             	add    esp,0x10
100009c2:	8b 55 d8             	mov    edx,DWORD PTR [ebp-0x28]
100009c5:	66 89 42 06          	mov    WORD PTR [edx+0x6],ax
100009c9:	8b 45 d8             	mov    eax,DWORD PTR [ebp-0x28]
100009cc:	8b 40 04             	mov    eax,DWORD PTR [eax+0x4]
100009cf:	66 d1 e8             	shr    ax,1
100009d2:	0f b7 c0             	movzx  eax,ax
100009d5:	a3 00 00 00 00       	mov    ds:0x0,eax	100009d6: R_386_32	mouse_x
100009da:	8b 45 d8             	mov    eax,DWORD PTR [ebp-0x28]
100009dd:	66 8b 40 06          	mov    ax,WORD PTR [eax+0x6]
100009e1:	66 d1 e8             	shr    ax,1
100009e4:	0f b7 c0             	movzx  eax,ax
100009e7:	a3 00 00 00 00       	mov    ds:0x0,eax	100009e8: R_386_32	mouse_y
100009ec:	83 ec 0c             	sub    esp,0xc
100009ef:	ff 75 d8             	push   DWORD PTR [ebp-0x28]
100009f2:	e8 fc ff ff ff       	call   100009f3 <main+0x2a5>	100009f3: R_386_PC32	Desktop_new
100009f7:	83 c4 10             	add    esp,0x10
100009fa:	a3 00 00 00 00       	mov    ds:0x0,eax	100009fb: R_386_32	desktop
100009ff:	83 ec 08             	sub    esp,0x8
10000a02:	6a 00                	push   0x0
10000a04:	68 00 ca 9a 3b       	push   0x3b9aca00
10000a09:	e8 fc ff ff ff       	call   10000a0a <main+0x2bc>	10000a0a: R_386_PC32	nanoSleep(unsigned long long)
10000a0e:	83 c4 10             	add    esp,0x10
10000a11:	a1 00 00 00 00       	mov    eax,ds:0x0	10000a12: R_386_32	active_window
10000a16:	85 c0                	test   eax,eax
10000a18:	74 e5                	je     100009ff <main+0x2b1>
10000a1a:	a1 00 00 00 00       	mov    eax,ds:0x0	10000a1b: R_386_32	active_window
10000a1f:	89 85 ac fe ff ff    	mov    DWORD PTR [ebp-0x154],eax
10000a25:	c6 85 a8 fe ff ff 1c 	mov    BYTE PTR [ebp-0x158],0x1c
10000a2c:	8b 85 ac fe ff ff    	mov    eax,DWORD PTR [ebp-0x154]
10000a32:	89 85 a4 fe ff ff    	mov    DWORD PTR [ebp-0x15c],eax
10000a38:	83 ec 08             	sub    esp,0x8
10000a3b:	83 ec 14             	sub    esp,0x14
10000a3e:	89 e0                	mov    eax,esp
10000a40:	89 c3                	mov    ebx,eax
10000a42:	8d 85 a8 fe ff ff    	lea    eax,[ebp-0x158]
10000a48:	ba 05 00 00 00       	mov    edx,0x5
10000a4d:	89 df                	mov    edi,ebx
10000a4f:	89 c6                	mov    esi,eax
10000a51:	89 d1                	mov    ecx,edx
10000a53:	f3 a5                	rep movs DWORD PTR es:[edi],DWORD PTR ds:[esi]
10000a55:	ff b5 a4 fe ff ff    	push   DWORD PTR [ebp-0x15c]
10000a5b:	e8 fc ff ff ff       	call   10000a5c <main+0x30e>	10000a5c: R_386_PC32	dispatchMessage
10000a60:	83 c4 20             	add    esp,0x20
10000a63:	eb 9a                	jmp    100009ff <main+0x2b1>

10000a65 <Button_paint>:
10000a65:	55                   	push   ebp
10000a66:	89 e5                	mov    ebp,esp
10000a68:	57                   	push   edi
10000a69:	56                   	push   esi
10000a6a:	53                   	push   ebx
10000a6b:	83 ec 14             	sub    esp,0x14
10000a6e:	8b 5d 08             	mov    ebx,DWORD PTR [ebp+0x8]
10000a71:	68 bb bb bb 00       	push   0xbbbbbb
10000a76:	0f bf 43 0a          	movsx  eax,WORD PTR [ebx+0xa]
10000a7a:	48                   	dec    eax
10000a7b:	50                   	push   eax
10000a7c:	0f bf 43 08          	movsx  eax,WORD PTR [ebx+0x8]
10000a80:	48                   	dec    eax
10000a81:	50                   	push   eax
10000a82:	6a 01                	push   0x1
10000a84:	6a 01                	push   0x1
10000a86:	ff 73 10             	push   DWORD PTR [ebx+0x10]
10000a89:	e8 fc ff ff ff       	call   10000a8a <Button_paint+0x25>	10000a8a: R_386_PC32	Context_fill_rect
10000a8e:	83 c4 18             	add    esp,0x18
10000a91:	6a 00                	push   0x0
10000a93:	0f bf 43 0a          	movsx  eax,WORD PTR [ebx+0xa]
10000a97:	50                   	push   eax
10000a98:	0f bf 43 08          	movsx  eax,WORD PTR [ebx+0x8]
10000a9c:	50                   	push   eax
10000a9d:	6a 00                	push   0x0
10000a9f:	6a 00                	push   0x0
10000aa1:	ff 73 10             	push   DWORD PTR [ebx+0x10]
10000aa4:	e8 fc ff ff ff       	call   10000aa5 <Button_paint+0x40>	10000aa5: R_386_PC32	Context_draw_rect
10000aa9:	83 c4 18             	add    esp,0x18
10000aac:	68 ab ab ab 00       	push   0xababab
10000ab1:	0f bf 43 0a          	movsx  eax,WORD PTR [ebx+0xa]
10000ab5:	83 e8 06             	sub    eax,0x6
10000ab8:	50                   	push   eax
10000ab9:	0f bf 43 08          	movsx  eax,WORD PTR [ebx+0x8]
10000abd:	83 e8 06             	sub    eax,0x6
10000ac0:	50                   	push   eax
10000ac1:	6a 03                	push   0x3
10000ac3:	6a 03                	push   0x3
10000ac5:	ff 73 10             	push   DWORD PTR [ebx+0x10]
10000ac8:	e8 fc ff ff ff       	call   10000ac9 <Button_paint+0x64>	10000ac9: R_386_PC32	Context_draw_rect
10000acd:	83 c4 18             	add    esp,0x18
10000ad0:	68 ab ab ab 00       	push   0xababab
10000ad5:	0f bf 43 0a          	movsx  eax,WORD PTR [ebx+0xa]
10000ad9:	83 e8 08             	sub    eax,0x8
10000adc:	50                   	push   eax
10000add:	0f bf 43 08          	movsx  eax,WORD PTR [ebx+0x8]
10000ae1:	83 e8 08             	sub    eax,0x8
10000ae4:	50                   	push   eax
10000ae5:	6a 04                	push   0x4
10000ae7:	6a 04                	push   0x4
10000ae9:	ff 73 10             	push   DWORD PTR [ebx+0x10]
10000aec:	e8 fc ff ff ff       	call   10000aed <Button_paint+0x88>	10000aed: R_386_PC32	Context_draw_rect
10000af1:	8b 7b 50             	mov    edi,DWORD PTR [ebx+0x50]
10000af4:	83 c4 20             	add    esp,0x20
10000af7:	31 c9                	xor    ecx,ecx
10000af9:	80 3c 0f 00          	cmp    BYTE PTR [edi+ecx*1],0x0
10000afd:	74 03                	je     10000b02 <Button_paint+0x9d>
10000aff:	41                   	inc    ecx
10000b00:	eb f7                	jmp    10000af9 <Button_paint+0x94>
10000b02:	50                   	push   eax
10000b03:	50                   	push   eax
10000b04:	6a 00                	push   0x0
10000b06:	6a 00                	push   0x0
10000b08:	66 8b 43 0a          	mov    ax,WORD PTR [ebx+0xa]
10000b0c:	be 02 00 00 00       	mov    esi,0x2
10000b11:	89 c2                	mov    edx,eax
10000b13:	66 c1 fa 0f          	sar    dx,0xf
10000b17:	66 f7 fe             	idiv   si
10000b1a:	98                   	cwde   
10000b1b:	83 e8 06             	sub    eax,0x6
10000b1e:	50                   	push   eax
10000b1f:	8b 43 08             	mov    eax,DWORD PTR [ebx+0x8]
10000b22:	89 c2                	mov    edx,eax
10000b24:	66 c1 fa 0f          	sar    dx,0xf
10000b28:	66 f7 fe             	idiv   si
10000b2b:	0f bf f0             	movsx  esi,ax
10000b2e:	8d 04 cd 00 00 00 00 	lea    eax,[ecx*8+0x0]
10000b35:	b9 02 00 00 00       	mov    ecx,0x2
10000b3a:	99                   	cdq    
10000b3b:	f7 f9                	idiv   ecx
10000b3d:	29 c6                	sub    esi,eax
10000b3f:	56                   	push   esi
10000b40:	57                   	push   edi
10000b41:	ff 73 10             	push   DWORD PTR [ebx+0x10]
10000b44:	e8 fc ff ff ff       	call   10000b45 <Button_paint+0xe0>	10000b45: R_386_PC32	Context_draw_text
10000b49:	83 c4 20             	add    esp,0x20
10000b4c:	8d 65 f4             	lea    esp,[ebp-0xc]
10000b4f:	5b                   	pop    ebx
10000b50:	5e                   	pop    esi
10000b51:	5f                   	pop    edi
10000b52:	5d                   	pop    ebp
10000b53:	c3                   	ret    

10000b54 <Button_mousedown_handler>:
10000b54:	55                   	push   ebp
10000b55:	89 e5                	mov    ebp,esp
10000b57:	57                   	push   edi
10000b58:	56                   	push   esi
10000b59:	53                   	push   ebx
10000b5a:	83 ec 18             	sub    esp,0x18
10000b5d:	8b 5d 08             	mov    ebx,DWORD PTR [ebp+0x8]
10000b60:	8b 75 0c             	mov    esi,DWORD PTR [ebp+0xc]
10000b63:	8b 7d 10             	mov    edi,DWORD PTR [ebp+0x10]
10000b66:	0f bf 43 08          	movsx  eax,WORD PTR [ebx+0x8]
10000b6a:	48                   	dec    eax
10000b6b:	50                   	push   eax
10000b6c:	0f bf 43 0a          	movsx  eax,WORD PTR [ebx+0xa]
10000b70:	48                   	dec    eax
10000b71:	50                   	push   eax
10000b72:	6a 00                	push   0x0
10000b74:	6a 00                	push   0x0
10000b76:	53                   	push   ebx
10000b77:	e8 fc ff ff ff       	call   10000b78 <Button_mousedown_handler+0x24>	10000b78: R_386_PC32	Window_invalidate
10000b7c:	8b 83 c0 01 00 00    	mov    eax,DWORD PTR [ebx+0x1c0]
10000b82:	83 c4 20             	add    esp,0x20
10000b85:	85 c0                	test   eax,eax
10000b87:	74 12                	je     10000b9b <Button_mousedown_handler+0x47>
10000b89:	89 7d 10             	mov    DWORD PTR [ebp+0x10],edi
10000b8c:	89 75 0c             	mov    DWORD PTR [ebp+0xc],esi
10000b8f:	89 5d 08             	mov    DWORD PTR [ebp+0x8],ebx
10000b92:	8d 65 f4             	lea    esp,[ebp-0xc]
10000b95:	5b                   	pop    ebx
10000b96:	5e                   	pop    esi
10000b97:	5f                   	pop    edi
10000b98:	5d                   	pop    ebp
10000b99:	ff e0                	jmp    eax
10000b9b:	8d 65 f4             	lea    esp,[ebp-0xc]
10000b9e:	5b                   	pop    ebx
10000b9f:	5e                   	pop    esi
10000ba0:	5f                   	pop    edi
10000ba1:	5d                   	pop    ebp
10000ba2:	c3                   	ret    

10000ba3 <Button_new>:
10000ba3:	55                   	push   ebp
10000ba4:	89 e5                	mov    ebp,esp
10000ba6:	53                   	push   ebx
10000ba7:	83 ec 10             	sub    esp,0x10
10000baa:	68 c4 01 00 00       	push   0x1c4
10000baf:	e8 fc ff ff ff       	call   10000bb0 <Button_new+0xd>	10000bb0: R_386_PC32	malloc
10000bb4:	89 c3                	mov    ebx,eax
10000bb6:	83 c4 10             	add    esp,0x10
10000bb9:	85 c0                	test   eax,eax
10000bbb:	74 4e                	je     10000c0b <Button_new+0x68>
10000bbd:	50                   	push   eax
10000bbe:	6a 00                	push   0x0
10000bc0:	6a 01                	push   0x1
10000bc2:	0f b7 45 14          	movzx  eax,WORD PTR [ebp+0x14]
10000bc6:	50                   	push   eax
10000bc7:	0f b7 45 10          	movzx  eax,WORD PTR [ebp+0x10]
10000bcb:	50                   	push   eax
10000bcc:	0f bf 45 0c          	movsx  eax,WORD PTR [ebp+0xc]
10000bd0:	50                   	push   eax
10000bd1:	0f bf 45 08          	movsx  eax,WORD PTR [ebp+0x8]
10000bd5:	50                   	push   eax
10000bd6:	53                   	push   ebx
10000bd7:	e8 fc ff ff ff       	call   10000bd8 <Button_new+0x35>	10000bd8: R_386_PC32	Window_init
10000bdc:	83 c4 20             	add    esp,0x20
10000bdf:	85 c0                	test   eax,eax
10000be1:	75 10                	jne    10000bf3 <Button_new+0x50>
10000be3:	83 ec 0c             	sub    esp,0xc
10000be6:	53                   	push   ebx
10000be7:	e8 fc ff ff ff       	call   10000be8 <Button_new+0x45>	10000be8: R_386_PC32	free
10000bec:	83 c4 10             	add    esp,0x10
10000bef:	31 db                	xor    ebx,ebx
10000bf1:	eb 18                	jmp    10000c0b <Button_new+0x68>
10000bf3:	c7 43 30 00 00 00 00 	mov    DWORD PTR [ebx+0x30],0x0	10000bf6: R_386_32	Button_paint
10000bfa:	c7 43 34 00 00 00 00 	mov    DWORD PTR [ebx+0x34],0x0	10000bfd: R_386_32	Button_mousedown_handler
10000c01:	c7 83 c0 01 00 00 00 00 00 00 	mov    DWORD PTR [ebx+0x1c0],0x0
10000c0b:	89 d8                	mov    eax,ebx
10000c0d:	8b 5d fc             	mov    ebx,DWORD PTR [ebp-0x4]
10000c10:	c9                   	leave  
10000c11:	c3                   	ret    

10000c12 <Context_copy>:
10000c12:	55                   	push   ebp
10000c13:	89 e5                	mov    ebp,esp
10000c15:	56                   	push   esi
10000c16:	53                   	push   ebx
10000c17:	8b 75 08             	mov    esi,DWORD PTR [ebp+0x8]
10000c1a:	83 ec 0c             	sub    esp,0xc
10000c1d:	6a 18                	push   0x18
10000c1f:	e8 fc ff ff ff       	call   10000c20 <Context_copy+0xe>	10000c20: R_386_PC32	malloc
10000c24:	89 c3                	mov    ebx,eax
10000c26:	8b 0e                	mov    ecx,DWORD PTR [esi]
10000c28:	8a 46 14             	mov    al,BYTE PTR [esi+0x14]
10000c2b:	88 43 14             	mov    BYTE PTR [ebx+0x14],al
10000c2e:	8b 56 08             	mov    edx,DWORD PTR [esi+0x8]
10000c31:	8b 46 0c             	mov    eax,DWORD PTR [esi+0xc]
10000c34:	89 0b                	mov    DWORD PTR [ebx],ecx
10000c36:	8b 4e 04             	mov    ecx,DWORD PTR [esi+0x4]
10000c39:	89 4b 04             	mov    DWORD PTR [ebx+0x4],ecx
10000c3c:	89 53 08             	mov    DWORD PTR [ebx+0x8],edx
10000c3f:	89 43 0c             	mov    DWORD PTR [ebx+0xc],eax
10000c42:	58                   	pop    eax
10000c43:	ff 76 10             	push   DWORD PTR [esi+0x10]
10000c46:	e8 fc ff ff ff       	call   10000c47 <Context_copy+0x35>	10000c47: R_386_PC32	List_copy
10000c4b:	89 43 10             	mov    DWORD PTR [ebx+0x10],eax
10000c4e:	89 d8                	mov    eax,ebx
10000c50:	8d 65 f8             	lea    esp,[ebp-0x8]
10000c53:	5b                   	pop    ebx
10000c54:	5e                   	pop    esi
10000c55:	5d                   	pop    ebp
10000c56:	c3                   	ret    

10000c57 <Context_new>:
10000c57:	55                   	push   ebp
10000c58:	89 e5                	mov    ebp,esp
10000c5a:	57                   	push   edi
10000c5b:	56                   	push   esi
10000c5c:	53                   	push   ebx
10000c5d:	83 ec 18             	sub    esp,0x18
10000c60:	8b 7d 08             	mov    edi,DWORD PTR [ebp+0x8]
10000c63:	8b 75 0c             	mov    esi,DWORD PTR [ebp+0xc]
10000c66:	6a 18                	push   0x18
10000c68:	e8 fc ff ff ff       	call   10000c69 <Context_new+0x12>	10000c69: R_386_PC32	malloc
10000c6d:	89 c3                	mov    ebx,eax
10000c6f:	e8 fc ff ff ff       	call   10000c70 <Context_new+0x19>	10000c70: R_386_PC32	List_new
10000c74:	89 43 10             	mov    DWORD PTR [ebx+0x10],eax
10000c77:	66 89 7b 04          	mov    WORD PTR [ebx+0x4],di
10000c7b:	66 89 73 06          	mov    WORD PTR [ebx+0x6],si
10000c7f:	8b 45 10             	mov    eax,DWORD PTR [ebp+0x10]
10000c82:	89 03                	mov    DWORD PTR [ebx],eax
10000c84:	c6 43 14 00          	mov    BYTE PTR [ebx+0x14],0x0
10000c88:	89 d8                	mov    eax,ebx
10000c8a:	8d 65 f4             	lea    esp,[ebp-0xc]
10000c8d:	5b                   	pop    ebx
10000c8e:	5e                   	pop    esi
10000c8f:	5f                   	pop    edi
10000c90:	5d                   	pop    ebp
10000c91:	c3                   	ret    

10000c92 <Context_clipped_rect>:
10000c92:	55                   	push   ebp
10000c93:	89 e5                	mov    ebp,esp
10000c95:	57                   	push   edi
10000c96:	56                   	push   esi
10000c97:	53                   	push   ebx
10000c98:	83 ec 2c             	sub    esp,0x2c
10000c9b:	8b 4d 08             	mov    ecx,DWORD PTR [ebp+0x8]
10000c9e:	8b 45 0c             	mov    eax,DWORD PTR [ebp+0xc]
10000ca1:	8b 5d 14             	mov    ebx,DWORD PTR [ebp+0x14]
10000ca4:	89 5d dc             	mov    DWORD PTR [ebp-0x24],ebx
10000ca7:	8b 75 18             	mov    esi,DWORD PTR [ebp+0x18]
10000caa:	89 75 d4             	mov    DWORD PTR [ebp-0x2c],esi
10000cad:	8b 55 1c             	mov    edx,DWORD PTR [ebp+0x1c]
10000cb0:	8b 5d 20             	mov    ebx,DWORD PTR [ebp+0x20]
10000cb3:	89 5d e0             	mov    DWORD PTR [ebp-0x20],ebx
10000cb6:	8b 7d dc             	mov    edi,DWORD PTR [ebp-0x24]
10000cb9:	01 c7                	add    edi,eax
10000cbb:	03 75 10             	add    esi,DWORD PTR [ebp+0x10]
10000cbe:	89 75 e4             	mov    DWORD PTR [ebp-0x1c],esi
10000cc1:	8b 59 08             	mov    ebx,DWORD PTR [ecx+0x8]
10000cc4:	01 d8                	add    eax,ebx
10000cc6:	8b 49 0c             	mov    ecx,DWORD PTR [ecx+0xc]
10000cc9:	8b 75 10             	mov    esi,DWORD PTR [ebp+0x10]
10000ccc:	01 ce                	add    esi,ecx
10000cce:	89 75 d8             	mov    DWORD PTR [ebp-0x28],esi
10000cd1:	01 df                	add    edi,ebx
10000cd3:	03 4d e4             	add    ecx,DWORD PTR [ebp-0x1c]
10000cd6:	8b 72 04             	mov    esi,DWORD PTR [edx+0x4]
10000cd9:	89 75 e4             	mov    DWORD PTR [ebp-0x1c],esi
10000cdc:	39 c6                	cmp    esi,eax
10000cde:	7d 03                	jge    10000ce3 <Context_clipped_rect+0x51>
10000ce0:	89 45 e4             	mov    DWORD PTR [ebp-0x1c],eax
10000ce3:	8b 1a                	mov    ebx,DWORD PTR [edx]
10000ce5:	3b 5d d8             	cmp    ebx,DWORD PTR [ebp-0x28]
10000ce8:	7d 03                	jge    10000ced <Context_clipped_rect+0x5b>
10000cea:	8b 5d d8             	mov    ebx,DWORD PTR [ebp-0x28]
10000ced:	8b 42 0c             	mov    eax,DWORD PTR [edx+0xc]
10000cf0:	8d 70 01             	lea    esi,[eax+0x1]
10000cf3:	39 fe                	cmp    esi,edi
10000cf5:	7e 02                	jle    10000cf9 <Context_clipped_rect+0x67>
10000cf7:	89 fe                	mov    esi,edi
10000cf9:	8b 7a 08             	mov    edi,DWORD PTR [edx+0x8]
10000cfc:	47                   	inc    edi
10000cfd:	39 cf                	cmp    edi,ecx
10000cff:	7e 02                	jle    10000d03 <Context_clipped_rect+0x71>
10000d01:	89 cf                	mov    edi,ecx
10000d03:	3b 75 e4             	cmp    esi,DWORD PTR [ebp-0x1c]
10000d06:	0f 8e bf 00 00 00    	jle    10000dcb <Context_clipped_rect+0x139>
10000d0c:	39 df                	cmp    edi,ebx
10000d0e:	0f 8e b7 00 00 00    	jle    10000dcb <Context_clipped_rect+0x139>
10000d14:	8b 45 e0             	mov    eax,DWORD PTR [ebp-0x20]
10000d17:	c1 e8 18             	shr    eax,0x18
10000d1a:	83 e0 07             	and    eax,0x7
10000d1d:	83 7d dc 01          	cmp    DWORD PTR [ebp-0x24],0x1
10000d21:	75 3f                	jne    10000d62 <Context_clipped_rect+0xd0>
10000d23:	85 c0                	test   eax,eax
10000d25:	74 7e                	je     10000da5 <Context_clipped_rect+0x113>
10000d27:	8b 75 dc             	mov    esi,DWORD PTR [ebp-0x24]
10000d2a:	29 de                	sub    esi,ebx
10000d2c:	0f b6 88 00 00 00 00 	movzx  ecx,BYTE PTR [eax+0x0]	10000d2f: R_386_32	patterns
10000d33:	8d 14 1e             	lea    edx,[esi+ebx*1]
10000d36:	83 e2 07             	and    edx,0x7
10000d39:	0f a3 d1             	bt     ecx,edx
10000d3c:	73 1d                	jae    10000d5b <Context_clipped_rect+0xc9>
10000d3e:	89 45 dc             	mov    DWORD PTR [ebp-0x24],eax
10000d41:	52                   	push   edx
10000d42:	8b 55 e0             	mov    edx,DWORD PTR [ebp-0x20]
10000d45:	81 e2 ff ff ff 00    	and    edx,0xffffff
10000d4b:	52                   	push   edx
10000d4c:	53                   	push   ebx
10000d4d:	ff 75 e4             	push   DWORD PTR [ebp-0x1c]
10000d50:	e8 fc ff ff ff       	call   10000d51 <Context_clipped_rect+0xbf>	10000d51: R_386_PC32	screenputpixel
10000d55:	83 c4 10             	add    esp,0x10
10000d58:	8b 45 dc             	mov    eax,DWORD PTR [ebp-0x24]
10000d5b:	43                   	inc    ebx
10000d5c:	39 df                	cmp    edi,ebx
10000d5e:	7f cc                	jg     10000d2c <Context_clipped_rect+0x9a>
10000d60:	eb 69                	jmp    10000dcb <Context_clipped_rect+0x139>
10000d62:	85 c0                	test   eax,eax
10000d64:	74 3f                	je     10000da5 <Context_clipped_rect+0x113>
10000d66:	83 7d d4 01          	cmp    DWORD PTR [ebp-0x2c],0x1
10000d6a:	75 39                	jne    10000da5 <Context_clipped_rect+0x113>
10000d6c:	8b 7d e4             	mov    edi,DWORD PTR [ebp-0x1c]
10000d6f:	0f b6 88 00 00 00 00 	movzx  ecx,BYTE PTR [eax+0x0]	10000d72: R_386_32	patterns
10000d76:	89 fa                	mov    edx,edi
10000d78:	2b 55 e4             	sub    edx,DWORD PTR [ebp-0x1c]
10000d7b:	83 e2 07             	and    edx,0x7
10000d7e:	0f a3 d1             	bt     ecx,edx
10000d81:	73 1b                	jae    10000d9e <Context_clipped_rect+0x10c>
10000d83:	89 45 dc             	mov    DWORD PTR [ebp-0x24],eax
10000d86:	50                   	push   eax
10000d87:	8b 55 e0             	mov    edx,DWORD PTR [ebp-0x20]
10000d8a:	81 e2 ff ff ff 00    	and    edx,0xffffff
10000d90:	52                   	push   edx
10000d91:	53                   	push   ebx
10000d92:	57                   	push   edi
10000d93:	e8 fc ff ff ff       	call   10000d94 <Context_clipped_rect+0x102>	10000d94: R_386_PC32	screenputpixel
10000d98:	83 c4 10             	add    esp,0x10
10000d9b:	8b 45 dc             	mov    eax,DWORD PTR [ebp-0x24]
10000d9e:	47                   	inc    edi
10000d9f:	39 fe                	cmp    esi,edi
10000da1:	7f cc                	jg     10000d6f <Context_clipped_rect+0xdd>
10000da3:	eb 26                	jmp    10000dcb <Context_clipped_rect+0x139>
10000da5:	8b 45 e0             	mov    eax,DWORD PTR [ebp-0x20]
10000da8:	25 ff ff ff 00       	and    eax,0xffffff
10000dad:	89 45 18             	mov    DWORD PTR [ebp+0x18],eax
10000db0:	89 7d 14             	mov    DWORD PTR [ebp+0x14],edi
10000db3:	89 75 10             	mov    DWORD PTR [ebp+0x10],esi
10000db6:	89 5d 0c             	mov    DWORD PTR [ebp+0xc],ebx
10000db9:	8b 45 e4             	mov    eax,DWORD PTR [ebp-0x1c]
10000dbc:	89 45 08             	mov    DWORD PTR [ebp+0x8],eax
10000dbf:	8d 65 f4             	lea    esp,[ebp-0xc]
10000dc2:	5b                   	pop    ebx
10000dc3:	5e                   	pop    esi
10000dc4:	5f                   	pop    edi
10000dc5:	5d                   	pop    ebp
10000dc6:	e9 fc ff ff ff       	jmp    10000dc7 <Context_clipped_rect+0x135>	10000dc7: R_386_PC32	screenputrect
10000dcb:	8d 65 f4             	lea    esp,[ebp-0xc]
10000dce:	5b                   	pop    ebx
10000dcf:	5e                   	pop    esi
10000dd0:	5f                   	pop    edi
10000dd1:	5d                   	pop    ebp
10000dd2:	c3                   	ret    

10000dd3 <Context_fill_rect>:
10000dd3:	55                   	push   ebp
10000dd4:	89 e5                	mov    ebp,esp
10000dd6:	57                   	push   edi
10000dd7:	56                   	push   esi
10000dd8:	53                   	push   ebx
10000dd9:	83 ec 2c             	sub    esp,0x2c
10000ddc:	8b 5d 08             	mov    ebx,DWORD PTR [ebp+0x8]
10000ddf:	8b 75 0c             	mov    esi,DWORD PTR [ebp+0xc]
10000de2:	8b 55 10             	mov    edx,DWORD PTR [ebp+0x10]
10000de5:	8b 7d 14             	mov    edi,DWORD PTR [ebp+0x14]
10000de8:	01 f7                	add    edi,esi
10000dea:	8b 45 18             	mov    eax,DWORD PTR [ebp+0x18]
10000ded:	01 d0                	add    eax,edx
10000def:	89 45 d0             	mov    DWORD PTR [ebp-0x30],eax
10000df2:	0f b7 43 04          	movzx  eax,WORD PTR [ebx+0x4]
10000df6:	89 45 d4             	mov    DWORD PTR [ebp-0x2c],eax
10000df9:	0f b7 43 06          	movzx  eax,WORD PTR [ebx+0x6]
10000dfd:	85 f6                	test   esi,esi
10000dff:	79 02                	jns    10000e03 <Context_fill_rect+0x30>
10000e01:	31 f6                	xor    esi,esi
10000e03:	85 d2                	test   edx,edx
10000e05:	79 02                	jns    10000e09 <Context_fill_rect+0x36>
10000e07:	31 d2                	xor    edx,edx
10000e09:	8b 4d d4             	mov    ecx,DWORD PTR [ebp-0x2c]
10000e0c:	39 f9                	cmp    ecx,edi
10000e0e:	7e 02                	jle    10000e12 <Context_fill_rect+0x3f>
10000e10:	89 f9                	mov    ecx,edi
10000e12:	29 f1                	sub    ecx,esi
10000e14:	89 4d cc             	mov    DWORD PTR [ebp-0x34],ecx
10000e17:	89 c7                	mov    edi,eax
10000e19:	3b 45 d0             	cmp    eax,DWORD PTR [ebp-0x30]
10000e1c:	7e 03                	jle    10000e21 <Context_fill_rect+0x4e>
10000e1e:	8b 7d d0             	mov    edi,DWORD PTR [ebp-0x30]
10000e21:	29 d7                	sub    edi,edx
10000e23:	8b 4b 10             	mov    ecx,DWORD PTR [ebx+0x10]
10000e26:	83 39 00             	cmp    DWORD PTR [ecx],0x0
10000e29:	74 3a                	je     10000e65 <Context_fill_rect+0x92>
10000e2b:	31 c9                	xor    ecx,ecx
10000e2d:	8b 43 10             	mov    eax,DWORD PTR [ebx+0x10]
10000e30:	39 08                	cmp    DWORD PTR [eax],ecx
10000e32:	76 67                	jbe    10000e9b <Context_fill_rect+0xc8>
10000e34:	89 55 d4             	mov    DWORD PTR [ebp-0x2c],edx
10000e37:	52                   	push   edx
10000e38:	52                   	push   edx
10000e39:	51                   	push   ecx
10000e3a:	89 4d d0             	mov    DWORD PTR [ebp-0x30],ecx
10000e3d:	50                   	push   eax
10000e3e:	e8 fc ff ff ff       	call   10000e3f <Context_fill_rect+0x6c>	10000e3f: R_386_PC32	List_get_at
10000e43:	83 c4 0c             	add    esp,0xc
10000e46:	ff 75 1c             	push   DWORD PTR [ebp+0x1c]
10000e49:	50                   	push   eax
10000e4a:	57                   	push   edi
10000e4b:	ff 75 cc             	push   DWORD PTR [ebp-0x34]
10000e4e:	8b 55 d4             	mov    edx,DWORD PTR [ebp-0x2c]
10000e51:	52                   	push   edx
10000e52:	56                   	push   esi
10000e53:	53                   	push   ebx
10000e54:	e8 fc ff ff ff       	call   10000e55 <Context_fill_rect+0x82>	10000e55: R_386_PC32	Context_clipped_rect
10000e59:	8b 4d d0             	mov    ecx,DWORD PTR [ebp-0x30]
10000e5c:	41                   	inc    ecx
10000e5d:	83 c4 20             	add    esp,0x20
10000e60:	8b 55 d4             	mov    edx,DWORD PTR [ebp-0x2c]
10000e63:	eb c8                	jmp    10000e2d <Context_fill_rect+0x5a>
10000e65:	80 7b 14 00          	cmp    BYTE PTR [ebx+0x14],0x0
10000e69:	75 30                	jne    10000e9b <Context_fill_rect+0xc8>
10000e6b:	c7 45 d8 00 00 00 00 	mov    DWORD PTR [ebp-0x28],0x0
10000e72:	c7 45 dc 00 00 00 00 	mov    DWORD PTR [ebp-0x24],0x0
10000e79:	48                   	dec    eax
10000e7a:	89 45 e0             	mov    DWORD PTR [ebp-0x20],eax
10000e7d:	8b 45 d4             	mov    eax,DWORD PTR [ebp-0x2c]
10000e80:	48                   	dec    eax
10000e81:	89 45 e4             	mov    DWORD PTR [ebp-0x1c],eax
10000e84:	50                   	push   eax
10000e85:	ff 75 1c             	push   DWORD PTR [ebp+0x1c]
10000e88:	8d 45 d8             	lea    eax,[ebp-0x28]
10000e8b:	50                   	push   eax
10000e8c:	57                   	push   edi
10000e8d:	ff 75 cc             	push   DWORD PTR [ebp-0x34]
10000e90:	52                   	push   edx
10000e91:	56                   	push   esi
10000e92:	53                   	push   ebx
10000e93:	e8 fc ff ff ff       	call   10000e94 <Context_fill_rect+0xc1>	10000e94: R_386_PC32	Context_clipped_rect
10000e98:	83 c4 20             	add    esp,0x20
10000e9b:	8d 65 f4             	lea    esp,[ebp-0xc]
10000e9e:	5b                   	pop    ebx
10000e9f:	5e                   	pop    esi
10000ea0:	5f                   	pop    edi
10000ea1:	5d                   	pop    ebp
10000ea2:	c3                   	ret    

10000ea3 <Context_horizontal_line>:
10000ea3:	55                   	push   ebp
10000ea4:	89 e5                	mov    ebp,esp
10000ea6:	83 ec 08             	sub    esp,0x8
10000ea9:	8b 45 18             	mov    eax,DWORD PTR [ebp+0x18]
10000eac:	89 c2                	mov    edx,eax
10000eae:	c1 ea 1b             	shr    edx,0x1b
10000eb1:	75 05                	jne    10000eb8 <Context_horizontal_line+0x15>
10000eb3:	ba 01 00 00 00       	mov    edx,0x1
10000eb8:	51                   	push   ecx
10000eb9:	51                   	push   ecx
10000eba:	50                   	push   eax
10000ebb:	52                   	push   edx
10000ebc:	ff 75 14             	push   DWORD PTR [ebp+0x14]
10000ebf:	ff 75 10             	push   DWORD PTR [ebp+0x10]
10000ec2:	ff 75 0c             	push   DWORD PTR [ebp+0xc]
10000ec5:	ff 75 08             	push   DWORD PTR [ebp+0x8]
10000ec8:	e8 fc ff ff ff       	call   10000ec9 <Context_horizontal_line+0x26>	10000ec9: R_386_PC32	Context_fill_rect
10000ecd:	83 c4 20             	add    esp,0x20
10000ed0:	c9                   	leave  
10000ed1:	c3                   	ret    

10000ed2 <Context_vertical_line>:
10000ed2:	55                   	push   ebp
10000ed3:	89 e5                	mov    ebp,esp
10000ed5:	83 ec 08             	sub    esp,0x8
10000ed8:	8b 45 18             	mov    eax,DWORD PTR [ebp+0x18]
10000edb:	89 c2                	mov    edx,eax
10000edd:	c1 ea 1b             	shr    edx,0x1b
10000ee0:	75 05                	jne    10000ee7 <Context_vertical_line+0x15>
10000ee2:	ba 01 00 00 00       	mov    edx,0x1
10000ee7:	51                   	push   ecx
10000ee8:	51                   	push   ecx
10000ee9:	50                   	push   eax
10000eea:	ff 75 14             	push   DWORD PTR [ebp+0x14]
10000eed:	52                   	push   edx
10000eee:	ff 75 10             	push   DWORD PTR [ebp+0x10]
10000ef1:	ff 75 0c             	push   DWORD PTR [ebp+0xc]
10000ef4:	ff 75 08             	push   DWORD PTR [ebp+0x8]
10000ef7:	e8 fc ff ff ff       	call   10000ef8 <Context_vertical_line+0x26>	10000ef8: R_386_PC32	Context_fill_rect
10000efc:	83 c4 20             	add    esp,0x20
10000eff:	c9                   	leave  
10000f00:	c3                   	ret    

10000f01 <Context_draw_rect>:
10000f01:	55                   	push   ebp
10000f02:	89 e5                	mov    ebp,esp
10000f04:	57                   	push   edi
10000f05:	56                   	push   esi
10000f06:	53                   	push   ebx
10000f07:	83 ec 38             	sub    esp,0x38
10000f0a:	8b 7d 08             	mov    edi,DWORD PTR [ebp+0x8]
10000f0d:	8b 5d 0c             	mov    ebx,DWORD PTR [ebp+0xc]
10000f10:	8b 55 10             	mov    edx,DWORD PTR [ebp+0x10]
10000f13:	8b 45 14             	mov    eax,DWORD PTR [ebp+0x14]
10000f16:	89 45 e4             	mov    DWORD PTR [ebp-0x1c],eax
10000f19:	8b 45 18             	mov    eax,DWORD PTR [ebp+0x18]
10000f1c:	89 45 e0             	mov    DWORD PTR [ebp-0x20],eax
10000f1f:	8b 75 1c             	mov    esi,DWORD PTR [ebp+0x1c]
10000f22:	56                   	push   esi
10000f23:	ff 75 e4             	push   DWORD PTR [ebp-0x1c]
10000f26:	52                   	push   edx
10000f27:	89 55 dc             	mov    DWORD PTR [ebp-0x24],edx
10000f2a:	53                   	push   ebx
10000f2b:	57                   	push   edi
10000f2c:	e8 fc ff ff ff       	call   10000f2d <Context_draw_rect+0x2c>	10000f2d: R_386_PC32	Context_horizontal_line
10000f31:	8b 45 e0             	mov    eax,DWORD PTR [ebp-0x20]
10000f34:	83 e8 02             	sub    eax,0x2
10000f37:	8b 55 dc             	mov    edx,DWORD PTR [ebp-0x24]
10000f3a:	8d 4a 01             	lea    ecx,[edx+0x1]
10000f3d:	89 55 d4             	mov    DWORD PTR [ebp-0x2c],edx
10000f40:	83 c4 14             	add    esp,0x14
10000f43:	56                   	push   esi
10000f44:	50                   	push   eax
10000f45:	89 45 d8             	mov    DWORD PTR [ebp-0x28],eax
10000f48:	51                   	push   ecx
10000f49:	89 4d dc             	mov    DWORD PTR [ebp-0x24],ecx
10000f4c:	53                   	push   ebx
10000f4d:	57                   	push   edi
10000f4e:	e8 fc ff ff ff       	call   10000f4f <Context_draw_rect+0x4e>	10000f4f: R_386_PC32	Context_vertical_line
10000f53:	83 c4 14             	add    esp,0x14
10000f56:	56                   	push   esi
10000f57:	ff 75 e4             	push   DWORD PTR [ebp-0x1c]
10000f5a:	8b 45 e0             	mov    eax,DWORD PTR [ebp-0x20]
10000f5d:	8b 55 d4             	mov    edx,DWORD PTR [ebp-0x2c]
10000f60:	8d 54 02 ff          	lea    edx,[edx+eax*1-0x1]
10000f64:	52                   	push   edx
10000f65:	53                   	push   ebx
10000f66:	57                   	push   edi
10000f67:	e8 fc ff ff ff       	call   10000f68 <Context_draw_rect+0x67>	10000f68: R_386_PC32	Context_horizontal_line
10000f6c:	83 c4 20             	add    esp,0x20
10000f6f:	89 75 18             	mov    DWORD PTR [ebp+0x18],esi
10000f72:	8b 45 d8             	mov    eax,DWORD PTR [ebp-0x28]
10000f75:	89 45 14             	mov    DWORD PTR [ebp+0x14],eax
10000f78:	8b 4d dc             	mov    ecx,DWORD PTR [ebp-0x24]
10000f7b:	89 4d 10             	mov    DWORD PTR [ebp+0x10],ecx
10000f7e:	8b 45 e4             	mov    eax,DWORD PTR [ebp-0x1c]
10000f81:	8d 44 03 ff          	lea    eax,[ebx+eax*1-0x1]
10000f85:	89 45 0c             	mov    DWORD PTR [ebp+0xc],eax
10000f88:	89 7d 08             	mov    DWORD PTR [ebp+0x8],edi
10000f8b:	8d 65 f4             	lea    esp,[ebp-0xc]
10000f8e:	5b                   	pop    ebx
10000f8f:	5e                   	pop    esi
10000f90:	5f                   	pop    edi
10000f91:	5d                   	pop    ebp
10000f92:	e9 3b ff ff ff       	jmp    10000ed2 <Context_vertical_line>

10000f97 <Context_intersect_clip_rect>:
10000f97:	55                   	push   ebp
10000f98:	89 e5                	mov    ebp,esp
10000f9a:	57                   	push   edi
10000f9b:	56                   	push   esi
10000f9c:	53                   	push   ebx
10000f9d:	83 ec 1c             	sub    esp,0x1c
10000fa0:	8b 5d 08             	mov    ebx,DWORD PTR [ebp+0x8]
10000fa3:	8b 45 0c             	mov    eax,DWORD PTR [ebp+0xc]
10000fa6:	89 45 e4             	mov    DWORD PTR [ebp-0x1c],eax
10000fa9:	c6 43 14 01          	mov    BYTE PTR [ebx+0x14],0x1
10000fad:	e8 fc ff ff ff       	call   10000fae <Context_intersect_clip_rect+0x17>	10000fae: R_386_PC32	List_new
10000fb2:	85 c0                	test   eax,eax
10000fb4:	74 75                	je     1000102b <Context_intersect_clip_rect+0x94>
10000fb6:	89 c6                	mov    esi,eax
10000fb8:	31 ff                	xor    edi,edi
10000fba:	8b 43 10             	mov    eax,DWORD PTR [ebx+0x10]
10000fbd:	39 38                	cmp    DWORD PTR [eax],edi
10000fbf:	76 2a                	jbe    10000feb <Context_intersect_clip_rect+0x54>
10000fc1:	52                   	push   edx
10000fc2:	52                   	push   edx
10000fc3:	57                   	push   edi
10000fc4:	50                   	push   eax
10000fc5:	e8 fc ff ff ff       	call   10000fc6 <Context_intersect_clip_rect+0x2f>	10000fc6: R_386_PC32	List_get_at
10000fca:	59                   	pop    ecx
10000fcb:	5a                   	pop    edx
10000fcc:	ff 75 e4             	push   DWORD PTR [ebp-0x1c]
10000fcf:	50                   	push   eax
10000fd0:	e8 fc ff ff ff       	call   10000fd1 <Context_intersect_clip_rect+0x3a>	10000fd1: R_386_PC32	Rect_intersect
10000fd5:	83 c4 10             	add    esp,0x10
10000fd8:	85 c0                	test   eax,eax
10000fda:	74 0c                	je     10000fe8 <Context_intersect_clip_rect+0x51>
10000fdc:	51                   	push   ecx
10000fdd:	51                   	push   ecx
10000fde:	50                   	push   eax
10000fdf:	56                   	push   esi
10000fe0:	e8 fc ff ff ff       	call   10000fe1 <Context_intersect_clip_rect+0x4a>	10000fe1: R_386_PC32	List_add
10000fe5:	83 c4 10             	add    esp,0x10
10000fe8:	47                   	inc    edi
10000fe9:	eb cf                	jmp    10000fba <Context_intersect_clip_rect+0x23>
10000feb:	8b 43 10             	mov    eax,DWORD PTR [ebx+0x10]
10000fee:	83 38 00             	cmp    DWORD PTR [eax],0x0
10000ff1:	74 17                	je     1000100a <Context_intersect_clip_rect+0x73>
10000ff3:	52                   	push   edx
10000ff4:	52                   	push   edx
10000ff5:	6a 00                	push   0x0
10000ff7:	50                   	push   eax
10000ff8:	e8 fc ff ff ff       	call   10000ff9 <Context_intersect_clip_rect+0x62>	10000ff9: R_386_PC32	List_remove_at
10000ffd:	89 04 24             	mov    DWORD PTR [esp],eax
10001000:	e8 fc ff ff ff       	call   10001001 <Context_intersect_clip_rect+0x6a>	10001001: R_386_PC32	free
10001005:	83 c4 10             	add    esp,0x10
10001008:	eb e1                	jmp    10000feb <Context_intersect_clip_rect+0x54>
1000100a:	83 ec 0c             	sub    esp,0xc
1000100d:	50                   	push   eax
1000100e:	e8 fc ff ff ff       	call   1000100f <Context_intersect_clip_rect+0x78>	1000100f: R_386_PC32	free
10001013:	89 73 10             	mov    DWORD PTR [ebx+0x10],esi
10001016:	83 c4 10             	add    esp,0x10
10001019:	8b 45 e4             	mov    eax,DWORD PTR [ebp-0x1c]
1000101c:	89 45 08             	mov    DWORD PTR [ebp+0x8],eax
1000101f:	8d 65 f4             	lea    esp,[ebp-0xc]
10001022:	5b                   	pop    ebx
10001023:	5e                   	pop    esi
10001024:	5f                   	pop    edi
10001025:	5d                   	pop    ebp
10001026:	e9 fc ff ff ff       	jmp    10001027 <Context_intersect_clip_rect+0x90>	10001027: R_386_PC32	free
1000102b:	8d 65 f4             	lea    esp,[ebp-0xc]
1000102e:	5b                   	pop    ebx
1000102f:	5e                   	pop    esi
10001030:	5f                   	pop    edi
10001031:	5d                   	pop    ebp
10001032:	c3                   	ret    

10001033 <Context_subtract_clip_rect>:
10001033:	55                   	push   ebp
10001034:	89 e5                	mov    ebp,esp
10001036:	57                   	push   edi
10001037:	56                   	push   esi
10001038:	53                   	push   ebx
10001039:	83 ec 0c             	sub    esp,0xc
1000103c:	8b 75 0c             	mov    esi,DWORD PTR [ebp+0xc]
1000103f:	8b 45 08             	mov    eax,DWORD PTR [ebp+0x8]
10001042:	c6 40 14 01          	mov    BYTE PTR [eax+0x14],0x1
10001046:	31 db                	xor    ebx,ebx
10001048:	8b 45 08             	mov    eax,DWORD PTR [ebp+0x8]
1000104b:	8b 40 10             	mov    eax,DWORD PTR [eax+0x10]
1000104e:	39 18                	cmp    DWORD PTR [eax],ebx
10001050:	0f 86 83 00 00 00    	jbe    100010d9 <Context_subtract_clip_rect+0xa6>
10001056:	51                   	push   ecx
10001057:	51                   	push   ecx
10001058:	53                   	push   ebx
10001059:	50                   	push   eax
1000105a:	e8 fc ff ff ff       	call   1000105b <Context_subtract_clip_rect+0x28>	1000105b: R_386_PC32	List_get_at
1000105f:	89 c7                	mov    edi,eax
10001061:	83 c4 10             	add    esp,0x10
10001064:	8b 46 0c             	mov    eax,DWORD PTR [esi+0xc]
10001067:	39 47 04             	cmp    DWORD PTR [edi+0x4],eax
1000106a:	7f 16                	jg     10001082 <Context_subtract_clip_rect+0x4f>
1000106c:	8b 46 04             	mov    eax,DWORD PTR [esi+0x4]
1000106f:	39 47 0c             	cmp    DWORD PTR [edi+0xc],eax
10001072:	7c 0e                	jl     10001082 <Context_subtract_clip_rect+0x4f>
10001074:	8b 46 08             	mov    eax,DWORD PTR [esi+0x8]
10001077:	39 07                	cmp    DWORD PTR [edi],eax
10001079:	7f 07                	jg     10001082 <Context_subtract_clip_rect+0x4f>
1000107b:	8b 06                	mov    eax,DWORD PTR [esi]
1000107d:	39 47 08             	cmp    DWORD PTR [edi+0x8],eax
10001080:	7d 03                	jge    10001085 <Context_subtract_clip_rect+0x52>
10001082:	43                   	inc    ebx
10001083:	eb c3                	jmp    10001048 <Context_subtract_clip_rect+0x15>
10001085:	50                   	push   eax
10001086:	50                   	push   eax
10001087:	53                   	push   ebx
10001088:	8b 45 08             	mov    eax,DWORD PTR [ebp+0x8]
1000108b:	ff 70 10             	push   DWORD PTR [eax+0x10]
1000108e:	e8 fc ff ff ff       	call   1000108f <Context_subtract_clip_rect+0x5c>	1000108f: R_386_PC32	List_remove_at
10001093:	58                   	pop    eax
10001094:	5a                   	pop    edx
10001095:	56                   	push   esi
10001096:	57                   	push   edi
10001097:	e8 fc ff ff ff       	call   10001098 <Context_subtract_clip_rect+0x65>	10001098: R_386_PC32	Rect_split
1000109c:	89 c3                	mov    ebx,eax
1000109e:	89 3c 24             	mov    DWORD PTR [esp],edi
100010a1:	e8 fc ff ff ff       	call   100010a2 <Context_subtract_clip_rect+0x6f>	100010a2: R_386_PC32	free
100010a6:	83 c4 10             	add    esp,0x10
100010a9:	83 3b 00             	cmp    DWORD PTR [ebx],0x0
100010ac:	74 1a                	je     100010c8 <Context_subtract_clip_rect+0x95>
100010ae:	50                   	push   eax
100010af:	50                   	push   eax
100010b0:	6a 00                	push   0x0
100010b2:	53                   	push   ebx
100010b3:	e8 fc ff ff ff       	call   100010b4 <Context_subtract_clip_rect+0x81>	100010b4: R_386_PC32	List_remove_at
100010b8:	5a                   	pop    edx
100010b9:	59                   	pop    ecx
100010ba:	50                   	push   eax
100010bb:	8b 45 08             	mov    eax,DWORD PTR [ebp+0x8]
100010be:	ff 70 10             	push   DWORD PTR [eax+0x10]
100010c1:	e8 fc ff ff ff       	call   100010c2 <Context_subtract_clip_rect+0x8f>	100010c2: R_386_PC32	List_add
100010c6:	eb de                	jmp    100010a6 <Context_subtract_clip_rect+0x73>
100010c8:	83 ec 0c             	sub    esp,0xc
100010cb:	53                   	push   ebx
100010cc:	e8 fc ff ff ff       	call   100010cd <Context_subtract_clip_rect+0x9a>	100010cd: R_386_PC32	free
100010d1:	83 c4 10             	add    esp,0x10
100010d4:	e9 6d ff ff ff       	jmp    10001046 <Context_subtract_clip_rect+0x13>
100010d9:	8d 65 f4             	lea    esp,[ebp-0xc]
100010dc:	5b                   	pop    ebx
100010dd:	5e                   	pop    esi
100010de:	5f                   	pop    edi
100010df:	5d                   	pop    ebp
100010e0:	c3                   	ret    

100010e1 <Context_add_clip_rect>:
100010e1:	55                   	push   ebp
100010e2:	89 e5                	mov    ebp,esp
100010e4:	56                   	push   esi
100010e5:	53                   	push   ebx
100010e6:	8b 5d 08             	mov    ebx,DWORD PTR [ebp+0x8]
100010e9:	8b 75 0c             	mov    esi,DWORD PTR [ebp+0xc]
100010ec:	50                   	push   eax
100010ed:	50                   	push   eax
100010ee:	56                   	push   esi
100010ef:	53                   	push   ebx
100010f0:	e8 fc ff ff ff       	call   100010f1 <Context_add_clip_rect+0x10>	100010f1: R_386_PC32	Context_subtract_clip_rect
100010f5:	83 c4 10             	add    esp,0x10
100010f8:	89 75 0c             	mov    DWORD PTR [ebp+0xc],esi
100010fb:	8b 43 10             	mov    eax,DWORD PTR [ebx+0x10]
100010fe:	89 45 08             	mov    DWORD PTR [ebp+0x8],eax
10001101:	8d 65 f8             	lea    esp,[ebp-0x8]
10001104:	5b                   	pop    ebx
10001105:	5e                   	pop    esi
10001106:	5d                   	pop    ebp
10001107:	e9 fc ff ff ff       	jmp    10001108 <Context_add_clip_rect+0x27>	10001108: R_386_PC32	List_add

1000110c <Context_clear_clip_rects>:
1000110c:	55                   	push   ebp
1000110d:	89 e5                	mov    ebp,esp
1000110f:	53                   	push   ebx
10001110:	51                   	push   ecx
10001111:	8b 5d 08             	mov    ebx,DWORD PTR [ebp+0x8]
10001114:	c6 43 14 00          	mov    BYTE PTR [ebx+0x14],0x0
10001118:	8b 43 10             	mov    eax,DWORD PTR [ebx+0x10]
1000111b:	83 38 00             	cmp    DWORD PTR [eax],0x0
1000111e:	74 17                	je     10001137 <Context_clear_clip_rects+0x2b>
10001120:	52                   	push   edx
10001121:	52                   	push   edx
10001122:	6a 00                	push   0x0
10001124:	50                   	push   eax
10001125:	e8 fc ff ff ff       	call   10001126 <Context_clear_clip_rects+0x1a>	10001126: R_386_PC32	List_remove_at
1000112a:	89 04 24             	mov    DWORD PTR [esp],eax
1000112d:	e8 fc ff ff ff       	call   1000112e <Context_clear_clip_rects+0x22>	1000112e: R_386_PC32	free
10001132:	83 c4 10             	add    esp,0x10
10001135:	eb e1                	jmp    10001118 <Context_clear_clip_rects+0xc>
10001137:	8b 5d fc             	mov    ebx,DWORD PTR [ebp-0x4]
1000113a:	c9                   	leave  
1000113b:	c3                   	ret    

1000113c <reverse>:
1000113c:	55                   	push   ebp
1000113d:	89 e5                	mov    ebp,esp
1000113f:	8a 45 08             	mov    al,BYTE PTR [ebp+0x8]
10001142:	c0 c0 04             	rol    al,0x4
10001145:	0f b6 c0             	movzx  eax,al
10001148:	89 c2                	mov    edx,eax
1000114a:	c1 fa 02             	sar    edx,0x2
1000114d:	83 e2 33             	and    edx,0x33
10001150:	c1 e0 02             	shl    eax,0x2
10001153:	83 e0 cc             	and    eax,0xffffffcc
10001156:	09 c2                	or     edx,eax
10001158:	0f b6 d2             	movzx  edx,dl
1000115b:	89 d0                	mov    eax,edx
1000115d:	d1 f8                	sar    eax,1
1000115f:	83 e0 55             	and    eax,0x55
10001162:	01 d2                	add    edx,edx
10001164:	83 e2 aa             	and    edx,0xffffffaa
10001167:	09 d0                	or     eax,edx
10001169:	5d                   	pop    ebp
1000116a:	c3                   	ret    

1000116b <loadbuiltinfonts>:
1000116b:	55                   	push   ebp
1000116c:	89 e5                	mov    ebp,esp
1000116e:	57                   	push   edi
1000116f:	56                   	push   esi
10001170:	be 00 00 00 00       	mov    esi,0x0	10001171: R_386_32	systemFontBuiltin
10001175:	bf 00 00 00 00       	mov    edi,0x0	10001176: R_386_32	FONT
1000117a:	b9 04 04 00 00       	mov    ecx,0x404
1000117f:	f3 a5                	rep movs DWORD PTR es:[edi],DWORD PTR ds:[esi]
10001181:	b8 00 02 00 00       	mov    eax,0x200
10001186:	0f be 90 10 00 00 00 	movsx  edx,BYTE PTR [eax+0x10]	10001189: R_386_32	FONT
1000118d:	8a 88 1f 00 00 00    	mov    cl,BYTE PTR [eax+0x1f]	1000118f: R_386_32	FONT
10001193:	88 8a 00 00 00 00    	mov    BYTE PTR [edx+0x0],cl	10001195: R_386_32	FontWidths
10001199:	6b ca 1c             	imul   ecx,edx,0x1c
1000119c:	31 d2                	xor    edx,edx
1000119e:	0f b6 b4 10 11 00 00 00 	movzx  esi,BYTE PTR [eax+edx*1+0x11]	100011a2: R_386_32	FONT
100011a6:	66 89 b4 51 00 00 00 00 	mov    WORD PTR [ecx+edx*2+0x0],si	100011aa: R_386_32	Fonts
100011ae:	42                   	inc    edx
100011af:	83 fa 0e             	cmp    edx,0xe
100011b2:	75 ea                	jne    1000119e <loadbuiltinfonts+0x33>
100011b4:	83 c0 10             	add    eax,0x10
100011b7:	3d 00 08 00 00       	cmp    eax,0x800
100011bc:	75 c8                	jne    10001186 <loadbuiltinfonts+0x1b>
100011be:	c7 05 00 00 00 00 00 00 00 00 	mov    DWORD PTR ds:0x0,0x0	100011c0: R_386_32	System
100011c8:	5e                   	pop    esi
100011c9:	5f                   	pop    edi
100011ca:	5d                   	pop    ebp
100011cb:	c3                   	ret    

100011cc <Context_draw_bitmap_clipped>:
100011cc:	55                   	push   ebp
100011cd:	89 e5                	mov    ebp,esp
100011cf:	57                   	push   edi
100011d0:	56                   	push   esi
100011d1:	53                   	push   ebx
100011d2:	83 ec 1c             	sub    esp,0x1c
100011d5:	8b 4d 08             	mov    ecx,DWORD PTR [ebp+0x8]
100011d8:	8b 55 20             	mov    edx,DWORD PTR [ebp+0x20]
100011db:	8b 41 08             	mov    eax,DWORD PTR [ecx+0x8]
100011de:	03 45 10             	add    eax,DWORD PTR [ebp+0x10]
100011e1:	8b 5a 0c             	mov    ebx,DWORD PTR [edx+0xc]
100011e4:	39 c3                	cmp    ebx,eax
100011e6:	0f 8c 8b 00 00 00    	jl     10001277 <Context_draw_bitmap_clipped+0xab>
100011ec:	8b 75 18             	mov    esi,DWORD PTR [ebp+0x18]
100011ef:	01 c6                	add    esi,eax
100011f1:	89 75 e0             	mov    DWORD PTR [ebp-0x20],esi
100011f4:	8b 72 04             	mov    esi,DWORD PTR [edx+0x4]
100011f7:	39 75 e0             	cmp    DWORD PTR [ebp-0x20],esi
100011fa:	7e 7b                	jle    10001277 <Context_draw_bitmap_clipped+0xab>
100011fc:	8b 7d 14             	mov    edi,DWORD PTR [ebp+0x14]
100011ff:	03 79 0c             	add    edi,DWORD PTR [ecx+0xc]
10001202:	89 f9                	mov    ecx,edi
10001204:	8b 7a 08             	mov    edi,DWORD PTR [edx+0x8]
10001207:	89 7d e4             	mov    DWORD PTR [ebp-0x1c],edi
1000120a:	39 cf                	cmp    edi,ecx
1000120c:	7c 69                	jl     10001277 <Context_draw_bitmap_clipped+0xab>
1000120e:	8b 7d 1c             	mov    edi,DWORD PTR [ebp+0x1c]
10001211:	01 cf                	add    edi,ecx
10001213:	89 7d dc             	mov    DWORD PTR [ebp-0x24],edi
10001216:	8b 12                	mov    edx,DWORD PTR [edx]
10001218:	89 d7                	mov    edi,edx
1000121a:	39 55 dc             	cmp    DWORD PTR [ebp-0x24],edx
1000121d:	7e 58                	jle    10001277 <Context_draw_bitmap_clipped+0xab>
1000121f:	31 d2                	xor    edx,edx
10001221:	39 c6                	cmp    esi,eax
10001223:	7e 04                	jle    10001229 <Context_draw_bitmap_clipped+0x5d>
10001225:	89 f2                	mov    edx,esi
10001227:	29 c2                	sub    edx,eax
10001229:	8b 75 18             	mov    esi,DWORD PTR [ebp+0x18]
1000122c:	89 75 d8             	mov    DWORD PTR [ebp-0x28],esi
1000122f:	3b 5d e0             	cmp    ebx,DWORD PTR [ebp-0x20]
10001232:	7d 06                	jge    1000123a <Context_draw_bitmap_clipped+0x6e>
10001234:	29 c3                	sub    ebx,eax
10001236:	43                   	inc    ebx
10001237:	89 5d d8             	mov    DWORD PTR [ebp-0x28],ebx
1000123a:	31 db                	xor    ebx,ebx
1000123c:	39 cf                	cmp    edi,ecx
1000123e:	7e 04                	jle    10001244 <Context_draw_bitmap_clipped+0x78>
10001240:	89 fb                	mov    ebx,edi
10001242:	29 cb                	sub    ebx,ecx
10001244:	8b 75 dc             	mov    esi,DWORD PTR [ebp-0x24]
10001247:	39 75 e4             	cmp    DWORD PTR [ebp-0x1c],esi
1000124a:	7d 09                	jge    10001255 <Context_draw_bitmap_clipped+0x89>
1000124c:	8b 7d e4             	mov    edi,DWORD PTR [ebp-0x1c]
1000124f:	29 cf                	sub    edi,ecx
10001251:	47                   	inc    edi
10001252:	89 7d 1c             	mov    DWORD PTR [ebp+0x1c],edi
10001255:	ff 75 0c             	push   DWORD PTR [ebp+0xc]
10001258:	ff 75 18             	push   DWORD PTR [ebp+0x18]
1000125b:	8b 7d 1c             	mov    edi,DWORD PTR [ebp+0x1c]
1000125e:	29 df                	sub    edi,ebx
10001260:	57                   	push   edi
10001261:	8b 75 d8             	mov    esi,DWORD PTR [ebp-0x28]
10001264:	29 d6                	sub    esi,edx
10001266:	56                   	push   esi
10001267:	53                   	push   ebx
10001268:	52                   	push   edx
10001269:	01 d9                	add    ecx,ebx
1000126b:	51                   	push   ecx
1000126c:	01 d0                	add    eax,edx
1000126e:	50                   	push   eax
1000126f:	e8 fc ff ff ff       	call   10001270 <Context_draw_bitmap_clipped+0xa4>	10001270: R_386_PC32	bitblit
10001274:	83 c4 20             	add    esp,0x20
10001277:	8d 65 f4             	lea    esp,[ebp-0xc]
1000127a:	5b                   	pop    ebx
1000127b:	5e                   	pop    esi
1000127c:	5f                   	pop    edi
1000127d:	5d                   	pop    ebp
1000127e:	c3                   	ret    

1000127f <Context_draw_char_clipped>:
1000127f:	55                   	push   ebp
10001280:	89 e5                	mov    ebp,esp
10001282:	57                   	push   edi
10001283:	56                   	push   esi
10001284:	53                   	push   ebx
10001285:	83 ec 2c             	sub    esp,0x2c
10001288:	8b 5d 0c             	mov    ebx,DWORD PTR [ebp+0xc]
1000128b:	8b 4d 1c             	mov    ecx,DWORD PTR [ebp+0x1c]
1000128e:	88 5d d4             	mov    BYTE PTR [ebp-0x2c],bl
10001291:	85 c9                	test   ecx,ecx
10001293:	0f 94 c2             	sete   dl
10001296:	89 d6                	mov    esi,edx
10001298:	83 7d 08 00          	cmp    DWORD PTR [ebp+0x8],0x0
1000129c:	0f 94 c2             	sete   dl
1000129f:	09 d6                	or     esi,edx
100012a1:	80 fb 7f             	cmp    bl,0x7f
100012a4:	0f 94 c2             	sete   dl
100012a7:	89 f0                	mov    eax,esi
100012a9:	08 d0                	or     al,dl
100012ab:	0f 85 06 01 00 00    	jne    100013b7 <Context_draw_char_clipped+0x138>
100012b1:	84 db                	test   bl,bl
100012b3:	0f 84 fe 00 00 00    	je     100013b7 <Context_draw_char_clipped+0x138>
100012b9:	8b 55 10             	mov    edx,DWORD PTR [ebp+0x10]
100012bc:	8b 45 08             	mov    eax,DWORD PTR [ebp+0x8]
100012bf:	03 50 08             	add    edx,DWORD PTR [eax+0x8]
100012c2:	89 55 e4             	mov    DWORD PTR [ebp-0x1c],edx
100012c5:	8b 51 0c             	mov    edx,DWORD PTR [ecx+0xc]
100012c8:	39 55 e4             	cmp    DWORD PTR [ebp-0x1c],edx
100012cb:	0f 8f e6 00 00 00    	jg     100013b7 <Context_draw_char_clipped+0x138>
100012d1:	0f be db             	movsx  ebx,bl
100012d4:	69 35 00 00 00 00 ff 00 00 00 	imul   esi,DWORD PTR ds:0x0,0xff	100012d6: R_386_32	System
100012de:	0f b6 84 33 00 00 00 00 	movzx  eax,BYTE PTR [ebx+esi*1+0x0]	100012e2: R_386_32	FontWidths
100012e6:	89 45 dc             	mov    DWORD PTR [ebp-0x24],eax
100012e9:	8b 7d e4             	mov    edi,DWORD PTR [ebp-0x1c]
100012ec:	01 c7                	add    edi,eax
100012ee:	8b 59 04             	mov    ebx,DWORD PTR [ecx+0x4]
100012f1:	39 df                	cmp    edi,ebx
100012f3:	0f 8e be 00 00 00    	jle    100013b7 <Context_draw_char_clipped+0x138>
100012f9:	8b 75 14             	mov    esi,DWORD PTR [ebp+0x14]
100012fc:	8b 45 08             	mov    eax,DWORD PTR [ebp+0x8]
100012ff:	03 70 0c             	add    esi,DWORD PTR [eax+0xc]
10001302:	89 75 e0             	mov    DWORD PTR [ebp-0x20],esi
10001305:	8b 41 08             	mov    eax,DWORD PTR [ecx+0x8]
10001308:	39 c6                	cmp    esi,eax
1000130a:	0f 8f a7 00 00 00    	jg     100013b7 <Context_draw_char_clipped+0x138>
10001310:	83 c6 0e             	add    esi,0xe
10001313:	8b 09                	mov    ecx,DWORD PTR [ecx]
10001315:	39 ce                	cmp    esi,ecx
10001317:	0f 8e 9a 00 00 00    	jle    100013b7 <Context_draw_char_clipped+0x138>
1000131d:	c7 45 d8 00 00 00 00 	mov    DWORD PTR [ebp-0x28],0x0
10001324:	39 5d e4             	cmp    DWORD PTR [ebp-0x1c],ebx
10001327:	7d 06                	jge    1000132f <Context_draw_char_clipped+0xb0>
10001329:	2b 5d e4             	sub    ebx,DWORD PTR [ebp-0x1c]
1000132c:	89 5d d8             	mov    DWORD PTR [ebp-0x28],ebx
1000132f:	39 fa                	cmp    edx,edi
10001331:	7d 09                	jge    1000133c <Context_draw_char_clipped+0xbd>
10001333:	2b 55 e4             	sub    edx,DWORD PTR [ebp-0x1c]
10001336:	8d 7a 01             	lea    edi,[edx+0x1]
10001339:	89 7d dc             	mov    DWORD PTR [ebp-0x24],edi
1000133c:	31 db                	xor    ebx,ebx
1000133e:	39 4d e0             	cmp    DWORD PTR [ebp-0x20],ecx
10001341:	7d 05                	jge    10001348 <Context_draw_char_clipped+0xc9>
10001343:	2b 4d e0             	sub    ecx,DWORD PTR [ebp-0x20]
10001346:	89 cb                	mov    ebx,ecx
10001348:	ba 0e 00 00 00       	mov    edx,0xe
1000134d:	39 f0                	cmp    eax,esi
1000134f:	7d 06                	jge    10001357 <Context_draw_char_clipped+0xd8>
10001351:	2b 45 e0             	sub    eax,DWORD PTR [ebp-0x20]
10001354:	8d 50 01             	lea    edx,[eax+0x1]
10001357:	8b 45 d4             	mov    eax,DWORD PTR [ebp-0x2c]
1000135a:	83 e0 7f             	and    eax,0x7f
1000135d:	89 45 d4             	mov    DWORD PTR [ebp-0x2c],eax
10001360:	39 d3                	cmp    ebx,edx
10001362:	7d 53                	jge    100013b7 <Context_draw_char_clipped+0x138>
10001364:	6b 45 d4 0e          	imul   eax,DWORD PTR [ebp-0x2c],0xe
10001368:	69 0d 00 00 00 00 f2 0d 00 00 	imul   ecx,DWORD PTR ds:0x0,0xdf2	1000136a: R_386_32	System
10001372:	01 c8                	add    eax,ecx
10001374:	01 d8                	add    eax,ebx
10001376:	0f b6 b4 00 00 00 00 00 	movzx  esi,BYTE PTR [eax+eax*1+0x0]	1000137a: R_386_32	Fonts
1000137e:	8a 4d d8             	mov    cl,BYTE PTR [ebp-0x28]
10001381:	d3 e6                	shl    esi,cl
10001383:	8b 7d d8             	mov    edi,DWORD PTR [ebp-0x28]
10001386:	3b 7d dc             	cmp    edi,DWORD PTR [ebp-0x24]
10001389:	7d 29                	jge    100013b4 <Context_draw_char_clipped+0x135>
1000138b:	89 f0                	mov    eax,esi
1000138d:	84 c0                	test   al,al
1000138f:	79 1e                	jns    100013af <Context_draw_char_clipped+0x130>
10001391:	89 55 d0             	mov    DWORD PTR [ebp-0x30],edx
10001394:	50                   	push   eax
10001395:	ff 75 18             	push   DWORD PTR [ebp+0x18]
10001398:	8b 45 e0             	mov    eax,DWORD PTR [ebp-0x20]
1000139b:	01 d8                	add    eax,ebx
1000139d:	50                   	push   eax
1000139e:	8b 45 e4             	mov    eax,DWORD PTR [ebp-0x1c]
100013a1:	01 f8                	add    eax,edi
100013a3:	50                   	push   eax
100013a4:	e8 fc ff ff ff       	call   100013a5 <Context_draw_char_clipped+0x126>	100013a5: R_386_PC32	screenputpixel
100013a9:	83 c4 10             	add    esp,0x10
100013ac:	8b 55 d0             	mov    edx,DWORD PTR [ebp-0x30]
100013af:	d1 e6                	shl    esi,1
100013b1:	47                   	inc    edi
100013b2:	eb d2                	jmp    10001386 <Context_draw_char_clipped+0x107>
100013b4:	43                   	inc    ebx
100013b5:	eb a9                	jmp    10001360 <Context_draw_char_clipped+0xe1>
100013b7:	8d 65 f4             	lea    esp,[ebp-0xc]
100013ba:	5b                   	pop    ebx
100013bb:	5e                   	pop    esi
100013bc:	5f                   	pop    edi
100013bd:	5d                   	pop    ebp
100013be:	c3                   	ret    

100013bf <Context_draw_bitmap>:
100013bf:	55                   	push   ebp
100013c0:	89 e5                	mov    ebp,esp
100013c2:	57                   	push   edi
100013c3:	56                   	push   esi
100013c4:	53                   	push   ebx
100013c5:	83 ec 0c             	sub    esp,0xc
100013c8:	8b 5d 08             	mov    ebx,DWORD PTR [ebp+0x8]
100013cb:	8b 7d 1c             	mov    edi,DWORD PTR [ebp+0x1c]
100013ce:	8b 43 10             	mov    eax,DWORD PTR [ebx+0x10]
100013d1:	83 38 00             	cmp    DWORD PTR [eax],0x0
100013d4:	74 2f                	je     10001405 <Context_draw_bitmap+0x46>
100013d6:	31 f6                	xor    esi,esi
100013d8:	8b 43 10             	mov    eax,DWORD PTR [ebx+0x10]
100013db:	39 30                	cmp    DWORD PTR [eax],esi
100013dd:	76 45                	jbe    10001424 <Context_draw_bitmap+0x65>
100013df:	52                   	push   edx
100013e0:	52                   	push   edx
100013e1:	56                   	push   esi
100013e2:	50                   	push   eax
100013e3:	e8 fc ff ff ff       	call   100013e4 <Context_draw_bitmap+0x25>	100013e4: R_386_PC32	List_get_at
100013e8:	83 c4 0c             	add    esp,0xc
100013eb:	50                   	push   eax
100013ec:	57                   	push   edi
100013ed:	ff 75 18             	push   DWORD PTR [ebp+0x18]
100013f0:	ff 75 14             	push   DWORD PTR [ebp+0x14]
100013f3:	ff 75 10             	push   DWORD PTR [ebp+0x10]
100013f6:	ff 75 0c             	push   DWORD PTR [ebp+0xc]
100013f9:	53                   	push   ebx
100013fa:	e8 fc ff ff ff       	call   100013fb <Context_draw_bitmap+0x3c>	100013fb: R_386_PC32	Context_draw_bitmap_clipped
100013ff:	46                   	inc    esi
10001400:	83 c4 20             	add    esp,0x20
10001403:	eb d3                	jmp    100013d8 <Context_draw_bitmap+0x19>
10001405:	80 7b 14 00          	cmp    BYTE PTR [ebx+0x14],0x0
10001409:	75 19                	jne    10001424 <Context_draw_bitmap+0x65>
1000140b:	50                   	push   eax
1000140c:	6a 00                	push   0x0
1000140e:	57                   	push   edi
1000140f:	ff 75 18             	push   DWORD PTR [ebp+0x18]
10001412:	ff 75 14             	push   DWORD PTR [ebp+0x14]
10001415:	ff 75 10             	push   DWORD PTR [ebp+0x10]
10001418:	ff 75 0c             	push   DWORD PTR [ebp+0xc]
1000141b:	53                   	push   ebx
1000141c:	e8 fc ff ff ff       	call   1000141d <Context_draw_bitmap+0x5e>	1000141d: R_386_PC32	Context_draw_bitmap_clipped
10001421:	83 c4 20             	add    esp,0x20
10001424:	8d 65 f4             	lea    esp,[ebp-0xc]
10001427:	5b                   	pop    ebx
10001428:	5e                   	pop    esi
10001429:	5f                   	pop    edi
1000142a:	5d                   	pop    ebp
1000142b:	c3                   	ret    

1000142c <Context_draw_char>:
1000142c:	55                   	push   ebp
1000142d:	89 e5                	mov    ebp,esp
1000142f:	57                   	push   edi
10001430:	56                   	push   esi
10001431:	53                   	push   ebx
10001432:	83 ec 0c             	sub    esp,0xc
10001435:	8b 75 08             	mov    esi,DWORD PTR [ebp+0x8]
10001438:	0f be 5d 0c          	movsx  ebx,BYTE PTR [ebp+0xc]
1000143c:	8b 46 10             	mov    eax,DWORD PTR [esi+0x10]
1000143f:	83 38 00             	cmp    DWORD PTR [eax],0x0
10001442:	74 2b                	je     1000146f <Context_draw_char+0x43>
10001444:	31 ff                	xor    edi,edi
10001446:	8b 46 10             	mov    eax,DWORD PTR [esi+0x10]
10001449:	39 38                	cmp    DWORD PTR [eax],edi
1000144b:	76 3f                	jbe    1000148c <Context_draw_char+0x60>
1000144d:	52                   	push   edx
1000144e:	52                   	push   edx
1000144f:	57                   	push   edi
10001450:	50                   	push   eax
10001451:	e8 fc ff ff ff       	call   10001452 <Context_draw_char+0x26>	10001452: R_386_PC32	List_get_at
10001456:	59                   	pop    ecx
10001457:	5a                   	pop    edx
10001458:	50                   	push   eax
10001459:	ff 75 18             	push   DWORD PTR [ebp+0x18]
1000145c:	ff 75 14             	push   DWORD PTR [ebp+0x14]
1000145f:	ff 75 10             	push   DWORD PTR [ebp+0x10]
10001462:	53                   	push   ebx
10001463:	56                   	push   esi
10001464:	e8 fc ff ff ff       	call   10001465 <Context_draw_char+0x39>	10001465: R_386_PC32	Context_draw_char_clipped
10001469:	47                   	inc    edi
1000146a:	83 c4 20             	add    esp,0x20
1000146d:	eb d7                	jmp    10001446 <Context_draw_char+0x1a>
1000146f:	80 7e 14 00          	cmp    BYTE PTR [esi+0x14],0x0
10001473:	75 17                	jne    1000148c <Context_draw_char+0x60>
10001475:	50                   	push   eax
10001476:	50                   	push   eax
10001477:	6a 00                	push   0x0
10001479:	ff 75 18             	push   DWORD PTR [ebp+0x18]
1000147c:	ff 75 14             	push   DWORD PTR [ebp+0x14]
1000147f:	ff 75 10             	push   DWORD PTR [ebp+0x10]
10001482:	53                   	push   ebx
10001483:	56                   	push   esi
10001484:	e8 fc ff ff ff       	call   10001485 <Context_draw_char+0x59>	10001485: R_386_PC32	Context_draw_char_clipped
10001489:	83 c4 20             	add    esp,0x20
1000148c:	69 05 00 00 00 00 ff 00 00 00 	imul   eax,DWORD PTR ds:0x0,0xff	1000148e: R_386_32	System
10001496:	0f b6 84 03 00 00 00 00 	movzx  eax,BYTE PTR [ebx+eax*1+0x0]	1000149a: R_386_32	FontWidths
1000149e:	8d 65 f4             	lea    esp,[ebp-0xc]
100014a1:	5b                   	pop    ebx
100014a2:	5e                   	pop    esi
100014a3:	5f                   	pop    edi
100014a4:	5d                   	pop    ebp
100014a5:	c3                   	ret    

100014a6 <Context_draw_text>:
100014a6:	55                   	push   ebp
100014a7:	89 e5                	mov    ebp,esp
100014a9:	57                   	push   edi
100014aa:	56                   	push   esi
100014ab:	53                   	push   ebx
100014ac:	83 ec 0c             	sub    esp,0xc
100014af:	8b 5d 0c             	mov    ebx,DWORD PTR [ebp+0xc]
100014b2:	8b 75 10             	mov    esi,DWORD PTR [ebp+0x10]
100014b5:	0f be 03             	movsx  eax,BYTE PTR [ebx]
100014b8:	84 c0                	test   al,al
100014ba:	74 40                	je     100014fc <Context_draw_text+0x56>
100014bc:	f6 45 1c 01          	test   BYTE PTR [ebp+0x1c],0x1
100014c0:	74 1b                	je     100014dd <Context_draw_text+0x37>
100014c2:	8d 7e 01             	lea    edi,[esi+0x1]
100014c5:	83 ec 0c             	sub    esp,0xc
100014c8:	ff 75 18             	push   DWORD PTR [ebp+0x18]
100014cb:	ff 75 14             	push   DWORD PTR [ebp+0x14]
100014ce:	56                   	push   esi
100014cf:	50                   	push   eax
100014d0:	ff 75 08             	push   DWORD PTR [ebp+0x8]
100014d3:	e8 fc ff ff ff       	call   100014d4 <Context_draw_text+0x2e>	100014d4: R_386_PC32	Context_draw_char
100014d8:	83 c4 20             	add    esp,0x20
100014db:	89 fe                	mov    esi,edi
100014dd:	43                   	inc    ebx
100014de:	83 ec 0c             	sub    esp,0xc
100014e1:	ff 75 18             	push   DWORD PTR [ebp+0x18]
100014e4:	ff 75 14             	push   DWORD PTR [ebp+0x14]
100014e7:	56                   	push   esi
100014e8:	0f be 43 ff          	movsx  eax,BYTE PTR [ebx-0x1]
100014ec:	50                   	push   eax
100014ed:	ff 75 08             	push   DWORD PTR [ebp+0x8]
100014f0:	e8 fc ff ff ff       	call   100014f1 <Context_draw_text+0x4b>	100014f1: R_386_PC32	Context_draw_char
100014f5:	01 c6                	add    esi,eax
100014f7:	83 c4 20             	add    esp,0x20
100014fa:	eb b9                	jmp    100014b5 <Context_draw_text+0xf>
100014fc:	8d 65 f4             	lea    esp,[ebp-0xc]
100014ff:	5b                   	pop    ebx
10001500:	5e                   	pop    esi
10001501:	5f                   	pop    edi
10001502:	5d                   	pop    ebp
10001503:	c3                   	ret    

10001504 <Context_text_width_height>:
10001504:	55                   	push   ebp
10001505:	89 e5                	mov    ebp,esp
10001507:	57                   	push   edi
10001508:	56                   	push   esi
10001509:	53                   	push   ebx
1000150a:	83 ec 0c             	sub    esp,0xc
1000150d:	8b 75 08             	mov    esi,DWORD PTR [ebp+0x8]
10001510:	31 db                	xor    ebx,ebx
10001512:	8a 06                	mov    al,BYTE PTR [esi]
10001514:	84 c0                	test   al,al
10001516:	74 36                	je     1000154e <Context_text_width_height+0x4a>
10001518:	46                   	inc    esi
10001519:	8b 55 0c             	mov    edx,DWORD PTR [ebp+0xc]
1000151c:	83 e2 01             	and    edx,0x1
1000151f:	83 fa 01             	cmp    edx,0x1
10001522:	83 db ff             	sbb    ebx,0xffffffff
10001525:	52                   	push   edx
10001526:	52                   	push   edx
10001527:	0f be f8             	movsx  edi,al
1000152a:	57                   	push   edi
1000152b:	68 7e 3b 00 10       	push   0x10003b7e	1000152c: R_386_32	.text
10001530:	e8 fc ff ff ff       	call   10001531 <Context_text_width_height+0x2d>	10001531: R_386_PC32	debugwritestrhx
10001535:	69 05 00 00 00 00 ff 00 00 00 	imul   eax,DWORD PTR ds:0x0,0xff	10001537: R_386_32	System
1000153f:	0f b6 84 07 00 00 00 00 	movzx  eax,BYTE PTR [edi+eax*1+0x0]	10001543: R_386_32	FontWidths
10001547:	01 c3                	add    ebx,eax
10001549:	83 c4 10             	add    esp,0x10
1000154c:	eb c4                	jmp    10001512 <Context_text_width_height+0xe>
1000154e:	8b 45 10             	mov    eax,DWORD PTR [ebp+0x10]
10001551:	89 18                	mov    DWORD PTR [eax],ebx
10001553:	8b 45 14             	mov    eax,DWORD PTR [ebp+0x14]
10001556:	c7 00 0e 00 00 00    	mov    DWORD PTR [eax],0xe
1000155c:	8d 65 f4             	lea    esp,[ebp-0xc]
1000155f:	5b                   	pop    ebx
10001560:	5e                   	pop    esi
10001561:	5f                   	pop    edi
10001562:	5d                   	pop    ebp
10001563:	c3                   	ret    

10001564 <Desktop_paint_handler>:
10001564:	55                   	push   ebp
10001565:	89 e5                	mov    ebp,esp
10001567:	57                   	push   edi
10001568:	56                   	push   esi
10001569:	53                   	push   ebx
1000156a:	83 ec 1c             	sub    esp,0x1c
1000156d:	8b 75 08             	mov    esi,DWORD PTR [ebp+0x8]
10001570:	80 3d 00 00 00 00 00 	cmp    BYTE PTR ds:0x0,0x0	10001572: R_386_32	desktopUseBgCol
10001577:	74 27                	je     100015a0 <Desktop_paint_handler+0x3c>
10001579:	8b 46 10             	mov    eax,DWORD PTR [esi+0x10]
1000157c:	52                   	push   edx
1000157d:	52                   	push   edx
1000157e:	ff 35 00 00 00 00    	push   DWORD PTR ds:0x0	10001580: R_386_32	desktopBgCol
10001584:	0f b7 50 06          	movzx  edx,WORD PTR [eax+0x6]
10001588:	52                   	push   edx
10001589:	0f b7 50 04          	movzx  edx,WORD PTR [eax+0x4]
1000158d:	52                   	push   edx
1000158e:	6a 00                	push   0x0
10001590:	6a 00                	push   0x0
10001592:	50                   	push   eax
10001593:	e8 fc ff ff ff       	call   10001594 <Desktop_paint_handler+0x30>	10001594: R_386_PC32	Context_fill_rect
10001598:	83 c4 20             	add    esp,0x20
1000159b:	e9 9b 00 00 00       	jmp    1000163b <Desktop_paint_handler+0xd7>
100015a0:	0f bf 46 08          	movsx  eax,WORD PTR [esi+0x8]
100015a4:	99                   	cdq    
100015a5:	f7 3d 00 00 00 00    	idiv   DWORD PTR ds:0x0	100015a7: R_386_32	desktopImageWidth
100015ab:	83 fa 01             	cmp    edx,0x1
100015ae:	83 d8 ff             	sbb    eax,0xffffffff
100015b1:	89 45 e4             	mov    DWORD PTR [ebp-0x1c],eax
100015b4:	0f bf 46 0a          	movsx  eax,WORD PTR [esi+0xa]
100015b8:	99                   	cdq    
100015b9:	f7 3d 00 00 00 00    	idiv   DWORD PTR ds:0x0	100015bb: R_386_32	desktopImageHeight
100015bf:	89 d7                	mov    edi,edx
100015c1:	89 45 e0             	mov    DWORD PTR [ebp-0x20],eax
100015c4:	31 db                	xor    ebx,ebx
100015c6:	3b 5d e0             	cmp    ebx,DWORD PTR [ebp-0x20]
100015c9:	7d 3c                	jge    10001607 <Desktop_paint_handler+0xa3>
100015cb:	31 d2                	xor    edx,edx
100015cd:	39 55 e4             	cmp    DWORD PTR [ebp-0x1c],edx
100015d0:	7e 32                	jle    10001604 <Desktop_paint_handler+0xa0>
100015d2:	8b 0d 00 00 00 00    	mov    ecx,DWORD PTR ds:0x0	100015d4: R_386_32	desktopImageHeight
100015d8:	a1 00 00 00 00       	mov    eax,ds:0x0	100015d9: R_386_32	desktopImageWidth
100015dd:	83 ec 08             	sub    esp,0x8
100015e0:	51                   	push   ecx
100015e1:	50                   	push   eax
100015e2:	0f af cb             	imul   ecx,ebx
100015e5:	51                   	push   ecx
100015e6:	0f af c2             	imul   eax,edx
100015e9:	89 55 dc             	mov    DWORD PTR [ebp-0x24],edx
100015ec:	50                   	push   eax
100015ed:	ff 35 00 00 00 00    	push   DWORD PTR ds:0x0	100015ef: R_386_32	parsedTGA
100015f3:	ff 76 10             	push   DWORD PTR [esi+0x10]
100015f6:	e8 fc ff ff ff       	call   100015f7 <Desktop_paint_handler+0x93>	100015f7: R_386_PC32	Context_draw_bitmap
100015fb:	8b 55 dc             	mov    edx,DWORD PTR [ebp-0x24]
100015fe:	42                   	inc    edx
100015ff:	83 c4 20             	add    esp,0x20
10001602:	eb c9                	jmp    100015cd <Desktop_paint_handler+0x69>
10001604:	43                   	inc    ebx
10001605:	eb bf                	jmp    100015c6 <Desktop_paint_handler+0x62>
10001607:	85 ff                	test   edi,edi
10001609:	74 30                	je     1000163b <Desktop_paint_handler+0xd7>
1000160b:	31 db                	xor    ebx,ebx
1000160d:	39 5d e4             	cmp    DWORD PTR [ebp-0x1c],ebx
10001610:	7e 29                	jle    1000163b <Desktop_paint_handler+0xd7>
10001612:	8b 15 00 00 00 00    	mov    edx,DWORD PTR ds:0x0	10001614: R_386_32	desktopImageWidth
10001618:	50                   	push   eax
10001619:	50                   	push   eax
1000161a:	57                   	push   edi
1000161b:	52                   	push   edx
1000161c:	0f bf 4e 0a          	movsx  ecx,WORD PTR [esi+0xa]
10001620:	29 f9                	sub    ecx,edi
10001622:	51                   	push   ecx
10001623:	0f af d3             	imul   edx,ebx
10001626:	52                   	push   edx
10001627:	ff 35 00 00 00 00    	push   DWORD PTR ds:0x0	10001629: R_386_32	parsedTGA
1000162d:	ff 76 10             	push   DWORD PTR [esi+0x10]
10001630:	e8 fc ff ff ff       	call   10001631 <Desktop_paint_handler+0xcd>	10001631: R_386_PC32	Context_draw_bitmap
10001635:	43                   	inc    ebx
10001636:	83 c4 20             	add    esp,0x20
10001639:	eb d2                	jmp    1000160d <Desktop_paint_handler+0xa9>
1000163b:	8d 65 f4             	lea    esp,[ebp-0xc]
1000163e:	5b                   	pop    ebx
1000163f:	5e                   	pop    esi
10001640:	5f                   	pop    edi
10001641:	5d                   	pop    ebp
10001642:	c3                   	ret    

10001643 <Desktop_set_mouse>:
10001643:	55                   	push   ebp
10001644:	89 e5                	mov    ebp,esp
10001646:	8b 45 0c             	mov    eax,DWORD PTR [ebp+0xc]
10001649:	05 00 00 00 00       	add    eax,0x0	1000164a: R_386_32	___mouse_data
1000164e:	8b 55 08             	mov    edx,DWORD PTR [ebp+0x8]
10001651:	89 82 c0 01 00 00    	mov    DWORD PTR [edx+0x1c0],eax
10001657:	5d                   	pop    ebp
10001658:	c3                   	ret    

10001659 <Desktop_new>:
10001659:	55                   	push   ebp
1000165a:	89 e5                	mov    ebp,esp
1000165c:	56                   	push   esi
1000165d:	53                   	push   ebx
1000165e:	8b 75 08             	mov    esi,DWORD PTR [ebp+0x8]
10001661:	83 ec 0c             	sub    esp,0xc
10001664:	68 c4 01 00 00       	push   0x1c4
10001669:	e8 fc ff ff ff       	call   1000166a <Desktop_new+0x11>	1000166a: R_386_PC32	malloc
1000166e:	89 c3                	mov    ebx,eax
10001670:	83 c4 0c             	add    esp,0xc
10001673:	56                   	push   esi
10001674:	6a 01                	push   0x1
10001676:	0f b7 46 06          	movzx  eax,WORD PTR [esi+0x6]
1000167a:	50                   	push   eax
1000167b:	0f b7 46 04          	movzx  eax,WORD PTR [esi+0x4]
1000167f:	50                   	push   eax
10001680:	6a 00                	push   0x0
10001682:	6a 00                	push   0x0
10001684:	53                   	push   ebx
10001685:	e8 fc ff ff ff       	call   10001686 <Desktop_new+0x2d>	10001686: R_386_PC32	Window_init
1000168a:	c7 43 30 00 00 00 00 	mov    DWORD PTR [ebx+0x30],0x0	1000168d: R_386_32	Desktop_paint_handler
10001691:	c6 43 2c 00          	mov    BYTE PTR [ebx+0x2c],0x0
10001695:	8b 53 10             	mov    edx,DWORD PTR [ebx+0x10]
10001698:	8b 42 04             	mov    eax,DWORD PTR [edx+0x4]
1000169b:	66 d1 e8             	shr    ax,1
1000169e:	66 89 83 bc 01 00 00 	mov    WORD PTR [ebx+0x1bc],ax
100016a5:	66 8b 42 06          	mov    ax,WORD PTR [edx+0x6]
100016a9:	66 d1 e8             	shr    ax,1
100016ac:	66 89 83 be 01 00 00 	mov    WORD PTR [ebx+0x1be],ax
100016b3:	c7 83 c0 01 00 00 00 00 00 00 	mov    DWORD PTR [ebx+0x1c0],0x0	100016b9: R_386_32	___mouse_data
100016bd:	89 d8                	mov    eax,ebx
100016bf:	8d 65 f8             	lea    esp,[ebp-0x8]
100016c2:	5b                   	pop    ebx
100016c3:	5e                   	pop    esi
100016c4:	5d                   	pop    ebp
100016c5:	c3                   	ret    

100016c6 <Desktop_process_mouse>:
100016c6:	55                   	push   ebp
100016c7:	89 e5                	mov    ebp,esp
100016c9:	57                   	push   edi
100016ca:	56                   	push   esi
100016cb:	53                   	push   ebx
100016cc:	83 ec 4c             	sub    esp,0x4c
100016cf:	8b 45 08             	mov    eax,DWORD PTR [ebp+0x8]
100016d2:	89 45 c0             	mov    DWORD PTR [ebp-0x40],eax
100016d5:	8b 45 0c             	mov    eax,DWORD PTR [ebp+0xc]
100016d8:	89 45 b8             	mov    DWORD PTR [ebp-0x48],eax
100016db:	8b 45 10             	mov    eax,DWORD PTR [ebp+0x10]
100016de:	89 45 b4             	mov    DWORD PTR [ebp-0x4c],eax
100016e1:	8b 5d 14             	mov    ebx,DWORD PTR [ebp+0x14]
100016e4:	a1 00 00 00 00       	mov    eax,ds:0x0	100016e5: R_386_32	active_window
100016e9:	89 45 c4             	mov    DWORD PTR [ebp-0x3c],eax
100016ec:	31 f6                	xor    esi,esi
100016ee:	84 db                	test   bl,bl
100016f0:	74 3d                	je     1000172f <Desktop_process_mouse+0x69>
100016f2:	83 3d 00 00 00 00 00 	cmp    DWORD PTR ds:0x0,0x0	100016f4: R_386_32	oldMouse
100016f9:	75 34                	jne    1000172f <Desktop_process_mouse+0x69>
100016fb:	85 c0                	test   eax,eax
100016fd:	74 21                	je     10001720 <Desktop_process_mouse+0x5a>
100016ff:	c6 45 d4 1b          	mov    BYTE PTR [ebp-0x2c],0x1b
10001703:	89 45 d8             	mov    DWORD PTR [ebp-0x28],eax
10001706:	83 ec 1c             	sub    esp,0x1c
10001709:	8d 75 d4             	lea    esi,[ebp-0x2c]
1000170c:	b9 05 00 00 00       	mov    ecx,0x5
10001711:	89 e7                	mov    edi,esp
10001713:	f3 a5                	rep movs DWORD PTR es:[edi],DWORD PTR ds:[esi]
10001715:	ff 75 c4             	push   DWORD PTR [ebp-0x3c]
10001718:	e8 fc ff ff ff       	call   10001719 <Desktop_process_mouse+0x53>	10001719: R_386_PC32	dispatchMessage
1000171d:	83 c4 20             	add    esp,0x20
10001720:	c7 05 00 00 00 00 00 00 00 00 	mov    DWORD PTR ds:0x0,0x0	10001722: R_386_32	active_window
1000172a:	be 01 00 00 00       	mov    esi,0x1
1000172f:	0f b6 db             	movzx  ebx,bl
10001732:	89 1d 00 00 00 00    	mov    DWORD PTR ds:0x0,ebx	10001734: R_386_32	oldMouse
10001738:	0f b7 45 b4          	movzx  eax,WORD PTR [ebp-0x4c]
1000173c:	89 45 bc             	mov    DWORD PTR [ebp-0x44],eax
1000173f:	0f b7 7d b8          	movzx  edi,WORD PTR [ebp-0x48]
10001743:	53                   	push   ebx
10001744:	50                   	push   eax
10001745:	57                   	push   edi
10001746:	ff 75 c0             	push   DWORD PTR [ebp-0x40]
10001749:	e8 fc ff ff ff       	call   1000174a <Desktop_process_mouse+0x84>	1000174a: R_386_PC32	Window_process_mouse
1000174e:	e8 fc ff ff ff       	call   1000174f <Desktop_process_mouse+0x89>	1000174f: R_386_PC32	List_new
10001753:	89 c3                	mov    ebx,eax
10001755:	83 c4 10             	add    esp,0x10
10001758:	85 c0                	test   eax,eax
1000175a:	0f 84 ee 00 00 00    	je     1000184e <Desktop_process_mouse+0x188>
10001760:	8b 45 c0             	mov    eax,DWORD PTR [ebp-0x40]
10001763:	0f b7 90 bc 01 00 00 	movzx  edx,WORD PTR [eax+0x1bc]
1000176a:	0f b7 80 be 01 00 00 	movzx  eax,WORD PTR [eax+0x1be]
10001771:	8d 4a 1f             	lea    ecx,[edx+0x1f]
10001774:	51                   	push   ecx
10001775:	8d 48 1f             	lea    ecx,[eax+0x1f]
10001778:	51                   	push   ecx
10001779:	52                   	push   edx
1000177a:	50                   	push   eax
1000177b:	e8 fc ff ff ff       	call   1000177c <Desktop_process_mouse+0xb6>	1000177c: R_386_PC32	Rect_new
10001780:	89 c2                	mov    edx,eax
10001782:	83 c4 10             	add    esp,0x10
10001785:	85 c0                	test   eax,eax
10001787:	75 0f                	jne    10001798 <Desktop_process_mouse+0xd2>
10001789:	89 5d 08             	mov    DWORD PTR [ebp+0x8],ebx
1000178c:	8d 65 f4             	lea    esp,[ebp-0xc]
1000178f:	5b                   	pop    ebx
10001790:	5e                   	pop    esi
10001791:	5f                   	pop    edi
10001792:	5d                   	pop    ebp
10001793:	e9 fc ff ff ff       	jmp    10001794 <Desktop_process_mouse+0xce>	10001794: R_386_PC32	free
10001798:	50                   	push   eax
10001799:	50                   	push   eax
1000179a:	52                   	push   edx
1000179b:	89 55 b0             	mov    DWORD PTR [ebp-0x50],edx
1000179e:	53                   	push   ebx
1000179f:	e8 fc ff ff ff       	call   100017a0 <Desktop_process_mouse+0xda>	100017a0: R_386_PC32	List_add
100017a4:	83 c4 0c             	add    esp,0xc
100017a7:	6a 01                	push   0x1
100017a9:	53                   	push   ebx
100017aa:	ff 75 c0             	push   DWORD PTR [ebp-0x40]
100017ad:	e8 fc ff ff ff       	call   100017ae <Desktop_process_mouse+0xe8>	100017ae: R_386_PC32	Window_paint
100017b2:	5a                   	pop    edx
100017b3:	59                   	pop    ecx
100017b4:	6a 00                	push   0x0
100017b6:	53                   	push   ebx
100017b7:	e8 fc ff ff ff       	call   100017b8 <Desktop_process_mouse+0xf2>	100017b8: R_386_PC32	List_remove_at
100017bc:	89 1c 24             	mov    DWORD PTR [esp],ebx
100017bf:	e8 fc ff ff ff       	call   100017c0 <Desktop_process_mouse+0xfa>	100017c0: R_386_PC32	free
100017c4:	8b 55 b0             	mov    edx,DWORD PTR [ebp-0x50]
100017c7:	89 14 24             	mov    DWORD PTR [esp],edx
100017ca:	e8 fc ff ff ff       	call   100017cb <Desktop_process_mouse+0x105>	100017cb: R_386_PC32	free
100017cf:	a1 00 00 00 00       	mov    eax,ds:0x0	100017d0: R_386_32	active_window
100017d4:	83 c4 10             	add    esp,0x10
100017d7:	85 c0                	test   eax,eax
100017d9:	74 26                	je     10001801 <Desktop_process_mouse+0x13b>
100017db:	85 f6                	test   esi,esi
100017dd:	74 3a                	je     10001819 <Desktop_process_mouse+0x153>
100017df:	3b 45 c4             	cmp    eax,DWORD PTR [ebp-0x3c]
100017e2:	74 35                	je     10001819 <Desktop_process_mouse+0x153>
100017e4:	83 ec 0c             	sub    esp,0xc
100017e7:	50                   	push   eax
100017e8:	e8 fc ff ff ff       	call   100017e9 <Desktop_process_mouse+0x123>	100017e9: R_386_PC32	Window_update_title
100017ed:	83 c4 10             	add    esp,0x10
100017f0:	83 7d c4 00          	cmp    DWORD PTR [ebp-0x3c],0x0
100017f4:	74 23                	je     10001819 <Desktop_process_mouse+0x153>
100017f6:	8b 45 c4             	mov    eax,DWORD PTR [ebp-0x3c]
100017f9:	39 05 00 00 00 00    	cmp    DWORD PTR ds:0x0,eax	100017fb: R_386_32	active_window
100017ff:	eb 08                	jmp    10001809 <Desktop_process_mouse+0x143>
10001801:	83 7d c4 00          	cmp    DWORD PTR [ebp-0x3c],0x0
10001805:	74 12                	je     10001819 <Desktop_process_mouse+0x153>
10001807:	85 f6                	test   esi,esi
10001809:	74 0e                	je     10001819 <Desktop_process_mouse+0x153>
1000180b:	83 ec 0c             	sub    esp,0xc
1000180e:	ff 75 c4             	push   DWORD PTR [ebp-0x3c]
10001811:	e8 fc ff ff ff       	call   10001812 <Desktop_process_mouse+0x14c>	10001812: R_386_PC32	Window_update_title
10001816:	83 c4 10             	add    esp,0x10
10001819:	8b 45 c0             	mov    eax,DWORD PTR [ebp-0x40]
1000181c:	8b 75 b8             	mov    esi,DWORD PTR [ebp-0x48]
1000181f:	66 89 b0 bc 01 00 00 	mov    WORD PTR [eax+0x1bc],si
10001826:	8b 4d b4             	mov    ecx,DWORD PTR [ebp-0x4c]
10001829:	66 89 88 be 01 00 00 	mov    WORD PTR [eax+0x1be],cx
10001830:	8b 80 c0 01 00 00    	mov    eax,DWORD PTR [eax+0x1c0]
10001836:	89 45 10             	mov    DWORD PTR [ebp+0x10],eax
10001839:	8b 45 bc             	mov    eax,DWORD PTR [ebp-0x44]
1000183c:	89 45 0c             	mov    DWORD PTR [ebp+0xc],eax
1000183f:	89 7d 08             	mov    DWORD PTR [ebp+0x8],edi
10001842:	8d 65 f4             	lea    esp,[ebp-0xc]
10001845:	5b                   	pop    ebx
10001846:	5e                   	pop    esi
10001847:	5f                   	pop    edi
10001848:	5d                   	pop    ebp
10001849:	e9 fc ff ff ff       	jmp    1000184a <Desktop_process_mouse+0x184>	1000184a: R_386_PC32	screendrawcursor
1000184e:	8d 65 f4             	lea    esp,[ebp-0xc]
10001851:	5b                   	pop    ebx
10001852:	5e                   	pop    esi
10001853:	5f                   	pop    edi
10001854:	5d                   	pop    ebp
10001855:	c3                   	ret    

10001856 <readByte>:
10001856:	55                   	push   ebp
10001857:	89 e5                	mov    ebp,esp
10001859:	8b 4d 0c             	mov    ecx,DWORD PTR [ebp+0xc]
1000185c:	8b 11                	mov    edx,DWORD PTR [ecx]
1000185e:	8b 45 08             	mov    eax,DWORD PTR [ebp+0x8]
10001861:	8a 04 10             	mov    al,BYTE PTR [eax+edx*1]
10001864:	42                   	inc    edx
10001865:	89 11                	mov    DWORD PTR [ecx],edx
10001867:	5d                   	pop    ebp
10001868:	c3                   	ret    

10001869 <readWord>:
10001869:	55                   	push   ebp
1000186a:	89 e5                	mov    ebp,esp
1000186c:	8b 4d 0c             	mov    ecx,DWORD PTR [ebp+0xc]
1000186f:	8b 11                	mov    edx,DWORD PTR [ecx]
10001871:	8b 45 08             	mov    eax,DWORD PTR [ebp+0x8]
10001874:	66 8b 04 10          	mov    ax,WORD PTR [eax+edx*1]
10001878:	83 c2 02             	add    edx,0x2
1000187b:	89 11                	mov    DWORD PTR [ecx],edx
1000187d:	5d                   	pop    ebp
1000187e:	c3                   	ret    

1000187f <readCalcWord>:
1000187f:	55                   	push   ebp
10001880:	89 e5                	mov    ebp,esp
10001882:	83 ec 08             	sub    esp,0x8
10001885:	8b 4d 0c             	mov    ecx,DWORD PTR [ebp+0xc]
10001888:	8b 11                	mov    edx,DWORD PTR [ecx]
1000188a:	8b 45 08             	mov    eax,DWORD PTR [ebp+0x8]
1000188d:	0f b7 04 10          	movzx  eax,WORD PTR [eax+edx*1]
10001891:	83 c2 02             	add    edx,0x2
10001894:	89 11                	mov    DWORD PTR [ecx],edx
10001896:	66 3d ff fe          	cmp    ax,0xfeff
1000189a:	76 25                	jbe    100018c1 <readCalcWord+0x42>
1000189c:	66 3d 0f ff          	cmp    ax,0xff0f
100018a0:	77 0d                	ja     100018af <readCalcWord+0x30>
100018a2:	8b 55 10             	mov    edx,DWORD PTR [ebp+0x10]
100018a5:	66 8b 84 42 00 02 fe ff 	mov    ax,WORD PTR [edx+eax*2-0x1fe00]
100018ad:	eb 12                	jmp    100018c1 <readCalcWord+0x42>
100018af:	83 ec 0c             	sub    esp,0xc
100018b2:	68 82 3b 00 10       	push   0x10003b82	100018b3: R_386_32	.text
100018b7:	e8 fc ff ff ff       	call   100018b8 <readCalcWord+0x39>	100018b8: R_386_PC32	debugwrite
100018bc:	83 c4 10             	add    esp,0x10
100018bf:	eb fe                	jmp    100018bf <readCalcWord+0x40>
100018c1:	c9                   	leave  
100018c2:	c3                   	ret    

100018c3 <readDword>:
100018c3:	55                   	push   ebp
100018c4:	89 e5                	mov    ebp,esp
100018c6:	8b 4d 0c             	mov    ecx,DWORD PTR [ebp+0xc]
100018c9:	8b 11                	mov    edx,DWORD PTR [ecx]
100018cb:	8b 45 08             	mov    eax,DWORD PTR [ebp+0x8]
100018ce:	8b 04 10             	mov    eax,DWORD PTR [eax+edx*1]
100018d1:	83 c2 04             	add    edx,0x4
100018d4:	89 11                	mov    DWORD PTR [ecx],edx
100018d6:	5d                   	pop    ebp
100018d7:	c3                   	ret    

100018d8 <scriptParse>:
100018d8:	55                   	push   ebp
100018d9:	89 e5                	mov    ebp,esp
100018db:	57                   	push   edi
100018dc:	56                   	push   esi
100018dd:	53                   	push   ebx
100018de:	83 ec 4c             	sub    esp,0x4c
100018e1:	8b 5d 08             	mov    ebx,DWORD PTR [ebp+0x8]
100018e4:	8b 45 0c             	mov    eax,DWORD PTR [ebp+0xc]
100018e7:	8b 78 10             	mov    edi,DWORD PTR [eax+0x10]
100018ea:	89 7d b4             	mov    DWORD PTR [ebp-0x4c],edi
100018ed:	8b 50 08             	mov    edx,DWORD PTR [eax+0x8]
100018f0:	89 55 c8             	mov    DWORD PTR [ebp-0x38],edx
100018f3:	8b 40 04             	mov    eax,DWORD PTR [eax+0x4]
100018f6:	89 45 cc             	mov    DWORD PTR [ebp-0x34],eax
100018f9:	b8 04 00 00 00       	mov    eax,0x4
100018fe:	66 c7 44 45 c8 00 00 	mov    WORD PTR [ebp+eax*2-0x38],0x0
10001905:	40                   	inc    eax
10001906:	83 f8 10             	cmp    eax,0x10
10001909:	75 f3                	jne    100018fe <scriptParse+0x26>
1000190b:	c7 45 c4 00 00 00 00 	mov    DWORD PTR [ebp-0x3c],0x0
10001912:	8b 45 c4             	mov    eax,DWORD PTR [ebp-0x3c]
10001915:	8a 0c 03             	mov    cl,BYTE PTR [ebx+eax*1]
10001918:	88 4d b2             	mov    BYTE PTR [ebp-0x4e],cl
1000191b:	8d 50 01             	lea    edx,[eax+0x1]
1000191e:	89 55 c4             	mov    DWORD PTR [ebp-0x3c],edx
10001921:	80 f9 09             	cmp    cl,0x9
10001924:	0f 87 53 03 00 00    	ja     10001c7d <scriptParse+0x3a5>
1000192a:	0f b6 d1             	movzx  edx,cl
1000192d:	ff 24 95 a4 3b 00 10 	jmp    DWORD PTR [edx*4+0x10003ba4]	10001930: R_386_32	.text
10001934:	50                   	push   eax
10001935:	8d 7d c8             	lea    edi,[ebp-0x38]
10001938:	57                   	push   edi
10001939:	8d 75 c4             	lea    esi,[ebp-0x3c]
1000193c:	56                   	push   esi
1000193d:	53                   	push   ebx
1000193e:	e8 fc ff ff ff       	call   1000193f <scriptParse+0x67>	1000193f: R_386_PC32	readCalcWord
10001943:	66 89 45 b0          	mov    WORD PTR [ebp-0x50],ax
10001947:	83 c4 0c             	add    esp,0xc
1000194a:	57                   	push   edi
1000194b:	56                   	push   esi
1000194c:	53                   	push   ebx
1000194d:	e8 fc ff ff ff       	call   1000194e <scriptParse+0x76>	1000194e: R_386_PC32	readCalcWord
10001952:	66 89 45 ae          	mov    WORD PTR [ebp-0x52],ax
10001956:	83 c4 0c             	add    esp,0xc
10001959:	57                   	push   edi
1000195a:	56                   	push   esi
1000195b:	53                   	push   ebx
1000195c:	e8 fc ff ff ff       	call   1000195d <scriptParse+0x85>	1000195d: R_386_PC32	readCalcWord
10001961:	66 89 45 ac          	mov    WORD PTR [ebp-0x54],ax
10001965:	83 c4 0c             	add    esp,0xc
10001968:	57                   	push   edi
10001969:	56                   	push   esi
1000196a:	53                   	push   ebx
1000196b:	e8 fc ff ff ff       	call   1000196c <scriptParse+0x94>	1000196c: R_386_PC32	readCalcWord
10001970:	8b 55 c4             	mov    edx,DWORD PTR [ebp-0x3c]
10001973:	8b 3c 13             	mov    edi,DWORD PTR [ebx+edx*1]
10001976:	83 c2 04             	add    edx,0x4
10001979:	89 55 c4             	mov    DWORD PTR [ebp-0x3c],edx
1000197c:	83 c4 10             	add    esp,0x10
1000197f:	80 7d b2 01          	cmp    BYTE PTR [ebp-0x4e],0x1
10001983:	0f b7 c0             	movzx  eax,ax
10001986:	0f b7 75 ac          	movzx  esi,WORD PTR [ebp-0x54]
1000198a:	0f b7 4d ae          	movzx  ecx,WORD PTR [ebp-0x52]
1000198e:	0f b7 55 b0          	movzx  edx,WORD PTR [ebp-0x50]
10001992:	75 12                	jne    100019a6 <scriptParse+0xce>
10001994:	83 ec 08             	sub    esp,0x8
10001997:	57                   	push   edi
10001998:	50                   	push   eax
10001999:	56                   	push   esi
1000199a:	51                   	push   ecx
1000199b:	52                   	push   edx
1000199c:	ff 75 b4             	push   DWORD PTR [ebp-0x4c]
1000199f:	e8 fc ff ff ff       	call   100019a0 <scriptParse+0xc8>	100019a0: R_386_PC32	Context_draw_rect
100019a4:	eb 10                	jmp    100019b6 <scriptParse+0xde>
100019a6:	83 ec 08             	sub    esp,0x8
100019a9:	57                   	push   edi
100019aa:	50                   	push   eax
100019ab:	56                   	push   esi
100019ac:	51                   	push   ecx
100019ad:	52                   	push   edx
100019ae:	ff 75 b4             	push   DWORD PTR [ebp-0x4c]
100019b1:	e8 fc ff ff ff       	call   100019b2 <scriptParse+0xda>	100019b2: R_386_PC32	Context_fill_rect
100019b6:	83 c4 20             	add    esp,0x20
100019b9:	e9 54 ff ff ff       	jmp    10001912 <scriptParse+0x3a>
100019be:	50                   	push   eax
100019bf:	8d 75 c8             	lea    esi,[ebp-0x38]
100019c2:	56                   	push   esi
100019c3:	8d 7d c4             	lea    edi,[ebp-0x3c]
100019c6:	57                   	push   edi
100019c7:	53                   	push   ebx
100019c8:	e8 fc ff ff ff       	call   100019c9 <scriptParse+0xf1>	100019c9: R_386_PC32	readCalcWord
100019cd:	66 89 45 b0          	mov    WORD PTR [ebp-0x50],ax
100019d1:	83 c4 0c             	add    esp,0xc
100019d4:	56                   	push   esi
100019d5:	57                   	push   edi
100019d6:	53                   	push   ebx
100019d7:	e8 fc ff ff ff       	call   100019d8 <scriptParse+0x100>	100019d8: R_386_PC32	readCalcWord
100019dc:	8b 55 c4             	mov    edx,DWORD PTR [ebp-0x3c]
100019df:	8b 4c 13 02          	mov    ecx,DWORD PTR [ebx+edx*1+0x2]
100019e3:	8d 7a 06             	lea    edi,[edx+0x6]
100019e6:	89 7d c4             	mov    DWORD PTR [ebp-0x3c],edi
100019e9:	83 c4 10             	add    esp,0x10
100019ec:	80 7d b2 02          	cmp    BYTE PTR [ebp-0x4e],0x2
100019f0:	0f b7 14 13          	movzx  edx,WORD PTR [ebx+edx*1]
100019f4:	0f b7 c0             	movzx  eax,ax
100019f7:	0f b7 75 b0          	movzx  esi,WORD PTR [ebp-0x50]
100019fb:	75 11                	jne    10001a0e <scriptParse+0x136>
100019fd:	83 ec 0c             	sub    esp,0xc
10001a00:	51                   	push   ecx
10001a01:	52                   	push   edx
10001a02:	50                   	push   eax
10001a03:	56                   	push   esi
10001a04:	ff 75 b4             	push   DWORD PTR [ebp-0x4c]
10001a07:	e8 fc ff ff ff       	call   10001a08 <scriptParse+0x130>	10001a08: R_386_PC32	Context_horizontal_line
10001a0c:	eb a8                	jmp    100019b6 <scriptParse+0xde>
10001a0e:	83 ec 0c             	sub    esp,0xc
10001a11:	51                   	push   ecx
10001a12:	52                   	push   edx
10001a13:	50                   	push   eax
10001a14:	56                   	push   esi
10001a15:	ff 75 b4             	push   DWORD PTR [ebp-0x4c]
10001a18:	e8 fc ff ff ff       	call   10001a19 <scriptParse+0x141>	10001a19: R_386_PC32	Context_vertical_line
10001a1d:	eb 97                	jmp    100019b6 <scriptParse+0xde>
10001a1f:	50                   	push   eax
10001a20:	8d 7d c8             	lea    edi,[ebp-0x38]
10001a23:	57                   	push   edi
10001a24:	8d 75 c4             	lea    esi,[ebp-0x3c]
10001a27:	56                   	push   esi
10001a28:	53                   	push   ebx
10001a29:	e8 fc ff ff ff       	call   10001a2a <scriptParse+0x152>	10001a2a: R_386_PC32	readCalcWord
10001a2e:	66 89 45 b2          	mov    WORD PTR [ebp-0x4e],ax
10001a32:	83 c4 0c             	add    esp,0xc
10001a35:	57                   	push   edi
10001a36:	56                   	push   esi
10001a37:	53                   	push   ebx
10001a38:	e8 fc ff ff ff       	call   10001a39 <scriptParse+0x161>	10001a39: R_386_PC32	readCalcWord
10001a3d:	8b 4d c4             	mov    ecx,DWORD PTR [ebp-0x3c]
10001a40:	0f b7 74 0b 08       	movzx  esi,WORD PTR [ebx+ecx*1+0x8]
10001a45:	8d 51 0a             	lea    edx,[ecx+0xa]
10001a48:	89 55 c4             	mov    DWORD PTR [ebp-0x3c],edx
10001a4b:	5f                   	pop    edi
10001a4c:	5f                   	pop    edi
10001a4d:	ff 74 0b 04          	push   DWORD PTR [ebx+ecx*1+0x4]
10001a51:	ff 34 0b             	push   DWORD PTR [ebx+ecx*1]
10001a54:	0f b7 c0             	movzx  eax,ax
10001a57:	50                   	push   eax
10001a58:	0f b7 7d b2          	movzx  edi,WORD PTR [ebp-0x4e]
10001a5c:	57                   	push   edi
10001a5d:	01 da                	add    edx,ebx
10001a5f:	52                   	push   edx
10001a60:	ff 75 b4             	push   DWORD PTR [ebp-0x4c]
10001a63:	e8 fc ff ff ff       	call   10001a64 <scriptParse+0x18c>	10001a64: R_386_PC32	Context_draw_text
10001a68:	eb 68                	jmp    10001ad2 <scriptParse+0x1fa>
10001a6a:	52                   	push   edx
10001a6b:	8d 7d c8             	lea    edi,[ebp-0x38]
10001a6e:	57                   	push   edi
10001a6f:	8d 75 c4             	lea    esi,[ebp-0x3c]
10001a72:	56                   	push   esi
10001a73:	53                   	push   ebx
10001a74:	e8 fc ff ff ff       	call   10001a75 <scriptParse+0x19d>	10001a75: R_386_PC32	readCalcWord
10001a79:	66 89 45 b2          	mov    WORD PTR [ebp-0x4e],ax
10001a7d:	83 c4 0c             	add    esp,0xc
10001a80:	57                   	push   edi
10001a81:	56                   	push   esi
10001a82:	53                   	push   ebx
10001a83:	e8 fc ff ff ff       	call   10001a84 <scriptParse+0x1ac>	10001a84: R_386_PC32	readCalcWord
10001a88:	66 89 45 b0          	mov    WORD PTR [ebp-0x50],ax
10001a8c:	83 c4 0c             	add    esp,0xc
10001a8f:	57                   	push   edi
10001a90:	56                   	push   esi
10001a91:	53                   	push   ebx
10001a92:	e8 fc ff ff ff       	call   10001a93 <scriptParse+0x1bb>	10001a93: R_386_PC32	readCalcWord
10001a97:	66 89 45 ae          	mov    WORD PTR [ebp-0x52],ax
10001a9b:	83 c4 0c             	add    esp,0xc
10001a9e:	57                   	push   edi
10001a9f:	56                   	push   esi
10001aa0:	53                   	push   ebx
10001aa1:	e8 fc ff ff ff       	call   10001aa2 <scriptParse+0x1ca>	10001aa2: R_386_PC32	readCalcWord
10001aa6:	8b 55 c4             	mov    edx,DWORD PTR [ebp-0x3c]
10001aa9:	8b 34 13             	mov    esi,DWORD PTR [ebx+edx*1]
10001aac:	83 c2 04             	add    edx,0x4
10001aaf:	89 55 c4             	mov    DWORD PTR [ebp-0x3c],edx
10001ab2:	59                   	pop    ecx
10001ab3:	5f                   	pop    edi
10001ab4:	0f b7 c0             	movzx  eax,ax
10001ab7:	50                   	push   eax
10001ab8:	0f b7 45 ae          	movzx  eax,WORD PTR [ebp-0x52]
10001abc:	50                   	push   eax
10001abd:	0f b7 45 b0          	movzx  eax,WORD PTR [ebp-0x50]
10001ac1:	50                   	push   eax
10001ac2:	0f b7 45 b2          	movzx  eax,WORD PTR [ebp-0x4e]
10001ac6:	50                   	push   eax
10001ac7:	01 da                	add    edx,ebx
10001ac9:	52                   	push   edx
10001aca:	ff 75 b4             	push   DWORD PTR [ebp-0x4c]
10001acd:	e8 fc ff ff ff       	call   10001ace <scriptParse+0x1f6>	10001ace: R_386_PC32	Context_draw_bitmap
10001ad2:	01 75 c4             	add    DWORD PTR [ebp-0x3c],esi
10001ad5:	e9 dc fe ff ff       	jmp    100019b6 <scriptParse+0xde>
10001ada:	0f b6 74 03 01       	movzx  esi,BYTE PTR [ebx+eax*1+0x1]
10001adf:	8d 50 02             	lea    edx,[eax+0x2]
10001ae2:	89 55 c4             	mov    DWORD PTR [ebp-0x3c],edx
10001ae5:	80 7d b2 09          	cmp    BYTE PTR [ebp-0x4e],0x9
10001ae9:	75 16                	jne    10001b01 <scriptParse+0x229>
10001aeb:	50                   	push   eax
10001aec:	8d 45 c8             	lea    eax,[ebp-0x38]
10001aef:	50                   	push   eax
10001af0:	8d 45 c4             	lea    eax,[ebp-0x3c]
10001af3:	50                   	push   eax
10001af4:	53                   	push   ebx
10001af5:	e8 fc ff ff ff       	call   10001af6 <scriptParse+0x21e>	10001af6: R_386_PC32	readCalcWord
10001afa:	89 c1                	mov    ecx,eax
10001afc:	83 c4 10             	add    esp,0x10
10001aff:	eb 0b                	jmp    10001b0c <scriptParse+0x234>
10001b01:	66 8b 4c 03 02       	mov    cx,WORD PTR [ebx+eax*1+0x2]
10001b06:	83 c0 04             	add    eax,0x4
10001b09:	89 45 c4             	mov    DWORD PTR [ebp-0x3c],eax
10001b0c:	89 f2                	mov    edx,esi
10001b0e:	83 e2 0f             	and    edx,0xf
10001b11:	89 f0                	mov    eax,esi
10001b13:	c0 e8 04             	shr    al,0x4
10001b16:	3c 0b                	cmp    al,0xb
10001b18:	75 0d                	jne    10001b27 <scriptParse+0x24f>
10001b1a:	88 c8                	mov    al,cl
10001b1c:	c0 e8 04             	shr    al,0x4
10001b1f:	83 e1 0f             	and    ecx,0xf
10001b22:	66 8b 4c 4d c8       	mov    cx,WORD PTR [ebp+ecx*2-0x38]
10001b27:	84 c0                	test   al,al
10001b29:	75 05                	jne    10001b30 <scriptParse+0x258>
10001b2b:	0f b6 d2             	movzx  edx,dl
10001b2e:	eb 2f                	jmp    10001b5f <scriptParse+0x287>
10001b30:	3c 01                	cmp    al,0x1
10001b32:	75 0d                	jne    10001b41 <scriptParse+0x269>
10001b34:	0f b6 d2             	movzx  edx,dl
10001b37:	66 01 4c 55 c8       	add    WORD PTR [ebp+edx*2-0x38],cx
10001b3c:	e9 d1 fd ff ff       	jmp    10001912 <scriptParse+0x3a>
10001b41:	3c 02                	cmp    al,0x2
10001b43:	75 0d                	jne    10001b52 <scriptParse+0x27a>
10001b45:	0f b6 d2             	movzx  edx,dl
10001b48:	66 29 4c 55 c8       	sub    WORD PTR [ebp+edx*2-0x38],cx
10001b4d:	e9 c0 fd ff ff       	jmp    10001912 <scriptParse+0x3a>
10001b52:	3c 03                	cmp    al,0x3
10001b54:	75 13                	jne    10001b69 <scriptParse+0x291>
10001b56:	0f b6 d2             	movzx  edx,dl
10001b59:	66 0f af 4c 55 c8    	imul   cx,WORD PTR [ebp+edx*2-0x38]
10001b5f:	66 89 4c 55 c8       	mov    WORD PTR [ebp+edx*2-0x38],cx
10001b64:	e9 a9 fd ff ff       	jmp    10001912 <scriptParse+0x3a>
10001b69:	3c 04                	cmp    al,0x4
10001b6b:	75 1c                	jne    10001b89 <scriptParse+0x2b1>
10001b6d:	0f b6 f2             	movzx  esi,dl
10001b70:	66 85 c9             	test   cx,cx
10001b73:	74 76                	je     10001beb <scriptParse+0x313>
10001b75:	66 8b 44 75 c8       	mov    ax,WORD PTR [ebp+esi*2-0x38]
10001b7a:	31 d2                	xor    edx,edx
10001b7c:	66 f7 f1             	div    cx
10001b7f:	66 89 44 75 c8       	mov    WORD PTR [ebp+esi*2-0x38],ax
10001b84:	e9 89 fd ff ff       	jmp    10001912 <scriptParse+0x3a>
10001b89:	3c 05                	cmp    al,0x5
10001b8b:	75 0d                	jne    10001b9a <scriptParse+0x2c2>
10001b8d:	0f b6 d2             	movzx  edx,dl
10001b90:	66 21 4c 55 c8       	and    WORD PTR [ebp+edx*2-0x38],cx
10001b95:	e9 78 fd ff ff       	jmp    10001912 <scriptParse+0x3a>
10001b9a:	3c 06                	cmp    al,0x6
10001b9c:	75 0d                	jne    10001bab <scriptParse+0x2d3>
10001b9e:	0f b6 d2             	movzx  edx,dl
10001ba1:	66 09 4c 55 c8       	or     WORD PTR [ebp+edx*2-0x38],cx
10001ba6:	e9 67 fd ff ff       	jmp    10001912 <scriptParse+0x3a>
10001bab:	3c 07                	cmp    al,0x7
10001bad:	75 0d                	jne    10001bbc <scriptParse+0x2e4>
10001baf:	0f b6 d2             	movzx  edx,dl
10001bb2:	66 31 4c 55 c8       	xor    WORD PTR [ebp+edx*2-0x38],cx
10001bb7:	e9 56 fd ff ff       	jmp    10001912 <scriptParse+0x3a>
10001bbc:	3c 08                	cmp    al,0x8
10001bbe:	75 0f                	jne    10001bcf <scriptParse+0x2f7>
10001bc0:	0f b6 d2             	movzx  edx,dl
10001bc3:	0f b7 44 55 c8       	movzx  eax,WORD PTR [ebp+edx*2-0x38]
10001bc8:	d3 e0                	shl    eax,cl
10001bca:	e9 82 00 00 00       	jmp    10001c51 <scriptParse+0x379>
10001bcf:	3c 09                	cmp    al,0x9
10001bd1:	75 0c                	jne    10001bdf <scriptParse+0x307>
10001bd3:	0f b6 d2             	movzx  edx,dl
10001bd6:	0f b7 44 55 c8       	movzx  eax,WORD PTR [ebp+edx*2-0x38]
10001bdb:	d3 f8                	sar    eax,cl
10001bdd:	eb 72                	jmp    10001c51 <scriptParse+0x379>
10001bdf:	3c 0a                	cmp    al,0xa
10001be1:	75 28                	jne    10001c0b <scriptParse+0x333>
10001be3:	0f b6 f2             	movzx  esi,dl
10001be6:	66 85 c9             	test   cx,cx
10001be9:	75 0c                	jne    10001bf7 <scriptParse+0x31f>
10001beb:	66 c7 44 75 c8 00 00 	mov    WORD PTR [ebp+esi*2-0x38],0x0
10001bf2:	e9 1b fd ff ff       	jmp    10001912 <scriptParse+0x3a>
10001bf7:	66 8b 44 75 c8       	mov    ax,WORD PTR [ebp+esi*2-0x38]
10001bfc:	31 d2                	xor    edx,edx
10001bfe:	66 f7 f1             	div    cx
10001c01:	66 89 54 75 c8       	mov    WORD PTR [ebp+esi*2-0x38],dx
10001c06:	e9 07 fd ff ff       	jmp    10001912 <scriptParse+0x3a>
10001c0b:	3c 0c                	cmp    al,0xc
10001c0d:	75 10                	jne    10001c1f <scriptParse+0x347>
10001c0f:	0f b6 d2             	movzx  edx,dl
10001c12:	31 c0                	xor    eax,eax
10001c14:	66 83 7c 55 c8 00    	cmp    WORD PTR [ebp+edx*2-0x38],0x0
10001c1a:	0f 94 c0             	sete   al
10001c1d:	eb 32                	jmp    10001c51 <scriptParse+0x379>
10001c1f:	3c 0d                	cmp    al,0xd
10001c21:	75 0d                	jne    10001c30 <scriptParse+0x358>
10001c23:	0f b6 d2             	movzx  edx,dl
10001c26:	66 f7 5c 55 c8       	neg    WORD PTR [ebp+edx*2-0x38]
10001c2b:	e9 e2 fc ff ff       	jmp    10001912 <scriptParse+0x3a>
10001c30:	3c 0e                	cmp    al,0xe
10001c32:	0f 85 da fc ff ff    	jne    10001912 <scriptParse+0x3a>
10001c38:	84 d2                	test   dl,dl
10001c3a:	75 0d                	jne    10001c49 <scriptParse+0x371>
10001c3c:	66 8b 45 e6          	mov    ax,WORD PTR [ebp-0x1a]
10001c40:	66 89 45 c8          	mov    WORD PTR [ebp-0x38],ax
10001c44:	e9 c9 fc ff ff       	jmp    10001912 <scriptParse+0x3a>
10001c49:	0f b6 d2             	movzx  edx,dl
10001c4c:	66 8b 44 55 c6       	mov    ax,WORD PTR [ebp+edx*2-0x3a]
10001c51:	66 89 44 55 c8       	mov    WORD PTR [ebp+edx*2-0x38],ax
10001c56:	e9 b7 fc ff ff       	jmp    10001912 <scriptParse+0x3a>
10001c5b:	8b 45 b4             	mov    eax,DWORD PTR [ebp-0x4c]
10001c5e:	8b 40 04             	mov    eax,DWORD PTR [eax+0x4]
10001c61:	89 45 c8             	mov    DWORD PTR [ebp-0x38],eax
10001c64:	8b 45 b4             	mov    eax,DWORD PTR [ebp-0x4c]
10001c67:	8b 40 08             	mov    eax,DWORD PTR [eax+0x8]
10001c6a:	66 89 45 cc          	mov    WORD PTR [ebp-0x34],ax
10001c6e:	8b 45 b4             	mov    eax,DWORD PTR [ebp-0x4c]
10001c71:	8b 40 0c             	mov    eax,DWORD PTR [eax+0xc]
10001c74:	66 89 45 ce          	mov    WORD PTR [ebp-0x32],ax
10001c78:	e9 95 fc ff ff       	jmp    10001912 <scriptParse+0x3a>
10001c7d:	8d 65 f4             	lea    esp,[ebp-0xc]
10001c80:	5b                   	pop    ebx
10001c81:	5e                   	pop    esi
10001c82:	5f                   	pop    edi
10001c83:	5d                   	pop    ebp
10001c84:	c3                   	ret    

10001c85 <getDesktop>:
10001c85:	a1 00 00 00 00       	mov    eax,ds:0x0	10001c86: R_386_32	desktop
10001c8a:	c3                   	ret    

10001c8b <blankMessage>:
10001c8b:	55                   	push   ebp
10001c8c:	89 e5                	mov    ebp,esp
10001c8e:	8b 45 08             	mov    eax,DWORD PTR [ebp+0x8]
10001c91:	c6 00 00             	mov    BYTE PTR [eax],0x0
10001c94:	8b 55 0c             	mov    edx,DWORD PTR [ebp+0xc]
10001c97:	89 50 04             	mov    DWORD PTR [eax+0x4],edx
10001c9a:	5d                   	pop    ebp
10001c9b:	c2 04 00             	ret    0x4

10001c9e <dispatchMessage>:
10001c9e:	55                   	push   ebp
10001c9f:	89 e5                	mov    ebp,esp
10001ca1:	57                   	push   edi
10001ca2:	56                   	push   esi
10001ca3:	8b 55 08             	mov    edx,DWORD PTR [ebp+0x8]
10001ca6:	8b 82 b0 01 00 00    	mov    eax,DWORD PTR [edx+0x1b0]
10001cac:	83 f8 10             	cmp    eax,0x10
10001caf:	74 1c                	je     10001ccd <dispatchMessage+0x2f>
10001cb1:	8d 48 01             	lea    ecx,[eax+0x1]
10001cb4:	89 8a b0 01 00 00    	mov    DWORD PTR [edx+0x1b0],ecx
10001cba:	6b c0 14             	imul   eax,eax,0x14
10001cbd:	8d 44 02 70          	lea    eax,[edx+eax*1+0x70]
10001cc1:	8d 75 0c             	lea    esi,[ebp+0xc]
10001cc4:	b9 05 00 00 00       	mov    ecx,0x5
10001cc9:	89 c7                	mov    edi,eax
10001ccb:	f3 a5                	rep movs DWORD PTR es:[edi],DWORD PTR ds:[esi]
10001ccd:	5e                   	pop    esi
10001cce:	5f                   	pop    edi
10001ccf:	5d                   	pop    ebp
10001cd0:	c3                   	ret    

10001cd1 <getMessage>:
10001cd1:	55                   	push   ebp
10001cd2:	89 e5                	mov    ebp,esp
10001cd4:	57                   	push   edi
10001cd5:	56                   	push   esi
10001cd6:	53                   	push   ebx
10001cd7:	51                   	push   ecx
10001cd8:	8b 45 08             	mov    eax,DWORD PTR [ebp+0x8]
10001cdb:	8b 90 b0 01 00 00    	mov    edx,DWORD PTR [eax+0x1b0]
10001ce1:	85 d2                	test   edx,edx
10001ce3:	74 3d                	je     10001d22 <getMessage+0x51>
10001ce5:	8d 5a ff             	lea    ebx,[edx-0x1]
10001ce8:	89 98 b0 01 00 00    	mov    DWORD PTR [eax+0x1b0],ebx
10001cee:	6b cb 14             	imul   ecx,ebx,0x14
10001cf1:	8d 74 08 70          	lea    esi,[eax+ecx*1+0x70]
10001cf5:	b9 05 00 00 00       	mov    ecx,0x5
10001cfa:	8b 7d 0c             	mov    edi,DWORD PTR [ebp+0xc]
10001cfd:	f3 a5                	rep movs DWORD PTR es:[edi],DWORD PTR ds:[esi]
10001cff:	83 c0 70             	add    eax,0x70
10001d02:	c7 45 f0 00 00 00 00 	mov    DWORD PTR [ebp-0x10],0x0
10001d09:	83 c0 14             	add    eax,0x14
10001d0c:	3b 5d f0             	cmp    ebx,DWORD PTR [ebp-0x10]
10001d0f:	7e 11                	jle    10001d22 <getMessage+0x51>
10001d11:	ff 45 f0             	inc    DWORD PTR [ebp-0x10]
10001d14:	8d 78 ec             	lea    edi,[eax-0x14]
10001d17:	b9 05 00 00 00       	mov    ecx,0x5
10001d1c:	89 c6                	mov    esi,eax
10001d1e:	f3 a5                	rep movs DWORD PTR es:[edi],DWORD PTR ds:[esi]
10001d20:	eb e7                	jmp    10001d09 <getMessage+0x38>
10001d22:	89 d0                	mov    eax,edx
10001d24:	5a                   	pop    edx
10001d25:	5b                   	pop    ebx
10001d26:	5e                   	pop    esi
10001d27:	5f                   	pop    edi
10001d28:	5d                   	pop    ebp
10001d29:	c3                   	ret    

10001d2a <guiDefaultProc>:
10001d2a:	c3                   	ret    

10001d2b <createWindow>:
10001d2b:	31 c0                	xor    eax,eax
10001d2d:	c3                   	ret    

10001d2e <addWindow>:
10001d2e:	c3                   	ret    

10001d2f <updateWindow>:
10001d2f:	55                   	push   ebp
10001d30:	89 e5                	mov    ebp,esp
10001d32:	57                   	push   edi
10001d33:	56                   	push   esi
10001d34:	83 ec 3c             	sub    esp,0x3c
10001d37:	8b 55 08             	mov    edx,DWORD PTR [ebp+0x8]
10001d3a:	c6 45 e4 01          	mov    BYTE PTR [ebp-0x1c],0x1
10001d3e:	8b 45 0c             	mov    eax,DWORD PTR [ebp+0xc]
10001d41:	89 45 ec             	mov    DWORD PTR [ebp-0x14],eax
10001d44:	8b 45 10             	mov    eax,DWORD PTR [ebp+0x10]
10001d47:	89 45 f0             	mov    DWORD PTR [ebp-0x10],eax
10001d4a:	8b 45 14             	mov    eax,DWORD PTR [ebp+0x14]
10001d4d:	89 45 f4             	mov    DWORD PTR [ebp-0xc],eax
10001d50:	8a 4d 18             	mov    cl,BYTE PTR [ebp+0x18]
10001d53:	c1 e1 07             	shl    ecx,0x7
10001d56:	8a 45 e5             	mov    al,BYTE PTR [ebp-0x1b]
10001d59:	83 e0 7f             	and    eax,0x7f
10001d5c:	09 c8                	or     eax,ecx
10001d5e:	88 45 e5             	mov    BYTE PTR [ebp-0x1b],al
10001d61:	89 55 e8             	mov    DWORD PTR [ebp-0x18],edx
10001d64:	8d 75 e4             	lea    esi,[ebp-0x1c]
10001d67:	b9 05 00 00 00       	mov    ecx,0x5
10001d6c:	89 e7                	mov    edi,esp
10001d6e:	f3 a5                	rep movs DWORD PTR es:[edi],DWORD PTR ds:[esi]
10001d70:	52                   	push   edx
10001d71:	e8 fc ff ff ff       	call   10001d72 <updateWindow+0x43>	10001d72: R_386_PC32	dispatchMessage
10001d76:	83 c4 20             	add    esp,0x20
10001d79:	8d 65 f8             	lea    esp,[ebp-0x8]
10001d7c:	5e                   	pop    esi
10001d7d:	5f                   	pop    edi
10001d7e:	5d                   	pop    ebp
10001d7f:	c3                   	ret    

10001d80 <raiseWindow>:
10001d80:	55                   	push   ebp
10001d81:	89 e5                	mov    ebp,esp
10001d83:	83 ec 10             	sub    esp,0x10
10001d86:	6a 01                	push   0x1
10001d88:	ff 75 08             	push   DWORD PTR [ebp+0x8]
10001d8b:	e8 fc ff ff ff       	call   10001d8c <raiseWindow+0xc>	10001d8c: R_386_PC32	Window_raise
10001d90:	83 c4 10             	add    esp,0x10
10001d93:	c9                   	leave  
10001d94:	c3                   	ret    

10001d95 <setWindowTitle>:
10001d95:	e9 fc ff ff ff       	jmp    10001d96 <setWindowTitle+0x1>	10001d96: R_386_PC32	Window_set_title

10001d9a <getWindowContext>:
10001d9a:	55                   	push   ebp
10001d9b:	89 e5                	mov    ebp,esp
10001d9d:	8b 45 08             	mov    eax,DWORD PTR [ebp+0x8]
10001da0:	8b 40 10             	mov    eax,DWORD PTR [eax+0x10]
10001da3:	5d                   	pop    ebp
10001da4:	c3                   	ret    

10001da5 <sysWSBE>:
10001da5:	55                   	push   ebp
10001da6:	89 e5                	mov    ebp,esp
10001da8:	57                   	push   edi
10001da9:	56                   	push   esi
10001daa:	53                   	push   ebx
10001dab:	83 ec 1c             	sub    esp,0x1c
10001dae:	8b 7d 08             	mov    edi,DWORD PTR [ebp+0x8]
10001db1:	8b 4f 20             	mov    ecx,DWORD PTR [edi+0x20]
10001db4:	85 c9                	test   ecx,ecx
10001db6:	75 56                	jne    10001e0e <sysWSBE+0x69>
10001db8:	8b 5f 28             	mov    ebx,DWORD PTR [edi+0x28]
10001dbb:	83 ec 0c             	sub    esp,0xc
10001dbe:	68 bc 01 00 00       	push   0x1bc
10001dc3:	e8 fc ff ff ff       	call   10001dc4 <sysWSBE+0x1f>	10001dc4: R_386_PC32	malloc
10001dc8:	89 c6                	mov    esi,eax
10001dca:	83 c4 0c             	add    esp,0xc
10001dcd:	6a 00                	push   0x0
10001dcf:	0f b7 43 0c          	movzx  eax,WORD PTR [ebx+0xc]
10001dd3:	50                   	push   eax
10001dd4:	0f b7 43 06          	movzx  eax,WORD PTR [ebx+0x6]
10001dd8:	50                   	push   eax
10001dd9:	0f b7 43 04          	movzx  eax,WORD PTR [ebx+0x4]
10001ddd:	50                   	push   eax
10001dde:	0f bf 43 02          	movsx  eax,WORD PTR [ebx+0x2]
10001de2:	50                   	push   eax
10001de3:	0f bf 03             	movsx  eax,WORD PTR [ebx]
10001de6:	50                   	push   eax
10001de7:	56                   	push   esi
10001de8:	e8 fc ff ff ff       	call   10001de9 <sysWSBE+0x44>	10001de9: R_386_PC32	Window_init
10001ded:	83 c4 18             	add    esp,0x18
10001df0:	68 fb 3b 00 10       	push   0x10003bfb	10001df1: R_386_32	.text
10001df5:	56                   	push   esi
10001df6:	e8 fc ff ff ff       	call   10001df7 <sysWSBE+0x52>	10001df7: R_386_PC32	Window_set_title
10001dfb:	c6 86 b4 01 00 00 01 	mov    BYTE PTR [esi+0x1b4],0x1
10001e02:	89 f0                	mov    eax,esi
10001e04:	31 d2                	xor    edx,edx
10001e06:	83 c4 10             	add    esp,0x10
10001e09:	e9 04 01 00 00       	jmp    10001f12 <sysWSBE+0x16d>
10001e0e:	83 f9 01             	cmp    ecx,0x1
10001e11:	75 0f                	jne    10001e22 <sysWSBE+0x7d>
10001e13:	51                   	push   ecx
10001e14:	51                   	push   ecx
10001e15:	ff 77 24             	push   DWORD PTR [edi+0x24]
10001e18:	ff 77 28             	push   DWORD PTR [edi+0x28]
10001e1b:	e8 fc ff ff ff       	call   10001e1c <sysWSBE+0x77>	10001e1c: R_386_PC32	Window_set_title
10001e20:	eb 12                	jmp    10001e34 <sysWSBE+0x8f>
10001e22:	83 f9 02             	cmp    ecx,0x2
10001e25:	75 19                	jne    10001e40 <sysWSBE+0x9b>
10001e27:	52                   	push   edx
10001e28:	6a 01                	push   0x1
10001e2a:	6a 00                	push   0x0
10001e2c:	ff 77 28             	push   DWORD PTR [edi+0x28]
10001e2f:	e8 fc ff ff ff       	call   10001e30 <sysWSBE+0x8b>	10001e30: R_386_PC32	Window_paint
10001e34:	83 c4 10             	add    esp,0x10
10001e37:	31 c0                	xor    eax,eax
10001e39:	31 d2                	xor    edx,edx
10001e3b:	e9 d2 00 00 00       	jmp    10001f12 <sysWSBE+0x16d>
10001e40:	83 f9 03             	cmp    ecx,0x3
10001e43:	75 0f                	jne    10001e54 <sysWSBE+0xaf>
10001e45:	50                   	push   eax
10001e46:	50                   	push   eax
10001e47:	ff 77 24             	push   DWORD PTR [edi+0x24]
10001e4a:	ff 77 28             	push   DWORD PTR [edi+0x28]
10001e4d:	e8 fc ff ff ff       	call   10001e4e <sysWSBE+0xa9>	10001e4e: R_386_PC32	Window_insert_child
10001e52:	eb e0                	jmp    10001e34 <sysWSBE+0x8f>
10001e54:	a1 00 00 00 00       	mov    eax,ds:0x0	10001e55: R_386_32	desktop
10001e59:	83 f9 04             	cmp    ecx,0x4
10001e5c:	74 db                	je     10001e39 <sysWSBE+0x94>
10001e5e:	83 f9 05             	cmp    ecx,0x5
10001e61:	75 3d                	jne    10001ea0 <sysWSBE+0xfb>
10001e63:	8b 5f 28             	mov    ebx,DWORD PTR [edi+0x28]
10001e66:	8b 53 10             	mov    edx,DWORD PTR [ebx+0x10]
10001e69:	89 55 e0             	mov    DWORD PTR [ebp-0x20],edx
10001e6c:	8b 4b 0c             	mov    ecx,DWORD PTR [ebx+0xc]
10001e6f:	83 ec 0c             	sub    esp,0xc
10001e72:	8d 41 02             	lea    eax,[ecx+0x2]
10001e75:	89 4d e4             	mov    DWORD PTR [ebp-0x1c],ecx
10001e78:	50                   	push   eax
10001e79:	e8 fc ff ff ff       	call   10001e7a <sysWSBE+0xd5>	10001e7a: R_386_PC32	malloc
10001e7e:	8b 55 e0             	mov    edx,DWORD PTR [ebp-0x20]
10001e81:	89 82 b8 01 00 00    	mov    DWORD PTR [edx+0x1b8],eax
10001e87:	8b 77 24             	mov    esi,DWORD PTR [edi+0x24]
10001e8a:	89 c7                	mov    edi,eax
10001e8c:	8b 4d e4             	mov    ecx,DWORD PTR [ebp-0x1c]
10001e8f:	f3 a4                	rep movs BYTE PTR es:[edi],BYTE PTR ds:[esi]
10001e91:	8b 92 b8 01 00 00    	mov    edx,DWORD PTR [edx+0x1b8]
10001e97:	8b 43 0c             	mov    eax,DWORD PTR [ebx+0xc]
10001e9a:	c6 04 02 08          	mov    BYTE PTR [edx+eax*1],0x8
10001e9e:	eb 94                	jmp    10001e34 <sysWSBE+0x8f>
10001ea0:	83 f9 07             	cmp    ecx,0x7
10001ea3:	75 19                	jne    10001ebe <sysWSBE+0x119>
10001ea5:	8b 47 28             	mov    eax,DWORD PTR [edi+0x28]
10001ea8:	ff 70 18             	push   DWORD PTR [eax+0x18]
10001eab:	ff 70 14             	push   DWORD PTR [eax+0x14]
10001eae:	ff 70 0c             	push   DWORD PTR [eax+0xc]
10001eb1:	ff 70 10             	push   DWORD PTR [eax+0x10]
10001eb4:	e8 fc ff ff ff       	call   10001eb5 <sysWSBE+0x110>	10001eb5: R_386_PC32	Context_text_width_height
10001eb9:	e9 76 ff ff ff       	jmp    10001e34 <sysWSBE+0x8f>
10001ebe:	31 c0                	xor    eax,eax
10001ec0:	31 d2                	xor    edx,edx
10001ec2:	83 f9 08             	cmp    ecx,0x8
10001ec5:	75 4b                	jne    10001f12 <sysWSBE+0x16d>
10001ec7:	8b 5f 28             	mov    ebx,DWORD PTR [edi+0x28]
10001eca:	8b b3 b0 01 00 00    	mov    esi,DWORD PTR [ebx+0x1b0]
10001ed0:	89 75 e4             	mov    DWORD PTR [ebp-0x1c],esi
10001ed3:	85 f6                	test   esi,esi
10001ed5:	74 3b                	je     10001f12 <sysWSBE+0x16d>
10001ed7:	8b 57 24             	mov    edx,DWORD PTR [edi+0x24]
10001eda:	89 f0                	mov    eax,esi
10001edc:	48                   	dec    eax
10001edd:	89 83 b0 01 00 00    	mov    DWORD PTR [ebx+0x1b0],eax
10001ee3:	6b c8 14             	imul   ecx,eax,0x14
10001ee6:	8d 74 0b 70          	lea    esi,[ebx+ecx*1+0x70]
10001eea:	b9 05 00 00 00       	mov    ecx,0x5
10001eef:	89 d7                	mov    edi,edx
10001ef1:	f3 a5                	rep movs DWORD PTR es:[edi],DWORD PTR ds:[esi]
10001ef3:	8d 53 70             	lea    edx,[ebx+0x70]
10001ef6:	31 db                	xor    ebx,ebx
10001ef8:	83 c2 14             	add    edx,0x14
10001efb:	39 d8                	cmp    eax,ebx
10001efd:	7e 0f                	jle    10001f0e <sysWSBE+0x169>
10001eff:	43                   	inc    ebx
10001f00:	8d 7a ec             	lea    edi,[edx-0x14]
10001f03:	b9 05 00 00 00       	mov    ecx,0x5
10001f08:	89 d6                	mov    esi,edx
10001f0a:	f3 a5                	rep movs DWORD PTR es:[edi],DWORD PTR ds:[esi]
10001f0c:	eb ea                	jmp    10001ef8 <sysWSBE+0x153>
10001f0e:	8b 45 e4             	mov    eax,DWORD PTR [ebp-0x1c]
10001f11:	99                   	cdq    
10001f12:	8d 65 f4             	lea    esp,[ebp-0xc]
10001f15:	5b                   	pop    ebx
10001f16:	5e                   	pop    esi
10001f17:	5f                   	pop    edi
10001f18:	5d                   	pop    ebp
10001f19:	c3                   	ret    

10001f1a <List_new>:
10001f1a:	55                   	push   ebp
10001f1b:	89 e5                	mov    ebp,esp
10001f1d:	83 ec 14             	sub    esp,0x14
10001f20:	6a 08                	push   0x8
10001f22:	e8 fc ff ff ff       	call   10001f23 <List_new+0x9>	10001f23: R_386_PC32	malloc
10001f27:	83 c4 10             	add    esp,0x10
10001f2a:	85 c0                	test   eax,eax
10001f2c:	74 0d                	je     10001f3b <List_new+0x21>
10001f2e:	c7 00 00 00 00 00    	mov    DWORD PTR [eax],0x0
10001f34:	c7 40 04 00 00 00 00 	mov    DWORD PTR [eax+0x4],0x0
10001f3b:	c9                   	leave  
10001f3c:	c3                   	ret    

10001f3d <List_add>:
10001f3d:	55                   	push   ebp
10001f3e:	89 e5                	mov    ebp,esp
10001f40:	53                   	push   ebx
10001f41:	83 ec 10             	sub    esp,0x10
10001f44:	8b 5d 08             	mov    ebx,DWORD PTR [ebp+0x8]
10001f47:	ff 75 0c             	push   DWORD PTR [ebp+0xc]
10001f4a:	e8 fc ff ff ff       	call   10001f4b <List_add+0xe>	10001f4b: R_386_PC32	ListNode_new
10001f4f:	89 c1                	mov    ecx,eax
10001f51:	83 c4 10             	add    esp,0x10
10001f54:	31 c0                	xor    eax,eax
10001f56:	85 c9                	test   ecx,ecx
10001f58:	74 24                	je     10001f7e <List_add+0x41>
10001f5a:	8b 53 04             	mov    edx,DWORD PTR [ebx+0x4]
10001f5d:	85 d2                	test   edx,edx
10001f5f:	75 05                	jne    10001f66 <List_add+0x29>
10001f61:	89 4b 04             	mov    DWORD PTR [ebx+0x4],ecx
10001f64:	eb 11                	jmp    10001f77 <List_add+0x3a>
10001f66:	8b 42 08             	mov    eax,DWORD PTR [edx+0x8]
10001f69:	85 c0                	test   eax,eax
10001f6b:	74 04                	je     10001f71 <List_add+0x34>
10001f6d:	89 c2                	mov    edx,eax
10001f6f:	eb f5                	jmp    10001f66 <List_add+0x29>
10001f71:	89 4a 08             	mov    DWORD PTR [edx+0x8],ecx
10001f74:	89 51 04             	mov    DWORD PTR [ecx+0x4],edx
10001f77:	ff 03                	inc    DWORD PTR [ebx]
10001f79:	b8 01 00 00 00       	mov    eax,0x1
10001f7e:	8b 5d fc             	mov    ebx,DWORD PTR [ebp-0x4]
10001f81:	c9                   	leave  
10001f82:	c3                   	ret    

10001f83 <List_copy>:
10001f83:	55                   	push   ebp
10001f84:	89 e5                	mov    ebp,esp
10001f86:	56                   	push   esi
10001f87:	53                   	push   ebx
10001f88:	83 ec 0c             	sub    esp,0xc
10001f8b:	68 cc 3b 00 10       	push   0x10003bcc	10001f8c: R_386_32	.text
10001f90:	e8 fc ff ff ff       	call   10001f91 <List_copy+0xe>	10001f91: R_386_PC32	debugwrite
10001f95:	c7 04 24 08 00 00 00 	mov    DWORD PTR [esp],0x8
10001f9c:	e8 fc ff ff ff       	call   10001f9d <List_copy+0x1a>	10001f9d: R_386_PC32	malloc
10001fa1:	89 c3                	mov    ebx,eax
10001fa3:	c7 00 00 00 00 00    	mov    DWORD PTR [eax],0x0
10001fa9:	c7 40 04 00 00 00 00 	mov    DWORD PTR [eax+0x4],0x0
10001fb0:	8b 45 08             	mov    eax,DWORD PTR [ebp+0x8]
10001fb3:	8b 70 04             	mov    esi,DWORD PTR [eax+0x4]
10001fb6:	83 c4 10             	add    esp,0x10
10001fb9:	85 f6                	test   esi,esi
10001fbb:	74 28                	je     10001fe5 <List_copy+0x62>
10001fbd:	83 ec 0c             	sub    esp,0xc
10001fc0:	68 dd 3b 00 10       	push   0x10003bdd	10001fc1: R_386_32	.text
10001fc5:	e8 fc ff ff ff       	call   10001fc6 <List_copy+0x43>	10001fc6: R_386_PC32	debugwrite
10001fca:	58                   	pop    eax
10001fcb:	5a                   	pop    edx
10001fcc:	ff 36                	push   DWORD PTR [esi]
10001fce:	53                   	push   ebx
10001fcf:	e8 fc ff ff ff       	call   10001fd0 <List_copy+0x4d>	10001fd0: R_386_PC32	List_add
10001fd4:	8b 76 08             	mov    esi,DWORD PTR [esi+0x8]
10001fd7:	c7 04 24 ed 3b 00 10 	mov    DWORD PTR [esp],0x10003bed	10001fda: R_386_32	.text
10001fde:	e8 fc ff ff ff       	call   10001fdf <List_copy+0x5c>	10001fdf: R_386_PC32	debugwrite
10001fe3:	eb d1                	jmp    10001fb6 <List_copy+0x33>
10001fe5:	83 ec 0c             	sub    esp,0xc
10001fe8:	68 fc 3b 00 10       	push   0x10003bfc	10001fe9: R_386_32	.text
10001fed:	e8 fc ff ff ff       	call   10001fee <List_copy+0x6b>	10001fee: R_386_PC32	debugwrite
10001ff2:	89 d8                	mov    eax,ebx
10001ff4:	8d 65 f8             	lea    esp,[ebp-0x8]
10001ff7:	5b                   	pop    ebx
10001ff8:	5e                   	pop    esi
10001ff9:	5d                   	pop    ebp
10001ffa:	c3                   	ret    

10001ffb <List_get_at>:
10001ffb:	55                   	push   ebp
10001ffc:	89 e5                	mov    ebp,esp
10001ffe:	8b 45 08             	mov    eax,DWORD PTR [ebp+0x8]
10002001:	8b 4d 0c             	mov    ecx,DWORD PTR [ebp+0xc]
10002004:	8b 10                	mov    edx,DWORD PTR [eax]
10002006:	39 ca                	cmp    edx,ecx
10002008:	76 21                	jbe    1000202b <List_get_at+0x30>
1000200a:	85 d2                	test   edx,edx
1000200c:	74 1d                	je     1000202b <List_get_at+0x30>
1000200e:	8b 50 04             	mov    edx,DWORD PTR [eax+0x4]
10002011:	31 c0                	xor    eax,eax
10002013:	39 c8                	cmp    eax,ecx
10002015:	74 0a                	je     10002021 <List_get_at+0x26>
10002017:	85 d2                	test   edx,edx
10002019:	74 10                	je     1000202b <List_get_at+0x30>
1000201b:	8b 52 08             	mov    edx,DWORD PTR [edx+0x8]
1000201e:	40                   	inc    eax
1000201f:	eb f2                	jmp    10002013 <List_get_at+0x18>
10002021:	31 c0                	xor    eax,eax
10002023:	85 d2                	test   edx,edx
10002025:	74 06                	je     1000202d <List_get_at+0x32>
10002027:	8b 02                	mov    eax,DWORD PTR [edx]
10002029:	eb 02                	jmp    1000202d <List_get_at+0x32>
1000202b:	31 c0                	xor    eax,eax
1000202d:	5d                   	pop    ebp
1000202e:	c3                   	ret    

1000202f <List_remove_at>:
1000202f:	55                   	push   ebp
10002030:	89 e5                	mov    ebp,esp
10002032:	57                   	push   edi
10002033:	56                   	push   esi
10002034:	53                   	push   ebx
10002035:	83 ec 0c             	sub    esp,0xc
10002038:	8b 5d 08             	mov    ebx,DWORD PTR [ebp+0x8]
1000203b:	8b 4d 0c             	mov    ecx,DWORD PTR [ebp+0xc]
1000203e:	8b 03                	mov    eax,DWORD PTR [ebx]
10002040:	39 c8                	cmp    eax,ecx
10002042:	76 4d                	jbe    10002091 <List_remove_at+0x62>
10002044:	85 c0                	test   eax,eax
10002046:	74 49                	je     10002091 <List_remove_at+0x62>
10002048:	8b 53 04             	mov    edx,DWORD PTR [ebx+0x4]
1000204b:	31 c0                	xor    eax,eax
1000204d:	39 c8                	cmp    eax,ecx
1000204f:	74 0a                	je     1000205b <List_remove_at+0x2c>
10002051:	85 d2                	test   edx,edx
10002053:	74 3c                	je     10002091 <List_remove_at+0x62>
10002055:	8b 52 08             	mov    edx,DWORD PTR [edx+0x8]
10002058:	40                   	inc    eax
10002059:	eb f2                	jmp    1000204d <List_remove_at+0x1e>
1000205b:	31 f6                	xor    esi,esi
1000205d:	85 d2                	test   edx,edx
1000205f:	74 32                	je     10002093 <List_remove_at+0x64>
10002061:	8b 32                	mov    esi,DWORD PTR [edx]
10002063:	8b 7a 04             	mov    edi,DWORD PTR [edx+0x4]
10002066:	85 ff                	test   edi,edi
10002068:	74 06                	je     10002070 <List_remove_at+0x41>
1000206a:	8b 42 08             	mov    eax,DWORD PTR [edx+0x8]
1000206d:	89 47 08             	mov    DWORD PTR [edi+0x8],eax
10002070:	8b 42 08             	mov    eax,DWORD PTR [edx+0x8]
10002073:	85 c0                	test   eax,eax
10002075:	74 03                	je     1000207a <List_remove_at+0x4b>
10002077:	89 78 04             	mov    DWORD PTR [eax+0x4],edi
1000207a:	85 c9                	test   ecx,ecx
1000207c:	75 03                	jne    10002081 <List_remove_at+0x52>
1000207e:	89 43 04             	mov    DWORD PTR [ebx+0x4],eax
10002081:	83 ec 0c             	sub    esp,0xc
10002084:	52                   	push   edx
10002085:	e8 fc ff ff ff       	call   10002086 <List_remove_at+0x57>	10002086: R_386_PC32	free
1000208a:	ff 0b                	dec    DWORD PTR [ebx]
1000208c:	83 c4 10             	add    esp,0x10
1000208f:	eb 02                	jmp    10002093 <List_remove_at+0x64>
10002091:	31 f6                	xor    esi,esi
10002093:	89 f0                	mov    eax,esi
10002095:	8d 65 f4             	lea    esp,[ebp-0xc]
10002098:	5b                   	pop    ebx
10002099:	5e                   	pop    esi
1000209a:	5f                   	pop    edi
1000209b:	5d                   	pop    ebp
1000209c:	c3                   	ret    

1000209d <ListNode_new>:
1000209d:	55                   	push   ebp
1000209e:	89 e5                	mov    ebp,esp
100020a0:	83 ec 14             	sub    esp,0x14
100020a3:	6a 0c                	push   0xc
100020a5:	e8 fc ff ff ff       	call   100020a6 <ListNode_new+0x9>	100020a6: R_386_PC32	malloc
100020aa:	83 c4 10             	add    esp,0x10
100020ad:	85 c0                	test   eax,eax
100020af:	74 13                	je     100020c4 <ListNode_new+0x27>
100020b1:	c7 40 04 00 00 00 00 	mov    DWORD PTR [eax+0x4],0x0
100020b8:	c7 40 08 00 00 00 00 	mov    DWORD PTR [eax+0x8],0x0
100020bf:	8b 55 08             	mov    edx,DWORD PTR [ebp+0x8]
100020c2:	89 10                	mov    DWORD PTR [eax],edx
100020c4:	c9                   	leave  
100020c5:	c3                   	ret    

100020c6 <Rect_new>:
100020c6:	55                   	push   ebp
100020c7:	89 e5                	mov    ebp,esp
100020c9:	83 ec 14             	sub    esp,0x14
100020cc:	6a 10                	push   0x10
100020ce:	e8 fc ff ff ff       	call   100020cf <Rect_new+0x9>	100020cf: R_386_PC32	malloc
100020d3:	83 c4 10             	add    esp,0x10
100020d6:	85 c0                	test   eax,eax
100020d8:	74 17                	je     100020f1 <Rect_new+0x2b>
100020da:	8b 55 08             	mov    edx,DWORD PTR [ebp+0x8]
100020dd:	89 10                	mov    DWORD PTR [eax],edx
100020df:	8b 55 0c             	mov    edx,DWORD PTR [ebp+0xc]
100020e2:	89 50 04             	mov    DWORD PTR [eax+0x4],edx
100020e5:	8b 55 10             	mov    edx,DWORD PTR [ebp+0x10]
100020e8:	89 50 08             	mov    DWORD PTR [eax+0x8],edx
100020eb:	8b 55 14             	mov    edx,DWORD PTR [ebp+0x14]
100020ee:	89 50 0c             	mov    DWORD PTR [eax+0xc],edx
100020f1:	c9                   	leave  
100020f2:	c3                   	ret    

100020f3 <Rect_split>:
100020f3:	55                   	push   ebp
100020f4:	89 e5                	mov    ebp,esp
100020f6:	57                   	push   edi
100020f7:	56                   	push   esi
100020f8:	53                   	push   ebx
100020f9:	83 ec 1c             	sub    esp,0x1c
100020fc:	8b 75 0c             	mov    esi,DWORD PTR [ebp+0xc]
100020ff:	e8 fc ff ff ff       	call   10002100 <Rect_split+0xd>	10002100: R_386_PC32	List_new
10002104:	89 c3                	mov    ebx,eax
10002106:	85 c0                	test   eax,eax
10002108:	0f 84 4b 01 00 00    	je     10002259 <Rect_split+0x166>
1000210e:	8b 55 08             	mov    edx,DWORD PTR [ebp+0x8]
10002111:	8b 3a                	mov    edi,DWORD PTR [edx]
10002113:	8b 42 04             	mov    eax,DWORD PTR [edx+0x4]
10002116:	89 45 e4             	mov    DWORD PTR [ebp-0x1c],eax
10002119:	8b 42 08             	mov    eax,DWORD PTR [edx+0x8]
1000211c:	89 45 dc             	mov    DWORD PTR [ebp-0x24],eax
1000211f:	8b 42 0c             	mov    eax,DWORD PTR [edx+0xc]
10002122:	89 45 e0             	mov    DWORD PTR [ebp-0x20],eax
10002125:	8b 46 04             	mov    eax,DWORD PTR [esi+0x4]
10002128:	39 45 e4             	cmp    DWORD PTR [ebp-0x1c],eax
1000212b:	7d 30                	jge    1000215d <Rect_split+0x6a>
1000212d:	39 45 e0             	cmp    DWORD PTR [ebp-0x20],eax
10002130:	7c 2b                	jl     1000215d <Rect_split+0x6a>
10002132:	48                   	dec    eax
10002133:	50                   	push   eax
10002134:	ff 75 dc             	push   DWORD PTR [ebp-0x24]
10002137:	ff 75 e4             	push   DWORD PTR [ebp-0x1c]
1000213a:	57                   	push   edi
1000213b:	e8 fc ff ff ff       	call   1000213c <Rect_split+0x49>	1000213c: R_386_PC32	Rect_new
10002140:	83 c4 10             	add    esp,0x10
10002143:	85 c0                	test   eax,eax
10002145:	0f 84 f2 00 00 00    	je     1000223d <Rect_split+0x14a>
1000214b:	51                   	push   ecx
1000214c:	51                   	push   ecx
1000214d:	50                   	push   eax
1000214e:	53                   	push   ebx
1000214f:	e8 fc ff ff ff       	call   10002150 <Rect_split+0x5d>	10002150: R_386_PC32	List_add
10002154:	8b 46 04             	mov    eax,DWORD PTR [esi+0x4]
10002157:	89 45 e4             	mov    DWORD PTR [ebp-0x1c],eax
1000215a:	83 c4 10             	add    esp,0x10
1000215d:	8b 06                	mov    eax,DWORD PTR [esi]
1000215f:	39 45 dc             	cmp    DWORD PTR [ebp-0x24],eax
10002162:	7c 48                	jl     100021ac <Rect_split+0xb9>
10002164:	39 c7                	cmp    edi,eax
10002166:	7d 44                	jge    100021ac <Rect_split+0xb9>
10002168:	ff 75 e0             	push   DWORD PTR [ebp-0x20]
1000216b:	48                   	dec    eax
1000216c:	50                   	push   eax
1000216d:	ff 75 e4             	push   DWORD PTR [ebp-0x1c]
10002170:	57                   	push   edi
10002171:	e8 fc ff ff ff       	call   10002172 <Rect_split+0x7f>	10002172: R_386_PC32	Rect_new
10002176:	83 c4 10             	add    esp,0x10
10002179:	85 c0                	test   eax,eax
1000217b:	75 21                	jne    1000219e <Rect_split+0xab>
1000217d:	83 3b 00             	cmp    DWORD PTR [ebx],0x0
10002180:	0f 84 b7 00 00 00    	je     1000223d <Rect_split+0x14a>
10002186:	83 ec 0c             	sub    esp,0xc
10002189:	50                   	push   eax
1000218a:	e8 fc ff ff ff       	call   1000218b <Rect_split+0x98>	1000218b: R_386_PC32	free
1000218f:	58                   	pop    eax
10002190:	5a                   	pop    edx
10002191:	6a 00                	push   0x0
10002193:	53                   	push   ebx
10002194:	e8 fc ff ff ff       	call   10002195 <Rect_split+0xa2>	10002195: R_386_PC32	List_remove_at
10002199:	83 c4 10             	add    esp,0x10
1000219c:	eb df                	jmp    1000217d <Rect_split+0x8a>
1000219e:	57                   	push   edi
1000219f:	57                   	push   edi
100021a0:	50                   	push   eax
100021a1:	53                   	push   ebx
100021a2:	e8 fc ff ff ff       	call   100021a3 <Rect_split+0xb0>	100021a3: R_386_PC32	List_add
100021a7:	8b 3e                	mov    edi,DWORD PTR [esi]
100021a9:	83 c4 10             	add    esp,0x10
100021ac:	8b 46 0c             	mov    eax,DWORD PTR [esi+0xc]
100021af:	3b 45 e4             	cmp    eax,DWORD PTR [ebp-0x1c]
100021b2:	7c 49                	jl     100021fd <Rect_split+0x10a>
100021b4:	39 45 e0             	cmp    DWORD PTR [ebp-0x20],eax
100021b7:	7e 44                	jle    100021fd <Rect_split+0x10a>
100021b9:	ff 75 e0             	push   DWORD PTR [ebp-0x20]
100021bc:	ff 75 dc             	push   DWORD PTR [ebp-0x24]
100021bf:	40                   	inc    eax
100021c0:	50                   	push   eax
100021c1:	57                   	push   edi
100021c2:	e8 fc ff ff ff       	call   100021c3 <Rect_split+0xd0>	100021c3: R_386_PC32	Rect_new
100021c7:	83 c4 10             	add    esp,0x10
100021ca:	85 c0                	test   eax,eax
100021cc:	75 1d                	jne    100021eb <Rect_split+0xf8>
100021ce:	83 3b 00             	cmp    DWORD PTR [ebx],0x0
100021d1:	74 6a                	je     1000223d <Rect_split+0x14a>
100021d3:	83 ec 0c             	sub    esp,0xc
100021d6:	50                   	push   eax
100021d7:	e8 fc ff ff ff       	call   100021d8 <Rect_split+0xe5>	100021d8: R_386_PC32	free
100021dc:	59                   	pop    ecx
100021dd:	5e                   	pop    esi
100021de:	6a 00                	push   0x0
100021e0:	53                   	push   ebx
100021e1:	e8 fc ff ff ff       	call   100021e2 <Rect_split+0xef>	100021e2: R_386_PC32	List_remove_at
100021e6:	83 c4 10             	add    esp,0x10
100021e9:	eb e3                	jmp    100021ce <Rect_split+0xdb>
100021eb:	52                   	push   edx
100021ec:	52                   	push   edx
100021ed:	50                   	push   eax
100021ee:	53                   	push   ebx
100021ef:	e8 fc ff ff ff       	call   100021f0 <Rect_split+0xfd>	100021f0: R_386_PC32	List_add
100021f4:	8b 46 0c             	mov    eax,DWORD PTR [esi+0xc]
100021f7:	89 45 e0             	mov    DWORD PTR [ebp-0x20],eax
100021fa:	83 c4 10             	add    esp,0x10
100021fd:	8b 46 08             	mov    eax,DWORD PTR [esi+0x8]
10002200:	39 45 dc             	cmp    DWORD PTR [ebp-0x24],eax
10002203:	7e 54                	jle    10002259 <Rect_split+0x166>
10002205:	39 f8                	cmp    eax,edi
10002207:	7c 50                	jl     10002259 <Rect_split+0x166>
10002209:	ff 75 e0             	push   DWORD PTR [ebp-0x20]
1000220c:	ff 75 dc             	push   DWORD PTR [ebp-0x24]
1000220f:	ff 75 e4             	push   DWORD PTR [ebp-0x1c]
10002212:	40                   	inc    eax
10002213:	50                   	push   eax
10002214:	e8 fc ff ff ff       	call   10002215 <Rect_split+0x122>	10002215: R_386_PC32	Rect_new
10002219:	83 c4 10             	add    esp,0x10
1000221c:	85 c0                	test   eax,eax
1000221e:	75 2d                	jne    1000224d <Rect_split+0x15a>
10002220:	83 3b 00             	cmp    DWORD PTR [ebx],0x0
10002223:	74 18                	je     1000223d <Rect_split+0x14a>
10002225:	83 ec 0c             	sub    esp,0xc
10002228:	50                   	push   eax
10002229:	e8 fc ff ff ff       	call   1000222a <Rect_split+0x137>	1000222a: R_386_PC32	free
1000222e:	59                   	pop    ecx
1000222f:	5e                   	pop    esi
10002230:	6a 00                	push   0x0
10002232:	53                   	push   ebx
10002233:	e8 fc ff ff ff       	call   10002234 <Rect_split+0x141>	10002234: R_386_PC32	List_remove_at
10002238:	83 c4 10             	add    esp,0x10
1000223b:	eb e3                	jmp    10002220 <Rect_split+0x12d>
1000223d:	83 ec 0c             	sub    esp,0xc
10002240:	53                   	push   ebx
10002241:	e8 fc ff ff ff       	call   10002242 <Rect_split+0x14f>	10002242: R_386_PC32	free
10002246:	83 c4 10             	add    esp,0x10
10002249:	31 db                	xor    ebx,ebx
1000224b:	eb 0c                	jmp    10002259 <Rect_split+0x166>
1000224d:	52                   	push   edx
1000224e:	52                   	push   edx
1000224f:	50                   	push   eax
10002250:	53                   	push   ebx
10002251:	e8 fc ff ff ff       	call   10002252 <Rect_split+0x15f>	10002252: R_386_PC32	List_add
10002256:	83 c4 10             	add    esp,0x10
10002259:	89 d8                	mov    eax,ebx
1000225b:	8d 65 f4             	lea    esp,[ebp-0xc]
1000225e:	5b                   	pop    ebx
1000225f:	5e                   	pop    esi
10002260:	5f                   	pop    edi
10002261:	5d                   	pop    ebp
10002262:	c3                   	ret    

10002263 <Rect_intersect>:
10002263:	55                   	push   ebp
10002264:	89 e5                	mov    ebp,esp
10002266:	56                   	push   esi
10002267:	53                   	push   ebx
10002268:	8b 45 08             	mov    eax,DWORD PTR [ebp+0x8]
1000226b:	8b 5d 0c             	mov    ebx,DWORD PTR [ebp+0xc]
1000226e:	8b 48 04             	mov    ecx,DWORD PTR [eax+0x4]
10002271:	3b 4b 0c             	cmp    ecx,DWORD PTR [ebx+0xc]
10002274:	7e 04                	jle    1000227a <Rect_intersect+0x17>
10002276:	31 c0                	xor    eax,eax
10002278:	eb 62                	jmp    100022dc <Rect_intersect+0x79>
1000227a:	8b 70 0c             	mov    esi,DWORD PTR [eax+0xc]
1000227d:	3b 73 04             	cmp    esi,DWORD PTR [ebx+0x4]
10002280:	7c f4                	jl     10002276 <Rect_intersect+0x13>
10002282:	8b 10                	mov    edx,DWORD PTR [eax]
10002284:	3b 53 08             	cmp    edx,DWORD PTR [ebx+0x8]
10002287:	7f ed                	jg     10002276 <Rect_intersect+0x13>
10002289:	8b 40 08             	mov    eax,DWORD PTR [eax+0x8]
1000228c:	3b 03                	cmp    eax,DWORD PTR [ebx]
1000228e:	7c e6                	jl     10002276 <Rect_intersect+0x13>
10002290:	56                   	push   esi
10002291:	50                   	push   eax
10002292:	51                   	push   ecx
10002293:	52                   	push   edx
10002294:	e8 fc ff ff ff       	call   10002295 <Rect_intersect+0x32>	10002295: R_386_PC32	Rect_new
10002299:	83 c4 10             	add    esp,0x10
1000229c:	85 c0                	test   eax,eax
1000229e:	74 d6                	je     10002276 <Rect_intersect+0x13>
100022a0:	8b 53 04             	mov    edx,DWORD PTR [ebx+0x4]
100022a3:	3b 50 04             	cmp    edx,DWORD PTR [eax+0x4]
100022a6:	7e 08                	jle    100022b0 <Rect_intersect+0x4d>
100022a8:	3b 50 0c             	cmp    edx,DWORD PTR [eax+0xc]
100022ab:	7f 03                	jg     100022b0 <Rect_intersect+0x4d>
100022ad:	89 50 04             	mov    DWORD PTR [eax+0x4],edx
100022b0:	8b 13                	mov    edx,DWORD PTR [ebx]
100022b2:	3b 10                	cmp    edx,DWORD PTR [eax]
100022b4:	7e 07                	jle    100022bd <Rect_intersect+0x5a>
100022b6:	3b 50 08             	cmp    edx,DWORD PTR [eax+0x8]
100022b9:	7f 02                	jg     100022bd <Rect_intersect+0x5a>
100022bb:	89 10                	mov    DWORD PTR [eax],edx
100022bd:	8b 53 0c             	mov    edx,DWORD PTR [ebx+0xc]
100022c0:	3b 50 04             	cmp    edx,DWORD PTR [eax+0x4]
100022c3:	7c 08                	jl     100022cd <Rect_intersect+0x6a>
100022c5:	3b 50 0c             	cmp    edx,DWORD PTR [eax+0xc]
100022c8:	7d 03                	jge    100022cd <Rect_intersect+0x6a>
100022ca:	89 50 0c             	mov    DWORD PTR [eax+0xc],edx
100022cd:	8b 53 08             	mov    edx,DWORD PTR [ebx+0x8]
100022d0:	3b 10                	cmp    edx,DWORD PTR [eax]
100022d2:	7c 08                	jl     100022dc <Rect_intersect+0x79>
100022d4:	3b 50 08             	cmp    edx,DWORD PTR [eax+0x8]
100022d7:	7d 03                	jge    100022dc <Rect_intersect+0x79>
100022d9:	89 50 08             	mov    DWORD PTR [eax+0x8],edx
100022dc:	8d 65 f8             	lea    esp,[ebp-0x8]
100022df:	5b                   	pop    ebx
100022e0:	5e                   	pop    esi
100022e1:	5d                   	pop    ebp
100022e2:	c3                   	ret    

100022e3 <Window_mousedown_handler>:
100022e3:	c3                   	ret    

100022e4 <Window_paint_handler>:
100022e4:	55                   	push   ebp
100022e5:	89 e5                	mov    ebp,esp
100022e7:	83 ec 10             	sub    esp,0x10
100022ea:	8b 45 08             	mov    eax,DWORD PTR [ebp+0x8]
100022ed:	68 bb bb bb 00       	push   0xbbbbbb
100022f2:	0f bf 50 0a          	movsx  edx,WORD PTR [eax+0xa]
100022f6:	52                   	push   edx
100022f7:	0f bf 50 08          	movsx  edx,WORD PTR [eax+0x8]
100022fb:	52                   	push   edx
100022fc:	6a 00                	push   0x0
100022fe:	6a 00                	push   0x0
10002300:	ff 70 10             	push   DWORD PTR [eax+0x10]
10002303:	e8 fc ff ff ff       	call   10002304 <Window_paint_handler+0x20>	10002304: R_386_PC32	Context_fill_rect
10002308:	83 c4 20             	add    esp,0x20
1000230b:	c9                   	leave  
1000230c:	c3                   	ret    

1000230d <Window_resize_handler>:
1000230d:	c3                   	ret    

1000230e <Window_move_handler>:
1000230e:	c3                   	ret    

1000230f <Window_init>:
1000230f:	55                   	push   ebp
10002310:	89 e5                	mov    ebp,esp
10002312:	57                   	push   edi
10002313:	56                   	push   esi
10002314:	53                   	push   ebx
10002315:	83 ec 3c             	sub    esp,0x3c
10002318:	8b 5d 08             	mov    ebx,DWORD PTR [ebp+0x8]
1000231b:	8b 4d 0c             	mov    ecx,DWORD PTR [ebp+0xc]
1000231e:	89 4d bc             	mov    DWORD PTR [ebp-0x44],ecx
10002321:	8b 7d 10             	mov    edi,DWORD PTR [ebp+0x10]
10002324:	8b 45 14             	mov    eax,DWORD PTR [ebp+0x14]
10002327:	89 45 c4             	mov    DWORD PTR [ebp-0x3c],eax
1000232a:	8b 45 18             	mov    eax,DWORD PTR [ebp+0x18]
1000232d:	89 45 c0             	mov    DWORD PTR [ebp-0x40],eax
10002330:	8b 75 1c             	mov    esi,DWORD PTR [ebp+0x1c]
10002333:	e8 fc ff ff ff       	call   10002334 <Window_init+0x25>	10002334: R_386_PC32	List_new
10002338:	89 43 20             	mov    DWORD PTR [ebx+0x20],eax
1000233b:	31 d2                	xor    edx,edx
1000233d:	85 c0                	test   eax,eax
1000233f:	0f 84 1f 01 00 00    	je     10002464 <Window_init+0x155>
10002345:	8b 4d bc             	mov    ecx,DWORD PTR [ebp-0x44]
10002348:	66 89 4b 04          	mov    WORD PTR [ebx+0x4],cx
1000234c:	66 89 7b 06          	mov    WORD PTR [ebx+0x6],di
10002350:	8b 45 c4             	mov    eax,DWORD PTR [ebp-0x3c]
10002353:	66 89 43 08          	mov    WORD PTR [ebx+0x8],ax
10002357:	8b 45 c0             	mov    eax,DWORD PTR [ebp-0x40]
1000235a:	66 89 43 0a          	mov    WORD PTR [ebx+0xa],ax
1000235e:	8b 45 20             	mov    eax,DWORD PTR [ebp+0x20]
10002361:	89 43 10             	mov    DWORD PTR [ebx+0x10],eax
10002364:	66 89 73 0c          	mov    WORD PTR [ebx+0xc],si
10002368:	c7 03 00 00 00 00    	mov    DWORD PTR [ebx],0x0
1000236e:	c7 43 18 00 00 00 00 	mov    DWORD PTR [ebx+0x18],0x0
10002375:	c7 43 30 00 00 00 00 	mov    DWORD PTR [ebx+0x30],0x0	10002378: R_386_32	Window_paint_handler
1000237c:	c7 43 38 00 00 00 00 	mov    DWORD PTR [ebx+0x38],0x0	1000237f: R_386_32	Window_mousedown_handler
10002383:	c7 43 3c 00 00 00 00 	mov    DWORD PTR [ebx+0x3c],0x0	10002386: R_386_32	Window_mousedown_handler
1000238a:	c7 43 34 00 00 00 00 	mov    DWORD PTR [ebx+0x34],0x0	1000238d: R_386_32	Window_mousedown_handler
10002391:	c7 43 40 00 00 00 00 	mov    DWORD PTR [ebx+0x40],0x0	10002394: R_386_32	Window_mousedown_handler
10002398:	c7 43 44 00 00 00 00 	mov    DWORD PTR [ebx+0x44],0x0	1000239b: R_386_32	Window_mousedown_handler
1000239f:	c7 43 48 00 00 00 00 	mov    DWORD PTR [ebx+0x48],0x0	100023a2: R_386_32	Window_resize_handler
100023a6:	c7 43 4c 00 00 00 00 	mov    DWORD PTR [ebx+0x4c],0x0	100023a9: R_386_32	Window_move_handler
100023ad:	c7 43 60 00 00 00 00 	mov    DWORD PTR [ebx+0x60],0x0
100023b4:	c7 43 64 00 00 00 00 	mov    DWORD PTR [ebx+0x64],0x0
100023bb:	c6 43 5c 00          	mov    BYTE PTR [ebx+0x5c],0x0
100023bf:	c7 43 6c ff ff ff ff 	mov    DWORD PTR [ebx+0x6c],0xffffffff
100023c6:	c7 43 68 00 00 00 00 	mov    DWORD PTR [ebx+0x68],0x0
100023cd:	c7 43 1c 00 00 00 00 	mov    DWORD PTR [ebx+0x1c],0x0
100023d4:	c7 43 50 00 00 00 00 	mov    DWORD PTR [ebx+0x50],0x0
100023db:	c7 43 24 00 00 00 00 	mov    DWORD PTR [ebx+0x24],0x0
100023e2:	c7 43 28 00 00 00 00 	mov    DWORD PTR [ebx+0x28],0x0
100023e9:	c6 43 2c 00          	mov    BYTE PTR [ebx+0x2c],0x0
100023ed:	c7 83 b0 01 00 00 00 00 00 00 	mov    DWORD PTR [ebx+0x1b0],0x0
100023f7:	c6 83 b4 01 00 00 00 	mov    BYTE PTR [ebx+0x1b4],0x0
100023fe:	c7 83 b8 01 00 00 00 00 00 00 	mov    DWORD PTR [ebx+0x1b8],0x0	10002404: R_386_32	defaultRepaintScript
10002408:	ba 01 00 00 00       	mov    edx,0x1
1000240d:	83 e6 02             	and    esi,0x2
10002410:	74 52                	je     10002464 <Window_init+0x155>
10002412:	a1 00 00 00 00       	mov    eax,ds:0x0	10002413: R_386_32	active_window
10002417:	85 c0                	test   eax,eax
10002419:	74 1f                	je     1000243a <Window_init+0x12b>
1000241b:	c6 45 d4 1b          	mov    BYTE PTR [ebp-0x2c],0x1b
1000241f:	89 45 d8             	mov    DWORD PTR [ebp-0x28],eax
10002422:	83 ec 1c             	sub    esp,0x1c
10002425:	b9 05 00 00 00       	mov    ecx,0x5
1000242a:	89 e7                	mov    edi,esp
1000242c:	8d 75 d4             	lea    esi,[ebp-0x2c]
1000242f:	f3 a5                	rep movs DWORD PTR es:[edi],DWORD PTR ds:[esi]
10002431:	50                   	push   eax
10002432:	e8 fc ff ff ff       	call   10002433 <Window_init+0x124>	10002433: R_386_PC32	dispatchMessage
10002437:	83 c4 20             	add    esp,0x20
1000243a:	89 1d 00 00 00 00    	mov    DWORD PTR ds:0x0,ebx	1000243c: R_386_32	active_window
10002440:	c6 45 d4 1a          	mov    BYTE PTR [ebp-0x2c],0x1a
10002444:	89 5d d8             	mov    DWORD PTR [ebp-0x28],ebx
10002447:	83 ec 1c             	sub    esp,0x1c
1000244a:	b9 05 00 00 00       	mov    ecx,0x5
1000244f:	89 e7                	mov    edi,esp
10002451:	8d 75 d4             	lea    esi,[ebp-0x2c]
10002454:	f3 a5                	rep movs DWORD PTR es:[edi],DWORD PTR ds:[esi]
10002456:	53                   	push   ebx
10002457:	e8 fc ff ff ff       	call   10002458 <Window_init+0x149>	10002458: R_386_PC32	dispatchMessage
1000245c:	83 c4 20             	add    esp,0x20
1000245f:	ba 01 00 00 00       	mov    edx,0x1
10002464:	89 d0                	mov    eax,edx
10002466:	8d 65 f4             	lea    esp,[ebp-0xc]
10002469:	5b                   	pop    ebx
1000246a:	5e                   	pop    esi
1000246b:	5f                   	pop    edi
1000246c:	5d                   	pop    ebp
1000246d:	c3                   	ret    

1000246e <Window_new>:
1000246e:	55                   	push   ebp
1000246f:	89 e5                	mov    ebp,esp
10002471:	57                   	push   edi
10002472:	56                   	push   esi
10002473:	53                   	push   ebx
10002474:	83 ec 28             	sub    esp,0x28
10002477:	8b 45 08             	mov    eax,DWORD PTR [ebp+0x8]
1000247a:	89 45 e4             	mov    DWORD PTR [ebp-0x1c],eax
1000247d:	8b 45 0c             	mov    eax,DWORD PTR [ebp+0xc]
10002480:	89 45 e0             	mov    DWORD PTR [ebp-0x20],eax
10002483:	8b 5d 10             	mov    ebx,DWORD PTR [ebp+0x10]
10002486:	8b 75 14             	mov    esi,DWORD PTR [ebp+0x14]
10002489:	8b 7d 18             	mov    edi,DWORD PTR [ebp+0x18]
1000248c:	68 bc 01 00 00       	push   0x1bc
10002491:	e8 fc ff ff ff       	call   10002492 <Window_new+0x24>	10002492: R_386_PC32	malloc
10002496:	89 c2                	mov    edx,eax
10002498:	83 c4 10             	add    esp,0x10
1000249b:	85 c0                	test   eax,eax
1000249d:	74 3b                	je     100024da <Window_new+0x6c>
1000249f:	50                   	push   eax
100024a0:	ff 75 1c             	push   DWORD PTR [ebp+0x1c]
100024a3:	0f b7 ff             	movzx  edi,di
100024a6:	57                   	push   edi
100024a7:	0f b7 f6             	movzx  esi,si
100024aa:	56                   	push   esi
100024ab:	0f b7 db             	movzx  ebx,bx
100024ae:	53                   	push   ebx
100024af:	0f bf 45 e0          	movsx  eax,WORD PTR [ebp-0x20]
100024b3:	50                   	push   eax
100024b4:	0f bf 45 e4          	movsx  eax,WORD PTR [ebp-0x1c]
100024b8:	50                   	push   eax
100024b9:	52                   	push   edx
100024ba:	89 55 e4             	mov    DWORD PTR [ebp-0x1c],edx
100024bd:	e8 fc ff ff ff       	call   100024be <Window_new+0x50>	100024be: R_386_PC32	Window_init
100024c2:	83 c4 20             	add    esp,0x20
100024c5:	85 c0                	test   eax,eax
100024c7:	8b 55 e4             	mov    edx,DWORD PTR [ebp-0x1c]
100024ca:	75 0e                	jne    100024da <Window_new+0x6c>
100024cc:	83 ec 0c             	sub    esp,0xc
100024cf:	52                   	push   edx
100024d0:	e8 fc ff ff ff       	call   100024d1 <Window_new+0x63>	100024d1: R_386_PC32	free
100024d5:	83 c4 10             	add    esp,0x10
100024d8:	31 d2                	xor    edx,edx
100024da:	89 d0                	mov    eax,edx
100024dc:	8d 65 f4             	lea    esp,[ebp-0xc]
100024df:	5b                   	pop    ebx
100024e0:	5e                   	pop    esi
100024e1:	5f                   	pop    edi
100024e2:	5d                   	pop    ebp
100024e3:	c3                   	ret    

100024e4 <Window_screen_x>:
100024e4:	55                   	push   ebp
100024e5:	89 e5                	mov    ebp,esp
100024e7:	8b 55 08             	mov    edx,DWORD PTR [ebp+0x8]
100024ea:	31 c0                	xor    eax,eax
100024ec:	0f bf 4a 04          	movsx  ecx,WORD PTR [edx+0x4]
100024f0:	01 c8                	add    eax,ecx
100024f2:	8b 12                	mov    edx,DWORD PTR [edx]
100024f4:	85 d2                	test   edx,edx
100024f6:	75 f4                	jne    100024ec <Window_screen_x+0x8>
100024f8:	5d                   	pop    ebp
100024f9:	c3                   	ret    

100024fa <Window_screen_y>:
100024fa:	55                   	push   ebp
100024fb:	89 e5                	mov    ebp,esp
100024fd:	8b 55 08             	mov    edx,DWORD PTR [ebp+0x8]
10002500:	31 c0                	xor    eax,eax
10002502:	0f bf 4a 06          	movsx  ecx,WORD PTR [edx+0x6]
10002506:	01 c8                	add    eax,ecx
10002508:	8b 12                	mov    edx,DWORD PTR [edx]
1000250a:	85 d2                	test   edx,edx
1000250c:	75 f4                	jne    10002502 <Window_screen_y+0x8>
1000250e:	5d                   	pop    ebp
1000250f:	c3                   	ret    

10002510 <Window_draw_border>:
10002510:	55                   	push   ebp
10002511:	89 e5                	mov    ebp,esp
10002513:	57                   	push   edi
10002514:	56                   	push   esi
10002515:	53                   	push   ebx
10002516:	83 ec 38             	sub    esp,0x38
10002519:	8b 7d 08             	mov    edi,DWORD PTR [ebp+0x8]
1000251c:	57                   	push   edi
1000251d:	e8 fc ff ff ff       	call   1000251e <Window_draw_border+0xe>	1000251e: R_386_PC32	Window_screen_x
10002522:	89 c3                	mov    ebx,eax
10002524:	89 3c 24             	mov    DWORD PTR [esp],edi
10002527:	e8 fc ff ff ff       	call   10002528 <Window_draw_border+0x18>	10002528: R_386_PC32	Window_screen_y
1000252c:	89 c6                	mov    esi,eax
1000252e:	c7 04 24 bb bb bb 00 	mov    DWORD PTR [esp],0xbbbbbb
10002535:	0f bf 47 08          	movsx  eax,WORD PTR [edi+0x8]
10002539:	50                   	push   eax
1000253a:	8d 46 17             	lea    eax,[esi+0x17]
1000253d:	50                   	push   eax
1000253e:	53                   	push   ebx
1000253f:	ff 77 10             	push   DWORD PTR [edi+0x10]
10002542:	e8 fc ff ff ff       	call   10002543 <Window_draw_border+0x33>	10002543: R_386_PC32	Context_horizontal_line
10002547:	83 c4 14             	add    esp,0x14
1000254a:	68 bb bb bb 00       	push   0xbbbbbb
1000254f:	0f bf 47 08          	movsx  eax,WORD PTR [edi+0x8]
10002553:	50                   	push   eax
10002554:	8d 46 18             	lea    eax,[esi+0x18]
10002557:	50                   	push   eax
10002558:	53                   	push   ebx
10002559:	ff 77 10             	push   DWORD PTR [edi+0x10]
1000255c:	e8 fc ff ff ff       	call   1000255d <Window_draw_border+0x4d>	1000255d: R_386_PC32	Context_horizontal_line
10002561:	83 c4 14             	add    esp,0x14
10002564:	68 bb bb bb 00       	push   0xbbbbbb
10002569:	0f bf 47 08          	movsx  eax,WORD PTR [edi+0x8]
1000256d:	50                   	push   eax
1000256e:	8d 46 19             	lea    eax,[esi+0x19]
10002571:	50                   	push   eax
10002572:	53                   	push   ebx
10002573:	ff 77 10             	push   DWORD PTR [edi+0x10]
10002576:	e8 fc ff ff ff       	call   10002577 <Window_draw_border+0x67>	10002577: R_386_PC32	Context_horizontal_line
1000257b:	83 c4 14             	add    esp,0x14
1000257e:	68 bb bb bb 00       	push   0xbbbbbb
10002583:	0f bf 47 08          	movsx  eax,WORD PTR [edi+0x8]
10002587:	50                   	push   eax
10002588:	56                   	push   esi
10002589:	53                   	push   ebx
1000258a:	ff 77 10             	push   DWORD PTR [edi+0x10]
1000258d:	e8 fc ff ff ff       	call   1000258e <Window_draw_border+0x7e>	1000258e: R_386_PC32	Context_horizontal_line
10002592:	8d 46 01             	lea    eax,[esi+0x1]
10002595:	89 45 e4             	mov    DWORD PTR [ebp-0x1c],eax
10002598:	8d 43 01             	lea    eax,[ebx+0x1]
1000259b:	83 c4 14             	add    esp,0x14
1000259e:	68 ff ff ff 00       	push   0xffffff
100025a3:	0f bf 4f 08          	movsx  ecx,WORD PTR [edi+0x8]
100025a7:	83 e9 02             	sub    ecx,0x2
100025aa:	51                   	push   ecx
100025ab:	ff 75 e4             	push   DWORD PTR [ebp-0x1c]
100025ae:	50                   	push   eax
100025af:	89 45 d4             	mov    DWORD PTR [ebp-0x2c],eax
100025b2:	ff 77 10             	push   DWORD PTR [edi+0x10]
100025b5:	e8 fc ff ff ff       	call   100025b6 <Window_draw_border+0xa6>	100025b6: R_386_PC32	Context_horizontal_line
100025ba:	8d 46 02             	lea    eax,[esi+0x2]
100025bd:	89 45 e0             	mov    DWORD PTR [ebp-0x20],eax
100025c0:	8d 53 02             	lea    edx,[ebx+0x2]
100025c3:	83 c4 14             	add    esp,0x14
100025c6:	68 bb bb bb 00       	push   0xbbbbbb
100025cb:	0f bf 4f 08          	movsx  ecx,WORD PTR [edi+0x8]
100025cf:	83 e9 04             	sub    ecx,0x4
100025d2:	51                   	push   ecx
100025d3:	50                   	push   eax
100025d4:	52                   	push   edx
100025d5:	89 55 dc             	mov    DWORD PTR [ebp-0x24],edx
100025d8:	ff 77 10             	push   DWORD PTR [edi+0x10]
100025db:	e8 fc ff ff ff       	call   100025dc <Window_draw_border+0xcc>	100025dc: R_386_PC32	Context_horizontal_line
100025e0:	83 c4 14             	add    esp,0x14
100025e3:	68 bb bb bb 00       	push   0xbbbbbb
100025e8:	0f bf 4f 08          	movsx  ecx,WORD PTR [edi+0x8]
100025ec:	83 e9 04             	sub    ecx,0x4
100025ef:	51                   	push   ecx
100025f0:	0f bf 4f 0a          	movsx  ecx,WORD PTR [edi+0xa]
100025f4:	8d 4c 0e fd          	lea    ecx,[esi+ecx*1-0x3]
100025f8:	51                   	push   ecx
100025f9:	8b 55 dc             	mov    edx,DWORD PTR [ebp-0x24]
100025fc:	52                   	push   edx
100025fd:	89 55 d8             	mov    DWORD PTR [ebp-0x28],edx
10002600:	ff 77 10             	push   DWORD PTR [edi+0x10]
10002603:	e8 fc ff ff ff       	call   10002604 <Window_draw_border+0xf4>	10002604: R_386_PC32	Context_horizontal_line
10002608:	83 c4 14             	add    esp,0x14
1000260b:	68 55 55 55 00       	push   0x555555
10002610:	0f bf 4f 08          	movsx  ecx,WORD PTR [edi+0x8]
10002614:	83 e9 02             	sub    ecx,0x2
10002617:	51                   	push   ecx
10002618:	0f bf 4f 0a          	movsx  ecx,WORD PTR [edi+0xa]
1000261c:	8d 4c 0e fe          	lea    ecx,[esi+ecx*1-0x2]
10002620:	51                   	push   ecx
10002621:	8b 45 d4             	mov    eax,DWORD PTR [ebp-0x2c]
10002624:	50                   	push   eax
10002625:	89 45 dc             	mov    DWORD PTR [ebp-0x24],eax
10002628:	ff 77 10             	push   DWORD PTR [edi+0x10]
1000262b:	e8 fc ff ff ff       	call   1000262c <Window_draw_border+0x11c>	1000262c: R_386_PC32	Context_horizontal_line
10002630:	83 c4 14             	add    esp,0x14
10002633:	6a 00                	push   0x0
10002635:	0f bf 4f 08          	movsx  ecx,WORD PTR [edi+0x8]
10002639:	51                   	push   ecx
1000263a:	0f bf 4f 0a          	movsx  ecx,WORD PTR [edi+0xa]
1000263e:	8d 4c 0e ff          	lea    ecx,[esi+ecx*1-0x1]
10002642:	51                   	push   ecx
10002643:	53                   	push   ebx
10002644:	ff 77 10             	push   DWORD PTR [edi+0x10]
10002647:	e8 fc ff ff ff       	call   10002648 <Window_draw_border+0x138>	10002648: R_386_PC32	Context_horizontal_line
1000264c:	83 c4 14             	add    esp,0x14
1000264f:	68 bb bb bb 00       	push   0xbbbbbb
10002654:	0f bf 4f 0a          	movsx  ecx,WORD PTR [edi+0xa]
10002658:	49                   	dec    ecx
10002659:	51                   	push   ecx
1000265a:	56                   	push   esi
1000265b:	53                   	push   ebx
1000265c:	ff 77 10             	push   DWORD PTR [edi+0x10]
1000265f:	e8 fc ff ff ff       	call   10002660 <Window_draw_border+0x150>	10002660: R_386_PC32	Context_vertical_line
10002664:	83 c4 14             	add    esp,0x14
10002667:	68 ff ff ff 00       	push   0xffffff
1000266c:	0f bf 4f 0a          	movsx  ecx,WORD PTR [edi+0xa]
10002670:	83 e9 03             	sub    ecx,0x3
10002673:	51                   	push   ecx
10002674:	ff 75 e4             	push   DWORD PTR [ebp-0x1c]
10002677:	8b 45 dc             	mov    eax,DWORD PTR [ebp-0x24]
1000267a:	50                   	push   eax
1000267b:	ff 77 10             	push   DWORD PTR [edi+0x10]
1000267e:	e8 fc ff ff ff       	call   1000267f <Window_draw_border+0x16f>	1000267f: R_386_PC32	Context_vertical_line
10002683:	83 c4 14             	add    esp,0x14
10002686:	68 bb bb bb 00       	push   0xbbbbbb
1000268b:	0f bf 47 0a          	movsx  eax,WORD PTR [edi+0xa]
1000268f:	83 e8 05             	sub    eax,0x5
10002692:	50                   	push   eax
10002693:	ff 75 e0             	push   DWORD PTR [ebp-0x20]
10002696:	8b 55 d8             	mov    edx,DWORD PTR [ebp-0x28]
10002699:	52                   	push   edx
1000269a:	ff 77 10             	push   DWORD PTR [edi+0x10]
1000269d:	e8 fc ff ff ff       	call   1000269e <Window_draw_border+0x18e>	1000269e: R_386_PC32	Context_vertical_line
100026a2:	83 c4 14             	add    esp,0x14
100026a5:	6a 00                	push   0x0
100026a7:	0f bf 47 0a          	movsx  eax,WORD PTR [edi+0xa]
100026ab:	50                   	push   eax
100026ac:	56                   	push   esi
100026ad:	0f bf 47 08          	movsx  eax,WORD PTR [edi+0x8]
100026b1:	8d 44 03 ff          	lea    eax,[ebx+eax*1-0x1]
100026b5:	50                   	push   eax
100026b6:	ff 77 10             	push   DWORD PTR [edi+0x10]
100026b9:	e8 fc ff ff ff       	call   100026ba <Window_draw_border+0x1aa>	100026ba: R_386_PC32	Context_vertical_line
100026be:	83 c4 14             	add    esp,0x14
100026c1:	68 55 55 55 00       	push   0x555555
100026c6:	0f bf 47 0a          	movsx  eax,WORD PTR [edi+0xa]
100026ca:	83 e8 02             	sub    eax,0x2
100026cd:	50                   	push   eax
100026ce:	ff 75 e4             	push   DWORD PTR [ebp-0x1c]
100026d1:	0f bf 47 08          	movsx  eax,WORD PTR [edi+0x8]
100026d5:	8d 44 03 fe          	lea    eax,[ebx+eax*1-0x2]
100026d9:	50                   	push   eax
100026da:	ff 77 10             	push   DWORD PTR [edi+0x10]
100026dd:	e8 fc ff ff ff       	call   100026de <Window_draw_border+0x1ce>	100026de: R_386_PC32	Context_vertical_line
100026e2:	83 c4 14             	add    esp,0x14
100026e5:	68 bb bb bb 00       	push   0xbbbbbb
100026ea:	0f bf 47 0a          	movsx  eax,WORD PTR [edi+0xa]
100026ee:	83 e8 04             	sub    eax,0x4
100026f1:	50                   	push   eax
100026f2:	ff 75 e0             	push   DWORD PTR [ebp-0x20]
100026f5:	0f bf 47 08          	movsx  eax,WORD PTR [edi+0x8]
100026f9:	8d 44 03 fd          	lea    eax,[ebx+eax*1-0x3]
100026fd:	50                   	push   eax
100026fe:	ff 77 10             	push   DWORD PTR [edi+0x10]
10002701:	e8 fc ff ff ff       	call   10002702 <Window_draw_border+0x1f2>	10002702: R_386_PC32	Context_vertical_line
10002706:	83 c4 20             	add    esp,0x20
10002709:	b8 55 55 55 00       	mov    eax,0x555555
1000270e:	39 3d 00 00 00 00    	cmp    DWORD PTR ds:0x0,edi	10002710: R_386_32	active_window
10002714:	75 16                	jne    1000272c <Window_draw_border+0x21c>
10002716:	8b 07                	mov    eax,DWORD PTR [edi]
10002718:	39 78 1c             	cmp    DWORD PTR [eax+0x1c],edi
1000271b:	0f 95 c0             	setne  al
1000271e:	0f b6 c0             	movzx  eax,al
10002721:	48                   	dec    eax
10002722:	25 2b ab aa ff       	and    eax,0xffaaab2b
10002727:	05 55 55 55 00       	add    eax,0x555555
1000272c:	51                   	push   ecx
1000272d:	51                   	push   ecx
1000272e:	50                   	push   eax
1000272f:	6a 14                	push   0x14
10002731:	0f bf 47 08          	movsx  eax,WORD PTR [edi+0x8]
10002735:	83 e8 06             	sub    eax,0x6
10002738:	50                   	push   eax
10002739:	8d 46 03             	lea    eax,[esi+0x3]
1000273c:	50                   	push   eax
1000273d:	8d 43 03             	lea    eax,[ebx+0x3]
10002740:	50                   	push   eax
10002741:	ff 77 10             	push   DWORD PTR [edi+0x10]
10002744:	e8 fc ff ff ff       	call   10002745 <Window_draw_border+0x235>	10002745: R_386_PC32	Context_fill_rect
10002749:	83 c4 20             	add    esp,0x20
1000274c:	b9 bb bb bb 00       	mov    ecx,0xbbbbbb
10002751:	39 3d 00 00 00 00    	cmp    DWORD PTR ds:0x0,edi	10002753: R_386_32	active_window
10002757:	75 17                	jne    10002770 <Window_draw_border+0x260>
10002759:	8b 07                	mov    eax,DWORD PTR [edi]
1000275b:	31 c9                	xor    ecx,ecx
1000275d:	39 78 1c             	cmp    DWORD PTR [eax+0x1c],edi
10002760:	0f 94 c1             	sete   cl
10002763:	49                   	dec    ecx
10002764:	81 e1 bc bb bb ff    	and    ecx,0xffbbbbbc
1000276a:	81 c1 ff ff ff 00    	add    ecx,0xffffff
10002770:	8d 46 06             	lea    eax,[esi+0x6]
10002773:	52                   	push   edx
10002774:	52                   	push   edx
10002775:	6a 01                	push   0x1
10002777:	51                   	push   ecx
10002778:	50                   	push   eax
10002779:	89 45 e0             	mov    DWORD PTR [ebp-0x20],eax
1000277c:	8d 4b 0a             	lea    ecx,[ebx+0xa]
1000277f:	51                   	push   ecx
10002780:	ff 77 50             	push   DWORD PTR [edi+0x50]
10002783:	ff 77 10             	push   DWORD PTR [edi+0x10]
10002786:	e8 fc ff ff ff       	call   10002787 <Window_draw_border+0x277>	10002787: R_386_PC32	Context_draw_text
1000278b:	8d 46 05             	lea    eax,[esi+0x5]
1000278e:	89 45 e4             	mov    DWORD PTR [ebp-0x1c],eax
10002791:	83 c4 18             	add    esp,0x18
10002794:	68 bb bb bb 00       	push   0xbbbbbb
10002799:	6a 10                	push   0x10
1000279b:	6a 10                	push   0x10
1000279d:	50                   	push   eax
1000279e:	0f bf 4f 08          	movsx  ecx,WORD PTR [edi+0x8]
100027a2:	8d 4c 0b eb          	lea    ecx,[ebx+ecx*1-0x15]
100027a6:	51                   	push   ecx
100027a7:	ff 77 10             	push   DWORD PTR [edi+0x10]
100027aa:	e8 fc ff ff ff       	call   100027ab <Window_draw_border+0x29b>	100027ab: R_386_PC32	Context_fill_rect
100027af:	83 c4 18             	add    esp,0x18
100027b2:	6a 00                	push   0x0
100027b4:	6a 10                	push   0x10
100027b6:	6a 10                	push   0x10
100027b8:	ff 75 e4             	push   DWORD PTR [ebp-0x1c]
100027bb:	0f bf 4f 08          	movsx  ecx,WORD PTR [edi+0x8]
100027bf:	8d 4c 0b eb          	lea    ecx,[ebx+ecx*1-0x15]
100027c3:	51                   	push   ecx
100027c4:	ff 77 10             	push   DWORD PTR [edi+0x10]
100027c7:	e8 fc ff ff ff       	call   100027c8 <Window_draw_border+0x2b8>	100027c8: R_386_PC32	Context_draw_rect
100027cc:	83 c4 14             	add    esp,0x14
100027cf:	68 ff ff ff 00       	push   0xffffff
100027d4:	6a 0f                	push   0xf
100027d6:	ff 75 e4             	push   DWORD PTR [ebp-0x1c]
100027d9:	0f bf 4f 08          	movsx  ecx,WORD PTR [edi+0x8]
100027dd:	8d 4c 0b eb          	lea    ecx,[ebx+ecx*1-0x15]
100027e1:	51                   	push   ecx
100027e2:	ff 77 10             	push   DWORD PTR [edi+0x10]
100027e5:	e8 fc ff ff ff       	call   100027e6 <Window_draw_border+0x2d6>	100027e6: R_386_PC32	Context_horizontal_line
100027ea:	83 c4 14             	add    esp,0x14
100027ed:	68 ff ff ff 00       	push   0xffffff
100027f2:	6a 0f                	push   0xf
100027f4:	ff 75 e4             	push   DWORD PTR [ebp-0x1c]
100027f7:	0f bf 4f 08          	movsx  ecx,WORD PTR [edi+0x8]
100027fb:	8d 4c 0b eb          	lea    ecx,[ebx+ecx*1-0x15]
100027ff:	51                   	push   ecx
10002800:	ff 77 10             	push   DWORD PTR [edi+0x10]
10002803:	e8 fc ff ff ff       	call   10002804 <Window_draw_border+0x2f4>	10002804: R_386_PC32	Context_vertical_line
10002808:	83 c4 14             	add    esp,0x14
1000280b:	68 55 55 55 00       	push   0x555555
10002810:	6a 0e                	push   0xe
10002812:	83 c6 13             	add    esi,0x13
10002815:	56                   	push   esi
10002816:	0f bf 4f 08          	movsx  ecx,WORD PTR [edi+0x8]
1000281a:	8d 4c 0b ec          	lea    ecx,[ebx+ecx*1-0x14]
1000281e:	51                   	push   ecx
1000281f:	ff 77 10             	push   DWORD PTR [edi+0x10]
10002822:	e8 fc ff ff ff       	call   10002823 <Window_draw_border+0x313>	10002823: R_386_PC32	Context_horizontal_line
10002827:	83 c4 14             	add    esp,0x14
1000282a:	68 55 55 55 00       	push   0x555555
1000282f:	6a 0e                	push   0xe
10002831:	8b 45 e0             	mov    eax,DWORD PTR [ebp-0x20]
10002834:	50                   	push   eax
10002835:	0f bf 47 08          	movsx  eax,WORD PTR [edi+0x8]
10002839:	8d 44 03 f9          	lea    eax,[ebx+eax*1-0x7]
1000283d:	50                   	push   eax
1000283e:	ff 77 10             	push   DWORD PTR [edi+0x10]
10002841:	e8 fc ff ff ff       	call   10002842 <Window_draw_border+0x332>	10002842: R_386_PC32	Context_vertical_line
10002846:	83 c4 20             	add    esp,0x20
10002849:	8d 65 f4             	lea    esp,[ebp-0xc]
1000284c:	5b                   	pop    ebx
1000284d:	5e                   	pop    esi
1000284e:	5f                   	pop    edi
1000284f:	5d                   	pop    ebp
10002850:	c3                   	ret    

10002851 <Window_get_windows_above>:
10002851:	55                   	push   ebp
10002852:	89 e5                	mov    ebp,esp
10002854:	57                   	push   edi
10002855:	56                   	push   esi
10002856:	53                   	push   ebx
10002857:	83 ec 1c             	sub    esp,0x1c
1000285a:	8b 75 0c             	mov    esi,DWORD PTR [ebp+0xc]
1000285d:	e8 fc ff ff ff       	call   1000285e <Window_get_windows_above+0xd>	1000285e: R_386_PC32	List_new
10002862:	89 45 e4             	mov    DWORD PTR [ebp-0x1c],eax
10002865:	31 d2                	xor    edx,edx
10002867:	85 c0                	test   eax,eax
10002869:	0f 84 82 00 00 00    	je     100028f1 <Window_get_windows_above+0xa0>
1000286f:	8b 45 08             	mov    eax,DWORD PTR [ebp+0x8]
10002872:	8b 40 20             	mov    eax,DWORD PTR [eax+0x20]
10002875:	8d 5a 01             	lea    ebx,[edx+0x1]
10002878:	39 10                	cmp    DWORD PTR [eax],edx
1000287a:	76 33                	jbe    100028af <Window_get_windows_above+0x5e>
1000287c:	57                   	push   edi
1000287d:	57                   	push   edi
1000287e:	52                   	push   edx
1000287f:	50                   	push   eax
10002880:	e8 fc ff ff ff       	call   10002881 <Window_get_windows_above+0x30>	10002881: R_386_PC32	List_get_at
10002885:	89 da                	mov    edx,ebx
10002887:	83 c4 10             	add    esp,0x10
1000288a:	39 f0                	cmp    eax,esi
1000288c:	75 e1                	jne    1000286f <Window_get_windows_above+0x1e>
1000288e:	eb 1f                	jmp    100028af <Window_get_windows_above+0x5e>
10002890:	51                   	push   ecx
10002891:	51                   	push   ecx
10002892:	53                   	push   ebx
10002893:	50                   	push   eax
10002894:	e8 fc ff ff ff       	call   10002895 <Window_get_windows_above+0x44>	10002895: R_386_PC32	List_get_at
10002899:	0f bf 4e 04          	movsx  ecx,WORD PTR [esi+0x4]
1000289d:	0f bf 78 04          	movsx  edi,WORD PTR [eax+0x4]
100028a1:	0f bf 56 08          	movsx  edx,WORD PTR [esi+0x8]
100028a5:	01 ca                	add    edx,ecx
100028a7:	83 c4 10             	add    esp,0x10
100028aa:	39 fa                	cmp    edx,edi
100028ac:	7f 0d                	jg     100028bb <Window_get_windows_above+0x6a>
100028ae:	43                   	inc    ebx
100028af:	8b 45 08             	mov    eax,DWORD PTR [ebp+0x8]
100028b2:	8b 40 20             	mov    eax,DWORD PTR [eax+0x20]
100028b5:	39 18                	cmp    DWORD PTR [eax],ebx
100028b7:	77 d7                	ja     10002890 <Window_get_windows_above+0x3f>
100028b9:	eb 36                	jmp    100028f1 <Window_get_windows_above+0xa0>
100028bb:	0f bf 50 08          	movsx  edx,WORD PTR [eax+0x8]
100028bf:	01 fa                	add    edx,edi
100028c1:	39 d1                	cmp    ecx,edx
100028c3:	7d e9                	jge    100028ae <Window_get_windows_above+0x5d>
100028c5:	0f bf 4e 06          	movsx  ecx,WORD PTR [esi+0x6]
100028c9:	0f bf 78 06          	movsx  edi,WORD PTR [eax+0x6]
100028cd:	0f bf 56 0a          	movsx  edx,WORD PTR [esi+0xa]
100028d1:	01 ca                	add    edx,ecx
100028d3:	39 fa                	cmp    edx,edi
100028d5:	7e d7                	jle    100028ae <Window_get_windows_above+0x5d>
100028d7:	0f bf 50 0a          	movsx  edx,WORD PTR [eax+0xa]
100028db:	01 fa                	add    edx,edi
100028dd:	39 d1                	cmp    ecx,edx
100028df:	7d cd                	jge    100028ae <Window_get_windows_above+0x5d>
100028e1:	52                   	push   edx
100028e2:	52                   	push   edx
100028e3:	50                   	push   eax
100028e4:	ff 75 e4             	push   DWORD PTR [ebp-0x1c]
100028e7:	e8 fc ff ff ff       	call   100028e8 <Window_get_windows_above+0x97>	100028e8: R_386_PC32	List_add
100028ec:	83 c4 10             	add    esp,0x10
100028ef:	eb bd                	jmp    100028ae <Window_get_windows_above+0x5d>
100028f1:	8b 45 e4             	mov    eax,DWORD PTR [ebp-0x1c]
100028f4:	8d 65 f4             	lea    esp,[ebp-0xc]
100028f7:	5b                   	pop    ebx
100028f8:	5e                   	pop    esi
100028f9:	5f                   	pop    edi
100028fa:	5d                   	pop    ebp
100028fb:	c3                   	ret    

100028fc <Window_apply_bound_clipping>:
100028fc:	55                   	push   ebp
100028fd:	89 e5                	mov    ebp,esp
100028ff:	57                   	push   edi
10002900:	56                   	push   esi
10002901:	53                   	push   ebx
10002902:	83 ec 1c             	sub    esp,0x1c
10002905:	8b 5d 08             	mov    ebx,DWORD PTR [ebp+0x8]
10002908:	8b 45 0c             	mov    eax,DWORD PTR [ebp+0xc]
1000290b:	89 45 e4             	mov    DWORD PTR [ebp-0x1c],eax
1000290e:	8b 75 10             	mov    esi,DWORD PTR [ebp+0x10]
10002911:	83 7b 10 00          	cmp    DWORD PTR [ebx+0x10],0x0
10002915:	0f 84 49 01 00 00    	je     10002a64 <Window_apply_bound_clipping+0x168>
1000291b:	83 ec 0c             	sub    esp,0xc
1000291e:	53                   	push   ebx
1000291f:	e8 fc ff ff ff       	call   10002920 <Window_apply_bound_clipping+0x24>	10002920: R_386_PC32	Window_screen_x
10002924:	89 c7                	mov    edi,eax
10002926:	89 1c 24             	mov    DWORD PTR [esp],ebx
10002929:	e8 fc ff ff ff       	call   1000292a <Window_apply_bound_clipping+0x2e>	1000292a: R_386_PC32	Window_screen_y
1000292e:	83 c4 10             	add    esp,0x10
10002931:	0f bf 4b 08          	movsx  ecx,WORD PTR [ebx+0x8]
10002935:	0f bf 53 0a          	movsx  edx,WORD PTR [ebx+0xa]
10002939:	f6 43 0c 01          	test   BYTE PTR [ebx+0xc],0x1
1000293d:	75 17                	jne    10002956 <Window_apply_bound_clipping+0x5a>
1000293f:	83 7d e4 00          	cmp    DWORD PTR [ebp-0x1c],0x0
10002943:	74 11                	je     10002956 <Window_apply_bound_clipping+0x5a>
10002945:	83 c7 03             	add    edi,0x3
10002948:	83 c0 1a             	add    eax,0x1a
1000294b:	8d 4c 0f f9          	lea    ecx,[edi+ecx*1-0x7]
1000294f:	51                   	push   ecx
10002950:	8d 54 10 e2          	lea    edx,[eax+edx*1-0x1e]
10002954:	eb 09                	jmp    1000295f <Window_apply_bound_clipping+0x63>
10002956:	8d 4c 0f ff          	lea    ecx,[edi+ecx*1-0x1]
1000295a:	51                   	push   ecx
1000295b:	8d 54 10 ff          	lea    edx,[eax+edx*1-0x1]
1000295f:	52                   	push   edx
10002960:	57                   	push   edi
10002961:	50                   	push   eax
10002962:	e8 fc ff ff ff       	call   10002963 <Window_apply_bound_clipping+0x67>	10002963: R_386_PC32	Rect_new
10002967:	89 c7                	mov    edi,eax
10002969:	83 c4 10             	add    esp,0x10
1000296c:	8b 03                	mov    eax,DWORD PTR [ebx]
1000296e:	85 c0                	test   eax,eax
10002970:	75 65                	jne    100029d7 <Window_apply_bound_clipping+0xdb>
10002972:	31 d2                	xor    edx,edx
10002974:	85 f6                	test   esi,esi
10002976:	74 4a                	je     100029c2 <Window_apply_bound_clipping+0xc6>
10002978:	3b 16                	cmp    edx,DWORD PTR [esi]
1000297a:	73 31                	jae    100029ad <Window_apply_bound_clipping+0xb1>
1000297c:	50                   	push   eax
1000297d:	50                   	push   eax
1000297e:	52                   	push   edx
1000297f:	89 55 e4             	mov    DWORD PTR [ebp-0x1c],edx
10002982:	56                   	push   esi
10002983:	e8 fc ff ff ff       	call   10002984 <Window_apply_bound_clipping+0x88>	10002984: R_386_PC32	List_get_at
10002988:	ff 70 0c             	push   DWORD PTR [eax+0xc]
1000298b:	ff 70 08             	push   DWORD PTR [eax+0x8]
1000298e:	ff 70 04             	push   DWORD PTR [eax+0x4]
10002991:	ff 30                	push   DWORD PTR [eax]
10002993:	e8 fc ff ff ff       	call   10002994 <Window_apply_bound_clipping+0x98>	10002994: R_386_PC32	Rect_new
10002998:	83 c4 18             	add    esp,0x18
1000299b:	50                   	push   eax
1000299c:	ff 73 10             	push   DWORD PTR [ebx+0x10]
1000299f:	e8 fc ff ff ff       	call   100029a0 <Window_apply_bound_clipping+0xa4>	100029a0: R_386_PC32	Context_add_clip_rect
100029a4:	8b 55 e4             	mov    edx,DWORD PTR [ebp-0x1c]
100029a7:	42                   	inc    edx
100029a8:	83 c4 10             	add    esp,0x10
100029ab:	eb cb                	jmp    10002978 <Window_apply_bound_clipping+0x7c>
100029ad:	89 7d 0c             	mov    DWORD PTR [ebp+0xc],edi
100029b0:	8b 43 10             	mov    eax,DWORD PTR [ebx+0x10]
100029b3:	89 45 08             	mov    DWORD PTR [ebp+0x8],eax
100029b6:	8d 65 f4             	lea    esp,[ebp-0xc]
100029b9:	5b                   	pop    ebx
100029ba:	5e                   	pop    esi
100029bb:	5f                   	pop    edi
100029bc:	5d                   	pop    ebp
100029bd:	e9 fc ff ff ff       	jmp    100029be <Window_apply_bound_clipping+0xc2>	100029be: R_386_PC32	Context_intersect_clip_rect
100029c2:	89 7d 0c             	mov    DWORD PTR [ebp+0xc],edi
100029c5:	8b 43 10             	mov    eax,DWORD PTR [ebx+0x10]
100029c8:	89 45 08             	mov    DWORD PTR [ebp+0x8],eax
100029cb:	8d 65 f4             	lea    esp,[ebp-0xc]
100029ce:	5b                   	pop    ebx
100029cf:	5e                   	pop    esi
100029d0:	5f                   	pop    edi
100029d1:	5d                   	pop    ebp
100029d2:	e9 fc ff ff ff       	jmp    100029d3 <Window_apply_bound_clipping+0xd7>	100029d3: R_386_PC32	Context_add_clip_rect
100029d7:	52                   	push   edx
100029d8:	56                   	push   esi
100029d9:	6a 01                	push   0x1
100029db:	50                   	push   eax
100029dc:	e8 fc ff ff ff       	call   100029dd <Window_apply_bound_clipping+0xe1>	100029dd: R_386_PC32	Window_apply_bound_clipping
100029e1:	59                   	pop    ecx
100029e2:	5e                   	pop    esi
100029e3:	57                   	push   edi
100029e4:	ff 73 10             	push   DWORD PTR [ebx+0x10]
100029e7:	e8 fc ff ff ff       	call   100029e8 <Window_apply_bound_clipping+0xec>	100029e8: R_386_PC32	Context_intersect_clip_rect
100029ec:	5f                   	pop    edi
100029ed:	58                   	pop    eax
100029ee:	53                   	push   ebx
100029ef:	ff 33                	push   DWORD PTR [ebx]
100029f1:	e8 fc ff ff ff       	call   100029f2 <Window_apply_bound_clipping+0xf6>	100029f2: R_386_PC32	Window_get_windows_above
100029f6:	89 c7                	mov    edi,eax
100029f8:	83 c4 10             	add    esp,0x10
100029fb:	83 3f 00             	cmp    DWORD PTR [edi],0x0
100029fe:	74 55                	je     10002a55 <Window_apply_bound_clipping+0x159>
10002a00:	50                   	push   eax
10002a01:	50                   	push   eax
10002a02:	6a 00                	push   0x0
10002a04:	57                   	push   edi
10002a05:	e8 fc ff ff ff       	call   10002a06 <Window_apply_bound_clipping+0x10a>	10002a06: R_386_PC32	List_remove_at
10002a0a:	89 c6                	mov    esi,eax
10002a0c:	89 04 24             	mov    DWORD PTR [esp],eax
10002a0f:	e8 fc ff ff ff       	call   10002a10 <Window_apply_bound_clipping+0x114>	10002a10: R_386_PC32	Window_screen_x
10002a14:	89 45 e4             	mov    DWORD PTR [ebp-0x1c],eax
10002a17:	89 34 24             	mov    DWORD PTR [esp],esi
10002a1a:	e8 fc ff ff ff       	call   10002a1b <Window_apply_bound_clipping+0x11f>	10002a1b: R_386_PC32	Window_screen_y
10002a1f:	83 c4 10             	add    esp,0x10
10002a22:	0f bf 4e 08          	movsx  ecx,WORD PTR [esi+0x8]
10002a26:	8b 55 e4             	mov    edx,DWORD PTR [ebp-0x1c]
10002a29:	8d 4c 0a ff          	lea    ecx,[edx+ecx*1-0x1]
10002a2d:	51                   	push   ecx
10002a2e:	0f bf 4e 0a          	movsx  ecx,WORD PTR [esi+0xa]
10002a32:	8d 4c 08 ff          	lea    ecx,[eax+ecx*1-0x1]
10002a36:	51                   	push   ecx
10002a37:	52                   	push   edx
10002a38:	50                   	push   eax
10002a39:	e8 fc ff ff ff       	call   10002a3a <Window_apply_bound_clipping+0x13e>	10002a3a: R_386_PC32	Rect_new
10002a3e:	89 c6                	mov    esi,eax
10002a40:	5a                   	pop    edx
10002a41:	59                   	pop    ecx
10002a42:	50                   	push   eax
10002a43:	ff 73 10             	push   DWORD PTR [ebx+0x10]
10002a46:	e8 fc ff ff ff       	call   10002a47 <Window_apply_bound_clipping+0x14b>	10002a47: R_386_PC32	Context_subtract_clip_rect
10002a4b:	89 34 24             	mov    DWORD PTR [esp],esi
10002a4e:	e8 fc ff ff ff       	call   10002a4f <Window_apply_bound_clipping+0x153>	10002a4f: R_386_PC32	free
10002a53:	eb a3                	jmp    100029f8 <Window_apply_bound_clipping+0xfc>
10002a55:	89 7d 08             	mov    DWORD PTR [ebp+0x8],edi
10002a58:	8d 65 f4             	lea    esp,[ebp-0xc]
10002a5b:	5b                   	pop    ebx
10002a5c:	5e                   	pop    esi
10002a5d:	5f                   	pop    edi
10002a5e:	5d                   	pop    ebp
10002a5f:	e9 fc ff ff ff       	jmp    10002a60 <Window_apply_bound_clipping+0x164>	10002a60: R_386_PC32	free
10002a64:	8d 65 f4             	lea    esp,[ebp-0xc]
10002a67:	5b                   	pop    ebx
10002a68:	5e                   	pop    esi
10002a69:	5f                   	pop    edi
10002a6a:	5d                   	pop    ebp
10002a6b:	c3                   	ret    

10002a6c <Window_update_title>:
10002a6c:	55                   	push   ebp
10002a6d:	89 e5                	mov    ebp,esp
10002a6f:	53                   	push   ebx
10002a70:	52                   	push   edx
10002a71:	8b 5d 08             	mov    ebx,DWORD PTR [ebp+0x8]
10002a74:	83 7b 10 00          	cmp    DWORD PTR [ebx+0x10],0x0
10002a78:	74 2b                	je     10002aa5 <Window_update_title+0x39>
10002a7a:	f6 43 0c 01          	test   BYTE PTR [ebx+0xc],0x1
10002a7e:	75 25                	jne    10002aa5 <Window_update_title+0x39>
10002a80:	50                   	push   eax
10002a81:	6a 00                	push   0x0
10002a83:	6a 00                	push   0x0
10002a85:	53                   	push   ebx
10002a86:	e8 fc ff ff ff       	call   10002a87 <Window_update_title+0x1b>	10002a87: R_386_PC32	Window_apply_bound_clipping
10002a8b:	89 1c 24             	mov    DWORD PTR [esp],ebx
10002a8e:	e8 fc ff ff ff       	call   10002a8f <Window_update_title+0x23>	10002a8f: R_386_PC32	Window_draw_border
10002a93:	83 c4 10             	add    esp,0x10
10002a96:	8b 43 10             	mov    eax,DWORD PTR [ebx+0x10]
10002a99:	89 45 08             	mov    DWORD PTR [ebp+0x8],eax
10002a9c:	8b 5d fc             	mov    ebx,DWORD PTR [ebp-0x4]
10002a9f:	c9                   	leave  
10002aa0:	e9 fc ff ff ff       	jmp    10002aa1 <Window_update_title+0x35>	10002aa1: R_386_PC32	Context_clear_clip_rects
10002aa5:	8b 5d fc             	mov    ebx,DWORD PTR [ebp-0x4]
10002aa8:	c9                   	leave  
10002aa9:	c3                   	ret    

10002aaa <Window_paint.part.2>:
10002aaa:	55                   	push   ebp
10002aab:	89 e5                	mov    ebp,esp
10002aad:	57                   	push   edi
10002aae:	56                   	push   esi
10002aaf:	53                   	push   ebx
10002ab0:	83 ec 30             	sub    esp,0x30
10002ab3:	89 c3                	mov    ebx,eax
10002ab5:	89 55 e4             	mov    DWORD PTR [ebp-0x1c],edx
10002ab8:	52                   	push   edx
10002ab9:	6a 00                	push   0x0
10002abb:	50                   	push   eax
10002abc:	e8 fc ff ff ff       	call   10002abd <Window_paint.part.2+0x13>	10002abd: R_386_PC32	Window_apply_bound_clipping
10002ac1:	89 1c 24             	mov    DWORD PTR [esp],ebx
10002ac4:	e8 fc ff ff ff       	call   10002ac5 <Window_paint.part.2+0x1b>	10002ac5: R_386_PC32	Window_screen_x
10002ac9:	89 c7                	mov    edi,eax
10002acb:	89 1c 24             	mov    DWORD PTR [esp],ebx
10002ace:	e8 fc ff ff ff       	call   10002acf <Window_paint.part.2+0x25>	10002acf: R_386_PC32	Window_screen_y
10002ad3:	83 c4 10             	add    esp,0x10
10002ad6:	89 c6                	mov    esi,eax
10002ad8:	f6 43 0c 01          	test   BYTE PTR [ebx+0xc],0x1
10002adc:	75 37                	jne    10002b15 <Window_paint.part.2+0x6b>
10002ade:	83 ec 0c             	sub    esp,0xc
10002ae1:	53                   	push   ebx
10002ae2:	e8 fc ff ff ff       	call   10002ae3 <Window_paint.part.2+0x39>	10002ae3: R_386_PC32	Window_draw_border
10002ae7:	83 c7 03             	add    edi,0x3
10002aea:	83 c6 1a             	add    esi,0x1a
10002aed:	0f bf 43 08          	movsx  eax,WORD PTR [ebx+0x8]
10002af1:	8d 44 07 f9          	lea    eax,[edi+eax*1-0x7]
10002af5:	50                   	push   eax
10002af6:	0f bf 43 0a          	movsx  eax,WORD PTR [ebx+0xa]
10002afa:	8d 44 06 e2          	lea    eax,[esi+eax*1-0x1e]
10002afe:	50                   	push   eax
10002aff:	57                   	push   edi
10002b00:	56                   	push   esi
10002b01:	e8 fc ff ff ff       	call   10002b02 <Window_paint.part.2+0x58>	10002b02: R_386_PC32	Rect_new
10002b06:	83 c4 18             	add    esp,0x18
10002b09:	50                   	push   eax
10002b0a:	ff 73 10             	push   DWORD PTR [ebx+0x10]
10002b0d:	e8 fc ff ff ff       	call   10002b0e <Window_paint.part.2+0x64>	10002b0e: R_386_PC32	Context_intersect_clip_rect
10002b12:	83 c4 10             	add    esp,0x10
10002b15:	c7 45 e0 00 00 00 00 	mov    DWORD PTR [ebp-0x20],0x0
10002b1c:	8b 43 20             	mov    eax,DWORD PTR [ebx+0x20]
10002b1f:	8b 4d e0             	mov    ecx,DWORD PTR [ebp-0x20]
10002b22:	39 08                	cmp    DWORD PTR [eax],ecx
10002b24:	76 72                	jbe    10002b98 <Window_paint.part.2+0xee>
10002b26:	52                   	push   edx
10002b27:	52                   	push   edx
10002b28:	ff 75 e0             	push   DWORD PTR [ebp-0x20]
10002b2b:	50                   	push   eax
10002b2c:	e8 fc ff ff ff       	call   10002b2d <Window_paint.part.2+0x83>	10002b2d: R_386_PC32	List_get_at
10002b31:	89 04 24             	mov    DWORD PTR [esp],eax
10002b34:	89 45 d8             	mov    DWORD PTR [ebp-0x28],eax
10002b37:	e8 fc ff ff ff       	call   10002b38 <Window_paint.part.2+0x8e>	10002b38: R_386_PC32	Window_screen_x
10002b3c:	89 45 dc             	mov    DWORD PTR [ebp-0x24],eax
10002b3f:	8b 55 d8             	mov    edx,DWORD PTR [ebp-0x28]
10002b42:	89 14 24             	mov    DWORD PTR [esp],edx
10002b45:	89 55 d4             	mov    DWORD PTR [ebp-0x2c],edx
10002b48:	e8 fc ff ff ff       	call   10002b49 <Window_paint.part.2+0x9f>	10002b49: R_386_PC32	Window_screen_y
10002b4d:	83 c4 10             	add    esp,0x10
10002b50:	89 45 d8             	mov    DWORD PTR [ebp-0x28],eax
10002b53:	8b 55 d4             	mov    edx,DWORD PTR [ebp-0x2c]
10002b56:	0f bf 4a 08          	movsx  ecx,WORD PTR [edx+0x8]
10002b5a:	8b 45 dc             	mov    eax,DWORD PTR [ebp-0x24]
10002b5d:	8d 4c 08 ff          	lea    ecx,[eax+ecx*1-0x1]
10002b61:	51                   	push   ecx
10002b62:	0f bf 52 0a          	movsx  edx,WORD PTR [edx+0xa]
10002b66:	8b 45 d8             	mov    eax,DWORD PTR [ebp-0x28]
10002b69:	8d 54 10 ff          	lea    edx,[eax+edx*1-0x1]
10002b6d:	52                   	push   edx
10002b6e:	ff 75 dc             	push   DWORD PTR [ebp-0x24]
10002b71:	50                   	push   eax
10002b72:	e8 fc ff ff ff       	call   10002b73 <Window_paint.part.2+0xc9>	10002b73: R_386_PC32	Rect_new
10002b77:	59                   	pop    ecx
10002b78:	5a                   	pop    edx
10002b79:	50                   	push   eax
10002b7a:	89 45 dc             	mov    DWORD PTR [ebp-0x24],eax
10002b7d:	ff 73 10             	push   DWORD PTR [ebx+0x10]
10002b80:	e8 fc ff ff ff       	call   10002b81 <Window_paint.part.2+0xd7>	10002b81: R_386_PC32	Context_subtract_clip_rect
10002b85:	8b 45 dc             	mov    eax,DWORD PTR [ebp-0x24]
10002b88:	89 04 24             	mov    DWORD PTR [esp],eax
10002b8b:	e8 fc ff ff ff       	call   10002b8c <Window_paint.part.2+0xe2>	10002b8c: R_386_PC32	free
10002b90:	ff 45 e0             	inc    DWORD PTR [ebp-0x20]
10002b93:	83 c4 10             	add    esp,0x10
10002b96:	eb 84                	jmp    10002b1c <Window_paint.part.2+0x72>
10002b98:	8b 43 10             	mov    eax,DWORD PTR [ebx+0x10]
10002b9b:	89 78 08             	mov    DWORD PTR [eax+0x8],edi
10002b9e:	89 70 0c             	mov    DWORD PTR [eax+0xc],esi
10002ba1:	80 bb b4 01 00 00 00 	cmp    BYTE PTR [ebx+0x1b4],0x0
10002ba8:	74 13                	je     10002bbd <Window_paint.part.2+0x113>
10002baa:	51                   	push   ecx
10002bab:	51                   	push   ecx
10002bac:	53                   	push   ebx
10002bad:	ff b3 b8 01 00 00    	push   DWORD PTR [ebx+0x1b8]
10002bb3:	e8 fc ff ff ff       	call   10002bb4 <Window_paint.part.2+0x10a>	10002bb4: R_386_PC32	scriptParse
10002bb8:	83 c4 10             	add    esp,0x10
10002bbb:	eb 12                	jmp    10002bcf <Window_paint.part.2+0x125>
10002bbd:	83 ec 0c             	sub    esp,0xc
10002bc0:	6a 00                	push   0x0
10002bc2:	6a 00                	push   0x0
10002bc4:	6a 00                	push   0x0
10002bc6:	6a 00                	push   0x0
10002bc8:	53                   	push   ebx
10002bc9:	ff 53 30             	call   DWORD PTR [ebx+0x30]
10002bcc:	83 c4 20             	add    esp,0x20
10002bcf:	83 ec 0c             	sub    esp,0xc
10002bd2:	ff 73 10             	push   DWORD PTR [ebx+0x10]
10002bd5:	e8 fc ff ff ff       	call   10002bd6 <Window_paint.part.2+0x12c>	10002bd6: R_386_PC32	Context_clear_clip_rects
10002bda:	8b 43 10             	mov    eax,DWORD PTR [ebx+0x10]
10002bdd:	c7 40 08 00 00 00 00 	mov    DWORD PTR [eax+0x8],0x0
10002be4:	c7 40 0c 00 00 00 00 	mov    DWORD PTR [eax+0xc],0x0
10002beb:	83 c4 10             	add    esp,0x10
10002bee:	c7 45 e0 00 00 00 00 	mov    DWORD PTR [ebp-0x20],0x0
10002bf5:	8b 43 20             	mov    eax,DWORD PTR [ebx+0x20]
10002bf8:	8b 7d e0             	mov    edi,DWORD PTR [ebp-0x20]
10002bfb:	39 38                	cmp    DWORD PTR [eax],edi
10002bfd:	0f 86 87 00 00 00    	jbe    10002c8a <Window_paint.part.2+0x1e0>
10002c03:	52                   	push   edx
10002c04:	52                   	push   edx
10002c05:	ff 75 e0             	push   DWORD PTR [ebp-0x20]
10002c08:	50                   	push   eax
10002c09:	e8 fc ff ff ff       	call   10002c0a <Window_paint.part.2+0x160>	10002c0a: R_386_PC32	List_get_at
10002c0e:	89 c6                	mov    esi,eax
10002c10:	83 c4 10             	add    esp,0x10
10002c13:	31 ff                	xor    edi,edi
10002c15:	83 7d e4 00          	cmp    DWORD PTR [ebp-0x1c],0x0
10002c19:	75 40                	jne    10002c5b <Window_paint.part.2+0x1b1>
10002c1b:	8b 55 e4             	mov    edx,DWORD PTR [ebp-0x1c]
10002c1e:	89 f0                	mov    eax,esi
10002c20:	e8 84 00 00 00       	call   10002ca9 <Window_paint.constprop.4>
10002c25:	eb 5b                	jmp    10002c82 <Window_paint.part.2+0x1d8>
10002c27:	50                   	push   eax
10002c28:	50                   	push   eax
10002c29:	57                   	push   edi
10002c2a:	ff 75 e4             	push   DWORD PTR [ebp-0x1c]
10002c2d:	e8 fc ff ff ff       	call   10002c2e <Window_paint.part.2+0x184>	10002c2e: R_386_PC32	List_get_at
10002c32:	89 45 d8             	mov    DWORD PTR [ebp-0x28],eax
10002c35:	89 34 24             	mov    DWORD PTR [esp],esi
10002c38:	e8 fc ff ff ff       	call   10002c39 <Window_paint.part.2+0x18f>	10002c39: R_386_PC32	Window_screen_x
10002c3d:	89 45 dc             	mov    DWORD PTR [ebp-0x24],eax
10002c40:	89 34 24             	mov    DWORD PTR [esp],esi
10002c43:	e8 fc ff ff ff       	call   10002c44 <Window_paint.part.2+0x19a>	10002c44: R_386_PC32	Window_screen_y
10002c48:	83 c4 10             	add    esp,0x10
10002c4b:	0f bf 4e 08          	movsx  ecx,WORD PTR [esi+0x8]
10002c4f:	03 4d dc             	add    ecx,DWORD PTR [ebp-0x24]
10002c52:	8b 55 d8             	mov    edx,DWORD PTR [ebp-0x28]
10002c55:	3b 4a 04             	cmp    ecx,DWORD PTR [edx+0x4]
10002c58:	7f 0a                	jg     10002c64 <Window_paint.part.2+0x1ba>
10002c5a:	47                   	inc    edi
10002c5b:	8b 45 e4             	mov    eax,DWORD PTR [ebp-0x1c]
10002c5e:	39 38                	cmp    DWORD PTR [eax],edi
10002c60:	77 c5                	ja     10002c27 <Window_paint.part.2+0x17d>
10002c62:	eb 17                	jmp    10002c7b <Window_paint.part.2+0x1d1>
10002c64:	8b 4d dc             	mov    ecx,DWORD PTR [ebp-0x24]
10002c67:	3b 4a 0c             	cmp    ecx,DWORD PTR [edx+0xc]
10002c6a:	7f ee                	jg     10002c5a <Window_paint.part.2+0x1b0>
10002c6c:	0f bf 4e 0a          	movsx  ecx,WORD PTR [esi+0xa]
10002c70:	01 c1                	add    ecx,eax
10002c72:	3b 0a                	cmp    ecx,DWORD PTR [edx]
10002c74:	7e e4                	jle    10002c5a <Window_paint.part.2+0x1b0>
10002c76:	3b 42 08             	cmp    eax,DWORD PTR [edx+0x8]
10002c79:	7f df                	jg     10002c5a <Window_paint.part.2+0x1b0>
10002c7b:	8b 45 e4             	mov    eax,DWORD PTR [ebp-0x1c]
10002c7e:	39 38                	cmp    DWORD PTR [eax],edi
10002c80:	75 99                	jne    10002c1b <Window_paint.part.2+0x171>
10002c82:	ff 45 e0             	inc    DWORD PTR [ebp-0x20]
10002c85:	e9 6b ff ff ff       	jmp    10002bf5 <Window_paint.part.2+0x14b>
10002c8a:	8d 65 f4             	lea    esp,[ebp-0xc]
10002c8d:	5b                   	pop    ebx
10002c8e:	5e                   	pop    esi
10002c8f:	5f                   	pop    edi
10002c90:	5d                   	pop    ebp
10002c91:	c3                   	ret    

10002c92 <Window_paint>:
10002c92:	55                   	push   ebp
10002c93:	89 e5                	mov    ebp,esp
10002c95:	8b 45 08             	mov    eax,DWORD PTR [ebp+0x8]
10002c98:	8b 55 0c             	mov    edx,DWORD PTR [ebp+0xc]
10002c9b:	83 78 10 00          	cmp    DWORD PTR [eax+0x10],0x0
10002c9f:	74 06                	je     10002ca7 <Window_paint+0x15>
10002ca1:	5d                   	pop    ebp
10002ca2:	e9 03 fe ff ff       	jmp    10002aaa <Window_paint.part.2>
10002ca7:	5d                   	pop    ebp
10002ca8:	c3                   	ret    

10002ca9 <Window_paint.constprop.4>:
10002ca9:	83 78 10 00          	cmp    DWORD PTR [eax+0x10],0x0
10002cad:	74 05                	je     10002cb4 <Window_paint.constprop.4+0xb>
10002caf:	e9 f6 fd ff ff       	jmp    10002aaa <Window_paint.part.2>
10002cb4:	c3                   	ret    

10002cb5 <Window_invalidate>:
10002cb5:	55                   	push   ebp
10002cb6:	89 e5                	mov    ebp,esp
10002cb8:	57                   	push   edi
10002cb9:	56                   	push   esi
10002cba:	53                   	push   ebx
10002cbb:	83 ec 38             	sub    esp,0x38
10002cbe:	8b 75 08             	mov    esi,DWORD PTR [ebp+0x8]
10002cc1:	8b 45 0c             	mov    eax,DWORD PTR [ebp+0xc]
10002cc4:	89 45 e4             	mov    DWORD PTR [ebp-0x1c],eax
10002cc7:	8b 45 10             	mov    eax,DWORD PTR [ebp+0x10]
10002cca:	89 45 e0             	mov    DWORD PTR [ebp-0x20],eax
10002ccd:	8b 45 14             	mov    eax,DWORD PTR [ebp+0x14]
10002cd0:	89 45 dc             	mov    DWORD PTR [ebp-0x24],eax
10002cd3:	8b 7d 18             	mov    edi,DWORD PTR [ebp+0x18]
10002cd6:	56                   	push   esi
10002cd7:	e8 fc ff ff ff       	call   10002cd8 <Window_invalidate+0x23>	10002cd8: R_386_PC32	Window_screen_x
10002cdc:	89 45 d4             	mov    DWORD PTR [ebp-0x2c],eax
10002cdf:	89 34 24             	mov    DWORD PTR [esp],esi
10002ce2:	e8 fc ff ff ff       	call   10002ce3 <Window_invalidate+0x2e>	10002ce3: R_386_PC32	Window_screen_y
10002ce7:	83 c4 10             	add    esp,0x10
10002cea:	89 45 d8             	mov    DWORD PTR [ebp-0x28],eax
10002ced:	e8 fc ff ff ff       	call   10002cee <Window_invalidate+0x39>	10002cee: R_386_PC32	List_new
10002cf2:	85 c0                	test   eax,eax
10002cf4:	74 6f                	je     10002d65 <Window_invalidate+0xb0>
10002cf6:	89 c3                	mov    ebx,eax
10002cf8:	8b 4d d4             	mov    ecx,DWORD PTR [ebp-0x2c]
10002cfb:	01 cf                	add    edi,ecx
10002cfd:	57                   	push   edi
10002cfe:	8b 45 dc             	mov    eax,DWORD PTR [ebp-0x24]
10002d01:	8b 55 d8             	mov    edx,DWORD PTR [ebp-0x28]
10002d04:	01 d0                	add    eax,edx
10002d06:	50                   	push   eax
10002d07:	03 4d e0             	add    ecx,DWORD PTR [ebp-0x20]
10002d0a:	51                   	push   ecx
10002d0b:	03 55 e4             	add    edx,DWORD PTR [ebp-0x1c]
10002d0e:	52                   	push   edx
10002d0f:	e8 fc ff ff ff       	call   10002d10 <Window_invalidate+0x5b>	10002d10: R_386_PC32	Rect_new
10002d14:	89 c7                	mov    edi,eax
10002d16:	83 c4 10             	add    esp,0x10
10002d19:	85 c0                	test   eax,eax
10002d1b:	75 05                	jne    10002d22 <Window_invalidate+0x6d>
10002d1d:	89 5d 08             	mov    DWORD PTR [ebp+0x8],ebx
10002d20:	eb 37                	jmp    10002d59 <Window_invalidate+0xa4>
10002d22:	52                   	push   edx
10002d23:	52                   	push   edx
10002d24:	50                   	push   eax
10002d25:	53                   	push   ebx
10002d26:	e8 fc ff ff ff       	call   10002d27 <Window_invalidate+0x72>	10002d27: R_386_PC32	List_add
10002d2b:	83 c4 10             	add    esp,0x10
10002d2e:	85 c0                	test   eax,eax
10002d30:	75 06                	jne    10002d38 <Window_invalidate+0x83>
10002d32:	83 ec 0c             	sub    esp,0xc
10002d35:	53                   	push   ebx
10002d36:	eb 16                	jmp    10002d4e <Window_invalidate+0x99>
10002d38:	89 da                	mov    edx,ebx
10002d3a:	89 f0                	mov    eax,esi
10002d3c:	e8 68 ff ff ff       	call   10002ca9 <Window_paint.constprop.4>
10002d41:	50                   	push   eax
10002d42:	50                   	push   eax
10002d43:	6a 00                	push   0x0
10002d45:	53                   	push   ebx
10002d46:	e8 fc ff ff ff       	call   10002d47 <Window_invalidate+0x92>	10002d47: R_386_PC32	List_remove_at
10002d4b:	89 1c 24             	mov    DWORD PTR [esp],ebx
10002d4e:	e8 fc ff ff ff       	call   10002d4f <Window_invalidate+0x9a>	10002d4f: R_386_PC32	free
10002d53:	83 c4 10             	add    esp,0x10
10002d56:	89 7d 08             	mov    DWORD PTR [ebp+0x8],edi
10002d59:	8d 65 f4             	lea    esp,[ebp-0xc]
10002d5c:	5b                   	pop    ebx
10002d5d:	5e                   	pop    esi
10002d5e:	5f                   	pop    edi
10002d5f:	5d                   	pop    ebp
10002d60:	e9 fc ff ff ff       	jmp    10002d61 <Window_invalidate+0xac>	10002d61: R_386_PC32	free
10002d65:	8d 65 f4             	lea    esp,[ebp-0xc]
10002d68:	5b                   	pop    ebx
10002d69:	5e                   	pop    esi
10002d6a:	5f                   	pop    edi
10002d6b:	5d                   	pop    ebp
10002d6c:	c3                   	ret    

10002d6d <Window_get_windows_below>:
10002d6d:	55                   	push   ebp
10002d6e:	89 e5                	mov    ebp,esp
10002d70:	57                   	push   edi
10002d71:	56                   	push   esi
10002d72:	53                   	push   ebx
10002d73:	83 ec 1c             	sub    esp,0x1c
10002d76:	8b 75 0c             	mov    esi,DWORD PTR [ebp+0xc]
10002d79:	e8 fc ff ff ff       	call   10002d7a <Window_get_windows_below+0xd>	10002d7a: R_386_PC32	List_new
10002d7e:	89 45 e4             	mov    DWORD PTR [ebp-0x1c],eax
10002d81:	85 c0                	test   eax,eax
10002d83:	0f 84 89 00 00 00    	je     10002e12 <Window_get_windows_below+0xa5>
10002d89:	8b 45 08             	mov    eax,DWORD PTR [ebp+0x8]
10002d8c:	8b 40 20             	mov    eax,DWORD PTR [eax+0x20]
10002d8f:	8b 10                	mov    edx,DWORD PTR [eax]
10002d91:	4a                   	dec    edx
10002d92:	8d 5a ff             	lea    ebx,[edx-0x1]
10002d95:	85 d2                	test   edx,edx
10002d97:	78 3d                	js     10002dd6 <Window_get_windows_below+0x69>
10002d99:	57                   	push   edi
10002d9a:	57                   	push   edi
10002d9b:	52                   	push   edx
10002d9c:	8b 45 08             	mov    eax,DWORD PTR [ebp+0x8]
10002d9f:	ff 70 20             	push   DWORD PTR [eax+0x20]
10002da2:	e8 fc ff ff ff       	call   10002da3 <Window_get_windows_below+0x36>	10002da3: R_386_PC32	List_get_at
10002da7:	89 da                	mov    edx,ebx
10002da9:	83 c4 10             	add    esp,0x10
10002dac:	39 f0                	cmp    eax,esi
10002dae:	75 e2                	jne    10002d92 <Window_get_windows_below+0x25>
10002db0:	eb 24                	jmp    10002dd6 <Window_get_windows_below+0x69>
10002db2:	51                   	push   ecx
10002db3:	51                   	push   ecx
10002db4:	53                   	push   ebx
10002db5:	8b 45 08             	mov    eax,DWORD PTR [ebp+0x8]
10002db8:	ff 70 20             	push   DWORD PTR [eax+0x20]
10002dbb:	e8 fc ff ff ff       	call   10002dbc <Window_get_windows_below+0x4f>	10002dbc: R_386_PC32	List_get_at
10002dc0:	0f bf 4e 04          	movsx  ecx,WORD PTR [esi+0x4]
10002dc4:	0f bf 78 04          	movsx  edi,WORD PTR [eax+0x4]
10002dc8:	0f bf 56 08          	movsx  edx,WORD PTR [esi+0x8]
10002dcc:	01 ca                	add    edx,ecx
10002dce:	83 c4 10             	add    esp,0x10
10002dd1:	39 fa                	cmp    edx,edi
10002dd3:	7f 07                	jg     10002ddc <Window_get_windows_below+0x6f>
10002dd5:	4b                   	dec    ebx
10002dd6:	85 db                	test   ebx,ebx
10002dd8:	79 d8                	jns    10002db2 <Window_get_windows_below+0x45>
10002dda:	eb 36                	jmp    10002e12 <Window_get_windows_below+0xa5>
10002ddc:	0f bf 50 08          	movsx  edx,WORD PTR [eax+0x8]
10002de0:	01 fa                	add    edx,edi
10002de2:	39 d1                	cmp    ecx,edx
10002de4:	7d ef                	jge    10002dd5 <Window_get_windows_below+0x68>
10002de6:	0f bf 4e 06          	movsx  ecx,WORD PTR [esi+0x6]
10002dea:	0f bf 78 06          	movsx  edi,WORD PTR [eax+0x6]
10002dee:	0f bf 56 0a          	movsx  edx,WORD PTR [esi+0xa]
10002df2:	01 ca                	add    edx,ecx
10002df4:	39 fa                	cmp    edx,edi
10002df6:	7e dd                	jle    10002dd5 <Window_get_windows_below+0x68>
10002df8:	0f bf 50 0a          	movsx  edx,WORD PTR [eax+0xa]
10002dfc:	01 fa                	add    edx,edi
10002dfe:	39 d1                	cmp    ecx,edx
10002e00:	7d d3                	jge    10002dd5 <Window_get_windows_below+0x68>
10002e02:	52                   	push   edx
10002e03:	52                   	push   edx
10002e04:	50                   	push   eax
10002e05:	ff 75 e4             	push   DWORD PTR [ebp-0x1c]
10002e08:	e8 fc ff ff ff       	call   10002e09 <Window_get_windows_below+0x9c>	10002e09: R_386_PC32	List_add
10002e0d:	83 c4 10             	add    esp,0x10
10002e10:	eb c3                	jmp    10002dd5 <Window_get_windows_below+0x68>
10002e12:	8b 45 e4             	mov    eax,DWORD PTR [ebp-0x1c]
10002e15:	8d 65 f4             	lea    esp,[ebp-0xc]
10002e18:	5b                   	pop    ebx
10002e19:	5e                   	pop    esi
10002e1a:	5f                   	pop    edi
10002e1b:	5d                   	pop    ebp
10002e1c:	c3                   	ret    

10002e1d <Window_raise>:
10002e1d:	55                   	push   ebp
10002e1e:	89 e5                	mov    ebp,esp
10002e20:	57                   	push   edi
10002e21:	56                   	push   esi
10002e22:	53                   	push   ebx
10002e23:	83 ec 3c             	sub    esp,0x3c
10002e26:	8b 5d 08             	mov    ebx,DWORD PTR [ebp+0x8]
10002e29:	8b 45 0c             	mov    eax,DWORD PTR [ebp+0xc]
10002e2c:	89 45 c4             	mov    DWORD PTR [ebp-0x3c],eax
10002e2f:	f6 43 0c 02          	test   BYTE PTR [ebx+0xc],0x2
10002e33:	74 51                	je     10002e86 <Window_raise+0x69>
10002e35:	a1 00 00 00 00       	mov    eax,ds:0x0	10002e36: R_386_32	active_window
10002e3a:	85 c0                	test   eax,eax
10002e3c:	74 23                	je     10002e61 <Window_raise+0x44>
10002e3e:	39 d8                	cmp    eax,ebx
10002e40:	74 1f                	je     10002e61 <Window_raise+0x44>
10002e42:	c6 45 d4 1b          	mov    BYTE PTR [ebp-0x2c],0x1b
10002e46:	89 45 d8             	mov    DWORD PTR [ebp-0x28],eax
10002e49:	83 ec 1c             	sub    esp,0x1c
10002e4c:	b9 05 00 00 00       	mov    ecx,0x5
10002e51:	89 e7                	mov    edi,esp
10002e53:	8d 75 d4             	lea    esi,[ebp-0x2c]
10002e56:	f3 a5                	rep movs DWORD PTR es:[edi],DWORD PTR ds:[esi]
10002e58:	50                   	push   eax
10002e59:	e8 fc ff ff ff       	call   10002e5a <Window_raise+0x3d>	10002e5a: R_386_PC32	dispatchMessage
10002e5e:	83 c4 20             	add    esp,0x20
10002e61:	89 1d 00 00 00 00    	mov    DWORD PTR ds:0x0,ebx	10002e63: R_386_32	active_window
10002e67:	c6 45 d4 1a          	mov    BYTE PTR [ebp-0x2c],0x1a
10002e6b:	89 5d d8             	mov    DWORD PTR [ebp-0x28],ebx
10002e6e:	83 ec 1c             	sub    esp,0x1c
10002e71:	b9 05 00 00 00       	mov    ecx,0x5
10002e76:	89 e7                	mov    edi,esp
10002e78:	8d 75 d4             	lea    esi,[ebp-0x2c]
10002e7b:	f3 a5                	rep movs DWORD PTR es:[edi],DWORD PTR ds:[esi]
10002e7d:	53                   	push   ebx
10002e7e:	e8 fc ff ff ff       	call   10002e7f <Window_raise+0x62>	10002e7f: R_386_PC32	dispatchMessage
10002e83:	83 c4 20             	add    esp,0x20
10002e86:	8b 33                	mov    esi,DWORD PTR [ebx]
10002e88:	85 f6                	test   esi,esi
10002e8a:	74 63                	je     10002eef <Window_raise+0xd2>
10002e8c:	8b 7e 1c             	mov    edi,DWORD PTR [esi+0x1c]
10002e8f:	31 d2                	xor    edx,edx
10002e91:	39 df                	cmp    edi,ebx
10002e93:	74 5a                	je     10002eef <Window_raise+0xd2>
10002e95:	8b 46 20             	mov    eax,DWORD PTR [esi+0x20]
10002e98:	39 10                	cmp    DWORD PTR [eax],edx
10002e9a:	76 16                	jbe    10002eb2 <Window_raise+0x95>
10002e9c:	51                   	push   ecx
10002e9d:	51                   	push   ecx
10002e9e:	52                   	push   edx
10002e9f:	89 55 c0             	mov    DWORD PTR [ebp-0x40],edx
10002ea2:	50                   	push   eax
10002ea3:	e8 fc ff ff ff       	call   10002ea4 <Window_raise+0x87>	10002ea4: R_386_PC32	List_get_at
10002ea8:	83 c4 10             	add    esp,0x10
10002eab:	39 d8                	cmp    eax,ebx
10002ead:	8b 55 c0             	mov    edx,DWORD PTR [ebp-0x40]
10002eb0:	75 3a                	jne    10002eec <Window_raise+0xcf>
10002eb2:	50                   	push   eax
10002eb3:	50                   	push   eax
10002eb4:	52                   	push   edx
10002eb5:	ff 76 20             	push   DWORD PTR [esi+0x20]
10002eb8:	e8 fc ff ff ff       	call   10002eb9 <Window_raise+0x9c>	10002eb9: R_386_PC32	List_remove_at
10002ebd:	5a                   	pop    edx
10002ebe:	59                   	pop    ecx
10002ebf:	53                   	push   ebx
10002ec0:	ff 76 20             	push   DWORD PTR [esi+0x20]
10002ec3:	e8 fc ff ff ff       	call   10002ec4 <Window_raise+0xa7>	10002ec4: R_386_PC32	List_add
10002ec8:	89 5e 1c             	mov    DWORD PTR [esi+0x1c],ebx
10002ecb:	83 c4 10             	add    esp,0x10
10002ece:	80 7d c4 00          	cmp    BYTE PTR [ebp-0x3c],0x0
10002ed2:	74 1b                	je     10002eef <Window_raise+0xd2>
10002ed4:	31 d2                	xor    edx,edx
10002ed6:	89 d8                	mov    eax,ebx
10002ed8:	e8 cc fd ff ff       	call   10002ca9 <Window_paint.constprop.4>
10002edd:	89 7d 08             	mov    DWORD PTR [ebp+0x8],edi
10002ee0:	8d 65 f4             	lea    esp,[ebp-0xc]
10002ee3:	5b                   	pop    ebx
10002ee4:	5e                   	pop    esi
10002ee5:	5f                   	pop    edi
10002ee6:	5d                   	pop    ebp
10002ee7:	e9 80 fb ff ff       	jmp    10002a6c <Window_update_title>
10002eec:	42                   	inc    edx
10002eed:	eb a6                	jmp    10002e95 <Window_raise+0x78>
10002eef:	8d 65 f4             	lea    esp,[ebp-0xc]
10002ef2:	5b                   	pop    ebx
10002ef3:	5e                   	pop    esi
10002ef4:	5f                   	pop    edi
10002ef5:	5d                   	pop    ebp
10002ef6:	c3                   	ret    

10002ef7 <Window_resize>:
10002ef7:	55                   	push   ebp
10002ef8:	89 e5                	mov    ebp,esp
10002efa:	57                   	push   edi
10002efb:	56                   	push   esi
10002efc:	53                   	push   ebx
10002efd:	83 ec 4c             	sub    esp,0x4c
10002f00:	8b 5d 08             	mov    ebx,DWORD PTR [ebp+0x8]
10002f03:	8b 7d 0c             	mov    edi,DWORD PTR [ebp+0xc]
10002f06:	83 ff 02             	cmp    edi,0x2
10002f09:	7d 05                	jge    10002f10 <Window_resize+0x19>
10002f0b:	bf 02 00 00 00       	mov    edi,0x2
10002f10:	8b 75 10             	mov    esi,DWORD PTR [ebp+0x10]
10002f13:	83 fe 02             	cmp    esi,0x2
10002f16:	7d 05                	jge    10002f1d <Window_resize+0x26>
10002f18:	be 02 00 00 00       	mov    esi,0x2
10002f1d:	f6 43 0c 02          	test   BYTE PTR [ebx+0xc],0x2
10002f21:	74 14                	je     10002f37 <Window_resize+0x40>
10002f23:	83 ff 20             	cmp    edi,0x20
10002f26:	7d 05                	jge    10002f2d <Window_resize+0x36>
10002f28:	bf 20 00 00 00       	mov    edi,0x20
10002f2d:	83 fe 2a             	cmp    esi,0x2a
10002f30:	7d 05                	jge    10002f37 <Window_resize+0x40>
10002f32:	be 2a 00 00 00       	mov    esi,0x2a
10002f37:	8b 43 08             	mov    eax,DWORD PTR [ebx+0x8]
10002f3a:	89 45 b4             	mov    DWORD PTR [ebp-0x4c],eax
10002f3d:	50                   	push   eax
10002f3e:	50                   	push   eax
10002f3f:	6a 00                	push   0x0
10002f41:	53                   	push   ebx
10002f42:	e8 fc ff ff ff       	call   10002f43 <Window_resize+0x4c>	10002f43: R_386_PC32	Window_raise
10002f47:	83 c4 0c             	add    esp,0xc
10002f4a:	6a 00                	push   0x0
10002f4c:	6a 00                	push   0x0
10002f4e:	53                   	push   ebx
10002f4f:	e8 fc ff ff ff       	call   10002f50 <Window_resize+0x59>	10002f50: R_386_PC32	Window_apply_bound_clipping
10002f54:	66 89 7b 08          	mov    WORD PTR [ebx+0x8],di
10002f58:	66 89 73 0a          	mov    WORD PTR [ebx+0xa],si
10002f5c:	89 1c 24             	mov    DWORD PTR [esp],ebx
10002f5f:	e8 fc ff ff ff       	call   10002f60 <Window_resize+0x69>	10002f60: R_386_PC32	Window_screen_y
10002f64:	89 45 c4             	mov    DWORD PTR [ebp-0x3c],eax
10002f67:	89 45 b0             	mov    DWORD PTR [ebp-0x50],eax
10002f6a:	89 1c 24             	mov    DWORD PTR [esp],ebx
10002f6d:	e8 fc ff ff ff       	call   10002f6e <Window_resize+0x77>	10002f6e: R_386_PC32	Window_screen_x
10002f72:	5a                   	pop    edx
10002f73:	59                   	pop    ecx
10002f74:	89 45 c8             	mov    DWORD PTR [ebp-0x38],eax
10002f77:	0f bf ce             	movsx  ecx,si
10002f7a:	8b 55 b0             	mov    edx,DWORD PTR [ebp-0x50]
10002f7d:	8d 54 0a ff          	lea    edx,[edx+ecx*1-0x1]
10002f81:	89 55 cc             	mov    DWORD PTR [ebp-0x34],edx
10002f84:	0f bf d7             	movsx  edx,di
10002f87:	8d 44 10 ff          	lea    eax,[eax+edx*1-0x1]
10002f8b:	89 45 d0             	mov    DWORD PTR [ebp-0x30],eax
10002f8e:	8b 45 b4             	mov    eax,DWORD PTR [ebp-0x4c]
10002f91:	89 43 08             	mov    DWORD PTR [ebx+0x8],eax
10002f94:	8d 45 c4             	lea    eax,[ebp-0x3c]
10002f97:	50                   	push   eax
10002f98:	ff 73 10             	push   DWORD PTR [ebx+0x10]
10002f9b:	e8 fc ff ff ff       	call   10002f9c <Window_resize+0xa5>	10002f9c: R_386_PC32	Context_subtract_clip_rect
10002fa0:	e8 fc ff ff ff       	call   10002fa1 <Window_resize+0xaa>	10002fa1: R_386_PC32	List_new
10002fa5:	83 c4 10             	add    esp,0x10
10002fa8:	85 c0                	test   eax,eax
10002faa:	75 13                	jne    10002fbf <Window_resize+0xc8>
10002fac:	83 ec 0c             	sub    esp,0xc
10002faf:	ff 73 10             	push   DWORD PTR [ebx+0x10]
10002fb2:	e8 fc ff ff ff       	call   10002fb3 <Window_resize+0xbc>	10002fb3: R_386_PC32	Context_clear_clip_rects
10002fb7:	83 c4 10             	add    esp,0x10
10002fba:	e9 b6 00 00 00       	jmp    10003075 <Window_resize+0x17e>
10002fbf:	8b 53 10             	mov    edx,DWORD PTR [ebx+0x10]
10002fc2:	8b 4a 10             	mov    ecx,DWORD PTR [edx+0x10]
10002fc5:	89 4d b4             	mov    DWORD PTR [ebp-0x4c],ecx
10002fc8:	89 42 10             	mov    DWORD PTR [edx+0x10],eax
10002fcb:	50                   	push   eax
10002fcc:	50                   	push   eax
10002fcd:	53                   	push   ebx
10002fce:	ff 33                	push   DWORD PTR [ebx]
10002fd0:	e8 fc ff ff ff       	call   10002fd1 <Window_resize+0xda>	10002fd1: R_386_PC32	Window_get_windows_below
10002fd5:	89 45 b0             	mov    DWORD PTR [ebp-0x50],eax
10002fd8:	66 89 7b 08          	mov    WORD PTR [ebx+0x8],di
10002fdc:	66 89 73 0a          	mov    WORD PTR [ebx+0xa],si
10002fe0:	83 c4 0c             	add    esp,0xc
10002fe3:	56                   	push   esi
10002fe4:	57                   	push   edi
10002fe5:	53                   	push   ebx
10002fe6:	ff 53 48             	call   DWORD PTR [ebx+0x48]
10002fe9:	83 c4 10             	add    esp,0x10
10002fec:	8b 45 b0             	mov    eax,DWORD PTR [ebp-0x50]
10002fef:	83 38 00             	cmp    DWORD PTR [eax],0x0
10002ff2:	74 16                	je     1000300a <Window_resize+0x113>
10002ff4:	51                   	push   ecx
10002ff5:	51                   	push   ecx
10002ff6:	6a 00                	push   0x0
10002ff8:	ff 75 b0             	push   DWORD PTR [ebp-0x50]
10002ffb:	e8 fc ff ff ff       	call   10002ffc <Window_resize+0x105>	10002ffc: R_386_PC32	List_remove_at
10003000:	8b 55 b4             	mov    edx,DWORD PTR [ebp-0x4c]
10003003:	e8 a1 fc ff ff       	call   10002ca9 <Window_paint.constprop.4>
10003008:	eb df                	jmp    10002fe9 <Window_resize+0xf2>
1000300a:	8b 55 b4             	mov    edx,DWORD PTR [ebp-0x4c]
1000300d:	8b 03                	mov    eax,DWORD PTR [ebx]
1000300f:	e8 95 fc ff ff       	call   10002ca9 <Window_paint.constprop.4>
10003014:	8b 45 b4             	mov    eax,DWORD PTR [ebp-0x4c]
10003017:	83 38 00             	cmp    DWORD PTR [eax],0x0
1000301a:	74 19                	je     10003035 <Window_resize+0x13e>
1000301c:	52                   	push   edx
1000301d:	52                   	push   edx
1000301e:	6a 00                	push   0x0
10003020:	ff 75 b4             	push   DWORD PTR [ebp-0x4c]
10003023:	e8 fc ff ff ff       	call   10003024 <Window_resize+0x12d>	10003024: R_386_PC32	List_remove_at
10003028:	89 04 24             	mov    DWORD PTR [esp],eax
1000302b:	e8 fc ff ff ff       	call   1000302c <Window_resize+0x135>	1000302c: R_386_PC32	free
10003030:	83 c4 10             	add    esp,0x10
10003033:	eb df                	jmp    10003014 <Window_resize+0x11d>
10003035:	83 ec 0c             	sub    esp,0xc
10003038:	50                   	push   eax
10003039:	e8 fc ff ff ff       	call   1000303a <Window_resize+0x143>	1000303a: R_386_PC32	free
1000303e:	58                   	pop    eax
1000303f:	ff 75 b0             	push   DWORD PTR [ebp-0x50]
10003042:	e8 fc ff ff ff       	call   10003043 <Window_resize+0x14c>	10003043: R_386_PC32	free
10003047:	31 d2                	xor    edx,edx
10003049:	89 d8                	mov    eax,ebx
1000304b:	e8 59 fc ff ff       	call   10002ca9 <Window_paint.constprop.4>
10003050:	c6 45 d4 02          	mov    BYTE PTR [ebp-0x2c],0x2
10003054:	89 7d dc             	mov    DWORD PTR [ebp-0x24],edi
10003057:	89 75 e0             	mov    DWORD PTR [ebp-0x20],esi
1000305a:	89 5d d8             	mov    DWORD PTR [ebp-0x28],ebx
1000305d:	83 ec 0c             	sub    esp,0xc
10003060:	8d 75 d4             	lea    esi,[ebp-0x2c]
10003063:	b9 05 00 00 00       	mov    ecx,0x5
10003068:	89 e7                	mov    edi,esp
1000306a:	f3 a5                	rep movs DWORD PTR es:[edi],DWORD PTR ds:[esi]
1000306c:	53                   	push   ebx
1000306d:	e8 fc ff ff ff       	call   1000306e <Window_resize+0x177>	1000306e: R_386_PC32	dispatchMessage
10003072:	83 c4 20             	add    esp,0x20
10003075:	8d 65 f4             	lea    esp,[ebp-0xc]
10003078:	5b                   	pop    ebx
10003079:	5e                   	pop    esi
1000307a:	5f                   	pop    edi
1000307b:	5d                   	pop    ebp
1000307c:	c3                   	ret    

1000307d <Window_move>:
1000307d:	55                   	push   ebp
1000307e:	89 e5                	mov    ebp,esp
10003080:	57                   	push   edi
10003081:	56                   	push   esi
10003082:	53                   	push   ebx
10003083:	83 ec 44             	sub    esp,0x44
10003086:	8b 5d 08             	mov    ebx,DWORD PTR [ebp+0x8]
10003089:	8b 7b 04             	mov    edi,DWORD PTR [ebx+0x4]
1000308c:	6a 00                	push   0x0
1000308e:	53                   	push   ebx
1000308f:	e8 fc ff ff ff       	call   10003090 <Window_move+0x13>	10003090: R_386_PC32	Window_raise
10003094:	83 c4 0c             	add    esp,0xc
10003097:	6a 00                	push   0x0
10003099:	6a 00                	push   0x0
1000309b:	53                   	push   ebx
1000309c:	e8 fc ff ff ff       	call   1000309d <Window_move+0x20>	1000309d: R_386_PC32	Window_apply_bound_clipping
100030a1:	8b 45 0c             	mov    eax,DWORD PTR [ebp+0xc]
100030a4:	66 89 43 04          	mov    WORD PTR [ebx+0x4],ax
100030a8:	8b 45 10             	mov    eax,DWORD PTR [ebp+0x10]
100030ab:	66 89 43 06          	mov    WORD PTR [ebx+0x6],ax
100030af:	89 1c 24             	mov    DWORD PTR [esp],ebx
100030b2:	e8 fc ff ff ff       	call   100030b3 <Window_move+0x36>	100030b3: R_386_PC32	Window_screen_y
100030b7:	89 c6                	mov    esi,eax
100030b9:	89 45 c4             	mov    DWORD PTR [ebp-0x3c],eax
100030bc:	89 1c 24             	mov    DWORD PTR [esp],ebx
100030bf:	e8 fc ff ff ff       	call   100030c0 <Window_move+0x43>	100030c0: R_386_PC32	Window_screen_x
100030c4:	83 c4 0c             	add    esp,0xc
100030c7:	89 45 c8             	mov    DWORD PTR [ebp-0x38],eax
100030ca:	0f bf 53 0a          	movsx  edx,WORD PTR [ebx+0xa]
100030ce:	8d 54 16 ff          	lea    edx,[esi+edx*1-0x1]
100030d2:	89 55 cc             	mov    DWORD PTR [ebp-0x34],edx
100030d5:	0f bf 53 08          	movsx  edx,WORD PTR [ebx+0x8]
100030d9:	8d 44 10 ff          	lea    eax,[eax+edx*1-0x1]
100030dd:	89 45 d0             	mov    DWORD PTR [ebp-0x30],eax
100030e0:	ff 75 10             	push   DWORD PTR [ebp+0x10]
100030e3:	ff 75 0c             	push   DWORD PTR [ebp+0xc]
100030e6:	53                   	push   ebx
100030e7:	ff 53 4c             	call   DWORD PTR [ebx+0x4c]
100030ea:	89 7b 04             	mov    DWORD PTR [ebx+0x4],edi
100030ed:	5e                   	pop    esi
100030ee:	5f                   	pop    edi
100030ef:	8d 45 c4             	lea    eax,[ebp-0x3c]
100030f2:	50                   	push   eax
100030f3:	ff 73 10             	push   DWORD PTR [ebx+0x10]
100030f6:	e8 fc ff ff ff       	call   100030f7 <Window_move+0x7a>	100030f7: R_386_PC32	Context_subtract_clip_rect
100030fb:	e8 fc ff ff ff       	call   100030fc <Window_move+0x7f>	100030fc: R_386_PC32	List_new
10003100:	83 c4 10             	add    esp,0x10
10003103:	85 c0                	test   eax,eax
10003105:	75 13                	jne    1000311a <Window_move+0x9d>
10003107:	83 ec 0c             	sub    esp,0xc
1000310a:	ff 73 10             	push   DWORD PTR [ebx+0x10]
1000310d:	e8 fc ff ff ff       	call   1000310e <Window_move+0x91>	1000310e: R_386_PC32	Context_clear_clip_rects
10003112:	83 c4 10             	add    esp,0x10
10003115:	e9 a8 00 00 00       	jmp    100031c2 <Window_move+0x145>
1000311a:	8b 53 10             	mov    edx,DWORD PTR [ebx+0x10]
1000311d:	8b 72 10             	mov    esi,DWORD PTR [edx+0x10]
10003120:	89 42 10             	mov    DWORD PTR [edx+0x10],eax
10003123:	51                   	push   ecx
10003124:	51                   	push   ecx
10003125:	53                   	push   ebx
10003126:	ff 33                	push   DWORD PTR [ebx]
10003128:	e8 fc ff ff ff       	call   10003129 <Window_move+0xac>	10003129: R_386_PC32	Window_get_windows_below
1000312d:	89 c7                	mov    edi,eax
1000312f:	8b 45 0c             	mov    eax,DWORD PTR [ebp+0xc]
10003132:	66 89 43 04          	mov    WORD PTR [ebx+0x4],ax
10003136:	8b 45 10             	mov    eax,DWORD PTR [ebp+0x10]
10003139:	66 89 43 06          	mov    WORD PTR [ebx+0x6],ax
1000313d:	83 c4 10             	add    esp,0x10
10003140:	83 3f 00             	cmp    DWORD PTR [edi],0x0
10003143:	74 13                	je     10003158 <Window_move+0xdb>
10003145:	52                   	push   edx
10003146:	52                   	push   edx
10003147:	6a 00                	push   0x0
10003149:	57                   	push   edi
1000314a:	e8 fc ff ff ff       	call   1000314b <Window_move+0xce>	1000314b: R_386_PC32	List_remove_at
1000314f:	89 f2                	mov    edx,esi
10003151:	e8 53 fb ff ff       	call   10002ca9 <Window_paint.constprop.4>
10003156:	eb e5                	jmp    1000313d <Window_move+0xc0>
10003158:	89 f2                	mov    edx,esi
1000315a:	8b 03                	mov    eax,DWORD PTR [ebx]
1000315c:	e8 48 fb ff ff       	call   10002ca9 <Window_paint.constprop.4>
10003161:	83 3e 00             	cmp    DWORD PTR [esi],0x0
10003164:	74 17                	je     1000317d <Window_move+0x100>
10003166:	50                   	push   eax
10003167:	50                   	push   eax
10003168:	6a 00                	push   0x0
1000316a:	56                   	push   esi
1000316b:	e8 fc ff ff ff       	call   1000316c <Window_move+0xef>	1000316c: R_386_PC32	List_remove_at
10003170:	89 04 24             	mov    DWORD PTR [esp],eax
10003173:	e8 fc ff ff ff       	call   10003174 <Window_move+0xf7>	10003174: R_386_PC32	free
10003178:	83 c4 10             	add    esp,0x10
1000317b:	eb e4                	jmp    10003161 <Window_move+0xe4>
1000317d:	83 ec 0c             	sub    esp,0xc
10003180:	56                   	push   esi
10003181:	e8 fc ff ff ff       	call   10003182 <Window_move+0x105>	10003182: R_386_PC32	free
10003186:	89 3c 24             	mov    DWORD PTR [esp],edi
10003189:	e8 fc ff ff ff       	call   1000318a <Window_move+0x10d>	1000318a: R_386_PC32	free
1000318e:	31 d2                	xor    edx,edx
10003190:	89 d8                	mov    eax,ebx
10003192:	e8 12 fb ff ff       	call   10002ca9 <Window_paint.constprop.4>
10003197:	c6 45 d4 04          	mov    BYTE PTR [ebp-0x2c],0x4
1000319b:	8b 45 0c             	mov    eax,DWORD PTR [ebp+0xc]
1000319e:	89 45 dc             	mov    DWORD PTR [ebp-0x24],eax
100031a1:	8b 45 10             	mov    eax,DWORD PTR [ebp+0x10]
100031a4:	89 45 e0             	mov    DWORD PTR [ebp-0x20],eax
100031a7:	89 5d d8             	mov    DWORD PTR [ebp-0x28],ebx
100031aa:	83 ec 0c             	sub    esp,0xc
100031ad:	8d 75 d4             	lea    esi,[ebp-0x2c]
100031b0:	b9 05 00 00 00       	mov    ecx,0x5
100031b5:	89 e7                	mov    edi,esp
100031b7:	f3 a5                	rep movs DWORD PTR es:[edi],DWORD PTR ds:[esi]
100031b9:	53                   	push   ebx
100031ba:	e8 fc ff ff ff       	call   100031bb <Window_move+0x13e>	100031bb: R_386_PC32	dispatchMessage
100031bf:	83 c4 20             	add    esp,0x20
100031c2:	8d 65 f4             	lea    esp,[ebp-0xc]
100031c5:	5b                   	pop    ebx
100031c6:	5e                   	pop    esi
100031c7:	5f                   	pop    edi
100031c8:	5d                   	pop    ebp
100031c9:	c3                   	ret    

100031ca <Window_process_mouse>:
100031ca:	55                   	push   ebp
100031cb:	89 e5                	mov    ebp,esp
100031cd:	57                   	push   edi
100031ce:	56                   	push   esi
100031cf:	53                   	push   ebx
100031d0:	83 ec 4c             	sub    esp,0x4c
100031d3:	8b 7d 08             	mov    edi,DWORD PTR [ebp+0x8]
100031d6:	8b 45 0c             	mov    eax,DWORD PTR [ebp+0xc]
100031d9:	89 45 e4             	mov    DWORD PTR [ebp-0x1c],eax
100031dc:	8b 45 10             	mov    eax,DWORD PTR [ebp+0x10]
100031df:	89 45 e0             	mov    DWORD PTR [ebp-0x20],eax
100031e2:	8b 45 14             	mov    eax,DWORD PTR [ebp+0x14]
100031e5:	89 45 c0             	mov    DWORD PTR [ebp-0x40],eax
100031e8:	8b 47 20             	mov    eax,DWORD PTR [edi+0x20]
100031eb:	8b 00                	mov    eax,DWORD PTR [eax]
100031ed:	48                   	dec    eax
100031ee:	89 45 b4             	mov    DWORD PTR [ebp-0x4c],eax
100031f1:	0f b7 45 e4          	movzx  eax,WORD PTR [ebp-0x1c]
100031f5:	89 45 d4             	mov    DWORD PTR [ebp-0x2c],eax
100031f8:	0f b7 45 e0          	movzx  eax,WORD PTR [ebp-0x20]
100031fc:	89 45 d8             	mov    DWORD PTR [ebp-0x28],eax
100031ff:	83 7d b4 00          	cmp    DWORD PTR [ebp-0x4c],0x0
10003203:	0f 88 97 04 00 00    	js     100036a0 <Window_process_mouse+0x4d6>
10003209:	50                   	push   eax
1000320a:	50                   	push   eax
1000320b:	ff 75 b4             	push   DWORD PTR [ebp-0x4c]
1000320e:	ff 77 20             	push   DWORD PTR [edi+0x20]
10003211:	e8 fc ff ff ff       	call   10003212 <Window_process_mouse+0x48>	10003212: R_386_PC32	List_get_at
10003216:	89 c6                	mov    esi,eax
10003218:	0f bf 40 04          	movsx  eax,WORD PTR [eax+0x4]
1000321c:	89 45 d0             	mov    DWORD PTR [ebp-0x30],eax
1000321f:	83 e8 0c             	sub    eax,0xc
10003222:	83 c4 10             	add    esp,0x10
10003225:	39 45 d4             	cmp    DWORD PTR [ebp-0x2c],eax
10003228:	0f 8c 6a 04 00 00    	jl     10003698 <Window_process_mouse+0x4ce>
1000322e:	0f bf 46 08          	movsx  eax,WORD PTR [esi+0x8]
10003232:	03 45 d0             	add    eax,DWORD PTR [ebp-0x30]
10003235:	39 45 d4             	cmp    DWORD PTR [ebp-0x2c],eax
10003238:	0f 8d 5a 04 00 00    	jge    10003698 <Window_process_mouse+0x4ce>
1000323e:	0f bf 56 06          	movsx  edx,WORD PTR [esi+0x6]
10003242:	8d 4a f4             	lea    ecx,[edx-0xc]
10003245:	39 4d d8             	cmp    DWORD PTR [ebp-0x28],ecx
10003248:	0f 8c 4a 04 00 00    	jl     10003698 <Window_process_mouse+0x4ce>
1000324e:	0f bf 4e 0a          	movsx  ecx,WORD PTR [esi+0xa]
10003252:	8d 1c 11             	lea    ebx,[ecx+edx*1]
10003255:	89 5d cc             	mov    DWORD PTR [ebp-0x34],ebx
10003258:	39 5d d8             	cmp    DWORD PTR [ebp-0x28],ebx
1000325b:	0f 8d 37 04 00 00    	jge    10003698 <Window_process_mouse+0x4ce>
10003261:	8b 5e 0c             	mov    ebx,DWORD PTR [esi+0xc]
10003264:	66 89 5d ca          	mov    WORD PTR [ebp-0x36],bx
10003268:	c7 45 a8 00 00 00 00 	mov    DWORD PTR [ebp-0x58],0x0
1000326f:	66 83 e3 01          	and    bx,0x1
10003273:	66 89 5d c8          	mov    WORD PTR [ebp-0x38],bx
10003277:	75 20                	jne    10003299 <Window_process_mouse+0xcf>
10003279:	80 7e 5c 00          	cmp    BYTE PTR [esi+0x5c],0x0
1000327d:	75 1a                	jne    10003299 <Window_process_mouse+0xcf>
1000327f:	8d 48 ee             	lea    ecx,[eax-0x12]
10003282:	39 4d d4             	cmp    DWORD PTR [ebp-0x2c],ecx
10003285:	7c 12                	jl     10003299 <Window_process_mouse+0xcf>
10003287:	8b 4d cc             	mov    ecx,DWORD PTR [ebp-0x34]
1000328a:	83 e9 12             	sub    ecx,0x12
1000328d:	39 4d d8             	cmp    DWORD PTR [ebp-0x28],ecx
10003290:	0f 9d c1             	setge  cl
10003293:	0f b6 c9             	movzx  ecx,cl
10003296:	89 4d a8             	mov    DWORD PTR [ebp-0x58],ecx
10003299:	39 55 d8             	cmp    DWORD PTR [ebp-0x28],edx
1000329c:	0f 9d 45 c4          	setge  BYTE PTR [ebp-0x3c]
100032a0:	66 83 7d c8 00       	cmp    WORD PTR [ebp-0x38],0x0
100032a5:	c7 45 b8 00 00 00 00 	mov    DWORD PTR [ebp-0x48],0x0
100032ac:	75 21                	jne    100032cf <Window_process_mouse+0x105>
100032ae:	80 7e 5c 00          	cmp    BYTE PTR [esi+0x5c],0x0
100032b2:	0f 85 ab 05 00 00    	jne    10003863 <Window_process_mouse+0x699>
100032b8:	83 e8 0c             	sub    eax,0xc
100032bb:	39 45 d4             	cmp    DWORD PTR [ebp-0x2c],eax
100032be:	0f 9d c0             	setge  al
100032c1:	0f b6 c0             	movzx  eax,al
100032c4:	23 45 c4             	and    eax,DWORD PTR [ebp-0x3c]
100032c7:	89 45 b8             	mov    DWORD PTR [ebp-0x48],eax
100032ca:	e9 94 05 00 00       	jmp    10003863 <Window_process_mouse+0x699>
100032cf:	c7 45 ac 00 00 00 00 	mov    DWORD PTR [ebp-0x54],0x0
100032d6:	39 55 d8             	cmp    DWORD PTR [ebp-0x28],edx
100032d9:	0f 9c 45 bd          	setl   BYTE PTR [ebp-0x43]
100032dd:	66 83 7d c8 00       	cmp    WORD PTR [ebp-0x38],0x0
100032e2:	75 34                	jne    10003318 <Window_process_mouse+0x14e>
100032e4:	8a 46 5c             	mov    al,BYTE PTR [esi+0x5c]
100032e7:	83 f0 01             	xor    eax,0x1
100032ea:	8b 4d d0             	mov    ecx,DWORD PTR [ebp-0x30]
100032ed:	39 4d d4             	cmp    DWORD PTR [ebp-0x2c],ecx
100032f0:	0f 9d c1             	setge  cl
100032f3:	22 4d bd             	and    cl,BYTE PTR [ebp-0x43]
100032f6:	21 c1                	and    ecx,eax
100032f8:	0f b6 c9             	movzx  ecx,cl
100032fb:	84 c0                	test   al,al
100032fd:	74 1b                	je     1000331a <Window_process_mouse+0x150>
100032ff:	8b 5d d0             	mov    ebx,DWORD PTR [ebp-0x30]
10003302:	39 5d d4             	cmp    DWORD PTR [ebp-0x2c],ebx
10003305:	7c 13                	jl     1000331a <Window_process_mouse+0x150>
10003307:	8b 45 cc             	mov    eax,DWORD PTR [ebp-0x34]
1000330a:	83 e8 0c             	sub    eax,0xc
1000330d:	39 45 d8             	cmp    DWORD PTR [ebp-0x28],eax
10003310:	0f 9d c0             	setge  al
10003313:	0f b6 c0             	movzx  eax,al
10003316:	eb 04                	jmp    1000331c <Window_process_mouse+0x152>
10003318:	31 c9                	xor    ecx,ecx
1000331a:	31 c0                	xor    eax,eax
1000331c:	f6 45 ca 01          	test   BYTE PTR [ebp-0x36],0x1
10003320:	c7 45 b0 00 00 00 00 	mov    DWORD PTR [ebp-0x50],0x0
10003327:	75 3e                	jne    10003367 <Window_process_mouse+0x19d>
10003329:	80 7d c4 00          	cmp    BYTE PTR [ebp-0x3c],0x0
1000332d:	74 14                	je     10003343 <Window_process_mouse+0x179>
1000332f:	83 c2 1b             	add    edx,0x1b
10003332:	39 55 d8             	cmp    DWORD PTR [ebp-0x28],edx
10003335:	7f 0c                	jg     10003343 <Window_process_mouse+0x179>
10003337:	8a 56 5c             	mov    dl,BYTE PTR [esi+0x5c]
1000333a:	83 f2 01             	xor    edx,0x1
1000333d:	0f b6 da             	movzx  ebx,dl
10003340:	89 5d b0             	mov    DWORD PTR [ebp-0x50],ebx
10003343:	31 d2                	xor    edx,edx
10003345:	80 7e 5c 00          	cmp    BYTE PTR [esi+0x5c],0x0
10003349:	75 1e                	jne    10003369 <Window_process_mouse+0x19f>
1000334b:	8b 5d d0             	mov    ebx,DWORD PTR [ebp-0x30]
1000334e:	83 c3 02             	add    ebx,0x2
10003351:	39 5d d4             	cmp    DWORD PTR [ebp-0x2c],ebx
10003354:	7f 13                	jg     10003369 <Window_process_mouse+0x19f>
10003356:	8b 55 cc             	mov    edx,DWORD PTR [ebp-0x34]
10003359:	83 ea 12             	sub    edx,0x12
1000335c:	39 55 d8             	cmp    DWORD PTR [ebp-0x28],edx
1000335f:	0f 9d c2             	setge  dl
10003362:	0f b6 d2             	movzx  edx,dl
10003365:	eb 02                	jmp    10003369 <Window_process_mouse+0x19f>
10003367:	31 d2                	xor    edx,edx
10003369:	f6 45 ca 04          	test   BYTE PTR [ebp-0x36],0x4
1000336d:	75 72                	jne    100033e1 <Window_process_mouse+0x217>
1000336f:	8a 5d b8             	mov    bl,BYTE PTR [ebp-0x48]
10003372:	83 e3 01             	and    ebx,0x1
10003375:	88 5d c4             	mov    BYTE PTR [ebp-0x3c],bl
10003378:	8a 5d ac             	mov    bl,BYTE PTR [ebp-0x54]
1000337b:	83 e3 01             	and    ebx,0x1
1000337e:	88 5d bf             	mov    BYTE PTR [ebp-0x41],bl
10003381:	88 cb                	mov    bl,cl
10003383:	83 e3 01             	and    ebx,0x1
10003386:	88 5d be             	mov    BYTE PTR [ebp-0x42],bl
10003389:	88 c3                	mov    bl,al
1000338b:	83 e3 01             	and    ebx,0x1
1000338e:	88 5d c8             	mov    BYTE PTR [ebp-0x38],bl
10003391:	88 d3                	mov    bl,dl
10003393:	83 e3 01             	and    ebx,0x1
10003396:	88 5d cc             	mov    BYTE PTR [ebp-0x34],bl
10003399:	c6 45 ca 01          	mov    BYTE PTR [ebp-0x36],0x1
1000339d:	bb 00 03 00 00       	mov    ebx,0x300
100033a2:	83 7d a8 00          	cmp    DWORD PTR [ebp-0x58],0x0
100033a6:	0f 85 8e 00 00 00    	jne    1000343a <Window_process_mouse+0x270>
100033ac:	85 d2                	test   edx,edx
100033ae:	75 4e                	jne    100033fe <Window_process_mouse+0x234>
100033b0:	83 7d b8 00          	cmp    DWORD PTR [ebp-0x48],0x0
100033b4:	75 52                	jne    10003408 <Window_process_mouse+0x23e>
100033b6:	85 c0                	test   eax,eax
100033b8:	75 58                	jne    10003412 <Window_process_mouse+0x248>
100033ba:	83 7d ac 00          	cmp    DWORD PTR [ebp-0x54],0x0
100033be:	c6 45 cc 00          	mov    BYTE PTR [ebp-0x34],0x0
100033c2:	c6 45 c8 00          	mov    BYTE PTR [ebp-0x38],0x0
100033c6:	75 61                	jne    10003429 <Window_process_mouse+0x25f>
100033c8:	88 4d be             	mov    BYTE PTR [ebp-0x42],cl
100033cb:	c6 45 bf 00          	mov    BYTE PTR [ebp-0x41],0x0
100033cf:	c6 45 c4 00          	mov    BYTE PTR [ebp-0x3c],0x0
100033d3:	c6 45 ca 00          	mov    BYTE PTR [ebp-0x36],0x0
100033d7:	83 f9 01             	cmp    ecx,0x1
100033da:	19 db                	sbb    ebx,ebx
100033dc:	80 cf 04             	or     bh,0x4
100033df:	eb 59                	jmp    1000343a <Window_process_mouse+0x270>
100033e1:	c6 45 cc 00          	mov    BYTE PTR [ebp-0x34],0x0
100033e5:	c6 45 c8 00          	mov    BYTE PTR [ebp-0x38],0x0
100033e9:	c6 45 be 00          	mov    BYTE PTR [ebp-0x42],0x0
100033ed:	c6 45 bf 00          	mov    BYTE PTR [ebp-0x41],0x0
100033f1:	c6 45 c4 00          	mov    BYTE PTR [ebp-0x3c],0x0
100033f5:	c6 45 ca 00          	mov    BYTE PTR [ebp-0x36],0x0
100033f9:	83 cb ff             	or     ebx,0xffffffff
100033fc:	eb 3c                	jmp    1000343a <Window_process_mouse+0x270>
100033fe:	c6 45 cc 01          	mov    BYTE PTR [ebp-0x34],0x1
10003402:	c6 45 ca 00          	mov    BYTE PTR [ebp-0x36],0x0
10003406:	eb 32                	jmp    1000343a <Window_process_mouse+0x270>
10003408:	c6 45 cc 00          	mov    BYTE PTR [ebp-0x34],0x0
1000340c:	c6 45 c4 01          	mov    BYTE PTR [ebp-0x3c],0x1
10003410:	eb 1f                	jmp    10003431 <Window_process_mouse+0x267>
10003412:	c6 45 cc 00          	mov    BYTE PTR [ebp-0x34],0x0
10003416:	c6 45 c8 01          	mov    BYTE PTR [ebp-0x38],0x1
1000341a:	c6 45 c4 00          	mov    BYTE PTR [ebp-0x3c],0x0
1000341e:	c6 45 ca 00          	mov    BYTE PTR [ebp-0x36],0x0
10003422:	bb 00 04 00 00       	mov    ebx,0x400
10003427:	eb 11                	jmp    1000343a <Window_process_mouse+0x270>
10003429:	c6 45 bf 01          	mov    BYTE PTR [ebp-0x41],0x1
1000342d:	c6 45 c4 00          	mov    BYTE PTR [ebp-0x3c],0x0
10003431:	c6 45 ca 00          	mov    BYTE PTR [ebp-0x36],0x0
10003435:	bb 00 05 00 00       	mov    ebx,0x500
1000343a:	89 5f 6c             	mov    DWORD PTR [edi+0x6c],ebx
1000343d:	8b 4d d0             	mov    ecx,DWORD PTR [ebp-0x30]
10003440:	39 4d d4             	cmp    DWORD PTR [ebp-0x2c],ecx
10003443:	7c 06                	jl     1000344b <Window_process_mouse+0x281>
10003445:	80 7d bd 00          	cmp    BYTE PTR [ebp-0x43],0x0
10003449:	74 09                	je     10003454 <Window_process_mouse+0x28a>
1000344b:	83 fb ff             	cmp    ebx,0xffffffff
1000344e:	0f 84 44 02 00 00    	je     10003698 <Window_process_mouse+0x4ce>
10003454:	80 7d c0 00          	cmp    BYTE PTR [ebp-0x40],0x0
10003458:	0f 84 15 02 00 00    	je     10003673 <Window_process_mouse+0x4a9>
1000345e:	80 7f 2c 00          	cmp    BYTE PTR [edi+0x2c],0x0
10003462:	0f 85 0b 02 00 00    	jne    10003673 <Window_process_mouse+0x4a9>
10003468:	50                   	push   eax
10003469:	50                   	push   eax
1000346a:	6a 01                	push   0x1
1000346c:	56                   	push   esi
1000346d:	e8 fc ff ff ff       	call   1000346e <Window_process_mouse+0x2a4>	1000346e: R_386_PC32	Window_raise
10003472:	83 c4 10             	add    esp,0x10
10003475:	f6 46 0c 01          	test   BYTE PTR [esi+0xc],0x1
10003479:	0f 85 d2 00 00 00    	jne    10003551 <Window_process_mouse+0x387>
1000347f:	0f bf 46 06          	movsx  eax,WORD PTR [esi+0x6]
10003483:	39 45 d8             	cmp    DWORD PTR [ebp-0x28],eax
10003486:	0f 8c c5 00 00 00    	jl     10003551 <Window_process_mouse+0x387>
1000348c:	83 c0 1b             	add    eax,0x1b
1000348f:	39 45 d8             	cmp    DWORD PTR [ebp-0x28],eax
10003492:	0f 8f b9 00 00 00    	jg     10003551 <Window_process_mouse+0x387>
10003498:	e8 fc ff ff ff       	call   10003499 <Window_process_mouse+0x2cf>	10003499: R_386_PC32	getNanoSinceBoot
1000349d:	89 55 d4             	mov    DWORD PTR [ebp-0x2c],edx
100034a0:	8b 56 60             	mov    edx,DWORD PTR [esi+0x60]
100034a3:	8b 4e 64             	mov    ecx,DWORD PTR [esi+0x64]
100034a6:	81 c2 00 a3 e1 11    	add    edx,0x11e1a300
100034ac:	83 d1 00             	adc    ecx,0x0
100034af:	89 55 d8             	mov    DWORD PTR [ebp-0x28],edx
100034b2:	89 4d dc             	mov    DWORD PTR [ebp-0x24],ecx
100034b5:	3b 45 d8             	cmp    eax,DWORD PTR [ebp-0x28]
100034b8:	8b 55 d4             	mov    edx,DWORD PTR [ebp-0x2c]
100034bb:	1b 55 dc             	sbb    edx,DWORD PTR [ebp-0x24]
100034be:	0f 83 82 00 00 00    	jae    10003546 <Window_process_mouse+0x37c>
100034c4:	f6 46 0c 04          	test   BYTE PTR [esi+0xc],0x4
100034c8:	75 7c                	jne    10003546 <Window_process_mouse+0x37c>
100034ca:	c7 46 60 00 00 00 00 	mov    DWORD PTR [esi+0x60],0x0
100034d1:	c7 46 64 00 00 00 00 	mov    DWORD PTR [esi+0x64],0x0
100034d8:	80 7e 5c 00          	cmp    BYTE PTR [esi+0x5c],0x0
100034dc:	74 26                	je     10003504 <Window_process_mouse+0x33a>
100034de:	50                   	push   eax
100034df:	0f bf 46 56          	movsx  eax,WORD PTR [esi+0x56]
100034e3:	50                   	push   eax
100034e4:	0f bf 46 54          	movsx  eax,WORD PTR [esi+0x54]
100034e8:	50                   	push   eax
100034e9:	56                   	push   esi
100034ea:	e8 fc ff ff ff       	call   100034eb <Window_process_mouse+0x321>	100034eb: R_386_PC32	Window_resize
100034ef:	83 c4 0c             	add    esp,0xc
100034f2:	0f bf 46 5a          	movsx  eax,WORD PTR [esi+0x5a]
100034f6:	50                   	push   eax
100034f7:	0f bf 46 58          	movsx  eax,WORD PTR [esi+0x58]
100034fb:	50                   	push   eax
100034fc:	56                   	push   esi
100034fd:	e8 fc ff ff ff       	call   100034fe <Window_process_mouse+0x334>	100034fe: R_386_PC32	Window_move
10003502:	eb 36                	jmp    1000353a <Window_process_mouse+0x370>
10003504:	8b 46 08             	mov    eax,DWORD PTR [esi+0x8]
10003507:	89 46 54             	mov    DWORD PTR [esi+0x54],eax
1000350a:	8b 46 04             	mov    eax,DWORD PTR [esi+0x4]
1000350d:	89 46 58             	mov    DWORD PTR [esi+0x58],eax
10003510:	50                   	push   eax
10003511:	6a fd                	push   0xfffffffd
10003513:	6a fd                	push   0xfffffffd
10003515:	56                   	push   esi
10003516:	e8 fc ff ff ff       	call   10003517 <Window_process_mouse+0x34d>	10003517: R_386_PC32	Window_move
1000351b:	8b 15 00 00 00 00    	mov    edx,DWORD PTR ds:0x0	1000351d: R_386_32	desktop
10003521:	83 c4 0c             	add    esp,0xc
10003524:	0f bf 42 0a          	movsx  eax,WORD PTR [edx+0xa]
10003528:	83 c0 06             	add    eax,0x6
1000352b:	50                   	push   eax
1000352c:	0f bf 42 08          	movsx  eax,WORD PTR [edx+0x8]
10003530:	83 c0 06             	add    eax,0x6
10003533:	50                   	push   eax
10003534:	56                   	push   esi
10003535:	e8 fc ff ff ff       	call   10003536 <Window_process_mouse+0x36c>	10003536: R_386_PC32	Window_resize
1000353a:	83 c4 10             	add    esp,0x10
1000353d:	80 76 5c 01          	xor    BYTE PTR [esi+0x5c],0x1
10003541:	e9 61 01 00 00       	jmp    100036a7 <Window_process_mouse+0x4dd>
10003546:	e8 fc ff ff ff       	call   10003547 <Window_process_mouse+0x37d>	10003547: R_386_PC32	getNanoSinceBoot
1000354b:	89 46 60             	mov    DWORD PTR [esi+0x60],eax
1000354e:	89 56 64             	mov    DWORD PTR [esi+0x64],edx
10003551:	80 7d ca 00          	cmp    BYTE PTR [ebp-0x36],0x0
10003555:	74 24                	je     1000357b <Window_process_mouse+0x3b1>
10003557:	8b 45 e4             	mov    eax,DWORD PTR [ebp-0x1c]
1000355a:	2b 46 08             	sub    eax,DWORD PTR [esi+0x8]
1000355d:	66 89 47 24          	mov    WORD PTR [edi+0x24],ax
10003561:	8b 45 e0             	mov    eax,DWORD PTR [ebp-0x20]
10003564:	66 2b 46 0a          	sub    ax,WORD PTR [esi+0xa]
10003568:	66 89 47 26          	mov    WORD PTR [edi+0x26],ax
1000356c:	89 77 18             	mov    DWORD PTR [edi+0x18],esi
1000356f:	c7 47 28 02 00 00 00 	mov    DWORD PTR [edi+0x28],0x2
10003576:	e9 2c 01 00 00       	jmp    100036a7 <Window_process_mouse+0x4dd>
1000357b:	80 7d cc 00          	cmp    BYTE PTR [ebp-0x34],0x0
1000357f:	74 24                	je     100035a5 <Window_process_mouse+0x3db>
10003581:	8b 45 e4             	mov    eax,DWORD PTR [ebp-0x1c]
10003584:	2b 46 08             	sub    eax,DWORD PTR [esi+0x8]
10003587:	66 89 47 24          	mov    WORD PTR [edi+0x24],ax
1000358b:	8b 45 e0             	mov    eax,DWORD PTR [ebp-0x20]
1000358e:	66 2b 46 0a          	sub    ax,WORD PTR [esi+0xa]
10003592:	66 89 47 26          	mov    WORD PTR [edi+0x26],ax
10003596:	89 77 18             	mov    DWORD PTR [edi+0x18],esi
10003599:	c7 47 28 07 00 00 00 	mov    DWORD PTR [edi+0x28],0x7
100035a0:	e9 02 01 00 00       	jmp    100036a7 <Window_process_mouse+0x4dd>
100035a5:	80 7d c4 00          	cmp    BYTE PTR [ebp-0x3c],0x0
100035a9:	74 24                	je     100035cf <Window_process_mouse+0x405>
100035ab:	8b 45 e4             	mov    eax,DWORD PTR [ebp-0x1c]
100035ae:	2b 46 08             	sub    eax,DWORD PTR [esi+0x8]
100035b1:	66 89 47 24          	mov    WORD PTR [edi+0x24],ax
100035b5:	8b 45 e0             	mov    eax,DWORD PTR [ebp-0x20]
100035b8:	66 2b 46 0a          	sub    ax,WORD PTR [esi+0xa]
100035bc:	66 89 47 26          	mov    WORD PTR [edi+0x26],ax
100035c0:	89 77 18             	mov    DWORD PTR [edi+0x18],esi
100035c3:	c7 47 28 03 00 00 00 	mov    DWORD PTR [edi+0x28],0x3
100035ca:	e9 d8 00 00 00       	jmp    100036a7 <Window_process_mouse+0x4dd>
100035cf:	80 7d bf 00          	cmp    BYTE PTR [ebp-0x41],0x0
100035d3:	74 24                	je     100035f9 <Window_process_mouse+0x42f>
100035d5:	8b 45 e4             	mov    eax,DWORD PTR [ebp-0x1c]
100035d8:	2b 46 08             	sub    eax,DWORD PTR [esi+0x8]
100035db:	66 89 47 24          	mov    WORD PTR [edi+0x24],ax
100035df:	8b 45 e0             	mov    eax,DWORD PTR [ebp-0x20]
100035e2:	66 2b 46 0a          	sub    ax,WORD PTR [esi+0xa]
100035e6:	66 89 47 26          	mov    WORD PTR [edi+0x26],ax
100035ea:	89 77 18             	mov    DWORD PTR [edi+0x18],esi
100035ed:	c7 47 28 05 00 00 00 	mov    DWORD PTR [edi+0x28],0x5
100035f4:	e9 ae 00 00 00       	jmp    100036a7 <Window_process_mouse+0x4dd>
100035f9:	80 7d c8 00          	cmp    BYTE PTR [ebp-0x38],0x0
100035fd:	74 24                	je     10003623 <Window_process_mouse+0x459>
100035ff:	8b 45 e4             	mov    eax,DWORD PTR [ebp-0x1c]
10003602:	2b 46 08             	sub    eax,DWORD PTR [esi+0x8]
10003605:	66 89 47 24          	mov    WORD PTR [edi+0x24],ax
10003609:	8b 45 e0             	mov    eax,DWORD PTR [ebp-0x20]
1000360c:	66 2b 46 0a          	sub    ax,WORD PTR [esi+0xa]
10003610:	66 89 47 26          	mov    WORD PTR [edi+0x26],ax
10003614:	89 77 18             	mov    DWORD PTR [edi+0x18],esi
10003617:	c7 47 28 04 00 00 00 	mov    DWORD PTR [edi+0x28],0x4
1000361e:	e9 84 00 00 00       	jmp    100036a7 <Window_process_mouse+0x4dd>
10003623:	80 7d be 00          	cmp    BYTE PTR [ebp-0x42],0x0
10003627:	74 21                	je     1000364a <Window_process_mouse+0x480>
10003629:	8b 45 e4             	mov    eax,DWORD PTR [ebp-0x1c]
1000362c:	2b 46 08             	sub    eax,DWORD PTR [esi+0x8]
1000362f:	66 89 47 24          	mov    WORD PTR [edi+0x24],ax
10003633:	8b 45 e0             	mov    eax,DWORD PTR [ebp-0x20]
10003636:	66 2b 46 0a          	sub    ax,WORD PTR [esi+0xa]
1000363a:	66 89 47 26          	mov    WORD PTR [edi+0x26],ax
1000363e:	89 77 18             	mov    DWORD PTR [edi+0x18],esi
10003641:	c7 47 28 06 00 00 00 	mov    DWORD PTR [edi+0x28],0x6
10003648:	eb 5d                	jmp    100036a7 <Window_process_mouse+0x4dd>
1000364a:	83 7d b0 00          	cmp    DWORD PTR [ebp-0x50],0x0
1000364e:	74 23                	je     10003673 <Window_process_mouse+0x4a9>
10003650:	66 8b 46 06          	mov    ax,WORD PTR [esi+0x6]
10003654:	8b 55 e4             	mov    edx,DWORD PTR [ebp-0x1c]
10003657:	2b 56 04             	sub    edx,DWORD PTR [esi+0x4]
1000365a:	66 89 57 24          	mov    WORD PTR [edi+0x24],dx
1000365e:	8b 4d e0             	mov    ecx,DWORD PTR [ebp-0x20]
10003661:	29 c1                	sub    ecx,eax
10003663:	66 89 4f 26          	mov    WORD PTR [edi+0x26],cx
10003667:	89 77 18             	mov    DWORD PTR [edi+0x18],esi
1000366a:	c7 47 28 01 00 00 00 	mov    DWORD PTR [edi+0x28],0x1
10003671:	eb 34                	jmp    100036a7 <Window_process_mouse+0x4dd>
10003673:	0f b6 45 c0          	movzx  eax,BYTE PTR [ebp-0x40]
10003677:	50                   	push   eax
10003678:	8b 45 e0             	mov    eax,DWORD PTR [ebp-0x20]
1000367b:	66 2b 46 06          	sub    ax,WORD PTR [esi+0x6]
1000367f:	0f b7 c0             	movzx  eax,ax
10003682:	50                   	push   eax
10003683:	8b 45 e4             	mov    eax,DWORD PTR [ebp-0x1c]
10003686:	2b 46 04             	sub    eax,DWORD PTR [esi+0x4]
10003689:	0f b7 c0             	movzx  eax,ax
1000368c:	50                   	push   eax
1000368d:	56                   	push   esi
1000368e:	e8 fc ff ff ff       	call   1000368f <Window_process_mouse+0x4c5>	1000368f: R_386_PC32	Window_process_mouse
10003693:	83 c4 10             	add    esp,0x10
10003696:	eb 0f                	jmp    100036a7 <Window_process_mouse+0x4dd>
10003698:	ff 4d b4             	dec    DWORD PTR [ebp-0x4c]
1000369b:	e9 5f fb ff ff       	jmp    100031ff <Window_process_mouse+0x35>
100036a0:	50                   	push   eax
100036a1:	50                   	push   eax
100036a2:	ff 77 68             	push   DWORD PTR [edi+0x68]
100036a5:	eb 08                	jmp    100036af <Window_process_mouse+0x4e5>
100036a7:	83 fb ff             	cmp    ebx,0xffffffff
100036aa:	74 f4                	je     100036a0 <Window_process_mouse+0x4d6>
100036ac:	56                   	push   esi
100036ad:	56                   	push   esi
100036ae:	53                   	push   ebx
100036af:	ff 35 00 00 00 00    	push   DWORD PTR ds:0x0	100036b1: R_386_32	desktop
100036b5:	e8 fc ff ff ff       	call   100036b6 <Window_process_mouse+0x4ec>	100036b6: R_386_PC32	Desktop_set_mouse
100036ba:	83 c4 10             	add    esp,0x10
100036bd:	80 7d c0 00          	cmp    BYTE PTR [ebp-0x40],0x0
100036c1:	75 07                	jne    100036ca <Window_process_mouse+0x500>
100036c3:	c7 47 18 00 00 00 00 	mov    DWORD PTR [edi+0x18],0x0
100036ca:	8b 47 18             	mov    eax,DWORD PTR [edi+0x18]
100036cd:	85 c0                	test   eax,eax
100036cf:	0f 84 09 01 00 00    	je     100037de <Window_process_mouse+0x614>
100036d5:	8b 57 28             	mov    edx,DWORD PTR [edi+0x28]
100036d8:	83 fa 01             	cmp    edx,0x1
100036db:	75 1b                	jne    100036f8 <Window_process_mouse+0x52e>
100036dd:	51                   	push   ecx
100036de:	0f b7 55 e0          	movzx  edx,WORD PTR [ebp-0x20]
100036e2:	0f bf 4f 26          	movsx  ecx,WORD PTR [edi+0x26]
100036e6:	29 ca                	sub    edx,ecx
100036e8:	52                   	push   edx
100036e9:	0f b7 55 e4          	movzx  edx,WORD PTR [ebp-0x1c]
100036ed:	0f bf 4f 24          	movsx  ecx,WORD PTR [edi+0x24]
100036f1:	29 ca                	sub    edx,ecx
100036f3:	e9 dc 00 00 00       	jmp    100037d4 <Window_process_mouse+0x60a>
100036f8:	83 fa 02             	cmp    edx,0x2
100036fb:	75 0d                	jne    1000370a <Window_process_mouse+0x540>
100036fd:	52                   	push   edx
100036fe:	0f b7 55 e0          	movzx  edx,WORD PTR [ebp-0x20]
10003702:	0f bf 4f 26          	movsx  ecx,WORD PTR [edi+0x26]
10003706:	29 ca                	sub    edx,ecx
10003708:	eb 0a                	jmp    10003714 <Window_process_mouse+0x54a>
1000370a:	83 fa 03             	cmp    edx,0x3
1000370d:	75 1c                	jne    1000372b <Window_process_mouse+0x561>
1000370f:	56                   	push   esi
10003710:	0f bf 50 0a          	movsx  edx,WORD PTR [eax+0xa]
10003714:	52                   	push   edx
10003715:	0f b7 55 e4          	movzx  edx,WORD PTR [ebp-0x1c]
10003719:	0f bf 4f 24          	movsx  ecx,WORD PTR [edi+0x24]
1000371d:	29 ca                	sub    edx,ecx
1000371f:	52                   	push   edx
10003720:	50                   	push   eax
10003721:	e8 fc ff ff ff       	call   10003722 <Window_process_mouse+0x558>	10003722: R_386_PC32	Window_resize
10003726:	e9 b0 00 00 00       	jmp    100037db <Window_process_mouse+0x611>
1000372b:	83 fa 04             	cmp    edx,0x4
1000372e:	75 12                	jne    10003742 <Window_process_mouse+0x578>
10003730:	53                   	push   ebx
10003731:	0f b7 55 e0          	movzx  edx,WORD PTR [ebp-0x20]
10003735:	0f bf 4f 26          	movsx  ecx,WORD PTR [edi+0x26]
10003739:	29 ca                	sub    edx,ecx
1000373b:	52                   	push   edx
1000373c:	0f bf 50 08          	movsx  edx,WORD PTR [eax+0x8]
10003740:	eb dd                	jmp    1000371f <Window_process_mouse+0x555>
10003742:	83 fa 07             	cmp    edx,0x7
10003745:	75 1e                	jne    10003765 <Window_process_mouse+0x59b>
10003747:	0f b7 5d e4          	movzx  ebx,WORD PTR [ebp-0x1c]
1000374b:	8b 70 08             	mov    esi,DWORD PTR [eax+0x8]
1000374e:	51                   	push   ecx
1000374f:	0f b7 55 e0          	movzx  edx,WORD PTR [ebp-0x20]
10003753:	0f bf 4f 26          	movsx  ecx,WORD PTR [edi+0x26]
10003757:	29 ca                	sub    edx,ecx
10003759:	52                   	push   edx
1000375a:	0f bf 50 04          	movsx  edx,WORD PTR [eax+0x4]
1000375e:	29 da                	sub    edx,ebx
10003760:	0f bf ce             	movsx  ecx,si
10003763:	eb 1b                	jmp    10003780 <Window_process_mouse+0x5b6>
10003765:	83 fa 05             	cmp    edx,0x5
10003768:	75 34                	jne    1000379e <Window_process_mouse+0x5d4>
1000376a:	0f b7 5d e4          	movzx  ebx,WORD PTR [ebp-0x1c]
1000376e:	0f bf 48 08          	movsx  ecx,WORD PTR [eax+0x8]
10003772:	89 ce                	mov    esi,ecx
10003774:	52                   	push   edx
10003775:	0f bf 50 0a          	movsx  edx,WORD PTR [eax+0xa]
10003779:	52                   	push   edx
1000377a:	0f bf 50 04          	movsx  edx,WORD PTR [eax+0x4]
1000377e:	29 da                	sub    edx,ebx
10003780:	01 ca                	add    edx,ecx
10003782:	52                   	push   edx
10003783:	50                   	push   eax
10003784:	e8 fc ff ff ff       	call   10003785 <Window_process_mouse+0x5bb>	10003785: R_386_PC32	Window_resize
10003789:	8b 47 18             	mov    eax,DWORD PTR [edi+0x18]
1000378c:	83 c4 10             	add    esp,0x10
1000378f:	66 3b 70 08          	cmp    si,WORD PTR [eax+0x8]
10003793:	74 49                	je     100037de <Window_process_mouse+0x614>
10003795:	51                   	push   ecx
10003796:	0f bf 50 06          	movsx  edx,WORD PTR [eax+0x6]
1000379a:	52                   	push   edx
1000379b:	53                   	push   ebx
1000379c:	eb 37                	jmp    100037d5 <Window_process_mouse+0x60b>
1000379e:	83 fa 06             	cmp    edx,0x6
100037a1:	75 3b                	jne    100037de <Window_process_mouse+0x614>
100037a3:	0f b7 5d e0          	movzx  ebx,WORD PTR [ebp-0x20]
100037a7:	0f bf 48 0a          	movsx  ecx,WORD PTR [eax+0xa]
100037ab:	89 ce                	mov    esi,ecx
100037ad:	52                   	push   edx
100037ae:	0f bf 50 06          	movsx  edx,WORD PTR [eax+0x6]
100037b2:	29 da                	sub    edx,ebx
100037b4:	01 ca                	add    edx,ecx
100037b6:	52                   	push   edx
100037b7:	0f bf 50 08          	movsx  edx,WORD PTR [eax+0x8]
100037bb:	52                   	push   edx
100037bc:	50                   	push   eax
100037bd:	e8 fc ff ff ff       	call   100037be <Window_process_mouse+0x5f4>	100037be: R_386_PC32	Window_resize
100037c2:	8b 47 18             	mov    eax,DWORD PTR [edi+0x18]
100037c5:	83 c4 10             	add    esp,0x10
100037c8:	66 3b 70 0a          	cmp    si,WORD PTR [eax+0xa]
100037cc:	74 10                	je     100037de <Window_process_mouse+0x614>
100037ce:	56                   	push   esi
100037cf:	53                   	push   ebx
100037d0:	0f bf 50 04          	movsx  edx,WORD PTR [eax+0x4]
100037d4:	52                   	push   edx
100037d5:	50                   	push   eax
100037d6:	e8 fc ff ff ff       	call   100037d7 <Window_process_mouse+0x60d>	100037d7: R_386_PC32	Window_move
100037db:	83 c4 10             	add    esp,0x10
100037de:	8b 47 34             	mov    eax,DWORD PTR [edi+0x34]
100037e1:	80 7d c0 00          	cmp    BYTE PTR [ebp-0x40],0x0
100037e5:	0f 95 c2             	setne  dl
100037e8:	85 c0                	test   eax,eax
100037ea:	74 1a                	je     10003806 <Window_process_mouse+0x63c>
100037ec:	84 d2                	test   dl,dl
100037ee:	74 16                	je     10003806 <Window_process_mouse+0x63c>
100037f0:	80 7f 2c 00          	cmp    BYTE PTR [edi+0x2c],0x0
100037f4:	75 10                	jne    10003806 <Window_process_mouse+0x63c>
100037f6:	51                   	push   ecx
100037f7:	0f b7 55 e0          	movzx  edx,WORD PTR [ebp-0x20]
100037fb:	52                   	push   edx
100037fc:	0f b7 55 e4          	movzx  edx,WORD PTR [ebp-0x1c]
10003800:	52                   	push   edx
10003801:	57                   	push   edi
10003802:	ff d0                	call   eax
10003804:	eb 4c                	jmp    10003852 <Window_process_mouse+0x688>
10003806:	8b 4f 40             	mov    ecx,DWORD PTR [edi+0x40]
10003809:	80 7d c0 00          	cmp    BYTE PTR [ebp-0x40],0x0
1000380d:	0f 94 c0             	sete   al
10003810:	85 c9                	test   ecx,ecx
10003812:	74 0a                	je     1000381e <Window_process_mouse+0x654>
10003814:	84 c0                	test   al,al
10003816:	74 06                	je     1000381e <Window_process_mouse+0x654>
10003818:	80 7f 2c 00          	cmp    BYTE PTR [edi+0x2c],0x0
1000381c:	75 0b                	jne    10003829 <Window_process_mouse+0x65f>
1000381e:	8b 4f 3c             	mov    ecx,DWORD PTR [edi+0x3c]
10003821:	85 c9                	test   ecx,ecx
10003823:	74 14                	je     10003839 <Window_process_mouse+0x66f>
10003825:	84 d2                	test   dl,dl
10003827:	74 10                	je     10003839 <Window_process_mouse+0x66f>
10003829:	52                   	push   edx
1000382a:	0f b7 45 e0          	movzx  eax,WORD PTR [ebp-0x20]
1000382e:	50                   	push   eax
1000382f:	0f b7 45 e4          	movzx  eax,WORD PTR [ebp-0x1c]
10003833:	50                   	push   eax
10003834:	57                   	push   edi
10003835:	ff d1                	call   ecx
10003837:	eb 19                	jmp    10003852 <Window_process_mouse+0x688>
10003839:	8b 57 38             	mov    edx,DWORD PTR [edi+0x38]
1000383c:	85 d2                	test   edx,edx
1000383e:	74 15                	je     10003855 <Window_process_mouse+0x68b>
10003840:	84 c0                	test   al,al
10003842:	74 11                	je     10003855 <Window_process_mouse+0x68b>
10003844:	50                   	push   eax
10003845:	0f b7 45 e0          	movzx  eax,WORD PTR [ebp-0x20]
10003849:	50                   	push   eax
1000384a:	0f b7 45 e4          	movzx  eax,WORD PTR [ebp-0x1c]
1000384e:	50                   	push   eax
1000384f:	57                   	push   edi
10003850:	ff d2                	call   edx
10003852:	83 c4 10             	add    esp,0x10
10003855:	8a 45 c0             	mov    al,BYTE PTR [ebp-0x40]
10003858:	88 47 2c             	mov    BYTE PTR [edi+0x2c],al
1000385b:	8d 65 f4             	lea    esp,[ebp-0xc]
1000385e:	5b                   	pop    ebx
1000385f:	5e                   	pop    esi
10003860:	5f                   	pop    edi
10003861:	5d                   	pop    ebp
10003862:	c3                   	ret    
10003863:	8a 46 5c             	mov    al,BYTE PTR [esi+0x5c]
10003866:	83 f0 01             	xor    eax,0x1
10003869:	8b 5d d0             	mov    ebx,DWORD PTR [ebp-0x30]
1000386c:	39 5d d4             	cmp    DWORD PTR [ebp-0x2c],ebx
1000386f:	0f 9e c1             	setle  cl
10003872:	23 4d c4             	and    ecx,DWORD PTR [ebp-0x3c]
10003875:	21 c8                	and    eax,ecx
10003877:	0f b6 c0             	movzx  eax,al
1000387a:	89 45 ac             	mov    DWORD PTR [ebp-0x54],eax
1000387d:	e9 54 fa ff ff       	jmp    100032d6 <Window_process_mouse+0x10c>

10003882 <Window_update_context>:
10003882:	55                   	push   ebp
10003883:	89 e5                	mov    ebp,esp
10003885:	57                   	push   edi
10003886:	56                   	push   esi
10003887:	53                   	push   ebx
10003888:	83 ec 0c             	sub    esp,0xc
1000388b:	8b 75 08             	mov    esi,DWORD PTR [ebp+0x8]
1000388e:	8b 7d 0c             	mov    edi,DWORD PTR [ebp+0xc]
10003891:	89 7e 10             	mov    DWORD PTR [esi+0x10],edi
10003894:	31 db                	xor    ebx,ebx
10003896:	8b 46 20             	mov    eax,DWORD PTR [esi+0x20]
10003899:	39 18                	cmp    DWORD PTR [eax],ebx
1000389b:	76 18                	jbe    100038b5 <Window_update_context+0x33>
1000389d:	52                   	push   edx
1000389e:	52                   	push   edx
1000389f:	53                   	push   ebx
100038a0:	50                   	push   eax
100038a1:	e8 fc ff ff ff       	call   100038a2 <Window_update_context+0x20>	100038a2: R_386_PC32	List_get_at
100038a6:	59                   	pop    ecx
100038a7:	5a                   	pop    edx
100038a8:	57                   	push   edi
100038a9:	50                   	push   eax
100038aa:	e8 fc ff ff ff       	call   100038ab <Window_update_context+0x29>	100038ab: R_386_PC32	Window_update_context
100038af:	43                   	inc    ebx
100038b0:	83 c4 10             	add    esp,0x10
100038b3:	eb e1                	jmp    10003896 <Window_update_context+0x14>
100038b5:	8d 65 f4             	lea    esp,[ebp-0xc]
100038b8:	5b                   	pop    ebx
100038b9:	5e                   	pop    esi
100038ba:	5f                   	pop    edi
100038bb:	5d                   	pop    ebp
100038bc:	c3                   	ret    

100038bd <Window_insert_child>:
100038bd:	55                   	push   ebp
100038be:	89 e5                	mov    ebp,esp
100038c0:	56                   	push   esi
100038c1:	53                   	push   ebx
100038c2:	8b 75 08             	mov    esi,DWORD PTR [ebp+0x8]
100038c5:	8b 5d 0c             	mov    ebx,DWORD PTR [ebp+0xc]
100038c8:	89 33                	mov    DWORD PTR [ebx],esi
100038ca:	50                   	push   eax
100038cb:	50                   	push   eax
100038cc:	53                   	push   ebx
100038cd:	ff 76 20             	push   DWORD PTR [esi+0x20]
100038d0:	e8 fc ff ff ff       	call   100038d1 <Window_insert_child+0x14>	100038d1: R_386_PC32	List_add
100038d5:	8b 03                	mov    eax,DWORD PTR [ebx]
100038d7:	89 58 1c             	mov    DWORD PTR [eax+0x1c],ebx
100038da:	83 c4 10             	add    esp,0x10
100038dd:	8b 46 10             	mov    eax,DWORD PTR [esi+0x10]
100038e0:	89 45 0c             	mov    DWORD PTR [ebp+0xc],eax
100038e3:	89 5d 08             	mov    DWORD PTR [ebp+0x8],ebx
100038e6:	8d 65 f8             	lea    esp,[ebp-0x8]
100038e9:	5b                   	pop    ebx
100038ea:	5e                   	pop    esi
100038eb:	5d                   	pop    ebp
100038ec:	eb 94                	jmp    10003882 <Window_update_context>

100038ee <Window_create_window>:
100038ee:	55                   	push   ebp
100038ef:	89 e5                	mov    ebp,esp
100038f1:	56                   	push   esi
100038f2:	53                   	push   ebx
100038f3:	8b 75 08             	mov    esi,DWORD PTR [ebp+0x8]
100038f6:	52                   	push   edx
100038f7:	52                   	push   edx
100038f8:	ff 76 10             	push   DWORD PTR [esi+0x10]
100038fb:	0f b7 45 1c          	movzx  eax,WORD PTR [ebp+0x1c]
100038ff:	50                   	push   eax
10003900:	0f b7 45 18          	movzx  eax,WORD PTR [ebp+0x18]
10003904:	50                   	push   eax
10003905:	0f b7 45 14          	movzx  eax,WORD PTR [ebp+0x14]
10003909:	50                   	push   eax
1000390a:	0f bf 45 10          	movsx  eax,WORD PTR [ebp+0x10]
1000390e:	50                   	push   eax
1000390f:	0f bf 45 0c          	movsx  eax,WORD PTR [ebp+0xc]
10003913:	50                   	push   eax
10003914:	e8 fc ff ff ff       	call   10003915 <Window_create_window+0x27>	10003915: R_386_PC32	Window_new
10003919:	89 c3                	mov    ebx,eax
1000391b:	83 c4 20             	add    esp,0x20
1000391e:	85 c0                	test   eax,eax
10003920:	74 27                	je     10003949 <Window_create_window+0x5b>
10003922:	50                   	push   eax
10003923:	50                   	push   eax
10003924:	53                   	push   ebx
10003925:	ff 76 20             	push   DWORD PTR [esi+0x20]
10003928:	e8 fc ff ff ff       	call   10003929 <Window_create_window+0x3b>	10003929: R_386_PC32	List_add
1000392d:	83 c4 10             	add    esp,0x10
10003930:	85 c0                	test   eax,eax
10003932:	75 10                	jne    10003944 <Window_create_window+0x56>
10003934:	83 ec 0c             	sub    esp,0xc
10003937:	53                   	push   ebx
10003938:	e8 fc ff ff ff       	call   10003939 <Window_create_window+0x4b>	10003939: R_386_PC32	free
1000393d:	83 c4 10             	add    esp,0x10
10003940:	31 db                	xor    ebx,ebx
10003942:	eb 05                	jmp    10003949 <Window_create_window+0x5b>
10003944:	89 33                	mov    DWORD PTR [ebx],esi
10003946:	89 5e 1c             	mov    DWORD PTR [esi+0x1c],ebx
10003949:	89 d8                	mov    eax,ebx
1000394b:	8d 65 f8             	lea    esp,[ebp-0x8]
1000394e:	5b                   	pop    ebx
1000394f:	5e                   	pop    esi
10003950:	5d                   	pop    ebp
10003951:	c3                   	ret    

10003952 <Window_set_title>:
10003952:	55                   	push   ebp
10003953:	89 e5                	mov    ebp,esp
10003955:	57                   	push   edi
10003956:	56                   	push   esi
10003957:	53                   	push   ebx
10003958:	83 ec 0c             	sub    esp,0xc
1000395b:	8b 5d 08             	mov    ebx,DWORD PTR [ebp+0x8]
1000395e:	8b 7d 0c             	mov    edi,DWORD PTR [ebp+0xc]
10003961:	8b 43 50             	mov    eax,DWORD PTR [ebx+0x50]
10003964:	85 c0                	test   eax,eax
10003966:	74 0c                	je     10003974 <Window_set_title+0x22>
10003968:	83 ec 0c             	sub    esp,0xc
1000396b:	50                   	push   eax
1000396c:	e8 fc ff ff ff       	call   1000396d <Window_set_title+0x1b>	1000396d: R_386_PC32	free
10003971:	83 c4 10             	add    esp,0x10
10003974:	31 f6                	xor    esi,esi
10003976:	8d 46 01             	lea    eax,[esi+0x1]
10003979:	80 3c 37 00          	cmp    BYTE PTR [edi+esi*1],0x0
1000397d:	74 04                	je     10003983 <Window_set_title+0x31>
1000397f:	89 c6                	mov    esi,eax
10003981:	eb f3                	jmp    10003976 <Window_set_title+0x24>
10003983:	83 ec 0c             	sub    esp,0xc
10003986:	50                   	push   eax
10003987:	e8 fc ff ff ff       	call   10003988 <Window_set_title+0x36>	10003988: R_386_PC32	malloc
1000398c:	89 43 50             	mov    DWORD PTR [ebx+0x50],eax
1000398f:	83 c4 10             	add    esp,0x10
10003992:	85 c0                	test   eax,eax
10003994:	74 43                	je     100039d9 <Window_set_title+0x87>
10003996:	31 c0                	xor    eax,eax
10003998:	8a 14 07             	mov    dl,BYTE PTR [edi+eax*1]
1000399b:	8b 4b 50             	mov    ecx,DWORD PTR [ebx+0x50]
1000399e:	88 14 01             	mov    BYTE PTR [ecx+eax*1],dl
100039a1:	40                   	inc    eax
100039a2:	39 c6                	cmp    esi,eax
100039a4:	7d f2                	jge    10003998 <Window_set_title+0x46>
100039a6:	f6 43 0c 01          	test   BYTE PTR [ebx+0xc],0x1
100039aa:	74 1e                	je     100039ca <Window_set_title+0x78>
100039ac:	83 ec 0c             	sub    esp,0xc
100039af:	0f bf 43 08          	movsx  eax,WORD PTR [ebx+0x8]
100039b3:	48                   	dec    eax
100039b4:	50                   	push   eax
100039b5:	0f bf 43 0a          	movsx  eax,WORD PTR [ebx+0xa]
100039b9:	48                   	dec    eax
100039ba:	50                   	push   eax
100039bb:	6a 00                	push   0x0
100039bd:	6a 00                	push   0x0
100039bf:	53                   	push   ebx
100039c0:	e8 fc ff ff ff       	call   100039c1 <Window_set_title+0x6f>	100039c1: R_386_PC32	Window_invalidate
100039c5:	83 c4 20             	add    esp,0x20
100039c8:	eb 0f                	jmp    100039d9 <Window_set_title+0x87>
100039ca:	89 5d 08             	mov    DWORD PTR [ebp+0x8],ebx
100039cd:	8d 65 f4             	lea    esp,[ebp-0xc]
100039d0:	5b                   	pop    ebx
100039d1:	5e                   	pop    esi
100039d2:	5f                   	pop    edi
100039d3:	5d                   	pop    ebp
100039d4:	e9 93 f0 ff ff       	jmp    10002a6c <Window_update_title>
100039d9:	8d 65 f4             	lea    esp,[ebp-0xc]
100039dc:	5b                   	pop    ebx
100039dd:	5e                   	pop    esi
100039de:	5f                   	pop    edi
100039df:	5d                   	pop    ebp
100039e0:	c3                   	ret    
100039e1:	66 90                	xchg   ax,ax
100039e3:	66 90                	xchg   ax,ax
100039e5:	66 90                	xchg   ax,ax
100039e7:	66 90                	xchg   ax,ax
100039e9:	66 90                	xchg   ax,ax
100039eb:	66 90                	xchg   ax,ax
100039ed:	66 90                	xchg   ax,ax
100039ef:	66 90                	xchg   ax,ax
100039f1:	66 90                	xchg   ax,ax
100039f3:	66 90                	xchg   ax,ax
100039f5:	66 90                	xchg   ax,ax
100039f7:	66 90                	xchg   ax,ax
100039f9:	66 90                	xchg   ax,ax
100039fb:	66 90                	xchg   ax,ax
100039fd:	66 90                	xchg   ax,ax
100039ff:	90                   	nop

10003a00 <TERMINAL_KEYBUFFER_IN_SIZE>:
10003a00:	96 00 00 00                                         ....

10003a04 <TERMINAL_KEYBUFFER_OUT_SIZE>:
10003a04:	2c 01 00 00 43 3a 2f 42 61 6e 61 6e 61 2f 43 75     ,...C:/Banana/Cu
10003a14:	72 73 6f 72 73 2f 53 54 41 4e 44 41 52 44 2e 43     rsors/STANDARD.C
10003a24:	55 52 00 43 55 52 53 4f 52 20 4c 4f 41 44 3a 20     UR.CURSOR LOAD: 
10003a34:	42 41 44 20 31 0a 00 43 55 52 53 4f 52 20 4c 4f     BAD 1..CURSOR LO
10003a44:	41 44 3a 20 42 41 44 20 32 0a 00 43 55 52 53 4f     AD: BAD 2..CURSO
10003a54:	52 53 3a 20 25 64 0a 00 4e 52 4d 4c 00 57 41 49     RS: %d..NRML.WAI
10003a64:	54 00 54 4c 44 52 00 54 45 58 54 00 56 45 52 54     T.TLDR.TEXT.VERT
10003a74:	00 48 4f 52 5a 00 48 41 4e 44 00 43 55 52 53 4f     .HORZ.HAND.CURSO
10003a84:	52 20 4c 4f 41 44 3a 20 42 41 44 20 33 0a 00 25     R LOAD: BAD 3..%
10003a94:	73 25 58 00 00 00 00 00 00 00 00 00 00 00 00 00     s%X.............
10003aa4:	aa 00 00 00 00 aa 00 00 aa aa 00 00 00 00 aa 00     ................
10003ab4:	aa 00 aa 00 2a aa d4 00 aa aa aa 00 55 55 55 00     ....*.......UUU.
10003ac4:	ff 55 55 00 55 ff 55 00 ff ff 55 00 55 55 ff 00     .UU.U.U...U.UU..
10003ad4:	ff 55 ff 00 55 ff ff 00 ff ff ff 00 43 3a 2f 42     .U..U.......C:/B
10003ae4:	61 6e 61 6e 61 2f 53 79 73 74 65 6d 2f 72 75 6e     anana/System/run
10003af4:	2e 65 78 65 00 00 00 00 43 3a 2f 42 61 6e 61 6e     .exe....C:/Banan
10003b04:	61 2f 57 61 6c 6c 70 61 70 65 72 73 2f 63 72 69     a/Wallpapers/cri
10003b14:	73 70 2e 74 67 61 00 40 64 65 73 6b 74 6f 70 3a     sp.tga.@desktop:
10003b24:	69 6d 61 67 65 46 69 6c 65 00 77 73 62 65 00 77     imageFile.wsbe.w
10003b34:	6f 20 3d 20 25 64 2c 20 68 6f 20 3d 20 25 64 0a     o = %d, ho = %d.
10003b44:	00 40 64 65 73 6b 74 6f 70 3a 62 61 63 6b 67 72     .@desktop:backgr
10003b54:	6f 75 6e 64 4d 6f 64 65 00 40 64 65 73 6b 74 6f     oundMode.@deskto
10003b64:	70 3a 73 6f 6c 69 64 43 6f 6c 6f 75 72 00 69 6e     p:solidColour.in
10003b74:	76 65 72 74 4d 6f 75 73 65 00 20 3e 20 00 42 41     vertMouse. > .BA
10003b84:	44 20 57 4f 52 44 20 53 55 50 50 4c 45 49 44 20     D WORD SUPPLEID 
10003b94:	54 4f 20 72 65 61 64 43 61 6c 63 57 6f 72 64 00     TO readCalcWord.
10003ba4:	34 19 00 10 34 19 00 10 be 19 00 10 be 19 00 10     4...4...........	10003ba4: R_386_32	.text
	10003ba8: R_386_32	.text
	10003bac: R_386_32	.text
	10003bb0: R_386_32	.text
10003bb4:	1f 1a 00 10 6a 1a 00 10 da 1a 00 10 5b 1c 00 10     ....j.......[...	10003bb4: R_386_32	.text
	10003bb8: R_386_32	.text
	10003bbc: R_386_32	.text
	10003bc0: R_386_32	.text
10003bc4:	7d 1c 00 10 da 1a 00 10 63 6f 70 79 69 6e 67 20     }.......copying 	10003bc4: R_386_32	.text
	10003bc8: R_386_32	.text
10003bd4:	6c 69 73 74 2e 2e 2e 0a 00 61 64 64 69 6e 67 20     list.....adding 
10003be4:	6e 6f 64 65 2e 2e 2e 0a 00 61 64 64 65 64 20 6e     node.....added n
10003bf4:	6f 64 65 2e 2e 2e 0a 00 63 6f 70 69 65 64 20 6c     ode.....copied l
10003c04:	69 73 74 2e 2e 2e 0a 00                             ist.....

10003c0c <defaultRepaintScript>:
10003c0c:	07 00 00 00 00 00 00 ff 01 ff bb bb bb 00 08        ...............
