
packages/banana/32/0001/wsbe.sys:     file format elf32-i386


Disassembly of section .text:

10000000 <start()>:
10000000:	55                   	push   ebp
10000001:	89 e5                	mov    ebp,esp
10000003:	83 ec 08             	sub    esp,0x8
10000006:	83 ec 08             	sub    esp,0x8
10000009:	6a 00                	push   0x0
1000000b:	6a 00                	push   0x0
1000000d:	e8 fc ff ff ff       	call   1000000e <start()+0xe>	1000000e: R_386_PC32	main
10000012:	83 c4 10             	add    esp,0x10
10000015:	90                   	nop
10000016:	c9                   	leave  
10000017:	c3                   	ret    

10000018 <drawtga>:
10000018:	55                   	push   ebp
10000019:	89 e5                	mov    ebp,esp
1000001b:	83 ec 08             	sub    esp,0x8
1000001e:	8b 15 00 00 00 00    	mov    edx,DWORD PTR ds:0x0	10000020: R_386_32	screen
10000024:	a1 00 00 00 00       	mov    eax,ds:0x0	10000025: R_386_32	screen
10000029:	8b 00                	mov    eax,DWORD PTR [eax]
1000002b:	83 c0 2c             	add    eax,0x2c
1000002e:	8b 00                	mov    eax,DWORD PTR [eax]
10000030:	83 ec 0c             	sub    esp,0xc
10000033:	ff 75 14             	push   DWORD PTR [ebp+0x14]
10000036:	ff 75 10             	push   DWORD PTR [ebp+0x10]
10000039:	ff 75 0c             	push   DWORD PTR [ebp+0xc]
1000003c:	ff 75 08             	push   DWORD PTR [ebp+0x8]
1000003f:	52                   	push   edx
10000040:	ff d0                	call   eax
10000042:	83 c4 20             	add    esp,0x20
10000045:	90                   	nop
10000046:	c9                   	leave  
10000047:	c3                   	ret    

10000048 <screendrawcursor>:
10000048:	55                   	push   ebp
10000049:	89 e5                	mov    ebp,esp
1000004b:	83 ec 08             	sub    esp,0x8
1000004e:	8b 15 00 00 00 00    	mov    edx,DWORD PTR ds:0x0	10000050: R_386_32	screen
10000054:	a1 00 00 00 00       	mov    eax,ds:0x0	10000055: R_386_32	screen
10000059:	8b 00                	mov    eax,DWORD PTR [eax]
1000005b:	83 c0 30             	add    eax,0x30
1000005e:	8b 00                	mov    eax,DWORD PTR [eax]
10000060:	8a 0d 00 00 00 00    	mov    cl,BYTE PTR ds:0x0	10000062: R_386_32	invertMouse
10000066:	0f b6 c9             	movzx  ecx,cl
10000069:	83 ec 0c             	sub    esp,0xc
1000006c:	51                   	push   ecx
1000006d:	ff 75 10             	push   DWORD PTR [ebp+0x10]
10000070:	ff 75 0c             	push   DWORD PTR [ebp+0xc]
10000073:	ff 75 08             	push   DWORD PTR [ebp+0x8]
10000076:	52                   	push   edx
10000077:	ff d0                	call   eax
10000079:	83 c4 20             	add    esp,0x20
1000007c:	90                   	nop
1000007d:	c9                   	leave  
1000007e:	c3                   	ret    

1000007f <screenputrect>:
1000007f:	55                   	push   ebp
10000080:	89 e5                	mov    ebp,esp
10000082:	53                   	push   ebx
10000083:	83 ec 04             	sub    esp,0x4
10000086:	8b 15 00 00 00 00    	mov    edx,DWORD PTR ds:0x0	10000088: R_386_32	screen
1000008c:	a1 00 00 00 00       	mov    eax,ds:0x0	1000008d: R_386_32	screen
10000091:	8b 00                	mov    eax,DWORD PTR [eax]
10000093:	83 c0 28             	add    eax,0x28
10000096:	8b 00                	mov    eax,DWORD PTR [eax]
10000098:	8b 4d 14             	mov    ecx,DWORD PTR [ebp+0x14]
1000009b:	89 cb                	mov    ebx,ecx
1000009d:	2b 5d 0c             	sub    ebx,DWORD PTR [ebp+0xc]
100000a0:	8b 4d 10             	mov    ecx,DWORD PTR [ebp+0x10]
100000a3:	2b 4d 08             	sub    ecx,DWORD PTR [ebp+0x8]
100000a6:	83 ec 08             	sub    esp,0x8
100000a9:	ff 75 18             	push   DWORD PTR [ebp+0x18]
100000ac:	53                   	push   ebx
100000ad:	51                   	push   ecx
100000ae:	ff 75 0c             	push   DWORD PTR [ebp+0xc]
100000b1:	ff 75 08             	push   DWORD PTR [ebp+0x8]
100000b4:	52                   	push   edx
100000b5:	ff d0                	call   eax
100000b7:	83 c4 20             	add    esp,0x20
100000ba:	90                   	nop
100000bb:	8b 5d fc             	mov    ebx,DWORD PTR [ebp-0x4]
100000be:	c9                   	leave  
100000bf:	c3                   	ret    

100000c0 <screenputpixel>:
100000c0:	55                   	push   ebp
100000c1:	89 e5                	mov    ebp,esp
100000c3:	83 ec 08             	sub    esp,0x8
100000c6:	8b 15 00 00 00 00    	mov    edx,DWORD PTR ds:0x0	100000c8: R_386_32	screen
100000cc:	a1 00 00 00 00       	mov    eax,ds:0x0	100000cd: R_386_32	screen
100000d1:	8b 00                	mov    eax,DWORD PTR [eax]
100000d3:	83 c0 24             	add    eax,0x24
100000d6:	8b 00                	mov    eax,DWORD PTR [eax]
100000d8:	ff 75 10             	push   DWORD PTR [ebp+0x10]
100000db:	ff 75 0c             	push   DWORD PTR [ebp+0xc]
100000de:	ff 75 08             	push   DWORD PTR [ebp+0x8]
100000e1:	52                   	push   edx
100000e2:	ff d0                	call   eax
100000e4:	83 c4 10             	add    esp,0x10
100000e7:	90                   	nop
100000e8:	c9                   	leave  
100000e9:	c3                   	ret    

100000ea <getNanoSinceBoot>:
100000ea:	a1 00 00 00 00       	mov    eax,ds:0x0	100000eb: R_386_32	nanoSinceBoot
100000ef:	8b 15 04 00 00 00    	mov    edx,DWORD PTR ds:0x4	100000f1: R_386_32	nanoSinceBoot
100000f5:	c3                   	ret    

100000f6 <loadCursors()>:
100000f6:	55                   	push   ebp
100000f7:	89 e5                	mov    ebp,esp
100000f9:	53                   	push   ebx
100000fa:	83 ec 34             	sub    esp,0x34
100000fd:	83 ec 0c             	sub    esp,0xc
10000100:	68 14 01 00 00       	push   0x114
10000105:	e8 fc ff ff ff       	call   10000106 <loadCursors()+0x10>	10000106: R_386_PC32	operator new(unsigned long)
1000010a:	83 c4 10             	add    esp,0x10
1000010d:	89 c3                	mov    ebx,eax
1000010f:	a1 00 00 00 00       	mov    eax,ds:0x0	10000110: R_386_32	kernelProcess
10000114:	83 ec 04             	sub    esp,0x4
10000117:	50                   	push   eax
10000118:	68 48 41 00 10       	push   0x10004148	10000119: R_386_32	.text
1000011d:	53                   	push   ebx
1000011e:	e8 fc ff ff ff       	call   1000011f <loadCursors()+0x29>	1000011f: R_386_PC32	File::File(char const*, Process*)
10000123:	83 c4 10             	add    esp,0x10
10000126:	89 5d ec             	mov    DWORD PTR [ebp-0x14],ebx
10000129:	83 ec 08             	sub    esp,0x8
1000012c:	6a 01                	push   0x1
1000012e:	ff 75 ec             	push   DWORD PTR [ebp-0x14]
10000131:	e8 fc ff ff ff       	call   10000132 <loadCursors()+0x3c>	10000132: R_386_PC32	File::open(FileOpenMode)
10000136:	83 c4 10             	add    esp,0x10
10000139:	89 45 e8             	mov    DWORD PTR [ebp-0x18],eax
1000013c:	83 7d e8 00          	cmp    DWORD PTR [ebp-0x18],0x0
10000140:	74 15                	je     10000157 <loadCursors()+0x61>
10000142:	83 ec 0c             	sub    esp,0xc
10000145:	68 00 00 00 00       	push   0x0	10000146: R_386_32	cursorBad1
1000014a:	e8 fc ff ff ff       	call   1000014b <loadCursors()+0x55>	1000014b: R_386_PC32	Dbg::kprintf(char const*, ...)
1000014f:	83 c4 10             	add    esp,0x10
10000152:	e9 5f 02 00 00       	jmp    100003b6 <loadCursors()+0x2c0>
10000157:	83 ec 04             	sub    esp,0x4
1000015a:	8d 45 d7             	lea    eax,[ebp-0x29]
1000015d:	50                   	push   eax
1000015e:	8d 45 d8             	lea    eax,[ebp-0x28]
10000161:	50                   	push   eax
10000162:	ff 75 ec             	push   DWORD PTR [ebp-0x14]
10000165:	e8 fc ff ff ff       	call   10000166 <loadCursors()+0x70>	10000166: R_386_PC32	File::stat(unsigned long long*, bool*)
1000016a:	83 c4 10             	add    esp,0x10
1000016d:	8b 45 d8             	mov    eax,DWORD PTR [ebp-0x28]
10000170:	8b 55 dc             	mov    edx,DWORD PTR [ebp-0x24]
10000173:	83 ec 0c             	sub    esp,0xc
10000176:	50                   	push   eax
10000177:	e8 fc ff ff ff       	call   10000178 <loadCursors()+0x82>	10000178: R_386_PC32	malloc
1000017c:	83 c4 10             	add    esp,0x10
1000017f:	89 45 e4             	mov    DWORD PTR [ebp-0x1c],eax
10000182:	8b 45 ec             	mov    eax,DWORD PTR [ebp-0x14]
10000185:	8b 00                	mov    eax,DWORD PTR [eax]
10000187:	83 c0 0c             	add    eax,0xc
1000018a:	8b 08                	mov    ecx,DWORD PTR [eax]
1000018c:	8b 45 d8             	mov    eax,DWORD PTR [ebp-0x28]
1000018f:	8b 55 dc             	mov    edx,DWORD PTR [ebp-0x24]
10000192:	83 ec 0c             	sub    esp,0xc
10000195:	8d 5d d0             	lea    ebx,[ebp-0x30]
10000198:	53                   	push   ebx
10000199:	ff 75 e4             	push   DWORD PTR [ebp-0x1c]
1000019c:	52                   	push   edx
1000019d:	50                   	push   eax
1000019e:	ff 75 ec             	push   DWORD PTR [ebp-0x14]
100001a1:	ff d1                	call   ecx
100001a3:	83 c4 20             	add    esp,0x20
100001a6:	8b 45 d8             	mov    eax,DWORD PTR [ebp-0x28]
100001a9:	8b 55 dc             	mov    edx,DWORD PTR [ebp-0x24]
100001ac:	89 c2                	mov    edx,eax
100001ae:	8b 45 d0             	mov    eax,DWORD PTR [ebp-0x30]
100001b1:	39 c2                	cmp    edx,eax
100001b3:	74 15                	je     100001ca <loadCursors()+0xd4>
100001b5:	83 ec 0c             	sub    esp,0xc
100001b8:	68 00 00 00 00       	push   0x0	100001b9: R_386_32	cursorBad2
100001bd:	e8 fc ff ff ff       	call   100001be <loadCursors()+0xc8>	100001be: R_386_PC32	Dbg::kprintf(char const*, ...)
100001c2:	83 c4 10             	add    esp,0x10
100001c5:	e9 ec 01 00 00       	jmp    100003b6 <loadCursors()+0x2c0>
100001ca:	8b 45 d8             	mov    eax,DWORD PTR [ebp-0x28]
100001cd:	8b 55 dc             	mov    edx,DWORD PTR [ebp-0x24]
100001d0:	6a 00                	push   0x0
100001d2:	68 04 01 00 00       	push   0x104
100001d7:	52                   	push   edx
100001d8:	50                   	push   eax
100001d9:	e8 fc ff ff ff       	call   100001da <loadCursors()+0xe4>	100001da: R_386_PC32	__udivdi3
100001de:	83 c4 10             	add    esp,0x10
100001e1:	89 45 e0             	mov    DWORD PTR [ebp-0x20],eax
100001e4:	83 ec 08             	sub    esp,0x8
100001e7:	ff 75 e0             	push   DWORD PTR [ebp-0x20]
100001ea:	68 00 00 00 00       	push   0x0	100001eb: R_386_32	cursorNumStr
100001ef:	e8 fc ff ff ff       	call   100001f0 <loadCursors()+0xfa>	100001f0: R_386_PC32	Dbg::kprintf(char const*, ...)
100001f4:	83 c4 10             	add    esp,0x10
100001f7:	83 ec 0c             	sub    esp,0xc
100001fa:	ff 75 e4             	push   DWORD PTR [ebp-0x1c]
100001fd:	e8 fc ff ff ff       	call   100001fe <loadCursors()+0x108>	100001fe: R_386_PC32	Dbg::kprintf(char const*, ...)
10000202:	83 c4 10             	add    esp,0x10
10000205:	c7 45 f4 00 00 00 00 	mov    DWORD PTR [ebp-0xc],0x0
1000020c:	8b 45 f4             	mov    eax,DWORD PTR [ebp-0xc]
1000020f:	3b 45 e0             	cmp    eax,DWORD PTR [ebp-0x20]
10000212:	0f 8d 90 01 00 00    	jge    100003a8 <loadCursors()+0x2b2>
10000218:	8b 45 f4             	mov    eax,DWORD PTR [ebp-0xc]
1000021b:	c1 e0 02             	shl    eax,0x2
1000021e:	89 c2                	mov    edx,eax
10000220:	8b 45 e4             	mov    eax,DWORD PTR [ebp-0x1c]
10000223:	01 d0                	add    eax,edx
10000225:	83 ec 04             	sub    esp,0x4
10000228:	6a 04                	push   0x4
1000022a:	68 67 41 00 10       	push   0x10004167	1000022b: R_386_32	.text
1000022f:	50                   	push   eax
10000230:	e8 fc ff ff ff       	call   10000231 <loadCursors()+0x13b>	10000231: R_386_PC32	memcmp
10000235:	83 c4 10             	add    esp,0x10
10000238:	85 c0                	test   eax,eax
1000023a:	75 0c                	jne    10000248 <loadCursors()+0x152>
1000023c:	c7 45 f0 00 00 00 00 	mov    DWORD PTR [ebp-0x10],0x0
10000243:	e9 29 01 00 00       	jmp    10000371 <loadCursors()+0x27b>
10000248:	8b 45 f4             	mov    eax,DWORD PTR [ebp-0xc]
1000024b:	c1 e0 02             	shl    eax,0x2
1000024e:	89 c2                	mov    edx,eax
10000250:	8b 45 e4             	mov    eax,DWORD PTR [ebp-0x1c]
10000253:	01 d0                	add    eax,edx
10000255:	83 ec 04             	sub    esp,0x4
10000258:	6a 04                	push   0x4
1000025a:	68 6c 41 00 10       	push   0x1000416c	1000025b: R_386_32	.text
1000025f:	50                   	push   eax
10000260:	e8 fc ff ff ff       	call   10000261 <loadCursors()+0x16b>	10000261: R_386_PC32	memcmp
10000265:	83 c4 10             	add    esp,0x10
10000268:	85 c0                	test   eax,eax
1000026a:	75 0c                	jne    10000278 <loadCursors()+0x182>
1000026c:	c7 45 f0 00 02 00 00 	mov    DWORD PTR [ebp-0x10],0x200
10000273:	e9 f9 00 00 00       	jmp    10000371 <loadCursors()+0x27b>
10000278:	8b 45 f4             	mov    eax,DWORD PTR [ebp-0xc]
1000027b:	c1 e0 02             	shl    eax,0x2
1000027e:	89 c2                	mov    edx,eax
10000280:	8b 45 e4             	mov    eax,DWORD PTR [ebp-0x1c]
10000283:	01 d0                	add    eax,edx
10000285:	83 ec 04             	sub    esp,0x4
10000288:	6a 04                	push   0x4
1000028a:	68 71 41 00 10       	push   0x10004171	1000028b: R_386_32	.text
1000028f:	50                   	push   eax
10000290:	e8 fc ff ff ff       	call   10000291 <loadCursors()+0x19b>	10000291: R_386_PC32	memcmp
10000295:	83 c4 10             	add    esp,0x10
10000298:	85 c0                	test   eax,eax
1000029a:	75 0c                	jne    100002a8 <loadCursors()+0x1b2>
1000029c:	c7 45 f0 00 03 00 00 	mov    DWORD PTR [ebp-0x10],0x300
100002a3:	e9 c9 00 00 00       	jmp    10000371 <loadCursors()+0x27b>
100002a8:	8b 45 f4             	mov    eax,DWORD PTR [ebp-0xc]
100002ab:	c1 e0 02             	shl    eax,0x2
100002ae:	89 c2                	mov    edx,eax
100002b0:	8b 45 e4             	mov    eax,DWORD PTR [ebp-0x1c]
100002b3:	01 d0                	add    eax,edx
100002b5:	83 ec 04             	sub    esp,0x4
100002b8:	6a 04                	push   0x4
100002ba:	68 76 41 00 10       	push   0x10004176	100002bb: R_386_32	.text
100002bf:	50                   	push   eax
100002c0:	e8 fc ff ff ff       	call   100002c1 <loadCursors()+0x1cb>	100002c1: R_386_PC32	memcmp
100002c5:	83 c4 10             	add    esp,0x10
100002c8:	85 c0                	test   eax,eax
100002ca:	75 0c                	jne    100002d8 <loadCursors()+0x1e2>
100002cc:	c7 45 f0 00 01 00 00 	mov    DWORD PTR [ebp-0x10],0x100
100002d3:	e9 99 00 00 00       	jmp    10000371 <loadCursors()+0x27b>
100002d8:	8b 45 f4             	mov    eax,DWORD PTR [ebp-0xc]
100002db:	c1 e0 02             	shl    eax,0x2
100002de:	89 c2                	mov    edx,eax
100002e0:	8b 45 e4             	mov    eax,DWORD PTR [ebp-0x1c]
100002e3:	01 d0                	add    eax,edx
100002e5:	83 ec 04             	sub    esp,0x4
100002e8:	6a 04                	push   0x4
100002ea:	68 7b 41 00 10       	push   0x1000417b	100002eb: R_386_32	.text
100002ef:	50                   	push   eax
100002f0:	e8 fc ff ff ff       	call   100002f1 <loadCursors()+0x1fb>	100002f1: R_386_PC32	memcmp
100002f5:	83 c4 10             	add    esp,0x10
100002f8:	85 c0                	test   eax,eax
100002fa:	75 09                	jne    10000305 <loadCursors()+0x20f>
100002fc:	c7 45 f0 00 04 00 00 	mov    DWORD PTR [ebp-0x10],0x400
10000303:	eb 6c                	jmp    10000371 <loadCursors()+0x27b>
10000305:	8b 45 f4             	mov    eax,DWORD PTR [ebp-0xc]
10000308:	c1 e0 02             	shl    eax,0x2
1000030b:	89 c2                	mov    edx,eax
1000030d:	8b 45 e4             	mov    eax,DWORD PTR [ebp-0x1c]
10000310:	01 d0                	add    eax,edx
10000312:	83 ec 04             	sub    esp,0x4
10000315:	6a 04                	push   0x4
10000317:	68 80 41 00 10       	push   0x10004180	10000318: R_386_32	.text
1000031c:	50                   	push   eax
1000031d:	e8 fc ff ff ff       	call   1000031e <loadCursors()+0x228>	1000031e: R_386_PC32	memcmp
10000322:	83 c4 10             	add    esp,0x10
10000325:	85 c0                	test   eax,eax
10000327:	75 09                	jne    10000332 <loadCursors()+0x23c>
10000329:	c7 45 f0 00 05 00 00 	mov    DWORD PTR [ebp-0x10],0x500
10000330:	eb 3f                	jmp    10000371 <loadCursors()+0x27b>
10000332:	8b 45 f4             	mov    eax,DWORD PTR [ebp-0xc]
10000335:	c1 e0 02             	shl    eax,0x2
10000338:	89 c2                	mov    edx,eax
1000033a:	8b 45 e4             	mov    eax,DWORD PTR [ebp-0x1c]
1000033d:	01 d0                	add    eax,edx
1000033f:	83 ec 04             	sub    esp,0x4
10000342:	6a 04                	push   0x4
10000344:	68 85 41 00 10       	push   0x10004185	10000345: R_386_32	.text
10000349:	50                   	push   eax
1000034a:	e8 fc ff ff ff       	call   1000034b <loadCursors()+0x255>	1000034b: R_386_PC32	memcmp
1000034f:	83 c4 10             	add    esp,0x10
10000352:	85 c0                	test   eax,eax
10000354:	75 09                	jne    1000035f <loadCursors()+0x269>
10000356:	c7 45 f0 00 06 00 00 	mov    DWORD PTR [ebp-0x10],0x600
1000035d:	eb 12                	jmp    10000371 <loadCursors()+0x27b>
1000035f:	83 ec 0c             	sub    esp,0xc
10000362:	68 00 00 00 00       	push   0x0	10000363: R_386_32	cursorBad3
10000367:	e8 fc ff ff ff       	call   10000368 <loadCursors()+0x272>	10000368: R_386_PC32	Dbg::kprintf(char const*, ...)
1000036c:	83 c4 10             	add    esp,0x10
1000036f:	eb 37                	jmp    100003a8 <loadCursors()+0x2b2>
10000371:	8b 45 e0             	mov    eax,DWORD PTR [ebp-0x20]
10000374:	c1 e0 02             	shl    eax,0x2
10000377:	89 c2                	mov    edx,eax
10000379:	8b 45 f4             	mov    eax,DWORD PTR [ebp-0xc]
1000037c:	c1 e0 08             	shl    eax,0x8
1000037f:	01 c2                	add    edx,eax
10000381:	8b 45 e4             	mov    eax,DWORD PTR [ebp-0x1c]
10000384:	01 c2                	add    edx,eax
10000386:	8b 45 f0             	mov    eax,DWORD PTR [ebp-0x10]
10000389:	05 00 00 00 00       	add    eax,0x0	1000038a: R_386_32	___mouse_data
1000038e:	83 ec 04             	sub    esp,0x4
10000391:	68 00 01 00 00       	push   0x100
10000396:	52                   	push   edx
10000397:	50                   	push   eax
10000398:	e8 fc ff ff ff       	call   10000399 <loadCursors()+0x2a3>	10000399: R_386_PC32	memcpy
1000039d:	83 c4 10             	add    esp,0x10
100003a0:	ff 45 f4             	inc    DWORD PTR [ebp-0xc]
100003a3:	e9 64 fe ff ff       	jmp    1000020c <loadCursors()+0x116>
100003a8:	83 ec 0c             	sub    esp,0xc
100003ab:	ff 75 e4             	push   DWORD PTR [ebp-0x1c]
100003ae:	e8 fc ff ff ff       	call   100003af <loadCursors()+0x2b9>	100003af: R_386_PC32	free
100003b3:	83 c4 10             	add    esp,0x10
100003b6:	8b 5d fc             	mov    ebx,DWORD PTR [ebp-0x4]
100003b9:	c9                   	leave  
100003ba:	c3                   	ret    

100003bb <newpaint(Window_struct*)>:
100003bb:	55                   	push   ebp
100003bc:	89 e5                	mov    ebp,esp
100003be:	83 ec 08             	sub    esp,0x8
100003c1:	a1 00 00 00 00       	mov    eax,ds:0x0	100003c2: R_386_32	oldHandler
100003c6:	83 ec 0c             	sub    esp,0xc
100003c9:	ff 75 08             	push   DWORD PTR [ebp+0x8]
100003cc:	ff d0                	call   eax
100003ce:	83 c4 10             	add    esp,0x10
100003d1:	8b 45 08             	mov    eax,DWORD PTR [ebp+0x8]
100003d4:	8b 40 10             	mov    eax,DWORD PTR [eax+0x10]
100003d7:	83 ec 08             	sub    esp,0x8
100003da:	6a 00                	push   0x0
100003dc:	6a 00                	push   0x0
100003de:	6a 32                	push   0x32
100003e0:	6a 32                	push   0x32
100003e2:	68 00 00 00 00       	push   0x0	100003e3: R_386_32	szstring
100003e7:	50                   	push   eax
100003e8:	e8 fc ff ff ff       	call   100003e9 <newpaint(Window_struct*)+0x2e>	100003e9: R_386_PC32	Context_draw_text
100003ed:	83 c4 20             	add    esp,0x20
100003f0:	90                   	nop
100003f1:	c9                   	leave  
100003f2:	c3                   	ret    

100003f3 <mdown(Window_struct*, int, int)>:
100003f3:	55                   	push   ebp
100003f4:	89 e5                	mov    ebp,esp
100003f6:	57                   	push   edi
100003f7:	56                   	push   esi
100003f8:	53                   	push   ebx
100003f9:	ba 00 00 00 00       	mov    edx,0x0	100003fa: R_386_32	szstring
100003fe:	bb 8a 41 00 10       	mov    ebx,0x1000418a	100003ff: R_386_32	.text
10000403:	b8 03 00 00 00       	mov    eax,0x3
10000408:	89 d7                	mov    edi,edx
1000040a:	89 de                	mov    esi,ebx
1000040c:	89 c1                	mov    ecx,eax
1000040e:	f3 a5                	rep movs DWORD PTR es:[edi],DWORD PTR ds:[esi]
10000410:	90                   	nop
10000411:	5b                   	pop    ebx
10000412:	5e                   	pop    esi
10000413:	5f                   	pop    edi
10000414:	5d                   	pop    ebp
10000415:	c3                   	ret    

10000416 <mup(Window_struct*, int, int)>:
10000416:	55                   	push   ebp
10000417:	89 e5                	mov    ebp,esp
10000419:	57                   	push   edi
1000041a:	56                   	push   esi
1000041b:	53                   	push   ebx
1000041c:	ba 00 00 00 00       	mov    edx,0x0	1000041d: R_386_32	szstring
10000421:	bb 96 41 00 10       	mov    ebx,0x10004196	10000422: R_386_32	.text
10000426:	b8 0a 00 00 00       	mov    eax,0xa
1000042b:	89 d7                	mov    edi,edx
1000042d:	89 de                	mov    esi,ebx
1000042f:	89 c1                	mov    ecx,eax
10000431:	f3 a4                	rep movs BYTE PTR es:[edi],BYTE PTR ds:[esi]
10000433:	90                   	nop
10000434:	5b                   	pop    ebx
10000435:	5e                   	pop    esi
10000436:	5f                   	pop    edi
10000437:	5d                   	pop    ebp
10000438:	c3                   	ret    

10000439 <resizehandler(Window_struct*, int, int)>:
10000439:	55                   	push   ebp
1000043a:	89 e5                	mov    ebp,esp
1000043c:	57                   	push   edi
1000043d:	56                   	push   esi
1000043e:	53                   	push   ebx
1000043f:	ba 00 00 00 00       	mov    edx,0x0	10000440: R_386_32	szstring
10000444:	bb a0 41 00 10       	mov    ebx,0x100041a0	10000445: R_386_32	.text
10000449:	b8 03 00 00 00       	mov    eax,0x3
1000044e:	89 d7                	mov    edi,edx
10000450:	89 de                	mov    esi,ebx
10000452:	89 c1                	mov    ecx,eax
10000454:	f3 a5                	rep movs DWORD PTR es:[edi],DWORD PTR ds:[esi]
10000456:	90                   	nop
10000457:	5b                   	pop    ebx
10000458:	5e                   	pop    esi
10000459:	5f                   	pop    edi
1000045a:	5d                   	pop    ebp
1000045b:	c3                   	ret    

1000045c <dopanic(Window_struct*, int, int)>:
1000045c:	55                   	push   ebp
1000045d:	89 e5                	mov    ebp,esp
1000045f:	83 ec 08             	sub    esp,0x8
10000462:	83 ec 0c             	sub    esp,0xc
10000465:	68 ac 41 00 10       	push   0x100041ac	10000466: R_386_32	.text
1000046a:	e8 fc ff ff ff       	call   1000046b <dopanic(Window_struct*, int, int)+0xf>	1000046b: R_386_PC32	Krnl::panic(char const*)
1000046f:	83 c4 10             	add    esp,0x10
10000472:	90                   	nop
10000473:	c9                   	leave  
10000474:	c3                   	ret    

10000475 <spawn_calculator(Window_struct*, int, int)>:
10000475:	55                   	push   ebp
10000476:	89 e5                	mov    ebp,esp
10000478:	57                   	push   edi
10000479:	56                   	push   esi
1000047a:	53                   	push   ebx
1000047b:	83 ec 5c             	sub    esp,0x5c
1000047e:	83 ec 0c             	sub    esp,0xc
10000481:	6a 6c                	push   0x6c
10000483:	e8 fc ff ff ff       	call   10000484 <spawn_calculator(Window_struct*, int, int)+0xf>	10000484: R_386_PC32	malloc
10000488:	83 c4 10             	add    esp,0x10
1000048b:	89 45 e4             	mov    DWORD PTR [ebp-0x1c],eax
1000048e:	83 ec 04             	sub    esp,0x4
10000491:	6a 00                	push   0x0
10000493:	6a 02                	push   0x2
10000495:	68 c8 00 00 00       	push   0xc8
1000049a:	68 2c 01 00 00       	push   0x12c
1000049f:	6a 32                	push   0x32
100004a1:	6a 32                	push   0x32
100004a3:	ff 75 e4             	push   DWORD PTR [ebp-0x1c]
100004a6:	e8 fc ff ff ff       	call   100004a7 <spawn_calculator(Window_struct*, int, int)+0x32>	100004a7: R_386_PC32	Window_init
100004ab:	83 c4 20             	add    esp,0x20
100004ae:	83 ec 08             	sub    esp,0x8
100004b1:	68 00 00 00 00       	push   0x0	100004b2: R_386_32	tw
100004b6:	ff 75 e4             	push   DWORD PTR [ebp-0x1c]
100004b9:	e8 fc ff ff ff       	call   100004ba <spawn_calculator(Window_struct*, int, int)+0x45>	100004ba: R_386_PC32	Window_set_title
100004be:	83 c4 10             	add    esp,0x10
100004c1:	a1 00 00 00 00       	mov    eax,ds:0x0	100004c2: R_386_32	desktop
100004c6:	83 ec 08             	sub    esp,0x8
100004c9:	ff 75 e4             	push   DWORD PTR [ebp-0x1c]
100004cc:	50                   	push   eax
100004cd:	e8 fc ff ff ff       	call   100004ce <spawn_calculator(Window_struct*, int, int)+0x59>	100004ce: R_386_PC32	Window_insert_child
100004d2:	83 c4 10             	add    esp,0x10
100004d5:	6a 1e                	push   0x1e
100004d7:	68 96 00 00 00       	push   0x96
100004dc:	6a 3c                	push   0x3c
100004de:	6a 28                	push   0x28
100004e0:	e8 fc ff ff ff       	call   100004e1 <spawn_calculator(Window_struct*, int, int)+0x6c>	100004e1: R_386_PC32	Button_new
100004e5:	83 c4 10             	add    esp,0x10
100004e8:	89 45 e0             	mov    DWORD PTR [ebp-0x20],eax
100004eb:	83 ec 08             	sub    esp,0x8
100004ee:	68 ca 41 00 10       	push   0x100041ca	100004ef: R_386_32	.text
100004f3:	ff 75 e0             	push   DWORD PTR [ebp-0x20]
100004f6:	e8 fc ff ff ff       	call   100004f7 <spawn_calculator(Window_struct*, int, int)+0x82>	100004f7: R_386_PC32	Window_set_title
100004fb:	83 c4 10             	add    esp,0x10
100004fe:	8b 45 e0             	mov    eax,DWORD PTR [ebp-0x20]
10000501:	c7 40 30 00 00 00 00 	mov    DWORD PTR [eax+0x30],0x0	10000504: R_386_32	dopanic(Window_struct*, int, int)
10000508:	83 ec 08             	sub    esp,0x8
1000050b:	ff 75 e0             	push   DWORD PTR [ebp-0x20]
1000050e:	ff 75 e4             	push   DWORD PTR [ebp-0x1c]
10000511:	e8 fc ff ff ff       	call   10000512 <spawn_calculator(Window_struct*, int, int)+0x9d>	10000512: R_386_PC32	Window_insert_child
10000516:	83 c4 10             	add    esp,0x10
10000519:	8b 45 e4             	mov    eax,DWORD PTR [ebp-0x1c]
1000051c:	c7 40 44 00 00 00 00 	mov    DWORD PTR [eax+0x44],0x0	1000051f: R_386_32	resizehandler(Window_struct*, int, int)
10000523:	8b 45 e4             	mov    eax,DWORD PTR [ebp-0x1c]
10000526:	c7 40 30 00 00 00 00 	mov    DWORD PTR [eax+0x30],0x0	10000529: R_386_32	mdown(Window_struct*, int, int)
1000052d:	8b 45 e4             	mov    eax,DWORD PTR [ebp-0x1c]
10000530:	c7 40 3c 00 00 00 00 	mov    DWORD PTR [eax+0x3c],0x0	10000533: R_386_32	mup(Window_struct*, int, int)
10000537:	8b 45 e4             	mov    eax,DWORD PTR [ebp-0x1c]
1000053a:	8b 40 2c             	mov    eax,DWORD PTR [eax+0x2c]
1000053d:	a3 00 00 00 00       	mov    ds:0x0,eax	1000053e: R_386_32	oldHandler
10000542:	8b 45 e4             	mov    eax,DWORD PTR [ebp-0x1c]
10000545:	c7 40 2c 00 00 00 00 	mov    DWORD PTR [eax+0x2c],0x0	10000548: R_386_32	newpaint(Window_struct*)
1000054c:	8d 45 a0             	lea    eax,[ebp-0x60]
1000054f:	bb e0 41 00 10       	mov    ebx,0x100041e0	10000550: R_386_32	.text
10000554:	ba 10 00 00 00       	mov    edx,0x10
10000559:	89 c7                	mov    edi,eax
1000055b:	89 de                	mov    esi,ebx
1000055d:	89 d1                	mov    ecx,edx
1000055f:	f3 a5                	rep movs DWORD PTR es:[edi],DWORD PTR ds:[esi]
10000561:	a1 00 00 00 00       	mov    eax,ds:0x0	10000562: R_386_32	desktop
10000566:	83 ec 04             	sub    esp,0x4
10000569:	6a 01                	push   0x1
1000056b:	6a 00                	push   0x0
1000056d:	50                   	push   eax
1000056e:	e8 fc ff ff ff       	call   1000056f <spawn_calculator(Window_struct*, int, int)+0xfa>	1000056f: R_386_PC32	Window_paint
10000573:	83 c4 10             	add    esp,0x10
10000576:	90                   	nop
10000577:	8d 65 f4             	lea    esp,[ebp-0xc]
1000057a:	5b                   	pop    ebx
1000057b:	5e                   	pop    esi
1000057c:	5f                   	pop    edi
1000057d:	5d                   	pop    ebp
1000057e:	c3                   	ret    

1000057f <handleMouse>:
1000057f:	55                   	push   ebp
10000580:	89 e5                	mov    ebp,esp
10000582:	53                   	push   ebx
10000583:	83 ec 04             	sub    esp,0x4
10000586:	8b 15 00 00 00 00    	mov    edx,DWORD PTR ds:0x0	10000588: R_386_32	mouse_x
1000058c:	8b 45 08             	mov    eax,DWORD PTR [ebp+0x8]
1000058f:	01 d0                	add    eax,edx
10000591:	a3 00 00 00 00       	mov    ds:0x0,eax	10000592: R_386_32	mouse_x
10000596:	8b 15 00 00 00 00    	mov    edx,DWORD PTR ds:0x0	10000598: R_386_32	mouse_y
1000059c:	8b 45 0c             	mov    eax,DWORD PTR [ebp+0xc]
1000059f:	01 d0                	add    eax,edx
100005a1:	a3 00 00 00 00       	mov    ds:0x0,eax	100005a2: R_386_32	mouse_y
100005a6:	a1 00 00 00 00       	mov    eax,ds:0x0	100005a7: R_386_32	mouse_x
100005ab:	85 c0                	test   eax,eax
100005ad:	7f 0a                	jg     100005b9 <handleMouse+0x3a>
100005af:	c7 05 00 00 00 00 01 00 00 00 	mov    DWORD PTR ds:0x0,0x1	100005b1: R_386_32	mouse_x
100005b9:	a1 00 00 00 00       	mov    eax,ds:0x0	100005ba: R_386_32	mouse_y
100005be:	85 c0                	test   eax,eax
100005c0:	7f 0a                	jg     100005cc <handleMouse+0x4d>
100005c2:	c7 05 00 00 00 00 01 00 00 00 	mov    DWORD PTR ds:0x0,0x1	100005c4: R_386_32	mouse_y
100005cc:	a1 00 00 00 00       	mov    eax,ds:0x0	100005cd: R_386_32	desktop
100005d1:	8b 40 08             	mov    eax,DWORD PTR [eax+0x8]
100005d4:	98                   	cwde   
100005d5:	8d 50 ff             	lea    edx,[eax-0x1]
100005d8:	a1 00 00 00 00       	mov    eax,ds:0x0	100005d9: R_386_32	mouse_x
100005dd:	39 c2                	cmp    edx,eax
100005df:	7f 11                	jg     100005f2 <handleMouse+0x73>
100005e1:	a1 00 00 00 00       	mov    eax,ds:0x0	100005e2: R_386_32	desktop
100005e6:	8b 40 08             	mov    eax,DWORD PTR [eax+0x8]
100005e9:	98                   	cwde   
100005ea:	83 e8 02             	sub    eax,0x2
100005ed:	a3 00 00 00 00       	mov    ds:0x0,eax	100005ee: R_386_32	mouse_x
100005f2:	a1 00 00 00 00       	mov    eax,ds:0x0	100005f3: R_386_32	desktop
100005f7:	66 8b 40 0a          	mov    ax,WORD PTR [eax+0xa]
100005fb:	98                   	cwde   
100005fc:	8d 50 ff             	lea    edx,[eax-0x1]
100005ff:	a1 00 00 00 00       	mov    eax,ds:0x0	10000600: R_386_32	mouse_y
10000604:	39 c2                	cmp    edx,eax
10000606:	7f 12                	jg     1000061a <handleMouse+0x9b>
10000608:	a1 00 00 00 00       	mov    eax,ds:0x0	10000609: R_386_32	desktop
1000060d:	66 8b 40 0a          	mov    ax,WORD PTR [eax+0xa]
10000611:	98                   	cwde   
10000612:	83 e8 02             	sub    eax,0x2
10000615:	a3 00 00 00 00       	mov    ds:0x0,eax	10000616: R_386_32	mouse_y
1000061a:	c7 05 00 00 00 00 00 00 00 00 	mov    DWORD PTR ds:0x0,0x0	1000061c: R_386_32	buttons
10000624:	8b 45 10             	mov    eax,DWORD PTR [ebp+0x10]
10000627:	83 e0 01             	and    eax,0x1
1000062a:	85 c0                	test   eax,eax
1000062c:	74 0a                	je     10000638 <handleMouse+0xb9>
1000062e:	c7 05 00 00 00 00 01 00 00 00 	mov    DWORD PTR ds:0x0,0x1	10000630: R_386_32	buttons
10000638:	a1 00 00 00 00       	mov    eax,ds:0x0	10000639: R_386_32	buttons
1000063d:	0f b6 d8             	movzx  ebx,al
10000640:	a1 00 00 00 00       	mov    eax,ds:0x0	10000641: R_386_32	mouse_y
10000645:	0f b7 c8             	movzx  ecx,ax
10000648:	a1 00 00 00 00       	mov    eax,ds:0x0	10000649: R_386_32	mouse_x
1000064d:	0f b7 d0             	movzx  edx,ax
10000650:	a1 00 00 00 00       	mov    eax,ds:0x0	10000651: R_386_32	desktop
10000655:	53                   	push   ebx
10000656:	51                   	push   ecx
10000657:	52                   	push   edx
10000658:	50                   	push   eax
10000659:	e8 fc ff ff ff       	call   1000065a <handleMouse+0xdb>	1000065a: R_386_PC32	Desktop_process_mouse
1000065e:	83 c4 10             	add    esp,0x10
10000661:	90                   	nop
10000662:	8b 5d fc             	mov    ebx,DWORD PTR [ebp-0x4]
10000665:	c9                   	leave  
10000666:	c3                   	ret    

10000667 <debugwrite>:
10000667:	55                   	push   ebp
10000668:	89 e5                	mov    ebp,esp
1000066a:	83 ec 08             	sub    esp,0x8
1000066d:	83 ec 0c             	sub    esp,0xc
10000670:	ff 75 08             	push   DWORD PTR [ebp+0x8]
10000673:	e8 fc ff ff ff       	call   10000674 <debugwrite+0xd>	10000674: R_386_PC32	Dbg::kprintf(char const*, ...)
10000678:	83 c4 10             	add    esp,0x10
1000067b:	90                   	nop
1000067c:	c9                   	leave  
1000067d:	c3                   	ret    

1000067e <panichandler()>:
1000067e:	55                   	push   ebp
1000067f:	89 e5                	mov    ebp,esp
10000681:	57                   	push   edi
10000682:	56                   	push   esi
10000683:	53                   	push   ebx
10000684:	83 ec 6c             	sub    esp,0x6c
10000687:	8d 45 90             	lea    eax,[ebp-0x70]
1000068a:	bb 20 42 00 10       	mov    ebx,0x10004220	1000068b: R_386_32	.text
1000068f:	ba 10 00 00 00       	mov    edx,0x10
10000694:	89 c7                	mov    edi,eax
10000696:	89 de                	mov    esi,ebx
10000698:	89 d1                	mov    ecx,edx
1000069a:	f3 a5                	rep movs DWORD PTR es:[edi],DWORD PTR ds:[esi]
1000069c:	c7 45 e4 00 00 00 00 	mov    DWORD PTR [ebp-0x1c],0x0
100006a3:	c7 45 e0 00 00 00 00 	mov    DWORD PTR [ebp-0x20],0x0
100006aa:	81 7d e0 df 01 00 00 	cmp    DWORD PTR [ebp-0x20],0x1df
100006b1:	0f 8f df 00 00 00    	jg     10000796 <panichandler()+0x118>
100006b7:	c7 45 dc 00 00 00 00 	mov    DWORD PTR [ebp-0x24],0x0
100006be:	81 7d dc 3f 01 00 00 	cmp    DWORD PTR [ebp-0x24],0x13f
100006c5:	0f 8f c3 00 00 00    	jg     1000078e <panichandler()+0x110>
100006cb:	8b 45 e4             	mov    eax,DWORD PTR [ebp-0x1c]
100006ce:	8d 50 01             	lea    edx,[eax+0x1]
100006d1:	89 55 e4             	mov    DWORD PTR [ebp-0x1c],edx
100006d4:	8a 80 00 00 00 00    	mov    al,BYTE PTR [eax+0x0]	100006d6: R_386_32	thomas
100006da:	88 45 d3             	mov    BYTE PTR [ebp-0x2d],al
100006dd:	0f b6 45 d3          	movzx  eax,BYTE PTR [ebp-0x2d]
100006e1:	83 e0 0f             	and    eax,0xf
100006e4:	8b 44 85 90          	mov    eax,DWORD PTR [ebp+eax*4-0x70]
100006e8:	89 45 d8             	mov    DWORD PTR [ebp-0x28],eax
100006eb:	0f b6 45 d3          	movzx  eax,BYTE PTR [ebp-0x2d]
100006ef:	c1 f8 04             	sar    eax,0x4
100006f2:	8b 44 85 90          	mov    eax,DWORD PTR [ebp+eax*4-0x70]
100006f6:	89 45 d4             	mov    DWORD PTR [ebp-0x2c],eax
100006f9:	81 7d dc a2 00 00 00 	cmp    DWORD PTR [ebp-0x24],0xa2
10000700:	7e 3b                	jle    1000073d <panichandler()+0xbf>
10000702:	81 7d dc c4 00 00 00 	cmp    DWORD PTR [ebp-0x24],0xc4
10000709:	7f 32                	jg     1000073d <panichandler()+0xbf>
1000070b:	81 7d e0 be 00 00 00 	cmp    DWORD PTR [ebp-0x20],0xbe
10000712:	7e 29                	jle    1000073d <panichandler()+0xbf>
10000714:	81 7d e0 0d 01 00 00 	cmp    DWORD PTR [ebp-0x20],0x10d
1000071b:	7f 20                	jg     1000073d <panichandler()+0xbf>
1000071d:	81 7d d8 2a aa d4 00 	cmp    DWORD PTR [ebp-0x28],0xd4aa2a
10000724:	75 07                	jne    1000072d <panichandler()+0xaf>
10000726:	c7 45 d8 aa ff ff 00 	mov    DWORD PTR [ebp-0x28],0xffffaa
1000072d:	81 7d d4 2a aa d4 00 	cmp    DWORD PTR [ebp-0x2c],0xd4aa2a
10000734:	75 07                	jne    1000073d <panichandler()+0xbf>
10000736:	c7 45 d4 aa ff ff 00 	mov    DWORD PTR [ebp-0x2c],0xffffaa
1000073d:	8b 15 00 00 00 00    	mov    edx,DWORD PTR ds:0x0	1000073f: R_386_32	screen
10000743:	a1 00 00 00 00       	mov    eax,ds:0x0	10000744: R_386_32	screen
10000748:	8b 00                	mov    eax,DWORD PTR [eax]
1000074a:	83 c0 24             	add    eax,0x24
1000074d:	8b 00                	mov    eax,DWORD PTR [eax]
1000074f:	8b 4d dc             	mov    ecx,DWORD PTR [ebp-0x24]
10000752:	01 c9                	add    ecx,ecx
10000754:	ff 75 d8             	push   DWORD PTR [ebp-0x28]
10000757:	ff 75 e0             	push   DWORD PTR [ebp-0x20]
1000075a:	51                   	push   ecx
1000075b:	52                   	push   edx
1000075c:	ff d0                	call   eax
1000075e:	83 c4 10             	add    esp,0x10
10000761:	8b 15 00 00 00 00    	mov    edx,DWORD PTR ds:0x0	10000763: R_386_32	screen
10000767:	a1 00 00 00 00       	mov    eax,ds:0x0	10000768: R_386_32	screen
1000076c:	8b 00                	mov    eax,DWORD PTR [eax]
1000076e:	83 c0 24             	add    eax,0x24
10000771:	8b 00                	mov    eax,DWORD PTR [eax]
10000773:	8b 4d dc             	mov    ecx,DWORD PTR [ebp-0x24]
10000776:	01 c9                	add    ecx,ecx
10000778:	41                   	inc    ecx
10000779:	ff 75 d4             	push   DWORD PTR [ebp-0x2c]
1000077c:	ff 75 e0             	push   DWORD PTR [ebp-0x20]
1000077f:	51                   	push   ecx
10000780:	52                   	push   edx
10000781:	ff d0                	call   eax
10000783:	83 c4 10             	add    esp,0x10
10000786:	ff 45 dc             	inc    DWORD PTR [ebp-0x24]
10000789:	e9 30 ff ff ff       	jmp    100006be <panichandler()+0x40>
1000078e:	ff 45 e0             	inc    DWORD PTR [ebp-0x20]
10000791:	e9 14 ff ff ff       	jmp    100006aa <panichandler()+0x2c>
10000796:	90                   	nop
10000797:	8d 65 f4             	lea    esp,[ebp-0xc]
1000079a:	5b                   	pop    ebx
1000079b:	5e                   	pop    esi
1000079c:	5f                   	pop    edi
1000079d:	5d                   	pop    ebp
1000079e:	c3                   	ret    

1000079f <main>:
1000079f:	8d 4c 24 04          	lea    ecx,[esp+0x4]
100007a3:	83 e4 f0             	and    esp,0xfffffff0
100007a6:	ff 71 fc             	push   DWORD PTR [ecx-0x4]
100007a9:	55                   	push   ebp
100007aa:	89 e5                	mov    ebp,esp
100007ac:	53                   	push   ebx
100007ad:	51                   	push   ecx
100007ae:	83 ec 10             	sub    esp,0x10
100007b1:	c7 05 00 00 00 00 00 00 00 00 	mov    DWORD PTR ds:0x0,0x0	100007b3: R_386_32	Krnl::guiPanicHandler
	100007b7: R_386_32	panichandler()
100007bb:	c7 45 f4 9b 37 04 00 	mov    DWORD PTR [ebp-0xc],0x4379b
100007c2:	8b 45 f4             	mov    eax,DWORD PTR [ebp-0xc]
100007c5:	83 ec 0c             	sub    esp,0xc
100007c8:	50                   	push   eax
100007c9:	e8 fc ff ff ff       	call   100007ca <main+0x2b>	100007ca: R_386_PC32	malloc
100007ce:	83 c4 10             	add    esp,0x10
100007d1:	89 45 f0             	mov    DWORD PTR [ebp-0x10],eax
100007d4:	83 ec 0c             	sub    esp,0xc
100007d7:	68 14 01 00 00       	push   0x114
100007dc:	e8 fc ff ff ff       	call   100007dd <main+0x3e>	100007dd: R_386_PC32	operator new(unsigned long)
100007e1:	83 c4 10             	add    esp,0x10
100007e4:	89 c3                	mov    ebx,eax
100007e6:	a1 00 00 00 00       	mov    eax,ds:0x0	100007e7: R_386_32	kernelProcess
100007eb:	83 ec 04             	sub    esp,0x4
100007ee:	50                   	push   eax
100007ef:	68 60 42 00 10       	push   0x10004260	100007f0: R_386_32	.text
100007f4:	53                   	push   ebx
100007f5:	e8 fc ff ff ff       	call   100007f6 <main+0x57>	100007f6: R_386_PC32	File::File(char const*, Process*)
100007fa:	83 c4 10             	add    esp,0x10
100007fd:	89 5d ec             	mov    DWORD PTR [ebp-0x14],ebx
10000800:	83 ec 08             	sub    esp,0x8
10000803:	6a 01                	push   0x1
10000805:	ff 75 ec             	push   DWORD PTR [ebp-0x14]
10000808:	e8 fc ff ff ff       	call   10000809 <main+0x6a>	10000809: R_386_PC32	File::open(FileOpenMode)
1000080d:	83 c4 10             	add    esp,0x10
10000810:	8b 45 ec             	mov    eax,DWORD PTR [ebp-0x14]
10000813:	8b 00                	mov    eax,DWORD PTR [eax]
10000815:	83 c0 0c             	add    eax,0xc
10000818:	8b 08                	mov    ecx,DWORD PTR [eax]
1000081a:	8b 45 f4             	mov    eax,DWORD PTR [ebp-0xc]
1000081d:	99                   	cdq    
1000081e:	83 ec 0c             	sub    esp,0xc
10000821:	8d 5d e8             	lea    ebx,[ebp-0x18]
10000824:	53                   	push   ebx
10000825:	ff 75 f0             	push   DWORD PTR [ebp-0x10]
10000828:	52                   	push   edx
10000829:	50                   	push   eax
1000082a:	ff 75 ec             	push   DWORD PTR [ebp-0x14]
1000082d:	ff d1                	call   ecx
1000082f:	83 c4 20             	add    esp,0x20
10000832:	ff 75 f4             	push   DWORD PTR [ebp-0xc]
10000835:	ff 75 f0             	push   DWORD PTR [ebp-0x10]
10000838:	6a 00                	push   0x0
1000083a:	6a 00                	push   0x0
1000083c:	e8 fc ff ff ff       	call   1000083d <main+0x9e>	1000083d: R_386_PC32	drawtga
10000841:	83 c4 10             	add    esp,0x10
10000844:	83 ec 0c             	sub    esp,0xc
10000847:	ff 75 ec             	push   DWORD PTR [ebp-0x14]
1000084a:	e8 fc ff ff ff       	call   1000084b <main+0xac>	1000084b: R_386_PC32	File::close()
1000084f:	83 c4 10             	add    esp,0x10
10000852:	eb fe                	jmp    10000852 <main+0xb3>

10000854 <Bitmap_new>:
10000854:	55                   	push   ebp
10000855:	89 e5                	mov    ebp,esp
10000857:	53                   	push   ebx
10000858:	83 ec 14             	sub    esp,0x14
1000085b:	83 ec 0c             	sub    esp,0xc
1000085e:	6a 74                	push   0x74
10000860:	e8 fc ff ff ff       	call   10000861 <Bitmap_new+0xd>	10000861: R_386_PC32	malloc
10000865:	83 c4 10             	add    esp,0x10
10000868:	89 45 f4             	mov    DWORD PTR [ebp-0xc],eax
1000086b:	83 7d f4 00          	cmp    DWORD PTR [ebp-0xc],0x0
1000086f:	75 05                	jne    10000876 <Bitmap_new+0x22>
10000871:	8b 45 f4             	mov    eax,DWORD PTR [ebp-0xc]
10000874:	eb 5b                	jmp    100008d1 <Bitmap_new+0x7d>
10000876:	8b 45 14             	mov    eax,DWORD PTR [ebp+0x14]
10000879:	0f b7 d8             	movzx  ebx,ax
1000087c:	8b 45 10             	mov    eax,DWORD PTR [ebp+0x10]
1000087f:	0f b7 c8             	movzx  ecx,ax
10000882:	8b 45 0c             	mov    eax,DWORD PTR [ebp+0xc]
10000885:	0f bf d0             	movsx  edx,ax
10000888:	8b 45 08             	mov    eax,DWORD PTR [ebp+0x8]
1000088b:	98                   	cwde   
1000088c:	83 ec 04             	sub    esp,0x4
1000088f:	6a 00                	push   0x0
10000891:	6a 01                	push   0x1
10000893:	53                   	push   ebx
10000894:	51                   	push   ecx
10000895:	52                   	push   edx
10000896:	50                   	push   eax
10000897:	ff 75 f4             	push   DWORD PTR [ebp-0xc]
1000089a:	e8 fc ff ff ff       	call   1000089b <Bitmap_new+0x47>	1000089b: R_386_PC32	Window_init
1000089f:	83 c4 20             	add    esp,0x20
100008a2:	85 c0                	test   eax,eax
100008a4:	75 15                	jne    100008bb <Bitmap_new+0x67>
100008a6:	83 ec 0c             	sub    esp,0xc
100008a9:	ff 75 f4             	push   DWORD PTR [ebp-0xc]
100008ac:	e8 fc ff ff ff       	call   100008ad <Bitmap_new+0x59>	100008ad: R_386_PC32	free
100008b1:	83 c4 10             	add    esp,0x10
100008b4:	b8 00 00 00 00       	mov    eax,0x0
100008b9:	eb 16                	jmp    100008d1 <Bitmap_new+0x7d>
100008bb:	8b 45 f4             	mov    eax,DWORD PTR [ebp-0xc]
100008be:	c7 40 2c 00 00 00 00 	mov    DWORD PTR [eax+0x2c],0x0	100008c1: R_386_32	Bitmap_paint
100008c5:	8b 45 f4             	mov    eax,DWORD PTR [ebp-0xc]
100008c8:	8b 55 18             	mov    edx,DWORD PTR [ebp+0x18]
100008cb:	89 50 70             	mov    DWORD PTR [eax+0x70],edx
100008ce:	8b 45 f4             	mov    eax,DWORD PTR [ebp-0xc]
100008d1:	8b 5d fc             	mov    ebx,DWORD PTR [ebp-0x4]
100008d4:	c9                   	leave  
100008d5:	c3                   	ret    

100008d6 <Bitmap_paint>:
100008d6:	55                   	push   ebp
100008d7:	89 e5                	mov    ebp,esp
100008d9:	83 ec 18             	sub    esp,0x18
100008dc:	c7 45 f4 00 00 00 00 	mov    DWORD PTR [ebp-0xc],0x0
100008e3:	c7 45 f0 00 00 00 00 	mov    DWORD PTR [ebp-0x10],0x0
100008ea:	eb 4e                	jmp    1000093a <Bitmap_paint+0x64>
100008ec:	c7 45 ec 00 00 00 00 	mov    DWORD PTR [ebp-0x14],0x0
100008f3:	eb 36                	jmp    1000092b <Bitmap_paint+0x55>
100008f5:	8b 45 08             	mov    eax,DWORD PTR [ebp+0x8]
100008f8:	8b 48 70             	mov    ecx,DWORD PTR [eax+0x70]
100008fb:	8b 45 f4             	mov    eax,DWORD PTR [ebp-0xc]
100008fe:	8d 50 01             	lea    edx,[eax+0x1]
10000901:	89 55 f4             	mov    DWORD PTR [ebp-0xc],edx
10000904:	c1 e0 02             	shl    eax,0x2
10000907:	01 c8                	add    eax,ecx
10000909:	8b 10                	mov    edx,DWORD PTR [eax]
1000090b:	8b 45 08             	mov    eax,DWORD PTR [ebp+0x8]
1000090e:	8b 40 10             	mov    eax,DWORD PTR [eax+0x10]
10000911:	83 ec 08             	sub    esp,0x8
10000914:	52                   	push   edx
10000915:	6a 01                	push   0x1
10000917:	6a 01                	push   0x1
10000919:	ff 75 f0             	push   DWORD PTR [ebp-0x10]
1000091c:	ff 75 ec             	push   DWORD PTR [ebp-0x14]
1000091f:	50                   	push   eax
10000920:	e8 fc ff ff ff       	call   10000921 <Bitmap_paint+0x4b>	10000921: R_386_PC32	Context_fill_rect
10000925:	83 c4 20             	add    esp,0x20
10000928:	ff 45 ec             	inc    DWORD PTR [ebp-0x14]
1000092b:	8b 45 08             	mov    eax,DWORD PTR [ebp+0x8]
1000092e:	8b 40 08             	mov    eax,DWORD PTR [eax+0x8]
10000931:	98                   	cwde   
10000932:	39 45 ec             	cmp    DWORD PTR [ebp-0x14],eax
10000935:	7c be                	jl     100008f5 <Bitmap_paint+0x1f>
10000937:	ff 45 f0             	inc    DWORD PTR [ebp-0x10]
1000093a:	8b 45 08             	mov    eax,DWORD PTR [ebp+0x8]
1000093d:	66 8b 40 0a          	mov    ax,WORD PTR [eax+0xa]
10000941:	98                   	cwde   
10000942:	39 45 f0             	cmp    DWORD PTR [ebp-0x10],eax
10000945:	7c a5                	jl     100008ec <Bitmap_paint+0x16>
10000947:	90                   	nop
10000948:	c9                   	leave  
10000949:	c3                   	ret    

1000094a <Button_new>:
1000094a:	55                   	push   ebp
1000094b:	89 e5                	mov    ebp,esp
1000094d:	53                   	push   ebx
1000094e:	83 ec 14             	sub    esp,0x14
10000951:	83 ec 0c             	sub    esp,0xc
10000954:	6a 78                	push   0x78
10000956:	e8 fc ff ff ff       	call   10000957 <Button_new+0xd>	10000957: R_386_PC32	malloc
1000095b:	83 c4 10             	add    esp,0x10
1000095e:	89 45 f4             	mov    DWORD PTR [ebp-0xc],eax
10000961:	83 7d f4 00          	cmp    DWORD PTR [ebp-0xc],0x0
10000965:	75 05                	jne    1000096c <Button_new+0x22>
10000967:	8b 45 f4             	mov    eax,DWORD PTR [ebp-0xc]
1000096a:	eb 66                	jmp    100009d2 <Button_new+0x88>
1000096c:	8b 45 14             	mov    eax,DWORD PTR [ebp+0x14]
1000096f:	0f b7 d8             	movzx  ebx,ax
10000972:	8b 45 10             	mov    eax,DWORD PTR [ebp+0x10]
10000975:	0f b7 c8             	movzx  ecx,ax
10000978:	8b 45 0c             	mov    eax,DWORD PTR [ebp+0xc]
1000097b:	0f bf d0             	movsx  edx,ax
1000097e:	8b 45 08             	mov    eax,DWORD PTR [ebp+0x8]
10000981:	98                   	cwde   
10000982:	83 ec 04             	sub    esp,0x4
10000985:	6a 00                	push   0x0
10000987:	6a 01                	push   0x1
10000989:	53                   	push   ebx
1000098a:	51                   	push   ecx
1000098b:	52                   	push   edx
1000098c:	50                   	push   eax
1000098d:	ff 75 f4             	push   DWORD PTR [ebp-0xc]
10000990:	e8 fc ff ff ff       	call   10000991 <Button_new+0x47>	10000991: R_386_PC32	Window_init
10000995:	83 c4 20             	add    esp,0x20
10000998:	85 c0                	test   eax,eax
1000099a:	75 15                	jne    100009b1 <Button_new+0x67>
1000099c:	83 ec 0c             	sub    esp,0xc
1000099f:	ff 75 f4             	push   DWORD PTR [ebp-0xc]
100009a2:	e8 fc ff ff ff       	call   100009a3 <Button_new+0x59>	100009a3: R_386_PC32	free
100009a7:	83 c4 10             	add    esp,0x10
100009aa:	b8 00 00 00 00       	mov    eax,0x0
100009af:	eb 21                	jmp    100009d2 <Button_new+0x88>
100009b1:	8b 45 f4             	mov    eax,DWORD PTR [ebp-0xc]
100009b4:	c7 40 2c 00 00 00 00 	mov    DWORD PTR [eax+0x2c],0x0	100009b7: R_386_32	Button_paint
100009bb:	8b 45 f4             	mov    eax,DWORD PTR [ebp-0xc]
100009be:	c7 40 30 00 00 00 00 	mov    DWORD PTR [eax+0x30],0x0	100009c1: R_386_32	Button_mousedown_handler
100009c5:	8b 45 f4             	mov    eax,DWORD PTR [ebp-0xc]
100009c8:	c7 40 74 00 00 00 00 	mov    DWORD PTR [eax+0x74],0x0
100009cf:	8b 45 f4             	mov    eax,DWORD PTR [ebp-0xc]
100009d2:	8b 5d fc             	mov    ebx,DWORD PTR [ebp-0x4]
100009d5:	c9                   	leave  
100009d6:	c3                   	ret    

100009d7 <Button_paint>:
100009d7:	55                   	push   ebp
100009d8:	89 e5                	mov    ebp,esp
100009da:	53                   	push   ebx
100009db:	83 ec 14             	sub    esp,0x14
100009de:	8b 45 08             	mov    eax,DWORD PTR [ebp+0x8]
100009e1:	89 45 f0             	mov    DWORD PTR [ebp-0x10],eax
100009e4:	c7 45 ec 9a 9a 9a 00 	mov    DWORD PTR [ebp-0x14],0x9a9a9a
100009eb:	8b 45 08             	mov    eax,DWORD PTR [ebp+0x8]
100009ee:	66 8b 40 0a          	mov    ax,WORD PTR [eax+0xa]
100009f2:	98                   	cwde   
100009f3:	48                   	dec    eax
100009f4:	89 c1                	mov    ecx,eax
100009f6:	8b 45 08             	mov    eax,DWORD PTR [ebp+0x8]
100009f9:	8b 40 08             	mov    eax,DWORD PTR [eax+0x8]
100009fc:	98                   	cwde   
100009fd:	48                   	dec    eax
100009fe:	89 c2                	mov    edx,eax
10000a00:	8b 45 08             	mov    eax,DWORD PTR [ebp+0x8]
10000a03:	8b 40 10             	mov    eax,DWORD PTR [eax+0x10]
10000a06:	83 ec 08             	sub    esp,0x8
10000a09:	68 aa aa aa 00       	push   0xaaaaaa
10000a0e:	51                   	push   ecx
10000a0f:	52                   	push   edx
10000a10:	6a 01                	push   0x1
10000a12:	6a 01                	push   0x1
10000a14:	50                   	push   eax
10000a15:	e8 fc ff ff ff       	call   10000a16 <Button_paint+0x3f>	10000a16: R_386_PC32	Context_fill_rect
10000a1a:	83 c4 20             	add    esp,0x20
10000a1d:	8b 45 08             	mov    eax,DWORD PTR [ebp+0x8]
10000a20:	66 8b 40 0a          	mov    ax,WORD PTR [eax+0xa]
10000a24:	0f bf c8             	movsx  ecx,ax
10000a27:	8b 45 08             	mov    eax,DWORD PTR [ebp+0x8]
10000a2a:	8b 40 08             	mov    eax,DWORD PTR [eax+0x8]
10000a2d:	0f bf d0             	movsx  edx,ax
10000a30:	8b 45 08             	mov    eax,DWORD PTR [ebp+0x8]
10000a33:	8b 40 10             	mov    eax,DWORD PTR [eax+0x10]
10000a36:	83 ec 08             	sub    esp,0x8
10000a39:	6a 00                	push   0x0
10000a3b:	51                   	push   ecx
10000a3c:	52                   	push   edx
10000a3d:	6a 00                	push   0x0
10000a3f:	6a 00                	push   0x0
10000a41:	50                   	push   eax
10000a42:	e8 fc ff ff ff       	call   10000a43 <Button_paint+0x6c>	10000a43: R_386_PC32	Context_draw_rect
10000a47:	83 c4 20             	add    esp,0x20
10000a4a:	8b 45 08             	mov    eax,DWORD PTR [ebp+0x8]
10000a4d:	66 8b 40 0a          	mov    ax,WORD PTR [eax+0xa]
10000a51:	98                   	cwde   
10000a52:	83 e8 06             	sub    eax,0x6
10000a55:	89 c1                	mov    ecx,eax
10000a57:	8b 45 08             	mov    eax,DWORD PTR [ebp+0x8]
10000a5a:	8b 40 08             	mov    eax,DWORD PTR [eax+0x8]
10000a5d:	98                   	cwde   
10000a5e:	83 e8 06             	sub    eax,0x6
10000a61:	89 c2                	mov    edx,eax
10000a63:	8b 45 08             	mov    eax,DWORD PTR [ebp+0x8]
10000a66:	8b 40 10             	mov    eax,DWORD PTR [eax+0x10]
10000a69:	83 ec 08             	sub    esp,0x8
10000a6c:	ff 75 ec             	push   DWORD PTR [ebp-0x14]
10000a6f:	51                   	push   ecx
10000a70:	52                   	push   edx
10000a71:	6a 03                	push   0x3
10000a73:	6a 03                	push   0x3
10000a75:	50                   	push   eax
10000a76:	e8 fc ff ff ff       	call   10000a77 <Button_paint+0xa0>	10000a77: R_386_PC32	Context_draw_rect
10000a7b:	83 c4 20             	add    esp,0x20
10000a7e:	8b 45 08             	mov    eax,DWORD PTR [ebp+0x8]
10000a81:	66 8b 40 0a          	mov    ax,WORD PTR [eax+0xa]
10000a85:	98                   	cwde   
10000a86:	83 e8 08             	sub    eax,0x8
10000a89:	89 c1                	mov    ecx,eax
10000a8b:	8b 45 08             	mov    eax,DWORD PTR [ebp+0x8]
10000a8e:	8b 40 08             	mov    eax,DWORD PTR [eax+0x8]
10000a91:	98                   	cwde   
10000a92:	83 e8 08             	sub    eax,0x8
10000a95:	89 c2                	mov    edx,eax
10000a97:	8b 45 08             	mov    eax,DWORD PTR [ebp+0x8]
10000a9a:	8b 40 10             	mov    eax,DWORD PTR [eax+0x10]
10000a9d:	83 ec 08             	sub    esp,0x8
10000aa0:	ff 75 ec             	push   DWORD PTR [ebp-0x14]
10000aa3:	51                   	push   ecx
10000aa4:	52                   	push   edx
10000aa5:	6a 04                	push   0x4
10000aa7:	6a 04                	push   0x4
10000aa9:	50                   	push   eax
10000aaa:	e8 fc ff ff ff       	call   10000aab <Button_paint+0xd4>	10000aab: R_386_PC32	Context_draw_rect
10000aaf:	83 c4 20             	add    esp,0x20
10000ab2:	c7 45 f4 00 00 00 00 	mov    DWORD PTR [ebp-0xc],0x0
10000ab9:	eb 03                	jmp    10000abe <Button_paint+0xe7>
10000abb:	ff 45 f4             	inc    DWORD PTR [ebp-0xc]
10000abe:	8b 45 08             	mov    eax,DWORD PTR [ebp+0x8]
10000ac1:	8b 50 4c             	mov    edx,DWORD PTR [eax+0x4c]
10000ac4:	8b 45 f4             	mov    eax,DWORD PTR [ebp-0xc]
10000ac7:	01 d0                	add    eax,edx
10000ac9:	8a 00                	mov    al,BYTE PTR [eax]
10000acb:	84 c0                	test   al,al
10000acd:	75 ec                	jne    10000abb <Button_paint+0xe4>
10000acf:	c1 65 f4 03          	shl    DWORD PTR [ebp-0xc],0x3
10000ad3:	8b 45 08             	mov    eax,DWORD PTR [ebp+0x8]
10000ad6:	8b 40 4c             	mov    eax,DWORD PTR [eax+0x4c]
10000ad9:	85 c0                	test   eax,eax
10000adb:	74 5a                	je     10000b37 <Button_paint+0x160>
10000add:	8b 45 08             	mov    eax,DWORD PTR [ebp+0x8]
10000ae0:	66 8b 40 0a          	mov    ax,WORD PTR [eax+0xa]
10000ae4:	89 c2                	mov    edx,eax
10000ae6:	66 c1 ea 0f          	shr    dx,0xf
10000aea:	01 d0                	add    eax,edx
10000aec:	66 d1 f8             	sar    ax,1
10000aef:	98                   	cwde   
10000af0:	8d 58 fa             	lea    ebx,[eax-0x6]
10000af3:	8b 45 08             	mov    eax,DWORD PTR [ebp+0x8]
10000af6:	8b 40 08             	mov    eax,DWORD PTR [eax+0x8]
10000af9:	89 c2                	mov    edx,eax
10000afb:	66 c1 ea 0f          	shr    dx,0xf
10000aff:	01 d0                	add    eax,edx
10000b01:	66 d1 f8             	sar    ax,1
10000b04:	0f bf d0             	movsx  edx,ax
10000b07:	8b 45 f4             	mov    eax,DWORD PTR [ebp-0xc]
10000b0a:	89 c1                	mov    ecx,eax
10000b0c:	c1 e9 1f             	shr    ecx,0x1f
10000b0f:	01 c8                	add    eax,ecx
10000b11:	d1 f8                	sar    eax,1
10000b13:	f7 d8                	neg    eax
10000b15:	8d 0c 02             	lea    ecx,[edx+eax*1]
10000b18:	8b 45 08             	mov    eax,DWORD PTR [ebp+0x8]
10000b1b:	8b 50 4c             	mov    edx,DWORD PTR [eax+0x4c]
10000b1e:	8b 45 08             	mov    eax,DWORD PTR [ebp+0x8]
10000b21:	8b 40 10             	mov    eax,DWORD PTR [eax+0x10]
10000b24:	83 ec 08             	sub    esp,0x8
10000b27:	6a 00                	push   0x0
10000b29:	6a 00                	push   0x0
10000b2b:	53                   	push   ebx
10000b2c:	51                   	push   ecx
10000b2d:	52                   	push   edx
10000b2e:	50                   	push   eax
10000b2f:	e8 fc ff ff ff       	call   10000b30 <Button_paint+0x159>	10000b30: R_386_PC32	Context_draw_text
10000b34:	83 c4 20             	add    esp,0x20
10000b37:	90                   	nop
10000b38:	8b 5d fc             	mov    ebx,DWORD PTR [ebp-0x4]
10000b3b:	c9                   	leave  
10000b3c:	c3                   	ret    

10000b3d <Button_mousedown_handler>:
10000b3d:	55                   	push   ebp
10000b3e:	89 e5                	mov    ebp,esp
10000b40:	83 ec 18             	sub    esp,0x18
10000b43:	8b 45 08             	mov    eax,DWORD PTR [ebp+0x8]
10000b46:	89 45 f4             	mov    DWORD PTR [ebp-0xc],eax
10000b49:	8b 45 f4             	mov    eax,DWORD PTR [ebp-0xc]
10000b4c:	8b 40 08             	mov    eax,DWORD PTR [eax+0x8]
10000b4f:	98                   	cwde   
10000b50:	8d 50 ff             	lea    edx,[eax-0x1]
10000b53:	8b 45 f4             	mov    eax,DWORD PTR [ebp-0xc]
10000b56:	66 8b 40 0a          	mov    ax,WORD PTR [eax+0xa]
10000b5a:	98                   	cwde   
10000b5b:	48                   	dec    eax
10000b5c:	83 ec 0c             	sub    esp,0xc
10000b5f:	52                   	push   edx
10000b60:	50                   	push   eax
10000b61:	6a 00                	push   0x0
10000b63:	6a 00                	push   0x0
10000b65:	ff 75 f4             	push   DWORD PTR [ebp-0xc]
10000b68:	e8 fc ff ff ff       	call   10000b69 <Button_mousedown_handler+0x2c>	10000b69: R_386_PC32	Window_invalidate
10000b6d:	83 c4 20             	add    esp,0x20
10000b70:	8b 45 f4             	mov    eax,DWORD PTR [ebp-0xc]
10000b73:	8b 40 74             	mov    eax,DWORD PTR [eax+0x74]
10000b76:	85 c0                	test   eax,eax
10000b78:	74 17                	je     10000b91 <Button_mousedown_handler+0x54>
10000b7a:	8b 45 f4             	mov    eax,DWORD PTR [ebp-0xc]
10000b7d:	8b 40 74             	mov    eax,DWORD PTR [eax+0x74]
10000b80:	83 ec 04             	sub    esp,0x4
10000b83:	ff 75 10             	push   DWORD PTR [ebp+0x10]
10000b86:	ff 75 0c             	push   DWORD PTR [ebp+0xc]
10000b89:	ff 75 f4             	push   DWORD PTR [ebp-0xc]
10000b8c:	ff d0                	call   eax
10000b8e:	83 c4 10             	add    esp,0x10
10000b91:	90                   	nop
10000b92:	c9                   	leave  
10000b93:	c3                   	ret    

10000b94 <Context_new>:
10000b94:	55                   	push   ebp
10000b95:	89 e5                	mov    ebp,esp
10000b97:	83 ec 28             	sub    esp,0x28
10000b9a:	8b 55 08             	mov    edx,DWORD PTR [ebp+0x8]
10000b9d:	8b 45 0c             	mov    eax,DWORD PTR [ebp+0xc]
10000ba0:	66 89 55 e4          	mov    WORD PTR [ebp-0x1c],dx
10000ba4:	66 89 45 e0          	mov    WORD PTR [ebp-0x20],ax
10000ba8:	83 ec 0c             	sub    esp,0xc
10000bab:	6a 18                	push   0x18
10000bad:	e8 fc ff ff ff       	call   10000bae <Context_new+0x1a>	10000bae: R_386_PC32	malloc
10000bb2:	83 c4 10             	add    esp,0x10
10000bb5:	89 45 f4             	mov    DWORD PTR [ebp-0xc],eax
10000bb8:	83 7d f4 00          	cmp    DWORD PTR [ebp-0xc],0x0
10000bbc:	75 05                	jne    10000bc3 <Context_new+0x2f>
10000bbe:	8b 45 f4             	mov    eax,DWORD PTR [ebp-0xc]
10000bc1:	eb 52                	jmp    10000c15 <Context_new+0x81>
10000bc3:	e8 fc ff ff ff       	call   10000bc4 <Context_new+0x30>	10000bc4: R_386_PC32	List_new
10000bc8:	89 c2                	mov    edx,eax
10000bca:	8b 45 f4             	mov    eax,DWORD PTR [ebp-0xc]
10000bcd:	89 50 10             	mov    DWORD PTR [eax+0x10],edx
10000bd0:	8b 45 f4             	mov    eax,DWORD PTR [ebp-0xc]
10000bd3:	8b 40 10             	mov    eax,DWORD PTR [eax+0x10]
10000bd6:	85 c0                	test   eax,eax
10000bd8:	75 15                	jne    10000bef <Context_new+0x5b>
10000bda:	83 ec 0c             	sub    esp,0xc
10000bdd:	ff 75 f4             	push   DWORD PTR [ebp-0xc]
10000be0:	e8 fc ff ff ff       	call   10000be1 <Context_new+0x4d>	10000be1: R_386_PC32	free
10000be5:	83 c4 10             	add    esp,0x10
10000be8:	b8 00 00 00 00       	mov    eax,0x0
10000bed:	eb 26                	jmp    10000c15 <Context_new+0x81>
10000bef:	8b 55 f4             	mov    edx,DWORD PTR [ebp-0xc]
10000bf2:	8b 45 e4             	mov    eax,DWORD PTR [ebp-0x1c]
10000bf5:	66 89 42 04          	mov    WORD PTR [edx+0x4],ax
10000bf9:	8b 55 f4             	mov    edx,DWORD PTR [ebp-0xc]
10000bfc:	8b 45 e0             	mov    eax,DWORD PTR [ebp-0x20]
10000bff:	66 89 42 06          	mov    WORD PTR [edx+0x6],ax
10000c03:	8b 45 f4             	mov    eax,DWORD PTR [ebp-0xc]
10000c06:	8b 55 10             	mov    edx,DWORD PTR [ebp+0x10]
10000c09:	89 10                	mov    DWORD PTR [eax],edx
10000c0b:	8b 45 f4             	mov    eax,DWORD PTR [ebp-0xc]
10000c0e:	c6 40 14 00          	mov    BYTE PTR [eax+0x14],0x0
10000c12:	8b 45 f4             	mov    eax,DWORD PTR [ebp-0xc]
10000c15:	c9                   	leave  
10000c16:	c3                   	ret    

10000c17 <Context_clipped_rect>:
10000c17:	55                   	push   ebp
10000c18:	89 e5                	mov    ebp,esp
10000c1a:	83 ec 18             	sub    esp,0x18
10000c1d:	8b 55 0c             	mov    edx,DWORD PTR [ebp+0xc]
10000c20:	8b 45 14             	mov    eax,DWORD PTR [ebp+0x14]
10000c23:	01 d0                	add    eax,edx
10000c25:	89 45 f4             	mov    DWORD PTR [ebp-0xc],eax
10000c28:	8b 55 10             	mov    edx,DWORD PTR [ebp+0x10]
10000c2b:	8b 45 18             	mov    eax,DWORD PTR [ebp+0x18]
10000c2e:	01 d0                	add    eax,edx
10000c30:	89 45 f0             	mov    DWORD PTR [ebp-0x10],eax
10000c33:	8b 45 08             	mov    eax,DWORD PTR [ebp+0x8]
10000c36:	8b 40 08             	mov    eax,DWORD PTR [eax+0x8]
10000c39:	01 45 0c             	add    DWORD PTR [ebp+0xc],eax
10000c3c:	8b 45 08             	mov    eax,DWORD PTR [ebp+0x8]
10000c3f:	8b 40 0c             	mov    eax,DWORD PTR [eax+0xc]
10000c42:	01 45 10             	add    DWORD PTR [ebp+0x10],eax
10000c45:	8b 45 08             	mov    eax,DWORD PTR [ebp+0x8]
10000c48:	8b 40 08             	mov    eax,DWORD PTR [eax+0x8]
10000c4b:	01 45 f4             	add    DWORD PTR [ebp-0xc],eax
10000c4e:	8b 45 08             	mov    eax,DWORD PTR [ebp+0x8]
10000c51:	8b 40 0c             	mov    eax,DWORD PTR [eax+0xc]
10000c54:	01 45 f0             	add    DWORD PTR [ebp-0x10],eax
10000c57:	8b 45 1c             	mov    eax,DWORD PTR [ebp+0x1c]
10000c5a:	8b 40 04             	mov    eax,DWORD PTR [eax+0x4]
10000c5d:	39 45 0c             	cmp    DWORD PTR [ebp+0xc],eax
10000c60:	7d 09                	jge    10000c6b <Context_clipped_rect+0x54>
10000c62:	8b 45 1c             	mov    eax,DWORD PTR [ebp+0x1c]
10000c65:	8b 40 04             	mov    eax,DWORD PTR [eax+0x4]
10000c68:	89 45 0c             	mov    DWORD PTR [ebp+0xc],eax
10000c6b:	8b 45 1c             	mov    eax,DWORD PTR [ebp+0x1c]
10000c6e:	8b 00                	mov    eax,DWORD PTR [eax]
10000c70:	39 45 10             	cmp    DWORD PTR [ebp+0x10],eax
10000c73:	7d 08                	jge    10000c7d <Context_clipped_rect+0x66>
10000c75:	8b 45 1c             	mov    eax,DWORD PTR [ebp+0x1c]
10000c78:	8b 00                	mov    eax,DWORD PTR [eax]
10000c7a:	89 45 10             	mov    DWORD PTR [ebp+0x10],eax
10000c7d:	8b 45 1c             	mov    eax,DWORD PTR [ebp+0x1c]
10000c80:	8b 40 0c             	mov    eax,DWORD PTR [eax+0xc]
10000c83:	40                   	inc    eax
10000c84:	39 45 f4             	cmp    DWORD PTR [ebp-0xc],eax
10000c87:	7e 0a                	jle    10000c93 <Context_clipped_rect+0x7c>
10000c89:	8b 45 1c             	mov    eax,DWORD PTR [ebp+0x1c]
10000c8c:	8b 40 0c             	mov    eax,DWORD PTR [eax+0xc]
10000c8f:	40                   	inc    eax
10000c90:	89 45 f4             	mov    DWORD PTR [ebp-0xc],eax
10000c93:	8b 45 1c             	mov    eax,DWORD PTR [ebp+0x1c]
10000c96:	8b 40 08             	mov    eax,DWORD PTR [eax+0x8]
10000c99:	40                   	inc    eax
10000c9a:	39 45 f0             	cmp    DWORD PTR [ebp-0x10],eax
10000c9d:	7e 0a                	jle    10000ca9 <Context_clipped_rect+0x92>
10000c9f:	8b 45 1c             	mov    eax,DWORD PTR [ebp+0x1c]
10000ca2:	8b 40 08             	mov    eax,DWORD PTR [eax+0x8]
10000ca5:	40                   	inc    eax
10000ca6:	89 45 f0             	mov    DWORD PTR [ebp-0x10],eax
10000ca9:	83 ec 0c             	sub    esp,0xc
10000cac:	ff 75 20             	push   DWORD PTR [ebp+0x20]
10000caf:	ff 75 f0             	push   DWORD PTR [ebp-0x10]
10000cb2:	ff 75 f4             	push   DWORD PTR [ebp-0xc]
10000cb5:	ff 75 10             	push   DWORD PTR [ebp+0x10]
10000cb8:	ff 75 0c             	push   DWORD PTR [ebp+0xc]
10000cbb:	e8 fc ff ff ff       	call   10000cbc <Context_clipped_rect+0xa5>	10000cbc: R_386_PC32	screenputrect
10000cc0:	83 c4 20             	add    esp,0x20
10000cc3:	90                   	nop
10000cc4:	c9                   	leave  
10000cc5:	c3                   	ret    

10000cc6 <Context_fill_rect>:
10000cc6:	55                   	push   ebp
10000cc7:	89 e5                	mov    ebp,esp
10000cc9:	83 ec 28             	sub    esp,0x28
10000ccc:	8b 55 0c             	mov    edx,DWORD PTR [ebp+0xc]
10000ccf:	8b 45 14             	mov    eax,DWORD PTR [ebp+0x14]
10000cd2:	01 d0                	add    eax,edx
10000cd4:	89 45 f4             	mov    DWORD PTR [ebp-0xc],eax
10000cd7:	8b 55 10             	mov    edx,DWORD PTR [ebp+0x10]
10000cda:	8b 45 18             	mov    eax,DWORD PTR [ebp+0x18]
10000cdd:	01 d0                	add    eax,edx
10000cdf:	89 45 f0             	mov    DWORD PTR [ebp-0x10],eax
10000ce2:	8b 45 08             	mov    eax,DWORD PTR [ebp+0x8]
10000ce5:	8b 40 04             	mov    eax,DWORD PTR [eax+0x4]
10000ce8:	0f b7 c0             	movzx  eax,ax
10000ceb:	39 45 f4             	cmp    DWORD PTR [ebp-0xc],eax
10000cee:	7e 0c                	jle    10000cfc <Context_fill_rect+0x36>
10000cf0:	8b 45 08             	mov    eax,DWORD PTR [ebp+0x8]
10000cf3:	8b 40 04             	mov    eax,DWORD PTR [eax+0x4]
10000cf6:	0f b7 c0             	movzx  eax,ax
10000cf9:	89 45 f4             	mov    DWORD PTR [ebp-0xc],eax
10000cfc:	8b 45 08             	mov    eax,DWORD PTR [ebp+0x8]
10000cff:	66 8b 40 06          	mov    ax,WORD PTR [eax+0x6]
10000d03:	0f b7 c0             	movzx  eax,ax
10000d06:	39 45 f0             	cmp    DWORD PTR [ebp-0x10],eax
10000d09:	7e 0d                	jle    10000d18 <Context_fill_rect+0x52>
10000d0b:	8b 45 08             	mov    eax,DWORD PTR [ebp+0x8]
10000d0e:	66 8b 40 06          	mov    ax,WORD PTR [eax+0x6]
10000d12:	0f b7 c0             	movzx  eax,ax
10000d15:	89 45 f0             	mov    DWORD PTR [ebp-0x10],eax
10000d18:	83 7d 0c 00          	cmp    DWORD PTR [ebp+0xc],0x0
10000d1c:	79 07                	jns    10000d25 <Context_fill_rect+0x5f>
10000d1e:	c7 45 0c 00 00 00 00 	mov    DWORD PTR [ebp+0xc],0x0
10000d25:	83 7d 10 00          	cmp    DWORD PTR [ebp+0x10],0x0
10000d29:	79 07                	jns    10000d32 <Context_fill_rect+0x6c>
10000d2b:	c7 45 10 00 00 00 00 	mov    DWORD PTR [ebp+0x10],0x0
10000d32:	8b 45 f4             	mov    eax,DWORD PTR [ebp-0xc]
10000d35:	2b 45 0c             	sub    eax,DWORD PTR [ebp+0xc]
10000d38:	89 45 14             	mov    DWORD PTR [ebp+0x14],eax
10000d3b:	8b 45 f0             	mov    eax,DWORD PTR [ebp-0x10]
10000d3e:	2b 45 10             	sub    eax,DWORD PTR [ebp+0x10]
10000d41:	89 45 18             	mov    DWORD PTR [ebp+0x18],eax
10000d44:	8b 45 08             	mov    eax,DWORD PTR [ebp+0x8]
10000d47:	8b 40 10             	mov    eax,DWORD PTR [eax+0x10]
10000d4a:	8b 00                	mov    eax,DWORD PTR [eax]
10000d4c:	85 c0                	test   eax,eax
10000d4e:	74 56                	je     10000da6 <Context_fill_rect+0xe0>
10000d50:	c7 45 ec 00 00 00 00 	mov    DWORD PTR [ebp-0x14],0x0
10000d57:	eb 3c                	jmp    10000d95 <Context_fill_rect+0xcf>
10000d59:	8b 55 ec             	mov    edx,DWORD PTR [ebp-0x14]
10000d5c:	8b 45 08             	mov    eax,DWORD PTR [ebp+0x8]
10000d5f:	8b 40 10             	mov    eax,DWORD PTR [eax+0x10]
10000d62:	83 ec 08             	sub    esp,0x8
10000d65:	52                   	push   edx
10000d66:	50                   	push   eax
10000d67:	e8 fc ff ff ff       	call   10000d68 <Context_fill_rect+0xa2>	10000d68: R_386_PC32	List_get_at
10000d6c:	83 c4 10             	add    esp,0x10
10000d6f:	89 45 e8             	mov    DWORD PTR [ebp-0x18],eax
10000d72:	83 ec 04             	sub    esp,0x4
10000d75:	ff 75 1c             	push   DWORD PTR [ebp+0x1c]
10000d78:	ff 75 e8             	push   DWORD PTR [ebp-0x18]
10000d7b:	ff 75 18             	push   DWORD PTR [ebp+0x18]
10000d7e:	ff 75 14             	push   DWORD PTR [ebp+0x14]
10000d81:	ff 75 10             	push   DWORD PTR [ebp+0x10]
10000d84:	ff 75 0c             	push   DWORD PTR [ebp+0xc]
10000d87:	ff 75 08             	push   DWORD PTR [ebp+0x8]
10000d8a:	e8 fc ff ff ff       	call   10000d8b <Context_fill_rect+0xc5>	10000d8b: R_386_PC32	Context_clipped_rect
10000d8f:	83 c4 20             	add    esp,0x20
10000d92:	ff 45 ec             	inc    DWORD PTR [ebp-0x14]
10000d95:	8b 45 08             	mov    eax,DWORD PTR [ebp+0x8]
10000d98:	8b 40 10             	mov    eax,DWORD PTR [eax+0x10]
10000d9b:	8b 10                	mov    edx,DWORD PTR [eax]
10000d9d:	8b 45 ec             	mov    eax,DWORD PTR [ebp-0x14]
10000da0:	39 c2                	cmp    edx,eax
10000da2:	77 b5                	ja     10000d59 <Context_fill_rect+0x93>
10000da4:	eb 54                	jmp    10000dfa <Context_fill_rect+0x134>
10000da6:	8b 45 08             	mov    eax,DWORD PTR [ebp+0x8]
10000da9:	8a 40 14             	mov    al,BYTE PTR [eax+0x14]
10000dac:	84 c0                	test   al,al
10000dae:	75 4a                	jne    10000dfa <Context_fill_rect+0x134>
10000db0:	c7 45 d8 00 00 00 00 	mov    DWORD PTR [ebp-0x28],0x0
10000db7:	c7 45 dc 00 00 00 00 	mov    DWORD PTR [ebp-0x24],0x0
10000dbe:	8b 45 08             	mov    eax,DWORD PTR [ebp+0x8]
10000dc1:	66 8b 40 06          	mov    ax,WORD PTR [eax+0x6]
10000dc5:	0f b7 c0             	movzx  eax,ax
10000dc8:	48                   	dec    eax
10000dc9:	89 45 e0             	mov    DWORD PTR [ebp-0x20],eax
10000dcc:	8b 45 08             	mov    eax,DWORD PTR [ebp+0x8]
10000dcf:	8b 40 04             	mov    eax,DWORD PTR [eax+0x4]
10000dd2:	0f b7 c0             	movzx  eax,ax
10000dd5:	48                   	dec    eax
10000dd6:	89 45 e4             	mov    DWORD PTR [ebp-0x1c],eax
10000dd9:	83 ec 04             	sub    esp,0x4
10000ddc:	ff 75 1c             	push   DWORD PTR [ebp+0x1c]
10000ddf:	8d 45 d8             	lea    eax,[ebp-0x28]
10000de2:	50                   	push   eax
10000de3:	ff 75 18             	push   DWORD PTR [ebp+0x18]
10000de6:	ff 75 14             	push   DWORD PTR [ebp+0x14]
10000de9:	ff 75 10             	push   DWORD PTR [ebp+0x10]
10000dec:	ff 75 0c             	push   DWORD PTR [ebp+0xc]
10000def:	ff 75 08             	push   DWORD PTR [ebp+0x8]
10000df2:	e8 fc ff ff ff       	call   10000df3 <Context_fill_rect+0x12d>	10000df3: R_386_PC32	Context_clipped_rect
10000df7:	83 c4 20             	add    esp,0x20
10000dfa:	90                   	nop
10000dfb:	c9                   	leave  
10000dfc:	c3                   	ret    

10000dfd <Context_horizontal_line>:
10000dfd:	55                   	push   ebp
10000dfe:	89 e5                	mov    ebp,esp
10000e00:	83 ec 08             	sub    esp,0x8
10000e03:	83 ec 08             	sub    esp,0x8
10000e06:	ff 75 18             	push   DWORD PTR [ebp+0x18]
10000e09:	6a 01                	push   0x1
10000e0b:	ff 75 14             	push   DWORD PTR [ebp+0x14]
10000e0e:	ff 75 10             	push   DWORD PTR [ebp+0x10]
10000e11:	ff 75 0c             	push   DWORD PTR [ebp+0xc]
10000e14:	ff 75 08             	push   DWORD PTR [ebp+0x8]
10000e17:	e8 fc ff ff ff       	call   10000e18 <Context_horizontal_line+0x1b>	10000e18: R_386_PC32	Context_fill_rect
10000e1c:	83 c4 20             	add    esp,0x20
10000e1f:	90                   	nop
10000e20:	c9                   	leave  
10000e21:	c3                   	ret    

10000e22 <Context_vertical_line>:
10000e22:	55                   	push   ebp
10000e23:	89 e5                	mov    ebp,esp
10000e25:	83 ec 08             	sub    esp,0x8
10000e28:	83 ec 08             	sub    esp,0x8
10000e2b:	ff 75 18             	push   DWORD PTR [ebp+0x18]
10000e2e:	ff 75 14             	push   DWORD PTR [ebp+0x14]
10000e31:	6a 01                	push   0x1
10000e33:	ff 75 10             	push   DWORD PTR [ebp+0x10]
10000e36:	ff 75 0c             	push   DWORD PTR [ebp+0xc]
10000e39:	ff 75 08             	push   DWORD PTR [ebp+0x8]
10000e3c:	e8 fc ff ff ff       	call   10000e3d <Context_vertical_line+0x1b>	10000e3d: R_386_PC32	Context_fill_rect
10000e41:	83 c4 20             	add    esp,0x20
10000e44:	90                   	nop
10000e45:	c9                   	leave  
10000e46:	c3                   	ret    

10000e47 <Context_draw_rect>:
10000e47:	55                   	push   ebp
10000e48:	89 e5                	mov    ebp,esp
10000e4a:	53                   	push   ebx
10000e4b:	83 ec 04             	sub    esp,0x4
10000e4e:	83 ec 0c             	sub    esp,0xc
10000e51:	ff 75 1c             	push   DWORD PTR [ebp+0x1c]
10000e54:	ff 75 14             	push   DWORD PTR [ebp+0x14]
10000e57:	ff 75 10             	push   DWORD PTR [ebp+0x10]
10000e5a:	ff 75 0c             	push   DWORD PTR [ebp+0xc]
10000e5d:	ff 75 08             	push   DWORD PTR [ebp+0x8]
10000e60:	e8 fc ff ff ff       	call   10000e61 <Context_draw_rect+0x1a>	10000e61: R_386_PC32	Context_horizontal_line
10000e65:	83 c4 20             	add    esp,0x20
10000e68:	8b 45 18             	mov    eax,DWORD PTR [ebp+0x18]
10000e6b:	8d 50 fe             	lea    edx,[eax-0x2]
10000e6e:	8b 45 10             	mov    eax,DWORD PTR [ebp+0x10]
10000e71:	40                   	inc    eax
10000e72:	83 ec 0c             	sub    esp,0xc
10000e75:	ff 75 1c             	push   DWORD PTR [ebp+0x1c]
10000e78:	52                   	push   edx
10000e79:	50                   	push   eax
10000e7a:	ff 75 0c             	push   DWORD PTR [ebp+0xc]
10000e7d:	ff 75 08             	push   DWORD PTR [ebp+0x8]
10000e80:	e8 fc ff ff ff       	call   10000e81 <Context_draw_rect+0x3a>	10000e81: R_386_PC32	Context_vertical_line
10000e85:	83 c4 20             	add    esp,0x20
10000e88:	8b 55 10             	mov    edx,DWORD PTR [ebp+0x10]
10000e8b:	8b 45 18             	mov    eax,DWORD PTR [ebp+0x18]
10000e8e:	01 d0                	add    eax,edx
10000e90:	48                   	dec    eax
10000e91:	83 ec 0c             	sub    esp,0xc
10000e94:	ff 75 1c             	push   DWORD PTR [ebp+0x1c]
10000e97:	ff 75 14             	push   DWORD PTR [ebp+0x14]
10000e9a:	50                   	push   eax
10000e9b:	ff 75 0c             	push   DWORD PTR [ebp+0xc]
10000e9e:	ff 75 08             	push   DWORD PTR [ebp+0x8]
10000ea1:	e8 fc ff ff ff       	call   10000ea2 <Context_draw_rect+0x5b>	10000ea2: R_386_PC32	Context_horizontal_line
10000ea6:	83 c4 20             	add    esp,0x20
10000ea9:	8b 45 18             	mov    eax,DWORD PTR [ebp+0x18]
10000eac:	8d 48 fe             	lea    ecx,[eax-0x2]
10000eaf:	8b 45 10             	mov    eax,DWORD PTR [ebp+0x10]
10000eb2:	8d 50 01             	lea    edx,[eax+0x1]
10000eb5:	8b 5d 0c             	mov    ebx,DWORD PTR [ebp+0xc]
10000eb8:	8b 45 14             	mov    eax,DWORD PTR [ebp+0x14]
10000ebb:	01 d8                	add    eax,ebx
10000ebd:	48                   	dec    eax
10000ebe:	83 ec 0c             	sub    esp,0xc
10000ec1:	ff 75 1c             	push   DWORD PTR [ebp+0x1c]
10000ec4:	51                   	push   ecx
10000ec5:	52                   	push   edx
10000ec6:	50                   	push   eax
10000ec7:	ff 75 08             	push   DWORD PTR [ebp+0x8]
10000eca:	e8 fc ff ff ff       	call   10000ecb <Context_draw_rect+0x84>	10000ecb: R_386_PC32	Context_vertical_line
10000ecf:	83 c4 20             	add    esp,0x20
10000ed2:	90                   	nop
10000ed3:	8b 5d fc             	mov    ebx,DWORD PTR [ebp-0x4]
10000ed6:	c9                   	leave  
10000ed7:	c3                   	ret    

10000ed8 <Context_intersect_clip_rect>:
10000ed8:	55                   	push   ebp
10000ed9:	89 e5                	mov    ebp,esp
10000edb:	83 ec 18             	sub    esp,0x18
10000ede:	8b 45 08             	mov    eax,DWORD PTR [ebp+0x8]
10000ee1:	c6 40 14 01          	mov    BYTE PTR [eax+0x14],0x1
10000ee5:	e8 fc ff ff ff       	call   10000ee6 <Context_intersect_clip_rect+0xe>	10000ee6: R_386_PC32	List_new
10000eea:	89 45 f0             	mov    DWORD PTR [ebp-0x10],eax
10000eed:	83 7d f0 00          	cmp    DWORD PTR [ebp-0x10],0x0
10000ef1:	0f 84 b8 00 00 00    	je     10000faf <Context_intersect_clip_rect+0xd7>
10000ef7:	c7 45 f4 00 00 00 00 	mov    DWORD PTR [ebp-0xc],0x0
10000efe:	eb 47                	jmp    10000f47 <Context_intersect_clip_rect+0x6f>
10000f00:	8b 55 f4             	mov    edx,DWORD PTR [ebp-0xc]
10000f03:	8b 45 08             	mov    eax,DWORD PTR [ebp+0x8]
10000f06:	8b 40 10             	mov    eax,DWORD PTR [eax+0x10]
10000f09:	83 ec 08             	sub    esp,0x8
10000f0c:	52                   	push   edx
10000f0d:	50                   	push   eax
10000f0e:	e8 fc ff ff ff       	call   10000f0f <Context_intersect_clip_rect+0x37>	10000f0f: R_386_PC32	List_get_at
10000f13:	83 c4 10             	add    esp,0x10
10000f16:	89 45 ec             	mov    DWORD PTR [ebp-0x14],eax
10000f19:	83 ec 08             	sub    esp,0x8
10000f1c:	ff 75 0c             	push   DWORD PTR [ebp+0xc]
10000f1f:	ff 75 ec             	push   DWORD PTR [ebp-0x14]
10000f22:	e8 fc ff ff ff       	call   10000f23 <Context_intersect_clip_rect+0x4b>	10000f23: R_386_PC32	Rect_intersect
10000f27:	83 c4 10             	add    esp,0x10
10000f2a:	89 45 e8             	mov    DWORD PTR [ebp-0x18],eax
10000f2d:	83 7d e8 00          	cmp    DWORD PTR [ebp-0x18],0x0
10000f31:	74 11                	je     10000f44 <Context_intersect_clip_rect+0x6c>
10000f33:	83 ec 08             	sub    esp,0x8
10000f36:	ff 75 e8             	push   DWORD PTR [ebp-0x18]
10000f39:	ff 75 f0             	push   DWORD PTR [ebp-0x10]
10000f3c:	e8 fc ff ff ff       	call   10000f3d <Context_intersect_clip_rect+0x65>	10000f3d: R_386_PC32	List_add
10000f41:	83 c4 10             	add    esp,0x10
10000f44:	ff 45 f4             	inc    DWORD PTR [ebp-0xc]
10000f47:	8b 45 08             	mov    eax,DWORD PTR [ebp+0x8]
10000f4a:	8b 40 10             	mov    eax,DWORD PTR [eax+0x10]
10000f4d:	8b 10                	mov    edx,DWORD PTR [eax]
10000f4f:	8b 45 f4             	mov    eax,DWORD PTR [ebp-0xc]
10000f52:	39 c2                	cmp    edx,eax
10000f54:	77 aa                	ja     10000f00 <Context_intersect_clip_rect+0x28>
10000f56:	eb 20                	jmp    10000f78 <Context_intersect_clip_rect+0xa0>
10000f58:	8b 45 08             	mov    eax,DWORD PTR [ebp+0x8]
10000f5b:	8b 40 10             	mov    eax,DWORD PTR [eax+0x10]
10000f5e:	83 ec 08             	sub    esp,0x8
10000f61:	6a 00                	push   0x0
10000f63:	50                   	push   eax
10000f64:	e8 fc ff ff ff       	call   10000f65 <Context_intersect_clip_rect+0x8d>	10000f65: R_386_PC32	List_remove_at
10000f69:	83 c4 10             	add    esp,0x10
10000f6c:	83 ec 0c             	sub    esp,0xc
10000f6f:	50                   	push   eax
10000f70:	e8 fc ff ff ff       	call   10000f71 <Context_intersect_clip_rect+0x99>	10000f71: R_386_PC32	free
10000f75:	83 c4 10             	add    esp,0x10
10000f78:	8b 45 08             	mov    eax,DWORD PTR [ebp+0x8]
10000f7b:	8b 40 10             	mov    eax,DWORD PTR [eax+0x10]
10000f7e:	8b 00                	mov    eax,DWORD PTR [eax]
10000f80:	85 c0                	test   eax,eax
10000f82:	75 d4                	jne    10000f58 <Context_intersect_clip_rect+0x80>
10000f84:	8b 45 08             	mov    eax,DWORD PTR [ebp+0x8]
10000f87:	8b 40 10             	mov    eax,DWORD PTR [eax+0x10]
10000f8a:	83 ec 0c             	sub    esp,0xc
10000f8d:	50                   	push   eax
10000f8e:	e8 fc ff ff ff       	call   10000f8f <Context_intersect_clip_rect+0xb7>	10000f8f: R_386_PC32	free
10000f93:	83 c4 10             	add    esp,0x10
10000f96:	8b 45 08             	mov    eax,DWORD PTR [ebp+0x8]
10000f99:	8b 55 f0             	mov    edx,DWORD PTR [ebp-0x10]
10000f9c:	89 50 10             	mov    DWORD PTR [eax+0x10],edx
10000f9f:	83 ec 0c             	sub    esp,0xc
10000fa2:	ff 75 0c             	push   DWORD PTR [ebp+0xc]
10000fa5:	e8 fc ff ff ff       	call   10000fa6 <Context_intersect_clip_rect+0xce>	10000fa6: R_386_PC32	free
10000faa:	83 c4 10             	add    esp,0x10
10000fad:	eb 01                	jmp    10000fb0 <Context_intersect_clip_rect+0xd8>
10000faf:	90                   	nop
10000fb0:	c9                   	leave  
10000fb1:	c3                   	ret    

10000fb2 <Context_subtract_clip_rect>:
10000fb2:	55                   	push   ebp
10000fb3:	89 e5                	mov    ebp,esp
10000fb5:	83 ec 18             	sub    esp,0x18
10000fb8:	8b 45 08             	mov    eax,DWORD PTR [ebp+0x8]
10000fbb:	c6 40 14 01          	mov    BYTE PTR [eax+0x14],0x1
10000fbf:	c7 45 f4 00 00 00 00 	mov    DWORD PTR [ebp-0xc],0x0
10000fc6:	e9 df 00 00 00       	jmp    100010aa <Context_subtract_clip_rect+0xf8>
10000fcb:	8b 55 f4             	mov    edx,DWORD PTR [ebp-0xc]
10000fce:	8b 45 08             	mov    eax,DWORD PTR [ebp+0x8]
10000fd1:	8b 40 10             	mov    eax,DWORD PTR [eax+0x10]
10000fd4:	83 ec 08             	sub    esp,0x8
10000fd7:	52                   	push   edx
10000fd8:	50                   	push   eax
10000fd9:	e8 fc ff ff ff       	call   10000fda <Context_subtract_clip_rect+0x28>	10000fda: R_386_PC32	List_get_at
10000fde:	83 c4 10             	add    esp,0x10
10000fe1:	89 45 f0             	mov    DWORD PTR [ebp-0x10],eax
10000fe4:	8b 45 f0             	mov    eax,DWORD PTR [ebp-0x10]
10000fe7:	8b 50 04             	mov    edx,DWORD PTR [eax+0x4]
10000fea:	8b 45 0c             	mov    eax,DWORD PTR [ebp+0xc]
10000fed:	8b 40 0c             	mov    eax,DWORD PTR [eax+0xc]
10000ff0:	39 c2                	cmp    edx,eax
10000ff2:	7f 2e                	jg     10001022 <Context_subtract_clip_rect+0x70>
10000ff4:	8b 45 f0             	mov    eax,DWORD PTR [ebp-0x10]
10000ff7:	8b 50 0c             	mov    edx,DWORD PTR [eax+0xc]
10000ffa:	8b 45 0c             	mov    eax,DWORD PTR [ebp+0xc]
10000ffd:	8b 40 04             	mov    eax,DWORD PTR [eax+0x4]
10001000:	39 c2                	cmp    edx,eax
10001002:	7c 1e                	jl     10001022 <Context_subtract_clip_rect+0x70>
10001004:	8b 45 f0             	mov    eax,DWORD PTR [ebp-0x10]
10001007:	8b 10                	mov    edx,DWORD PTR [eax]
10001009:	8b 45 0c             	mov    eax,DWORD PTR [ebp+0xc]
1000100c:	8b 40 08             	mov    eax,DWORD PTR [eax+0x8]
1000100f:	39 c2                	cmp    edx,eax
10001011:	7f 0f                	jg     10001022 <Context_subtract_clip_rect+0x70>
10001013:	8b 45 f0             	mov    eax,DWORD PTR [ebp-0x10]
10001016:	8b 50 08             	mov    edx,DWORD PTR [eax+0x8]
10001019:	8b 45 0c             	mov    eax,DWORD PTR [ebp+0xc]
1000101c:	8b 00                	mov    eax,DWORD PTR [eax]
1000101e:	39 c2                	cmp    edx,eax
10001020:	7d 08                	jge    1000102a <Context_subtract_clip_rect+0x78>
10001022:	ff 45 f4             	inc    DWORD PTR [ebp-0xc]
10001025:	e9 80 00 00 00       	jmp    100010aa <Context_subtract_clip_rect+0xf8>
1000102a:	8b 55 f4             	mov    edx,DWORD PTR [ebp-0xc]
1000102d:	8b 45 08             	mov    eax,DWORD PTR [ebp+0x8]
10001030:	8b 40 10             	mov    eax,DWORD PTR [eax+0x10]
10001033:	83 ec 08             	sub    esp,0x8
10001036:	52                   	push   edx
10001037:	50                   	push   eax
10001038:	e8 fc ff ff ff       	call   10001039 <Context_subtract_clip_rect+0x87>	10001039: R_386_PC32	List_remove_at
1000103d:	83 c4 10             	add    esp,0x10
10001040:	83 ec 08             	sub    esp,0x8
10001043:	ff 75 0c             	push   DWORD PTR [ebp+0xc]
10001046:	ff 75 f0             	push   DWORD PTR [ebp-0x10]
10001049:	e8 fc ff ff ff       	call   1000104a <Context_subtract_clip_rect+0x98>	1000104a: R_386_PC32	Rect_split
1000104e:	83 c4 10             	add    esp,0x10
10001051:	89 45 ec             	mov    DWORD PTR [ebp-0x14],eax
10001054:	83 ec 0c             	sub    esp,0xc
10001057:	ff 75 f0             	push   DWORD PTR [ebp-0x10]
1000105a:	e8 fc ff ff ff       	call   1000105b <Context_subtract_clip_rect+0xa9>	1000105b: R_386_PC32	free
1000105f:	83 c4 10             	add    esp,0x10
10001062:	eb 28                	jmp    1000108c <Context_subtract_clip_rect+0xda>
10001064:	83 ec 08             	sub    esp,0x8
10001067:	6a 00                	push   0x0
10001069:	ff 75 ec             	push   DWORD PTR [ebp-0x14]
1000106c:	e8 fc ff ff ff       	call   1000106d <Context_subtract_clip_rect+0xbb>	1000106d: R_386_PC32	List_remove_at
10001071:	83 c4 10             	add    esp,0x10
10001074:	89 45 f0             	mov    DWORD PTR [ebp-0x10],eax
10001077:	8b 45 08             	mov    eax,DWORD PTR [ebp+0x8]
1000107a:	8b 40 10             	mov    eax,DWORD PTR [eax+0x10]
1000107d:	83 ec 08             	sub    esp,0x8
10001080:	ff 75 f0             	push   DWORD PTR [ebp-0x10]
10001083:	50                   	push   eax
10001084:	e8 fc ff ff ff       	call   10001085 <Context_subtract_clip_rect+0xd3>	10001085: R_386_PC32	List_add
10001089:	83 c4 10             	add    esp,0x10
1000108c:	8b 45 ec             	mov    eax,DWORD PTR [ebp-0x14]
1000108f:	8b 00                	mov    eax,DWORD PTR [eax]
10001091:	85 c0                	test   eax,eax
10001093:	75 cf                	jne    10001064 <Context_subtract_clip_rect+0xb2>
10001095:	83 ec 0c             	sub    esp,0xc
10001098:	ff 75 ec             	push   DWORD PTR [ebp-0x14]
1000109b:	e8 fc ff ff ff       	call   1000109c <Context_subtract_clip_rect+0xea>	1000109c: R_386_PC32	free
100010a0:	83 c4 10             	add    esp,0x10
100010a3:	c7 45 f4 00 00 00 00 	mov    DWORD PTR [ebp-0xc],0x0
100010aa:	8b 45 08             	mov    eax,DWORD PTR [ebp+0x8]
100010ad:	8b 40 10             	mov    eax,DWORD PTR [eax+0x10]
100010b0:	8b 10                	mov    edx,DWORD PTR [eax]
100010b2:	8b 45 f4             	mov    eax,DWORD PTR [ebp-0xc]
100010b5:	39 c2                	cmp    edx,eax
100010b7:	0f 87 0e ff ff ff    	ja     10000fcb <Context_subtract_clip_rect+0x19>
100010bd:	90                   	nop
100010be:	c9                   	leave  
100010bf:	c3                   	ret    

100010c0 <Context_add_clip_rect>:
100010c0:	55                   	push   ebp
100010c1:	89 e5                	mov    ebp,esp
100010c3:	83 ec 08             	sub    esp,0x8
100010c6:	83 ec 08             	sub    esp,0x8
100010c9:	ff 75 0c             	push   DWORD PTR [ebp+0xc]
100010cc:	ff 75 08             	push   DWORD PTR [ebp+0x8]
100010cf:	e8 fc ff ff ff       	call   100010d0 <Context_add_clip_rect+0x10>	100010d0: R_386_PC32	Context_subtract_clip_rect
100010d4:	83 c4 10             	add    esp,0x10
100010d7:	8b 45 08             	mov    eax,DWORD PTR [ebp+0x8]
100010da:	8b 40 10             	mov    eax,DWORD PTR [eax+0x10]
100010dd:	83 ec 08             	sub    esp,0x8
100010e0:	ff 75 0c             	push   DWORD PTR [ebp+0xc]
100010e3:	50                   	push   eax
100010e4:	e8 fc ff ff ff       	call   100010e5 <Context_add_clip_rect+0x25>	100010e5: R_386_PC32	List_add
100010e9:	83 c4 10             	add    esp,0x10
100010ec:	90                   	nop
100010ed:	c9                   	leave  
100010ee:	c3                   	ret    

100010ef <Context_clear_clip_rects>:
100010ef:	55                   	push   ebp
100010f0:	89 e5                	mov    ebp,esp
100010f2:	83 ec 18             	sub    esp,0x18
100010f5:	8b 45 08             	mov    eax,DWORD PTR [ebp+0x8]
100010f8:	c6 40 14 00          	mov    BYTE PTR [eax+0x14],0x0
100010fc:	eb 25                	jmp    10001123 <Context_clear_clip_rects+0x34>
100010fe:	8b 45 08             	mov    eax,DWORD PTR [ebp+0x8]
10001101:	8b 40 10             	mov    eax,DWORD PTR [eax+0x10]
10001104:	83 ec 08             	sub    esp,0x8
10001107:	6a 00                	push   0x0
10001109:	50                   	push   eax
1000110a:	e8 fc ff ff ff       	call   1000110b <Context_clear_clip_rects+0x1c>	1000110b: R_386_PC32	List_remove_at
1000110f:	83 c4 10             	add    esp,0x10
10001112:	89 45 f4             	mov    DWORD PTR [ebp-0xc],eax
10001115:	83 ec 0c             	sub    esp,0xc
10001118:	ff 75 f4             	push   DWORD PTR [ebp-0xc]
1000111b:	e8 fc ff ff ff       	call   1000111c <Context_clear_clip_rects+0x2d>	1000111c: R_386_PC32	free
10001120:	83 c4 10             	add    esp,0x10
10001123:	8b 45 08             	mov    eax,DWORD PTR [ebp+0x8]
10001126:	8b 40 10             	mov    eax,DWORD PTR [eax+0x10]
10001129:	8b 00                	mov    eax,DWORD PTR [eax]
1000112b:	85 c0                	test   eax,eax
1000112d:	75 cf                	jne    100010fe <Context_clear_clip_rects+0xf>
1000112f:	90                   	nop
10001130:	c9                   	leave  
10001131:	c3                   	ret    

10001132 <reverse>:
10001132:	55                   	push   ebp
10001133:	89 e5                	mov    ebp,esp
10001135:	83 ec 04             	sub    esp,0x4
10001138:	8b 45 08             	mov    eax,DWORD PTR [ebp+0x8]
1000113b:	88 45 fc             	mov    BYTE PTR [ebp-0x4],al
1000113e:	8a 45 fc             	mov    al,BYTE PTR [ebp-0x4]
10001141:	c0 e8 04             	shr    al,0x4
10001144:	88 c2                	mov    dl,al
10001146:	0f b6 45 fc          	movzx  eax,BYTE PTR [ebp-0x4]
1000114a:	c1 e0 04             	shl    eax,0x4
1000114d:	09 d0                	or     eax,edx
1000114f:	88 45 fc             	mov    BYTE PTR [ebp-0x4],al
10001152:	0f b6 45 fc          	movzx  eax,BYTE PTR [ebp-0x4]
10001156:	c1 f8 02             	sar    eax,0x2
10001159:	83 e0 33             	and    eax,0x33
1000115c:	88 c2                	mov    dl,al
1000115e:	0f b6 45 fc          	movzx  eax,BYTE PTR [ebp-0x4]
10001162:	c1 e0 02             	shl    eax,0x2
10001165:	83 e0 cc             	and    eax,0xffffffcc
10001168:	09 d0                	or     eax,edx
1000116a:	88 45 fc             	mov    BYTE PTR [ebp-0x4],al
1000116d:	0f b6 45 fc          	movzx  eax,BYTE PTR [ebp-0x4]
10001171:	d1 f8                	sar    eax,1
10001173:	83 e0 55             	and    eax,0x55
10001176:	88 c2                	mov    dl,al
10001178:	0f b6 45 fc          	movzx  eax,BYTE PTR [ebp-0x4]
1000117c:	01 c0                	add    eax,eax
1000117e:	83 e0 aa             	and    eax,0xffffffaa
10001181:	09 d0                	or     eax,edx
10001183:	88 45 fc             	mov    BYTE PTR [ebp-0x4],al
10001186:	8a 45 fc             	mov    al,BYTE PTR [ebp-0x4]
10001189:	c9                   	leave  
1000118a:	c3                   	ret    

1000118b <loadbuiltinfonts>:
1000118b:	55                   	push   ebp
1000118c:	89 e5                	mov    ebp,esp
1000118e:	57                   	push   edi
1000118f:	56                   	push   esi
10001190:	53                   	push   ebx
10001191:	83 ec 10             	sub    esp,0x10
10001194:	ba 00 00 00 00       	mov    edx,0x0	10001195: R_386_32	FONT
10001199:	bb 00 00 00 00       	mov    ebx,0x0	1000119a: R_386_32	systemFontBuiltin
1000119e:	b8 04 04 00 00       	mov    eax,0x404
100011a3:	89 d7                	mov    edi,edx
100011a5:	89 de                	mov    esi,ebx
100011a7:	89 c1                	mov    ecx,eax
100011a9:	f3 a5                	rep movs DWORD PTR es:[edi],DWORD PTR ds:[esi]
100011ab:	c7 45 f0 20 00 00 00 	mov    DWORD PTR [ebp-0x10],0x20
100011b2:	eb 73                	jmp    10001227 <loadbuiltinfonts+0x9c>
100011b4:	8b 45 f0             	mov    eax,DWORD PTR [ebp-0x10]
100011b7:	40                   	inc    eax
100011b8:	c1 e0 04             	shl    eax,0x4
100011bb:	05 00 00 00 00       	add    eax,0x0	100011bc: R_386_32	FONT
100011c0:	8a 00                	mov    al,BYTE PTR [eax]
100011c2:	88 45 eb             	mov    BYTE PTR [ebp-0x15],al
100011c5:	0f be 45 eb          	movsx  eax,BYTE PTR [ebp-0x15]
100011c9:	8b 55 f0             	mov    edx,DWORD PTR [ebp-0x10]
100011cc:	42                   	inc    edx
100011cd:	c1 e2 04             	shl    edx,0x4
100011d0:	81 c2 0f 00 00 00    	add    edx,0xf	100011d2: R_386_32	FONT
100011d6:	8a 12                	mov    dl,BYTE PTR [edx]
100011d8:	88 90 00 00 00 00    	mov    BYTE PTR [eax+0x0],dl	100011da: R_386_32	FontWidths
100011de:	c7 45 ec 00 00 00 00 	mov    DWORD PTR [ebp-0x14],0x0
100011e5:	eb 37                	jmp    1000121e <loadbuiltinfonts+0x93>
100011e7:	8b 45 f0             	mov    eax,DWORD PTR [ebp-0x10]
100011ea:	c1 e0 04             	shl    eax,0x4
100011ed:	89 c2                	mov    edx,eax
100011ef:	8b 45 ec             	mov    eax,DWORD PTR [ebp-0x14]
100011f2:	01 d0                	add    eax,edx
100011f4:	05 11 00 00 00       	add    eax,0x11	100011f5: R_386_32	FONT
100011f9:	8a 00                	mov    al,BYTE PTR [eax]
100011fb:	0f be 4d eb          	movsx  ecx,BYTE PTR [ebp-0x15]
100011ff:	0f b6 d0             	movzx  edx,al
10001202:	89 c8                	mov    eax,ecx
10001204:	01 c0                	add    eax,eax
10001206:	01 c8                	add    eax,ecx
10001208:	01 c0                	add    eax,eax
1000120a:	01 c8                	add    eax,ecx
1000120c:	01 c0                	add    eax,eax
1000120e:	8b 4d ec             	mov    ecx,DWORD PTR [ebp-0x14]
10001211:	01 c8                	add    eax,ecx
10001213:	66 89 94 00 00 00 00 00 	mov    WORD PTR [eax+eax*1+0x0],dx	10001217: R_386_32	Fonts
1000121b:	ff 45 ec             	inc    DWORD PTR [ebp-0x14]
1000121e:	83 7d ec 0d          	cmp    DWORD PTR [ebp-0x14],0xd
10001222:	7e c3                	jle    100011e7 <loadbuiltinfonts+0x5c>
10001224:	ff 45 f0             	inc    DWORD PTR [ebp-0x10]
10001227:	83 7d f0 7f          	cmp    DWORD PTR [ebp-0x10],0x7f
1000122b:	7e 87                	jle    100011b4 <loadbuiltinfonts+0x29>
1000122d:	c7 05 00 00 00 00 00 00 00 00 	mov    DWORD PTR ds:0x0,0x0	1000122f: R_386_32	System
10001237:	90                   	nop
10001238:	83 c4 10             	add    esp,0x10
1000123b:	5b                   	pop    ebx
1000123c:	5e                   	pop    esi
1000123d:	5f                   	pop    edi
1000123e:	5d                   	pop    ebp
1000123f:	c3                   	ret    

10001240 <Context_draw_char_clipped>:
10001240:	55                   	push   ebp
10001241:	89 e5                	mov    ebp,esp
10001243:	83 ec 38             	sub    esp,0x38
10001246:	8b 45 0c             	mov    eax,DWORD PTR [ebp+0xc]
10001249:	88 45 d4             	mov    BYTE PTR [ebp-0x2c],al
1000124c:	c7 45 ec 00 00 00 00 	mov    DWORD PTR [ebp-0x14],0x0
10001253:	c7 45 e8 00 00 00 00 	mov    DWORD PTR [ebp-0x18],0x0
1000125a:	8b 15 00 00 00 00    	mov    edx,DWORD PTR ds:0x0	1000125c: R_386_32	System
10001260:	0f be 4d d4          	movsx  ecx,BYTE PTR [ebp-0x2c]
10001264:	89 d0                	mov    eax,edx
10001266:	c1 e0 08             	shl    eax,0x8
10001269:	29 d0                	sub    eax,edx
1000126b:	01 c8                	add    eax,ecx
1000126d:	05 00 00 00 00       	add    eax,0x0	1000126e: R_386_32	FontWidths
10001272:	8a 00                	mov    al,BYTE PTR [eax]
10001274:	0f b6 c0             	movzx  eax,al
10001277:	89 45 e4             	mov    DWORD PTR [ebp-0x1c],eax
1000127a:	c7 45 e0 0e 00 00 00 	mov    DWORD PTR [ebp-0x20],0xe
10001281:	8b 45 08             	mov    eax,DWORD PTR [ebp+0x8]
10001284:	8b 40 08             	mov    eax,DWORD PTR [eax+0x8]
10001287:	01 45 10             	add    DWORD PTR [ebp+0x10],eax
1000128a:	8b 45 08             	mov    eax,DWORD PTR [ebp+0x8]
1000128d:	8b 40 0c             	mov    eax,DWORD PTR [eax+0xc]
10001290:	01 45 14             	add    DWORD PTR [ebp+0x14],eax
10001293:	80 65 d4 7f          	and    BYTE PTR [ebp-0x2c],0x7f
10001297:	8b 45 1c             	mov    eax,DWORD PTR [ebp+0x1c]
1000129a:	8b 40 0c             	mov    eax,DWORD PTR [eax+0xc]
1000129d:	39 45 10             	cmp    DWORD PTR [ebp+0x10],eax
100012a0:	0f 8f 4c 01 00 00    	jg     100013f2 <Context_draw_char_clipped+0x1b2>
100012a6:	8b 55 10             	mov    edx,DWORD PTR [ebp+0x10]
100012a9:	8b 45 e4             	mov    eax,DWORD PTR [ebp-0x1c]
100012ac:	01 c2                	add    edx,eax
100012ae:	8b 45 1c             	mov    eax,DWORD PTR [ebp+0x1c]
100012b1:	8b 40 04             	mov    eax,DWORD PTR [eax+0x4]
100012b4:	39 c2                	cmp    edx,eax
100012b6:	0f 8e 36 01 00 00    	jle    100013f2 <Context_draw_char_clipped+0x1b2>
100012bc:	8b 45 1c             	mov    eax,DWORD PTR [ebp+0x1c]
100012bf:	8b 40 08             	mov    eax,DWORD PTR [eax+0x8]
100012c2:	39 45 14             	cmp    DWORD PTR [ebp+0x14],eax
100012c5:	0f 8f 27 01 00 00    	jg     100013f2 <Context_draw_char_clipped+0x1b2>
100012cb:	8b 55 14             	mov    edx,DWORD PTR [ebp+0x14]
100012ce:	8b 45 e0             	mov    eax,DWORD PTR [ebp-0x20]
100012d1:	01 c2                	add    edx,eax
100012d3:	8b 45 1c             	mov    eax,DWORD PTR [ebp+0x1c]
100012d6:	8b 00                	mov    eax,DWORD PTR [eax]
100012d8:	39 c2                	cmp    edx,eax
100012da:	0f 8e 12 01 00 00    	jle    100013f2 <Context_draw_char_clipped+0x1b2>
100012e0:	8b 45 1c             	mov    eax,DWORD PTR [ebp+0x1c]
100012e3:	8b 40 04             	mov    eax,DWORD PTR [eax+0x4]
100012e6:	39 45 10             	cmp    DWORD PTR [ebp+0x10],eax
100012e9:	7d 0c                	jge    100012f7 <Context_draw_char_clipped+0xb7>
100012eb:	8b 45 1c             	mov    eax,DWORD PTR [ebp+0x1c]
100012ee:	8b 40 04             	mov    eax,DWORD PTR [eax+0x4]
100012f1:	2b 45 10             	sub    eax,DWORD PTR [ebp+0x10]
100012f4:	89 45 ec             	mov    DWORD PTR [ebp-0x14],eax
100012f7:	8b 55 10             	mov    edx,DWORD PTR [ebp+0x10]
100012fa:	8b 45 e4             	mov    eax,DWORD PTR [ebp-0x1c]
100012fd:	01 c2                	add    edx,eax
100012ff:	8b 45 1c             	mov    eax,DWORD PTR [ebp+0x1c]
10001302:	8b 40 0c             	mov    eax,DWORD PTR [eax+0xc]
10001305:	39 c2                	cmp    edx,eax
10001307:	7e 0d                	jle    10001316 <Context_draw_char_clipped+0xd6>
10001309:	8b 45 1c             	mov    eax,DWORD PTR [ebp+0x1c]
1000130c:	8b 40 0c             	mov    eax,DWORD PTR [eax+0xc]
1000130f:	2b 45 10             	sub    eax,DWORD PTR [ebp+0x10]
10001312:	40                   	inc    eax
10001313:	89 45 e4             	mov    DWORD PTR [ebp-0x1c],eax
10001316:	8b 45 1c             	mov    eax,DWORD PTR [ebp+0x1c]
10001319:	8b 00                	mov    eax,DWORD PTR [eax]
1000131b:	39 45 14             	cmp    DWORD PTR [ebp+0x14],eax
1000131e:	7d 0b                	jge    1000132b <Context_draw_char_clipped+0xeb>
10001320:	8b 45 1c             	mov    eax,DWORD PTR [ebp+0x1c]
10001323:	8b 00                	mov    eax,DWORD PTR [eax]
10001325:	2b 45 14             	sub    eax,DWORD PTR [ebp+0x14]
10001328:	89 45 e8             	mov    DWORD PTR [ebp-0x18],eax
1000132b:	8b 55 14             	mov    edx,DWORD PTR [ebp+0x14]
1000132e:	8b 45 e0             	mov    eax,DWORD PTR [ebp-0x20]
10001331:	01 c2                	add    edx,eax
10001333:	8b 45 1c             	mov    eax,DWORD PTR [ebp+0x1c]
10001336:	8b 40 08             	mov    eax,DWORD PTR [eax+0x8]
10001339:	39 c2                	cmp    edx,eax
1000133b:	7e 0d                	jle    1000134a <Context_draw_char_clipped+0x10a>
1000133d:	8b 45 1c             	mov    eax,DWORD PTR [ebp+0x1c]
10001340:	8b 40 08             	mov    eax,DWORD PTR [eax+0x8]
10001343:	2b 45 14             	sub    eax,DWORD PTR [ebp+0x14]
10001346:	40                   	inc    eax
10001347:	89 45 e0             	mov    DWORD PTR [ebp-0x20],eax
1000134a:	8b 45 e8             	mov    eax,DWORD PTR [ebp-0x18]
1000134d:	89 45 f0             	mov    DWORD PTR [ebp-0x10],eax
10001350:	e9 8f 00 00 00       	jmp    100013e4 <Context_draw_char_clipped+0x1a4>
10001355:	8b 0d 00 00 00 00    	mov    ecx,DWORD PTR ds:0x0	10001357: R_386_32	System
1000135b:	0f be 55 d4          	movsx  edx,BYTE PTR [ebp-0x2c]
1000135f:	89 d0                	mov    eax,edx
10001361:	01 c0                	add    eax,eax
10001363:	01 d0                	add    eax,edx
10001365:	01 c0                	add    eax,eax
10001367:	01 d0                	add    eax,edx
10001369:	01 c0                	add    eax,eax
1000136b:	89 ca                	mov    edx,ecx
1000136d:	01 d2                	add    edx,edx
1000136f:	01 ca                	add    edx,ecx
10001371:	01 d2                	add    edx,edx
10001373:	01 ca                	add    edx,ecx
10001375:	89 d1                	mov    ecx,edx
10001377:	c1 e1 08             	shl    ecx,0x8
1000137a:	29 d1                	sub    ecx,edx
1000137c:	8d 14 09             	lea    edx,[ecx+ecx*1]
1000137f:	89 d1                	mov    ecx,edx
10001381:	8d 14 08             	lea    edx,[eax+ecx*1]
10001384:	8b 45 f0             	mov    eax,DWORD PTR [ebp-0x10]
10001387:	01 d0                	add    eax,edx
10001389:	66 8b 84 00 00 00 00 00 	mov    ax,WORD PTR [eax+eax*1+0x0]	1000138d: R_386_32	Fonts
10001391:	88 45 df             	mov    BYTE PTR [ebp-0x21],al
10001394:	0f b6 55 df          	movzx  edx,BYTE PTR [ebp-0x21]
10001398:	8b 45 ec             	mov    eax,DWORD PTR [ebp-0x14]
1000139b:	88 c1                	mov    cl,al
1000139d:	d3 e2                	shl    edx,cl
1000139f:	89 d0                	mov    eax,edx
100013a1:	88 45 df             	mov    BYTE PTR [ebp-0x21],al
100013a4:	8b 45 ec             	mov    eax,DWORD PTR [ebp-0x14]
100013a7:	89 45 f4             	mov    DWORD PTR [ebp-0xc],eax
100013aa:	eb 2d                	jmp    100013d9 <Context_draw_char_clipped+0x199>
100013ac:	8a 45 df             	mov    al,BYTE PTR [ebp-0x21]
100013af:	84 c0                	test   al,al
100013b1:	79 20                	jns    100013d3 <Context_draw_char_clipped+0x193>
100013b3:	8b 55 f0             	mov    edx,DWORD PTR [ebp-0x10]
100013b6:	8b 45 14             	mov    eax,DWORD PTR [ebp+0x14]
100013b9:	01 c2                	add    edx,eax
100013bb:	8b 4d f4             	mov    ecx,DWORD PTR [ebp-0xc]
100013be:	8b 45 10             	mov    eax,DWORD PTR [ebp+0x10]
100013c1:	01 c8                	add    eax,ecx
100013c3:	83 ec 04             	sub    esp,0x4
100013c6:	ff 75 18             	push   DWORD PTR [ebp+0x18]
100013c9:	52                   	push   edx
100013ca:	50                   	push   eax
100013cb:	e8 fc ff ff ff       	call   100013cc <Context_draw_char_clipped+0x18c>	100013cc: R_386_PC32	screenputpixel
100013d0:	83 c4 10             	add    esp,0x10
100013d3:	d0 65 df             	shl    BYTE PTR [ebp-0x21],1
100013d6:	ff 45 f4             	inc    DWORD PTR [ebp-0xc]
100013d9:	8b 45 f4             	mov    eax,DWORD PTR [ebp-0xc]
100013dc:	3b 45 e4             	cmp    eax,DWORD PTR [ebp-0x1c]
100013df:	7c cb                	jl     100013ac <Context_draw_char_clipped+0x16c>
100013e1:	ff 45 f0             	inc    DWORD PTR [ebp-0x10]
100013e4:	8b 45 f0             	mov    eax,DWORD PTR [ebp-0x10]
100013e7:	3b 45 e0             	cmp    eax,DWORD PTR [ebp-0x20]
100013ea:	0f 8c 65 ff ff ff    	jl     10001355 <Context_draw_char_clipped+0x115>
100013f0:	eb 01                	jmp    100013f3 <Context_draw_char_clipped+0x1b3>
100013f2:	90                   	nop
100013f3:	c9                   	leave  
100013f4:	c3                   	ret    

100013f5 <Context_draw_char>:
100013f5:	55                   	push   ebp
100013f6:	89 e5                	mov    ebp,esp
100013f8:	83 ec 38             	sub    esp,0x38
100013fb:	8b 45 0c             	mov    eax,DWORD PTR [ebp+0xc]
100013fe:	88 45 d4             	mov    BYTE PTR [ebp-0x2c],al
10001401:	8b 45 08             	mov    eax,DWORD PTR [ebp+0x8]
10001404:	8b 40 10             	mov    eax,DWORD PTR [eax+0x10]
10001407:	8b 00                	mov    eax,DWORD PTR [eax]
10001409:	85 c0                	test   eax,eax
1000140b:	74 55                	je     10001462 <Context_draw_char+0x6d>
1000140d:	c7 45 f4 00 00 00 00 	mov    DWORD PTR [ebp-0xc],0x0
10001414:	eb 3b                	jmp    10001451 <Context_draw_char+0x5c>
10001416:	8b 55 f4             	mov    edx,DWORD PTR [ebp-0xc]
10001419:	8b 45 08             	mov    eax,DWORD PTR [ebp+0x8]
1000141c:	8b 40 10             	mov    eax,DWORD PTR [eax+0x10]
1000141f:	83 ec 08             	sub    esp,0x8
10001422:	52                   	push   edx
10001423:	50                   	push   eax
10001424:	e8 fc ff ff ff       	call   10001425 <Context_draw_char+0x30>	10001425: R_386_PC32	List_get_at
10001429:	83 c4 10             	add    esp,0x10
1000142c:	89 45 f0             	mov    DWORD PTR [ebp-0x10],eax
1000142f:	0f be 45 d4          	movsx  eax,BYTE PTR [ebp-0x2c]
10001433:	83 ec 08             	sub    esp,0x8
10001436:	ff 75 f0             	push   DWORD PTR [ebp-0x10]
10001439:	ff 75 18             	push   DWORD PTR [ebp+0x18]
1000143c:	ff 75 14             	push   DWORD PTR [ebp+0x14]
1000143f:	ff 75 10             	push   DWORD PTR [ebp+0x10]
10001442:	50                   	push   eax
10001443:	ff 75 08             	push   DWORD PTR [ebp+0x8]
10001446:	e8 fc ff ff ff       	call   10001447 <Context_draw_char+0x52>	10001447: R_386_PC32	Context_draw_char_clipped
1000144b:	83 c4 20             	add    esp,0x20
1000144e:	ff 45 f4             	inc    DWORD PTR [ebp-0xc]
10001451:	8b 45 08             	mov    eax,DWORD PTR [ebp+0x8]
10001454:	8b 40 10             	mov    eax,DWORD PTR [eax+0x10]
10001457:	8b 10                	mov    edx,DWORD PTR [eax]
10001459:	8b 45 f4             	mov    eax,DWORD PTR [ebp-0xc]
1000145c:	39 c2                	cmp    edx,eax
1000145e:	77 b6                	ja     10001416 <Context_draw_char+0x21>
10001460:	eb 52                	jmp    100014b4 <Context_draw_char+0xbf>
10001462:	8b 45 08             	mov    eax,DWORD PTR [ebp+0x8]
10001465:	8a 40 14             	mov    al,BYTE PTR [eax+0x14]
10001468:	84 c0                	test   al,al
1000146a:	75 48                	jne    100014b4 <Context_draw_char+0xbf>
1000146c:	c7 45 e0 00 00 00 00 	mov    DWORD PTR [ebp-0x20],0x0
10001473:	c7 45 e4 00 00 00 00 	mov    DWORD PTR [ebp-0x1c],0x0
1000147a:	8b 45 08             	mov    eax,DWORD PTR [ebp+0x8]
1000147d:	66 8b 40 06          	mov    ax,WORD PTR [eax+0x6]
10001481:	0f b7 c0             	movzx  eax,ax
10001484:	48                   	dec    eax
10001485:	89 45 e8             	mov    DWORD PTR [ebp-0x18],eax
10001488:	8b 45 08             	mov    eax,DWORD PTR [ebp+0x8]
1000148b:	8b 40 04             	mov    eax,DWORD PTR [eax+0x4]
1000148e:	0f b7 c0             	movzx  eax,ax
10001491:	48                   	dec    eax
10001492:	89 45 ec             	mov    DWORD PTR [ebp-0x14],eax
10001495:	0f be 45 d4          	movsx  eax,BYTE PTR [ebp-0x2c]
10001499:	83 ec 08             	sub    esp,0x8
1000149c:	ff 75 f0             	push   DWORD PTR [ebp-0x10]
1000149f:	ff 75 18             	push   DWORD PTR [ebp+0x18]
100014a2:	ff 75 14             	push   DWORD PTR [ebp+0x14]
100014a5:	ff 75 10             	push   DWORD PTR [ebp+0x10]
100014a8:	50                   	push   eax
100014a9:	ff 75 08             	push   DWORD PTR [ebp+0x8]
100014ac:	e8 fc ff ff ff       	call   100014ad <Context_draw_char+0xb8>	100014ad: R_386_PC32	Context_draw_char_clipped
100014b1:	83 c4 20             	add    esp,0x20
100014b4:	8b 15 00 00 00 00    	mov    edx,DWORD PTR ds:0x0	100014b6: R_386_32	System
100014ba:	0f be 4d d4          	movsx  ecx,BYTE PTR [ebp-0x2c]
100014be:	89 d0                	mov    eax,edx
100014c0:	c1 e0 08             	shl    eax,0x8
100014c3:	29 d0                	sub    eax,edx
100014c5:	01 c8                	add    eax,ecx
100014c7:	05 00 00 00 00       	add    eax,0x0	100014c8: R_386_32	FontWidths
100014cc:	8a 00                	mov    al,BYTE PTR [eax]
100014ce:	0f b6 c0             	movzx  eax,al
100014d1:	c9                   	leave  
100014d2:	c3                   	ret    

100014d3 <Context_draw_text>:
100014d3:	55                   	push   ebp
100014d4:	89 e5                	mov    ebp,esp
100014d6:	83 ec 08             	sub    esp,0x8
100014d9:	eb 5a                	jmp    10001535 <Context_draw_text+0x62>
100014db:	8b 45 1c             	mov    eax,DWORD PTR [ebp+0x1c]
100014de:	83 e0 01             	and    eax,0x1
100014e1:	85 c0                	test   eax,eax
100014e3:	74 27                	je     1000150c <Context_draw_text+0x39>
100014e5:	8b 45 10             	mov    eax,DWORD PTR [ebp+0x10]
100014e8:	8d 50 01             	lea    edx,[eax+0x1]
100014eb:	89 55 10             	mov    DWORD PTR [ebp+0x10],edx
100014ee:	8b 55 0c             	mov    edx,DWORD PTR [ebp+0xc]
100014f1:	8a 12                	mov    dl,BYTE PTR [edx]
100014f3:	0f be d2             	movsx  edx,dl
100014f6:	83 ec 0c             	sub    esp,0xc
100014f9:	ff 75 18             	push   DWORD PTR [ebp+0x18]
100014fc:	ff 75 14             	push   DWORD PTR [ebp+0x14]
100014ff:	50                   	push   eax
10001500:	52                   	push   edx
10001501:	ff 75 08             	push   DWORD PTR [ebp+0x8]
10001504:	e8 fc ff ff ff       	call   10001505 <Context_draw_text+0x32>	10001505: R_386_PC32	Context_draw_char
10001509:	83 c4 20             	add    esp,0x20
1000150c:	8b 45 0c             	mov    eax,DWORD PTR [ebp+0xc]
1000150f:	8d 50 01             	lea    edx,[eax+0x1]
10001512:	89 55 0c             	mov    DWORD PTR [ebp+0xc],edx
10001515:	8a 00                	mov    al,BYTE PTR [eax]
10001517:	0f be c0             	movsx  eax,al
1000151a:	83 ec 0c             	sub    esp,0xc
1000151d:	ff 75 18             	push   DWORD PTR [ebp+0x18]
10001520:	ff 75 14             	push   DWORD PTR [ebp+0x14]
10001523:	ff 75 10             	push   DWORD PTR [ebp+0x10]
10001526:	50                   	push   eax
10001527:	ff 75 08             	push   DWORD PTR [ebp+0x8]
1000152a:	e8 fc ff ff ff       	call   1000152b <Context_draw_text+0x58>	1000152b: R_386_PC32	Context_draw_char
1000152f:	83 c4 20             	add    esp,0x20
10001532:	01 45 10             	add    DWORD PTR [ebp+0x10],eax
10001535:	8b 45 0c             	mov    eax,DWORD PTR [ebp+0xc]
10001538:	8a 00                	mov    al,BYTE PTR [eax]
1000153a:	84 c0                	test   al,al
1000153c:	75 9d                	jne    100014db <Context_draw_text+0x8>
1000153e:	90                   	nop
1000153f:	c9                   	leave  
10001540:	c3                   	ret    

10001541 <Desktop_set_mouse>:
10001541:	55                   	push   ebp
10001542:	89 e5                	mov    ebp,esp
10001544:	8b 45 0c             	mov    eax,DWORD PTR [ebp+0xc]
10001547:	8d 90 00 00 00 00    	lea    edx,[eax+0x0]	10001549: R_386_32	___mouse_data
1000154d:	8b 45 08             	mov    eax,DWORD PTR [ebp+0x8]
10001550:	89 50 74             	mov    DWORD PTR [eax+0x74],edx
10001553:	90                   	nop
10001554:	5d                   	pop    ebp
10001555:	c3                   	ret    

10001556 <Desktop_new>:
10001556:	55                   	push   ebp
10001557:	89 e5                	mov    ebp,esp
10001559:	83 ec 18             	sub    esp,0x18
1000155c:	83 ec 0c             	sub    esp,0xc
1000155f:	6a 78                	push   0x78
10001561:	e8 fc ff ff ff       	call   10001562 <Desktop_new+0xc>	10001562: R_386_PC32	malloc
10001566:	83 c4 10             	add    esp,0x10
10001569:	89 45 f4             	mov    DWORD PTR [ebp-0xc],eax
1000156c:	8b 45 08             	mov    eax,DWORD PTR [ebp+0x8]
1000156f:	66 8b 40 06          	mov    ax,WORD PTR [eax+0x6]
10001573:	0f b7 d0             	movzx  edx,ax
10001576:	8b 45 08             	mov    eax,DWORD PTR [ebp+0x8]
10001579:	8b 40 04             	mov    eax,DWORD PTR [eax+0x4]
1000157c:	0f b7 c0             	movzx  eax,ax
1000157f:	83 ec 04             	sub    esp,0x4
10001582:	ff 75 08             	push   DWORD PTR [ebp+0x8]
10001585:	6a 01                	push   0x1
10001587:	52                   	push   edx
10001588:	50                   	push   eax
10001589:	6a 00                	push   0x0
1000158b:	6a 00                	push   0x0
1000158d:	ff 75 f4             	push   DWORD PTR [ebp-0xc]
10001590:	e8 fc ff ff ff       	call   10001591 <Desktop_new+0x3b>	10001591: R_386_PC32	Window_init
10001595:	83 c4 20             	add    esp,0x20
10001598:	8b 45 f4             	mov    eax,DWORD PTR [ebp-0xc]
1000159b:	c7 40 2c 00 00 00 00 	mov    DWORD PTR [eax+0x2c],0x0	1000159e: R_386_32	Desktop_paint_handler
100015a2:	8b 45 f4             	mov    eax,DWORD PTR [ebp-0xc]
100015a5:	c6 40 28 00          	mov    BYTE PTR [eax+0x28],0x0
100015a9:	8b 45 f4             	mov    eax,DWORD PTR [ebp-0xc]
100015ac:	8b 40 10             	mov    eax,DWORD PTR [eax+0x10]
100015af:	8b 40 04             	mov    eax,DWORD PTR [eax+0x4]
100015b2:	66 d1 e8             	shr    ax,1
100015b5:	8b 55 f4             	mov    edx,DWORD PTR [ebp-0xc]
100015b8:	66 89 42 70          	mov    WORD PTR [edx+0x70],ax
100015bc:	8b 45 f4             	mov    eax,DWORD PTR [ebp-0xc]
100015bf:	8b 40 10             	mov    eax,DWORD PTR [eax+0x10]
100015c2:	66 8b 40 06          	mov    ax,WORD PTR [eax+0x6]
100015c6:	66 d1 e8             	shr    ax,1
100015c9:	8b 55 f4             	mov    edx,DWORD PTR [ebp-0xc]
100015cc:	66 89 42 72          	mov    WORD PTR [edx+0x72],ax
100015d0:	83 ec 08             	sub    esp,0x8
100015d3:	6a 00                	push   0x0
100015d5:	ff 75 f4             	push   DWORD PTR [ebp-0xc]
100015d8:	e8 fc ff ff ff       	call   100015d9 <Desktop_new+0x83>	100015d9: R_386_PC32	Desktop_set_mouse
100015dd:	83 c4 10             	add    esp,0x10
100015e0:	8b 45 f4             	mov    eax,DWORD PTR [ebp-0xc]
100015e3:	c9                   	leave  
100015e4:	c3                   	ret    

100015e5 <Desktop_paint_handler>:
100015e5:	55                   	push   ebp
100015e6:	89 e5                	mov    ebp,esp
100015e8:	53                   	push   ebx
100015e9:	83 ec 04             	sub    esp,0x4
100015ec:	8b 1d 00 00 00 00    	mov    ebx,DWORD PTR ds:0x0	100015ee: R_386_32	desktopColour
100015f2:	8b 45 08             	mov    eax,DWORD PTR [ebp+0x8]
100015f5:	8b 40 10             	mov    eax,DWORD PTR [eax+0x10]
100015f8:	66 8b 40 06          	mov    ax,WORD PTR [eax+0x6]
100015fc:	0f b7 c8             	movzx  ecx,ax
100015ff:	8b 45 08             	mov    eax,DWORD PTR [ebp+0x8]
10001602:	8b 40 10             	mov    eax,DWORD PTR [eax+0x10]
10001605:	8b 40 04             	mov    eax,DWORD PTR [eax+0x4]
10001608:	0f b7 d0             	movzx  edx,ax
1000160b:	8b 45 08             	mov    eax,DWORD PTR [ebp+0x8]
1000160e:	8b 40 10             	mov    eax,DWORD PTR [eax+0x10]
10001611:	83 ec 08             	sub    esp,0x8
10001614:	53                   	push   ebx
10001615:	51                   	push   ecx
10001616:	52                   	push   edx
10001617:	6a 00                	push   0x0
10001619:	6a 00                	push   0x0
1000161b:	50                   	push   eax
1000161c:	e8 fc ff ff ff       	call   1000161d <Desktop_paint_handler+0x38>	1000161d: R_386_PC32	Context_fill_rect
10001621:	83 c4 20             	add    esp,0x20
10001624:	90                   	nop
10001625:	8b 5d fc             	mov    ebx,DWORD PTR [ebp-0x4]
10001628:	c9                   	leave  
10001629:	c3                   	ret    

1000162a <Desktop_process_mouse>:
1000162a:	55                   	push   ebp
1000162b:	89 e5                	mov    ebp,esp
1000162d:	53                   	push   ebx
1000162e:	83 ec 24             	sub    esp,0x24
10001631:	8b 55 0c             	mov    edx,DWORD PTR [ebp+0xc]
10001634:	8b 45 10             	mov    eax,DWORD PTR [ebp+0x10]
10001637:	8b 4d 14             	mov    ecx,DWORD PTR [ebp+0x14]
1000163a:	66 89 55 e4          	mov    WORD PTR [ebp-0x1c],dx
1000163e:	66 89 45 e0          	mov    WORD PTR [ebp-0x20],ax
10001642:	88 c8                	mov    al,cl
10001644:	88 45 dc             	mov    BYTE PTR [ebp-0x24],al
10001647:	a1 00 00 00 00       	mov    eax,ds:0x0	10001648: R_386_32	active_window
1000164c:	89 45 f0             	mov    DWORD PTR [ebp-0x10],eax
1000164f:	c7 45 f4 00 00 00 00 	mov    DWORD PTR [ebp-0xc],0x0
10001656:	80 7d dc 00          	cmp    BYTE PTR [ebp-0x24],0x0
1000165a:	74 1a                	je     10001676 <Desktop_process_mouse+0x4c>
1000165c:	a1 00 00 00 00       	mov    eax,ds:0x0	1000165d: R_386_32	oldMouse
10001661:	85 c0                	test   eax,eax
10001663:	75 11                	jne    10001676 <Desktop_process_mouse+0x4c>
10001665:	c7 05 00 00 00 00 00 00 00 00 	mov    DWORD PTR ds:0x0,0x0	10001667: R_386_32	active_window
1000166f:	c7 45 f4 01 00 00 00 	mov    DWORD PTR [ebp-0xc],0x1
10001676:	0f b6 45 dc          	movzx  eax,BYTE PTR [ebp-0x24]
1000167a:	a3 00 00 00 00       	mov    ds:0x0,eax	1000167b: R_386_32	oldMouse
1000167f:	0f b6 4d dc          	movzx  ecx,BYTE PTR [ebp-0x24]
10001683:	0f b7 55 e0          	movzx  edx,WORD PTR [ebp-0x20]
10001687:	0f b7 45 e4          	movzx  eax,WORD PTR [ebp-0x1c]
1000168b:	51                   	push   ecx
1000168c:	52                   	push   edx
1000168d:	50                   	push   eax
1000168e:	ff 75 08             	push   DWORD PTR [ebp+0x8]
10001691:	e8 fc ff ff ff       	call   10001692 <Desktop_process_mouse+0x68>	10001692: R_386_PC32	Window_process_mouse
10001696:	83 c4 10             	add    esp,0x10
10001699:	e8 fc ff ff ff       	call   1000169a <Desktop_process_mouse+0x70>	1000169a: R_386_PC32	List_new
1000169e:	89 45 ec             	mov    DWORD PTR [ebp-0x14],eax
100016a1:	83 7d ec 00          	cmp    DWORD PTR [ebp-0x14],0x0
100016a5:	0f 84 24 01 00 00    	je     100017cf <Desktop_process_mouse+0x1a5>
100016ab:	8b 45 08             	mov    eax,DWORD PTR [ebp+0x8]
100016ae:	8b 40 70             	mov    eax,DWORD PTR [eax+0x70]
100016b1:	0f b7 c0             	movzx  eax,ax
100016b4:	8d 58 1f             	lea    ebx,[eax+0x1f]
100016b7:	8b 45 08             	mov    eax,DWORD PTR [ebp+0x8]
100016ba:	66 8b 40 72          	mov    ax,WORD PTR [eax+0x72]
100016be:	0f b7 c0             	movzx  eax,ax
100016c1:	8d 48 1f             	lea    ecx,[eax+0x1f]
100016c4:	8b 45 08             	mov    eax,DWORD PTR [ebp+0x8]
100016c7:	8b 40 70             	mov    eax,DWORD PTR [eax+0x70]
100016ca:	0f b7 d0             	movzx  edx,ax
100016cd:	8b 45 08             	mov    eax,DWORD PTR [ebp+0x8]
100016d0:	66 8b 40 72          	mov    ax,WORD PTR [eax+0x72]
100016d4:	0f b7 c0             	movzx  eax,ax
100016d7:	53                   	push   ebx
100016d8:	51                   	push   ecx
100016d9:	52                   	push   edx
100016da:	50                   	push   eax
100016db:	e8 fc ff ff ff       	call   100016dc <Desktop_process_mouse+0xb2>	100016dc: R_386_PC32	Rect_new
100016e0:	83 c4 10             	add    esp,0x10
100016e3:	89 45 e8             	mov    DWORD PTR [ebp-0x18],eax
100016e6:	83 7d e8 00          	cmp    DWORD PTR [ebp-0x18],0x0
100016ea:	75 13                	jne    100016ff <Desktop_process_mouse+0xd5>
100016ec:	83 ec 0c             	sub    esp,0xc
100016ef:	ff 75 ec             	push   DWORD PTR [ebp-0x14]
100016f2:	e8 fc ff ff ff       	call   100016f3 <Desktop_process_mouse+0xc9>	100016f3: R_386_PC32	free
100016f7:	83 c4 10             	add    esp,0x10
100016fa:	e9 d1 00 00 00       	jmp    100017d0 <Desktop_process_mouse+0x1a6>
100016ff:	83 ec 08             	sub    esp,0x8
10001702:	ff 75 e8             	push   DWORD PTR [ebp-0x18]
10001705:	ff 75 ec             	push   DWORD PTR [ebp-0x14]
10001708:	e8 fc ff ff ff       	call   10001709 <Desktop_process_mouse+0xdf>	10001709: R_386_PC32	List_add
1000170d:	83 c4 10             	add    esp,0x10
10001710:	83 ec 04             	sub    esp,0x4
10001713:	6a 01                	push   0x1
10001715:	ff 75 ec             	push   DWORD PTR [ebp-0x14]
10001718:	ff 75 08             	push   DWORD PTR [ebp+0x8]
1000171b:	e8 fc ff ff ff       	call   1000171c <Desktop_process_mouse+0xf2>	1000171c: R_386_PC32	Window_paint
10001720:	83 c4 10             	add    esp,0x10
10001723:	83 ec 08             	sub    esp,0x8
10001726:	6a 00                	push   0x0
10001728:	ff 75 ec             	push   DWORD PTR [ebp-0x14]
1000172b:	e8 fc ff ff ff       	call   1000172c <Desktop_process_mouse+0x102>	1000172c: R_386_PC32	List_remove_at
10001730:	83 c4 10             	add    esp,0x10
10001733:	83 ec 0c             	sub    esp,0xc
10001736:	ff 75 ec             	push   DWORD PTR [ebp-0x14]
10001739:	e8 fc ff ff ff       	call   1000173a <Desktop_process_mouse+0x110>	1000173a: R_386_PC32	free
1000173e:	83 c4 10             	add    esp,0x10
10001741:	83 ec 0c             	sub    esp,0xc
10001744:	ff 75 e8             	push   DWORD PTR [ebp-0x18]
10001747:	e8 fc ff ff ff       	call   10001748 <Desktop_process_mouse+0x11e>	10001748: R_386_PC32	free
1000174c:	83 c4 10             	add    esp,0x10
1000174f:	a1 00 00 00 00       	mov    eax,ds:0x0	10001750: R_386_32	active_window
10001754:	85 c0                	test   eax,eax
10001756:	74 21                	je     10001779 <Desktop_process_mouse+0x14f>
10001758:	83 7d f4 00          	cmp    DWORD PTR [ebp-0xc],0x0
1000175c:	74 1b                	je     10001779 <Desktop_process_mouse+0x14f>
1000175e:	a1 00 00 00 00       	mov    eax,ds:0x0	1000175f: R_386_32	active_window
10001763:	39 45 f0             	cmp    DWORD PTR [ebp-0x10],eax
10001766:	74 11                	je     10001779 <Desktop_process_mouse+0x14f>
10001768:	a1 00 00 00 00       	mov    eax,ds:0x0	10001769: R_386_32	active_window
1000176d:	83 ec 0c             	sub    esp,0xc
10001770:	50                   	push   eax
10001771:	e8 fc ff ff ff       	call   10001772 <Desktop_process_mouse+0x148>	10001772: R_386_PC32	Window_update_title
10001776:	83 c4 10             	add    esp,0x10
10001779:	83 7d f0 00          	cmp    DWORD PTR [ebp-0x10],0x0
1000177d:	74 1e                	je     1000179d <Desktop_process_mouse+0x173>
1000177f:	83 7d f4 00          	cmp    DWORD PTR [ebp-0xc],0x0
10001783:	74 18                	je     1000179d <Desktop_process_mouse+0x173>
10001785:	a1 00 00 00 00       	mov    eax,ds:0x0	10001786: R_386_32	active_window
1000178a:	39 45 f0             	cmp    DWORD PTR [ebp-0x10],eax
1000178d:	74 0e                	je     1000179d <Desktop_process_mouse+0x173>
1000178f:	83 ec 0c             	sub    esp,0xc
10001792:	ff 75 f0             	push   DWORD PTR [ebp-0x10]
10001795:	e8 fc ff ff ff       	call   10001796 <Desktop_process_mouse+0x16c>	10001796: R_386_PC32	Window_update_title
1000179a:	83 c4 10             	add    esp,0x10
1000179d:	8b 55 08             	mov    edx,DWORD PTR [ebp+0x8]
100017a0:	8b 45 e4             	mov    eax,DWORD PTR [ebp-0x1c]
100017a3:	66 89 42 70          	mov    WORD PTR [edx+0x70],ax
100017a7:	8b 55 08             	mov    edx,DWORD PTR [ebp+0x8]
100017aa:	8b 45 e0             	mov    eax,DWORD PTR [ebp-0x20]
100017ad:	66 89 42 72          	mov    WORD PTR [edx+0x72],ax
100017b1:	8b 45 08             	mov    eax,DWORD PTR [ebp+0x8]
100017b4:	8b 48 74             	mov    ecx,DWORD PTR [eax+0x74]
100017b7:	0f b7 55 e0          	movzx  edx,WORD PTR [ebp-0x20]
100017bb:	0f b7 45 e4          	movzx  eax,WORD PTR [ebp-0x1c]
100017bf:	83 ec 04             	sub    esp,0x4
100017c2:	51                   	push   ecx
100017c3:	52                   	push   edx
100017c4:	50                   	push   eax
100017c5:	e8 fc ff ff ff       	call   100017c6 <Desktop_process_mouse+0x19c>	100017c6: R_386_PC32	screendrawcursor
100017ca:	83 c4 10             	add    esp,0x10
100017cd:	eb 01                	jmp    100017d0 <Desktop_process_mouse+0x1a6>
100017cf:	90                   	nop
100017d0:	8b 5d fc             	mov    ebx,DWORD PTR [ebp-0x4]
100017d3:	c9                   	leave  
100017d4:	c3                   	ret    

100017d5 <List_new>:
100017d5:	55                   	push   ebp
100017d6:	89 e5                	mov    ebp,esp
100017d8:	83 ec 18             	sub    esp,0x18
100017db:	83 ec 0c             	sub    esp,0xc
100017de:	6a 08                	push   0x8
100017e0:	e8 fc ff ff ff       	call   100017e1 <List_new+0xc>	100017e1: R_386_PC32	malloc
100017e5:	83 c4 10             	add    esp,0x10
100017e8:	89 45 f4             	mov    DWORD PTR [ebp-0xc],eax
100017eb:	83 7d f4 00          	cmp    DWORD PTR [ebp-0xc],0x0
100017ef:	75 05                	jne    100017f6 <List_new+0x21>
100017f1:	8b 45 f4             	mov    eax,DWORD PTR [ebp-0xc]
100017f4:	eb 16                	jmp    1000180c <List_new+0x37>
100017f6:	8b 45 f4             	mov    eax,DWORD PTR [ebp-0xc]
100017f9:	c7 00 00 00 00 00    	mov    DWORD PTR [eax],0x0
100017ff:	8b 45 f4             	mov    eax,DWORD PTR [ebp-0xc]
10001802:	c7 40 04 00 00 00 00 	mov    DWORD PTR [eax+0x4],0x0
10001809:	8b 45 f4             	mov    eax,DWORD PTR [ebp-0xc]
1000180c:	c9                   	leave  
1000180d:	c3                   	ret    

1000180e <List_add>:
1000180e:	55                   	push   ebp
1000180f:	89 e5                	mov    ebp,esp
10001811:	83 ec 18             	sub    esp,0x18
10001814:	83 ec 0c             	sub    esp,0xc
10001817:	ff 75 0c             	push   DWORD PTR [ebp+0xc]
1000181a:	e8 fc ff ff ff       	call   1000181b <List_add+0xd>	1000181b: R_386_PC32	ListNode_new
1000181f:	83 c4 10             	add    esp,0x10
10001822:	89 45 f0             	mov    DWORD PTR [ebp-0x10],eax
10001825:	83 7d f0 00          	cmp    DWORD PTR [ebp-0x10],0x0
10001829:	75 07                	jne    10001832 <List_add+0x24>
1000182b:	b8 00 00 00 00       	mov    eax,0x0
10001830:	eb 57                	jmp    10001889 <List_add+0x7b>
10001832:	8b 45 08             	mov    eax,DWORD PTR [ebp+0x8]
10001835:	8b 40 04             	mov    eax,DWORD PTR [eax+0x4]
10001838:	85 c0                	test   eax,eax
1000183a:	75 0b                	jne    10001847 <List_add+0x39>
1000183c:	8b 45 08             	mov    eax,DWORD PTR [ebp+0x8]
1000183f:	8b 55 f0             	mov    edx,DWORD PTR [ebp-0x10]
10001842:	89 50 04             	mov    DWORD PTR [eax+0x4],edx
10001845:	eb 30                	jmp    10001877 <List_add+0x69>
10001847:	8b 45 08             	mov    eax,DWORD PTR [ebp+0x8]
1000184a:	8b 40 04             	mov    eax,DWORD PTR [eax+0x4]
1000184d:	89 45 f4             	mov    DWORD PTR [ebp-0xc],eax
10001850:	eb 09                	jmp    1000185b <List_add+0x4d>
10001852:	8b 45 f4             	mov    eax,DWORD PTR [ebp-0xc]
10001855:	8b 40 08             	mov    eax,DWORD PTR [eax+0x8]
10001858:	89 45 f4             	mov    DWORD PTR [ebp-0xc],eax
1000185b:	8b 45 f4             	mov    eax,DWORD PTR [ebp-0xc]
1000185e:	8b 40 08             	mov    eax,DWORD PTR [eax+0x8]
10001861:	85 c0                	test   eax,eax
10001863:	75 ed                	jne    10001852 <List_add+0x44>
10001865:	8b 45 f4             	mov    eax,DWORD PTR [ebp-0xc]
10001868:	8b 55 f0             	mov    edx,DWORD PTR [ebp-0x10]
1000186b:	89 50 08             	mov    DWORD PTR [eax+0x8],edx
1000186e:	8b 45 f0             	mov    eax,DWORD PTR [ebp-0x10]
10001871:	8b 55 f4             	mov    edx,DWORD PTR [ebp-0xc]
10001874:	89 50 04             	mov    DWORD PTR [eax+0x4],edx
10001877:	8b 45 08             	mov    eax,DWORD PTR [ebp+0x8]
1000187a:	8b 00                	mov    eax,DWORD PTR [eax]
1000187c:	8d 50 01             	lea    edx,[eax+0x1]
1000187f:	8b 45 08             	mov    eax,DWORD PTR [ebp+0x8]
10001882:	89 10                	mov    DWORD PTR [eax],edx
10001884:	b8 01 00 00 00       	mov    eax,0x1
10001889:	c9                   	leave  
1000188a:	c3                   	ret    

1000188b <List_get_at>:
1000188b:	55                   	push   ebp
1000188c:	89 e5                	mov    ebp,esp
1000188e:	83 ec 10             	sub    esp,0x10
10001891:	8b 45 08             	mov    eax,DWORD PTR [ebp+0x8]
10001894:	8b 00                	mov    eax,DWORD PTR [eax]
10001896:	85 c0                	test   eax,eax
10001898:	74 0a                	je     100018a4 <List_get_at+0x19>
1000189a:	8b 45 08             	mov    eax,DWORD PTR [ebp+0x8]
1000189d:	8b 00                	mov    eax,DWORD PTR [eax]
1000189f:	39 45 0c             	cmp    DWORD PTR [ebp+0xc],eax
100018a2:	72 07                	jb     100018ab <List_get_at+0x20>
100018a4:	b8 00 00 00 00       	mov    eax,0x0
100018a9:	eb 3e                	jmp    100018e9 <List_get_at+0x5e>
100018ab:	8b 45 08             	mov    eax,DWORD PTR [ebp+0x8]
100018ae:	8b 40 04             	mov    eax,DWORD PTR [eax+0x4]
100018b1:	89 45 fc             	mov    DWORD PTR [ebp-0x4],eax
100018b4:	c7 45 f8 00 00 00 00 	mov    DWORD PTR [ebp-0x8],0x0
100018bb:	eb 0c                	jmp    100018c9 <List_get_at+0x3e>
100018bd:	8b 45 fc             	mov    eax,DWORD PTR [ebp-0x4]
100018c0:	8b 40 08             	mov    eax,DWORD PTR [eax+0x8]
100018c3:	89 45 fc             	mov    DWORD PTR [ebp-0x4],eax
100018c6:	ff 45 f8             	inc    DWORD PTR [ebp-0x8]
100018c9:	8b 45 f8             	mov    eax,DWORD PTR [ebp-0x8]
100018cc:	3b 45 0c             	cmp    eax,DWORD PTR [ebp+0xc]
100018cf:	73 06                	jae    100018d7 <List_get_at+0x4c>
100018d1:	83 7d fc 00          	cmp    DWORD PTR [ebp-0x4],0x0
100018d5:	75 e6                	jne    100018bd <List_get_at+0x32>
100018d7:	83 7d fc 00          	cmp    DWORD PTR [ebp-0x4],0x0
100018db:	74 07                	je     100018e4 <List_get_at+0x59>
100018dd:	8b 45 fc             	mov    eax,DWORD PTR [ebp-0x4]
100018e0:	8b 00                	mov    eax,DWORD PTR [eax]
100018e2:	eb 05                	jmp    100018e9 <List_get_at+0x5e>
100018e4:	b8 00 00 00 00       	mov    eax,0x0
100018e9:	c9                   	leave  
100018ea:	c3                   	ret    

100018eb <List_remove_at>:
100018eb:	55                   	push   ebp
100018ec:	89 e5                	mov    ebp,esp
100018ee:	83 ec 18             	sub    esp,0x18
100018f1:	8b 45 08             	mov    eax,DWORD PTR [ebp+0x8]
100018f4:	8b 00                	mov    eax,DWORD PTR [eax]
100018f6:	85 c0                	test   eax,eax
100018f8:	74 0a                	je     10001904 <List_remove_at+0x19>
100018fa:	8b 45 08             	mov    eax,DWORD PTR [ebp+0x8]
100018fd:	8b 00                	mov    eax,DWORD PTR [eax]
100018ff:	39 45 0c             	cmp    DWORD PTR [ebp+0xc],eax
10001902:	72 0a                	jb     1000190e <List_remove_at+0x23>
10001904:	b8 00 00 00 00       	mov    eax,0x0
10001909:	e9 a3 00 00 00       	jmp    100019b1 <List_remove_at+0xc6>
1000190e:	8b 45 08             	mov    eax,DWORD PTR [ebp+0x8]
10001911:	8b 40 04             	mov    eax,DWORD PTR [eax+0x4]
10001914:	89 45 f4             	mov    DWORD PTR [ebp-0xc],eax
10001917:	c7 45 f0 00 00 00 00 	mov    DWORD PTR [ebp-0x10],0x0
1000191e:	eb 0c                	jmp    1000192c <List_remove_at+0x41>
10001920:	8b 45 f4             	mov    eax,DWORD PTR [ebp-0xc]
10001923:	8b 40 08             	mov    eax,DWORD PTR [eax+0x8]
10001926:	89 45 f4             	mov    DWORD PTR [ebp-0xc],eax
10001929:	ff 45 f0             	inc    DWORD PTR [ebp-0x10]
1000192c:	8b 45 f0             	mov    eax,DWORD PTR [ebp-0x10]
1000192f:	3b 45 0c             	cmp    eax,DWORD PTR [ebp+0xc]
10001932:	73 06                	jae    1000193a <List_remove_at+0x4f>
10001934:	83 7d f4 00          	cmp    DWORD PTR [ebp-0xc],0x0
10001938:	75 e6                	jne    10001920 <List_remove_at+0x35>
1000193a:	83 7d f4 00          	cmp    DWORD PTR [ebp-0xc],0x0
1000193e:	75 07                	jne    10001947 <List_remove_at+0x5c>
10001940:	b8 00 00 00 00       	mov    eax,0x0
10001945:	eb 6a                	jmp    100019b1 <List_remove_at+0xc6>
10001947:	8b 45 f4             	mov    eax,DWORD PTR [ebp-0xc]
1000194a:	8b 00                	mov    eax,DWORD PTR [eax]
1000194c:	89 45 ec             	mov    DWORD PTR [ebp-0x14],eax
1000194f:	8b 45 f4             	mov    eax,DWORD PTR [ebp-0xc]
10001952:	8b 40 04             	mov    eax,DWORD PTR [eax+0x4]
10001955:	85 c0                	test   eax,eax
10001957:	74 0f                	je     10001968 <List_remove_at+0x7d>
10001959:	8b 45 f4             	mov    eax,DWORD PTR [ebp-0xc]
1000195c:	8b 40 04             	mov    eax,DWORD PTR [eax+0x4]
1000195f:	8b 55 f4             	mov    edx,DWORD PTR [ebp-0xc]
10001962:	8b 52 08             	mov    edx,DWORD PTR [edx+0x8]
10001965:	89 50 08             	mov    DWORD PTR [eax+0x8],edx
10001968:	8b 45 f4             	mov    eax,DWORD PTR [ebp-0xc]
1000196b:	8b 40 08             	mov    eax,DWORD PTR [eax+0x8]
1000196e:	85 c0                	test   eax,eax
10001970:	74 0f                	je     10001981 <List_remove_at+0x96>
10001972:	8b 45 f4             	mov    eax,DWORD PTR [ebp-0xc]
10001975:	8b 40 08             	mov    eax,DWORD PTR [eax+0x8]
10001978:	8b 55 f4             	mov    edx,DWORD PTR [ebp-0xc]
1000197b:	8b 52 04             	mov    edx,DWORD PTR [edx+0x4]
1000197e:	89 50 04             	mov    DWORD PTR [eax+0x4],edx
10001981:	83 7d 0c 00          	cmp    DWORD PTR [ebp+0xc],0x0
10001985:	75 0c                	jne    10001993 <List_remove_at+0xa8>
10001987:	8b 45 f4             	mov    eax,DWORD PTR [ebp-0xc]
1000198a:	8b 50 08             	mov    edx,DWORD PTR [eax+0x8]
1000198d:	8b 45 08             	mov    eax,DWORD PTR [ebp+0x8]
10001990:	89 50 04             	mov    DWORD PTR [eax+0x4],edx
10001993:	83 ec 0c             	sub    esp,0xc
10001996:	ff 75 f4             	push   DWORD PTR [ebp-0xc]
10001999:	e8 fc ff ff ff       	call   1000199a <List_remove_at+0xaf>	1000199a: R_386_PC32	free
1000199e:	83 c4 10             	add    esp,0x10
100019a1:	8b 45 08             	mov    eax,DWORD PTR [ebp+0x8]
100019a4:	8b 00                	mov    eax,DWORD PTR [eax]
100019a6:	8d 50 ff             	lea    edx,[eax-0x1]
100019a9:	8b 45 08             	mov    eax,DWORD PTR [ebp+0x8]
100019ac:	89 10                	mov    DWORD PTR [eax],edx
100019ae:	8b 45 ec             	mov    eax,DWORD PTR [ebp-0x14]
100019b1:	c9                   	leave  
100019b2:	c3                   	ret    

100019b3 <ListNode_new>:
100019b3:	55                   	push   ebp
100019b4:	89 e5                	mov    ebp,esp
100019b6:	83 ec 18             	sub    esp,0x18
100019b9:	83 ec 0c             	sub    esp,0xc
100019bc:	6a 0c                	push   0xc
100019be:	e8 fc ff ff ff       	call   100019bf <ListNode_new+0xc>	100019bf: R_386_PC32	malloc
100019c3:	83 c4 10             	add    esp,0x10
100019c6:	89 45 f4             	mov    DWORD PTR [ebp-0xc],eax
100019c9:	83 7d f4 00          	cmp    DWORD PTR [ebp-0xc],0x0
100019cd:	75 05                	jne    100019d4 <ListNode_new+0x21>
100019cf:	8b 45 f4             	mov    eax,DWORD PTR [ebp-0xc]
100019d2:	eb 1f                	jmp    100019f3 <ListNode_new+0x40>
100019d4:	8b 45 f4             	mov    eax,DWORD PTR [ebp-0xc]
100019d7:	c7 40 04 00 00 00 00 	mov    DWORD PTR [eax+0x4],0x0
100019de:	8b 45 f4             	mov    eax,DWORD PTR [ebp-0xc]
100019e1:	c7 40 08 00 00 00 00 	mov    DWORD PTR [eax+0x8],0x0
100019e8:	8b 45 f4             	mov    eax,DWORD PTR [ebp-0xc]
100019eb:	8b 55 08             	mov    edx,DWORD PTR [ebp+0x8]
100019ee:	89 10                	mov    DWORD PTR [eax],edx
100019f0:	8b 45 f4             	mov    eax,DWORD PTR [ebp-0xc]
100019f3:	c9                   	leave  
100019f4:	c3                   	ret    

100019f5 <Rect_new>:
100019f5:	55                   	push   ebp
100019f6:	89 e5                	mov    ebp,esp
100019f8:	83 ec 18             	sub    esp,0x18
100019fb:	83 ec 0c             	sub    esp,0xc
100019fe:	6a 10                	push   0x10
10001a00:	e8 fc ff ff ff       	call   10001a01 <Rect_new+0xc>	10001a01: R_386_PC32	malloc
10001a05:	83 c4 10             	add    esp,0x10
10001a08:	89 45 f4             	mov    DWORD PTR [ebp-0xc],eax
10001a0b:	83 7d f4 00          	cmp    DWORD PTR [ebp-0xc],0x0
10001a0f:	75 05                	jne    10001a16 <Rect_new+0x21>
10001a11:	8b 45 f4             	mov    eax,DWORD PTR [ebp-0xc]
10001a14:	eb 26                	jmp    10001a3c <Rect_new+0x47>
10001a16:	8b 45 f4             	mov    eax,DWORD PTR [ebp-0xc]
10001a19:	8b 55 08             	mov    edx,DWORD PTR [ebp+0x8]
10001a1c:	89 10                	mov    DWORD PTR [eax],edx
10001a1e:	8b 45 f4             	mov    eax,DWORD PTR [ebp-0xc]
10001a21:	8b 55 0c             	mov    edx,DWORD PTR [ebp+0xc]
10001a24:	89 50 04             	mov    DWORD PTR [eax+0x4],edx
10001a27:	8b 45 f4             	mov    eax,DWORD PTR [ebp-0xc]
10001a2a:	8b 55 10             	mov    edx,DWORD PTR [ebp+0x10]
10001a2d:	89 50 08             	mov    DWORD PTR [eax+0x8],edx
10001a30:	8b 45 f4             	mov    eax,DWORD PTR [ebp-0xc]
10001a33:	8b 55 14             	mov    edx,DWORD PTR [ebp+0x14]
10001a36:	89 50 0c             	mov    DWORD PTR [eax+0xc],edx
10001a39:	8b 45 f4             	mov    eax,DWORD PTR [ebp-0xc]
10001a3c:	c9                   	leave  
10001a3d:	c3                   	ret    

10001a3e <Rect_split>:
10001a3e:	55                   	push   ebp
10001a3f:	89 e5                	mov    ebp,esp
10001a41:	53                   	push   ebx
10001a42:	83 ec 24             	sub    esp,0x24
10001a45:	e8 fc ff ff ff       	call   10001a46 <Rect_split+0x8>	10001a46: R_386_PC32	List_new
10001a4a:	89 45 f0             	mov    DWORD PTR [ebp-0x10],eax
10001a4d:	83 7d f0 00          	cmp    DWORD PTR [ebp-0x10],0x0
10001a51:	75 08                	jne    10001a5b <Rect_split+0x1d>
10001a53:	8b 45 f0             	mov    eax,DWORD PTR [ebp-0x10]
10001a56:	e9 85 02 00 00       	jmp    10001ce0 <Rect_split+0x2a2>
10001a5b:	8b 45 08             	mov    eax,DWORD PTR [ebp+0x8]
10001a5e:	8b 00                	mov    eax,DWORD PTR [eax]
10001a60:	89 45 e0             	mov    DWORD PTR [ebp-0x20],eax
10001a63:	8b 45 08             	mov    eax,DWORD PTR [ebp+0x8]
10001a66:	8b 40 04             	mov    eax,DWORD PTR [eax+0x4]
10001a69:	89 45 e4             	mov    DWORD PTR [ebp-0x1c],eax
10001a6c:	8b 45 08             	mov    eax,DWORD PTR [ebp+0x8]
10001a6f:	8b 40 08             	mov    eax,DWORD PTR [eax+0x8]
10001a72:	89 45 e8             	mov    DWORD PTR [ebp-0x18],eax
10001a75:	8b 45 08             	mov    eax,DWORD PTR [ebp+0x8]
10001a78:	8b 40 0c             	mov    eax,DWORD PTR [eax+0xc]
10001a7b:	89 45 ec             	mov    DWORD PTR [ebp-0x14],eax
10001a7e:	8b 45 0c             	mov    eax,DWORD PTR [ebp+0xc]
10001a81:	8b 50 04             	mov    edx,DWORD PTR [eax+0x4]
10001a84:	8b 45 e4             	mov    eax,DWORD PTR [ebp-0x1c]
10001a87:	39 c2                	cmp    edx,eax
10001a89:	7e 66                	jle    10001af1 <Rect_split+0xb3>
10001a8b:	8b 45 0c             	mov    eax,DWORD PTR [ebp+0xc]
10001a8e:	8b 50 04             	mov    edx,DWORD PTR [eax+0x4]
10001a91:	8b 45 ec             	mov    eax,DWORD PTR [ebp-0x14]
10001a94:	39 c2                	cmp    edx,eax
10001a96:	7f 59                	jg     10001af1 <Rect_split+0xb3>
10001a98:	8b 45 0c             	mov    eax,DWORD PTR [ebp+0xc]
10001a9b:	8b 40 04             	mov    eax,DWORD PTR [eax+0x4]
10001a9e:	8d 58 ff             	lea    ebx,[eax-0x1]
10001aa1:	8b 4d e8             	mov    ecx,DWORD PTR [ebp-0x18]
10001aa4:	8b 55 e4             	mov    edx,DWORD PTR [ebp-0x1c]
10001aa7:	8b 45 e0             	mov    eax,DWORD PTR [ebp-0x20]
10001aaa:	53                   	push   ebx
10001aab:	51                   	push   ecx
10001aac:	52                   	push   edx
10001aad:	50                   	push   eax
10001aae:	e8 fc ff ff ff       	call   10001aaf <Rect_split+0x71>	10001aaf: R_386_PC32	Rect_new
10001ab3:	83 c4 10             	add    esp,0x10
10001ab6:	89 45 f4             	mov    DWORD PTR [ebp-0xc],eax
10001ab9:	83 7d f4 00          	cmp    DWORD PTR [ebp-0xc],0x0
10001abd:	75 18                	jne    10001ad7 <Rect_split+0x99>
10001abf:	83 ec 0c             	sub    esp,0xc
10001ac2:	ff 75 f0             	push   DWORD PTR [ebp-0x10]
10001ac5:	e8 fc ff ff ff       	call   10001ac6 <Rect_split+0x88>	10001ac6: R_386_PC32	free
10001aca:	83 c4 10             	add    esp,0x10
10001acd:	b8 00 00 00 00       	mov    eax,0x0
10001ad2:	e9 09 02 00 00       	jmp    10001ce0 <Rect_split+0x2a2>
10001ad7:	83 ec 08             	sub    esp,0x8
10001ada:	ff 75 f4             	push   DWORD PTR [ebp-0xc]
10001add:	ff 75 f0             	push   DWORD PTR [ebp-0x10]
10001ae0:	e8 fc ff ff ff       	call   10001ae1 <Rect_split+0xa3>	10001ae1: R_386_PC32	List_add
10001ae5:	83 c4 10             	add    esp,0x10
10001ae8:	8b 45 0c             	mov    eax,DWORD PTR [ebp+0xc]
10001aeb:	8b 40 04             	mov    eax,DWORD PTR [eax+0x4]
10001aee:	89 45 e4             	mov    DWORD PTR [ebp-0x1c],eax
10001af1:	8b 45 0c             	mov    eax,DWORD PTR [ebp+0xc]
10001af4:	8b 10                	mov    edx,DWORD PTR [eax]
10001af6:	8b 45 e0             	mov    eax,DWORD PTR [ebp-0x20]
10001af9:	39 c2                	cmp    edx,eax
10001afb:	0f 8e 93 00 00 00    	jle    10001b94 <Rect_split+0x156>
10001b01:	8b 45 0c             	mov    eax,DWORD PTR [ebp+0xc]
10001b04:	8b 10                	mov    edx,DWORD PTR [eax]
10001b06:	8b 45 e8             	mov    eax,DWORD PTR [ebp-0x18]
10001b09:	39 c2                	cmp    edx,eax
10001b0b:	0f 8f 83 00 00 00    	jg     10001b94 <Rect_split+0x156>
10001b11:	8b 4d ec             	mov    ecx,DWORD PTR [ebp-0x14]
10001b14:	8b 45 0c             	mov    eax,DWORD PTR [ebp+0xc]
10001b17:	8b 00                	mov    eax,DWORD PTR [eax]
10001b19:	8d 58 ff             	lea    ebx,[eax-0x1]
10001b1c:	8b 55 e4             	mov    edx,DWORD PTR [ebp-0x1c]
10001b1f:	8b 45 e0             	mov    eax,DWORD PTR [ebp-0x20]
10001b22:	51                   	push   ecx
10001b23:	53                   	push   ebx
10001b24:	52                   	push   edx
10001b25:	50                   	push   eax
10001b26:	e8 fc ff ff ff       	call   10001b27 <Rect_split+0xe9>	10001b27: R_386_PC32	Rect_new
10001b2b:	83 c4 10             	add    esp,0x10
10001b2e:	89 45 f4             	mov    DWORD PTR [ebp-0xc],eax
10001b31:	83 7d f4 00          	cmp    DWORD PTR [ebp-0xc],0x0
10001b35:	75 44                	jne    10001b7b <Rect_split+0x13d>
10001b37:	eb 21                	jmp    10001b5a <Rect_split+0x11c>
10001b39:	83 ec 0c             	sub    esp,0xc
10001b3c:	ff 75 f4             	push   DWORD PTR [ebp-0xc]
10001b3f:	e8 fc ff ff ff       	call   10001b40 <Rect_split+0x102>	10001b40: R_386_PC32	free
10001b44:	83 c4 10             	add    esp,0x10
10001b47:	83 ec 08             	sub    esp,0x8
10001b4a:	6a 00                	push   0x0
10001b4c:	ff 75 f0             	push   DWORD PTR [ebp-0x10]
10001b4f:	e8 fc ff ff ff       	call   10001b50 <Rect_split+0x112>	10001b50: R_386_PC32	List_remove_at
10001b54:	83 c4 10             	add    esp,0x10
10001b57:	89 45 f4             	mov    DWORD PTR [ebp-0xc],eax
10001b5a:	8b 45 f0             	mov    eax,DWORD PTR [ebp-0x10]
10001b5d:	8b 00                	mov    eax,DWORD PTR [eax]
10001b5f:	85 c0                	test   eax,eax
10001b61:	75 d6                	jne    10001b39 <Rect_split+0xfb>
10001b63:	83 ec 0c             	sub    esp,0xc
10001b66:	ff 75 f0             	push   DWORD PTR [ebp-0x10]
10001b69:	e8 fc ff ff ff       	call   10001b6a <Rect_split+0x12c>	10001b6a: R_386_PC32	free
10001b6e:	83 c4 10             	add    esp,0x10
10001b71:	b8 00 00 00 00       	mov    eax,0x0
10001b76:	e9 65 01 00 00       	jmp    10001ce0 <Rect_split+0x2a2>
10001b7b:	83 ec 08             	sub    esp,0x8
10001b7e:	ff 75 f4             	push   DWORD PTR [ebp-0xc]
10001b81:	ff 75 f0             	push   DWORD PTR [ebp-0x10]
10001b84:	e8 fc ff ff ff       	call   10001b85 <Rect_split+0x147>	10001b85: R_386_PC32	List_add
10001b89:	83 c4 10             	add    esp,0x10
10001b8c:	8b 45 0c             	mov    eax,DWORD PTR [ebp+0xc]
10001b8f:	8b 00                	mov    eax,DWORD PTR [eax]
10001b91:	89 45 e0             	mov    DWORD PTR [ebp-0x20],eax
10001b94:	8b 45 0c             	mov    eax,DWORD PTR [ebp+0xc]
10001b97:	8b 50 0c             	mov    edx,DWORD PTR [eax+0xc]
10001b9a:	8b 45 e4             	mov    eax,DWORD PTR [ebp-0x1c]
10001b9d:	39 c2                	cmp    edx,eax
10001b9f:	0f 8c 96 00 00 00    	jl     10001c3b <Rect_split+0x1fd>
10001ba5:	8b 45 0c             	mov    eax,DWORD PTR [ebp+0xc]
10001ba8:	8b 50 0c             	mov    edx,DWORD PTR [eax+0xc]
10001bab:	8b 45 ec             	mov    eax,DWORD PTR [ebp-0x14]
10001bae:	39 c2                	cmp    edx,eax
10001bb0:	0f 8d 85 00 00 00    	jge    10001c3b <Rect_split+0x1fd>
10001bb6:	8b 4d ec             	mov    ecx,DWORD PTR [ebp-0x14]
10001bb9:	8b 55 e8             	mov    edx,DWORD PTR [ebp-0x18]
10001bbc:	8b 45 0c             	mov    eax,DWORD PTR [ebp+0xc]
10001bbf:	8b 40 0c             	mov    eax,DWORD PTR [eax+0xc]
10001bc2:	8d 58 01             	lea    ebx,[eax+0x1]
10001bc5:	8b 45 e0             	mov    eax,DWORD PTR [ebp-0x20]
10001bc8:	51                   	push   ecx
10001bc9:	52                   	push   edx
10001bca:	53                   	push   ebx
10001bcb:	50                   	push   eax
10001bcc:	e8 fc ff ff ff       	call   10001bcd <Rect_split+0x18f>	10001bcd: R_386_PC32	Rect_new
10001bd1:	83 c4 10             	add    esp,0x10
10001bd4:	89 45 f4             	mov    DWORD PTR [ebp-0xc],eax
10001bd7:	83 7d f4 00          	cmp    DWORD PTR [ebp-0xc],0x0
10001bdb:	75 44                	jne    10001c21 <Rect_split+0x1e3>
10001bdd:	eb 21                	jmp    10001c00 <Rect_split+0x1c2>
10001bdf:	83 ec 0c             	sub    esp,0xc
10001be2:	ff 75 f4             	push   DWORD PTR [ebp-0xc]
10001be5:	e8 fc ff ff ff       	call   10001be6 <Rect_split+0x1a8>	10001be6: R_386_PC32	free
10001bea:	83 c4 10             	add    esp,0x10
10001bed:	83 ec 08             	sub    esp,0x8
10001bf0:	6a 00                	push   0x0
10001bf2:	ff 75 f0             	push   DWORD PTR [ebp-0x10]
10001bf5:	e8 fc ff ff ff       	call   10001bf6 <Rect_split+0x1b8>	10001bf6: R_386_PC32	List_remove_at
10001bfa:	83 c4 10             	add    esp,0x10
10001bfd:	89 45 f4             	mov    DWORD PTR [ebp-0xc],eax
10001c00:	8b 45 f0             	mov    eax,DWORD PTR [ebp-0x10]
10001c03:	8b 00                	mov    eax,DWORD PTR [eax]
10001c05:	85 c0                	test   eax,eax
10001c07:	75 d6                	jne    10001bdf <Rect_split+0x1a1>
10001c09:	83 ec 0c             	sub    esp,0xc
10001c0c:	ff 75 f0             	push   DWORD PTR [ebp-0x10]
10001c0f:	e8 fc ff ff ff       	call   10001c10 <Rect_split+0x1d2>	10001c10: R_386_PC32	free
10001c14:	83 c4 10             	add    esp,0x10
10001c17:	b8 00 00 00 00       	mov    eax,0x0
10001c1c:	e9 bf 00 00 00       	jmp    10001ce0 <Rect_split+0x2a2>
10001c21:	83 ec 08             	sub    esp,0x8
10001c24:	ff 75 f4             	push   DWORD PTR [ebp-0xc]
10001c27:	ff 75 f0             	push   DWORD PTR [ebp-0x10]
10001c2a:	e8 fc ff ff ff       	call   10001c2b <Rect_split+0x1ed>	10001c2b: R_386_PC32	List_add
10001c2f:	83 c4 10             	add    esp,0x10
10001c32:	8b 45 0c             	mov    eax,DWORD PTR [ebp+0xc]
10001c35:	8b 40 0c             	mov    eax,DWORD PTR [eax+0xc]
10001c38:	89 45 ec             	mov    DWORD PTR [ebp-0x14],eax
10001c3b:	8b 45 0c             	mov    eax,DWORD PTR [ebp+0xc]
10001c3e:	8b 50 08             	mov    edx,DWORD PTR [eax+0x8]
10001c41:	8b 45 e0             	mov    eax,DWORD PTR [ebp-0x20]
10001c44:	39 c2                	cmp    edx,eax
10001c46:	0f 8c 91 00 00 00    	jl     10001cdd <Rect_split+0x29f>
10001c4c:	8b 45 0c             	mov    eax,DWORD PTR [ebp+0xc]
10001c4f:	8b 50 08             	mov    edx,DWORD PTR [eax+0x8]
10001c52:	8b 45 e8             	mov    eax,DWORD PTR [ebp-0x18]
10001c55:	39 c2                	cmp    edx,eax
10001c57:	0f 8d 80 00 00 00    	jge    10001cdd <Rect_split+0x29f>
10001c5d:	8b 4d ec             	mov    ecx,DWORD PTR [ebp-0x14]
10001c60:	8b 55 e8             	mov    edx,DWORD PTR [ebp-0x18]
10001c63:	8b 45 e4             	mov    eax,DWORD PTR [ebp-0x1c]
10001c66:	8b 5d 0c             	mov    ebx,DWORD PTR [ebp+0xc]
10001c69:	8b 5b 08             	mov    ebx,DWORD PTR [ebx+0x8]
10001c6c:	43                   	inc    ebx
10001c6d:	51                   	push   ecx
10001c6e:	52                   	push   edx
10001c6f:	50                   	push   eax
10001c70:	53                   	push   ebx
10001c71:	e8 fc ff ff ff       	call   10001c72 <Rect_split+0x234>	10001c72: R_386_PC32	Rect_new
10001c76:	83 c4 10             	add    esp,0x10
10001c79:	89 45 f4             	mov    DWORD PTR [ebp-0xc],eax
10001c7c:	83 7d f4 00          	cmp    DWORD PTR [ebp-0xc],0x0
10001c80:	75 41                	jne    10001cc3 <Rect_split+0x285>
10001c82:	eb 21                	jmp    10001ca5 <Rect_split+0x267>
10001c84:	83 ec 0c             	sub    esp,0xc
10001c87:	ff 75 f4             	push   DWORD PTR [ebp-0xc]
10001c8a:	e8 fc ff ff ff       	call   10001c8b <Rect_split+0x24d>	10001c8b: R_386_PC32	free
10001c8f:	83 c4 10             	add    esp,0x10
10001c92:	83 ec 08             	sub    esp,0x8
10001c95:	6a 00                	push   0x0
10001c97:	ff 75 f0             	push   DWORD PTR [ebp-0x10]
10001c9a:	e8 fc ff ff ff       	call   10001c9b <Rect_split+0x25d>	10001c9b: R_386_PC32	List_remove_at
10001c9f:	83 c4 10             	add    esp,0x10
10001ca2:	89 45 f4             	mov    DWORD PTR [ebp-0xc],eax
10001ca5:	8b 45 f0             	mov    eax,DWORD PTR [ebp-0x10]
10001ca8:	8b 00                	mov    eax,DWORD PTR [eax]
10001caa:	85 c0                	test   eax,eax
10001cac:	75 d6                	jne    10001c84 <Rect_split+0x246>
10001cae:	83 ec 0c             	sub    esp,0xc
10001cb1:	ff 75 f0             	push   DWORD PTR [ebp-0x10]
10001cb4:	e8 fc ff ff ff       	call   10001cb5 <Rect_split+0x277>	10001cb5: R_386_PC32	free
10001cb9:	83 c4 10             	add    esp,0x10
10001cbc:	b8 00 00 00 00       	mov    eax,0x0
10001cc1:	eb 1d                	jmp    10001ce0 <Rect_split+0x2a2>
10001cc3:	83 ec 08             	sub    esp,0x8
10001cc6:	ff 75 f4             	push   DWORD PTR [ebp-0xc]
10001cc9:	ff 75 f0             	push   DWORD PTR [ebp-0x10]
10001ccc:	e8 fc ff ff ff       	call   10001ccd <Rect_split+0x28f>	10001ccd: R_386_PC32	List_add
10001cd1:	83 c4 10             	add    esp,0x10
10001cd4:	8b 45 0c             	mov    eax,DWORD PTR [ebp+0xc]
10001cd7:	8b 40 08             	mov    eax,DWORD PTR [eax+0x8]
10001cda:	89 45 e8             	mov    DWORD PTR [ebp-0x18],eax
10001cdd:	8b 45 f0             	mov    eax,DWORD PTR [ebp-0x10]
10001ce0:	8b 5d fc             	mov    ebx,DWORD PTR [ebp-0x4]
10001ce3:	c9                   	leave  
10001ce4:	c3                   	ret    

10001ce5 <Rect_intersect>:
10001ce5:	55                   	push   ebp
10001ce6:	89 e5                	mov    ebp,esp
10001ce8:	53                   	push   ebx
10001ce9:	83 ec 14             	sub    esp,0x14
10001cec:	8b 45 08             	mov    eax,DWORD PTR [ebp+0x8]
10001cef:	8b 50 04             	mov    edx,DWORD PTR [eax+0x4]
10001cf2:	8b 45 0c             	mov    eax,DWORD PTR [ebp+0xc]
10001cf5:	8b 40 0c             	mov    eax,DWORD PTR [eax+0xc]
10001cf8:	39 c2                	cmp    edx,eax
10001cfa:	7f 2e                	jg     10001d2a <Rect_intersect+0x45>
10001cfc:	8b 45 08             	mov    eax,DWORD PTR [ebp+0x8]
10001cff:	8b 50 0c             	mov    edx,DWORD PTR [eax+0xc]
10001d02:	8b 45 0c             	mov    eax,DWORD PTR [ebp+0xc]
10001d05:	8b 40 04             	mov    eax,DWORD PTR [eax+0x4]
10001d08:	39 c2                	cmp    edx,eax
10001d0a:	7c 1e                	jl     10001d2a <Rect_intersect+0x45>
10001d0c:	8b 45 08             	mov    eax,DWORD PTR [ebp+0x8]
10001d0f:	8b 10                	mov    edx,DWORD PTR [eax]
10001d11:	8b 45 0c             	mov    eax,DWORD PTR [ebp+0xc]
10001d14:	8b 40 08             	mov    eax,DWORD PTR [eax+0x8]
10001d17:	39 c2                	cmp    edx,eax
10001d19:	7f 0f                	jg     10001d2a <Rect_intersect+0x45>
10001d1b:	8b 45 08             	mov    eax,DWORD PTR [ebp+0x8]
10001d1e:	8b 50 08             	mov    edx,DWORD PTR [eax+0x8]
10001d21:	8b 45 0c             	mov    eax,DWORD PTR [ebp+0xc]
10001d24:	8b 00                	mov    eax,DWORD PTR [eax]
10001d26:	39 c2                	cmp    edx,eax
10001d28:	7d 0a                	jge    10001d34 <Rect_intersect+0x4f>
10001d2a:	b8 00 00 00 00       	mov    eax,0x0
10001d2f:	e9 e3 00 00 00       	jmp    10001e17 <Rect_intersect+0x132>
10001d34:	8b 45 08             	mov    eax,DWORD PTR [ebp+0x8]
10001d37:	8b 58 0c             	mov    ebx,DWORD PTR [eax+0xc]
10001d3a:	8b 45 08             	mov    eax,DWORD PTR [ebp+0x8]
10001d3d:	8b 48 08             	mov    ecx,DWORD PTR [eax+0x8]
10001d40:	8b 45 08             	mov    eax,DWORD PTR [ebp+0x8]
10001d43:	8b 50 04             	mov    edx,DWORD PTR [eax+0x4]
10001d46:	8b 45 08             	mov    eax,DWORD PTR [ebp+0x8]
10001d49:	8b 00                	mov    eax,DWORD PTR [eax]
10001d4b:	53                   	push   ebx
10001d4c:	51                   	push   ecx
10001d4d:	52                   	push   edx
10001d4e:	50                   	push   eax
10001d4f:	e8 fc ff ff ff       	call   10001d50 <Rect_intersect+0x6b>	10001d50: R_386_PC32	Rect_new
10001d54:	83 c4 10             	add    esp,0x10
10001d57:	89 45 f4             	mov    DWORD PTR [ebp-0xc],eax
10001d5a:	83 7d f4 00          	cmp    DWORD PTR [ebp-0xc],0x0
10001d5e:	75 0a                	jne    10001d6a <Rect_intersect+0x85>
10001d60:	b8 00 00 00 00       	mov    eax,0x0
10001d65:	e9 ad 00 00 00       	jmp    10001e17 <Rect_intersect+0x132>
10001d6a:	8b 45 0c             	mov    eax,DWORD PTR [ebp+0xc]
10001d6d:	8b 50 04             	mov    edx,DWORD PTR [eax+0x4]
10001d70:	8b 45 f4             	mov    eax,DWORD PTR [ebp-0xc]
10001d73:	8b 40 04             	mov    eax,DWORD PTR [eax+0x4]
10001d76:	39 c2                	cmp    edx,eax
10001d78:	7e 1c                	jle    10001d96 <Rect_intersect+0xb1>
10001d7a:	8b 45 0c             	mov    eax,DWORD PTR [ebp+0xc]
10001d7d:	8b 50 04             	mov    edx,DWORD PTR [eax+0x4]
10001d80:	8b 45 f4             	mov    eax,DWORD PTR [ebp-0xc]
10001d83:	8b 40 0c             	mov    eax,DWORD PTR [eax+0xc]
10001d86:	39 c2                	cmp    edx,eax
10001d88:	7f 0c                	jg     10001d96 <Rect_intersect+0xb1>
10001d8a:	8b 45 0c             	mov    eax,DWORD PTR [ebp+0xc]
10001d8d:	8b 50 04             	mov    edx,DWORD PTR [eax+0x4]
10001d90:	8b 45 f4             	mov    eax,DWORD PTR [ebp-0xc]
10001d93:	89 50 04             	mov    DWORD PTR [eax+0x4],edx
10001d96:	8b 45 0c             	mov    eax,DWORD PTR [ebp+0xc]
10001d99:	8b 10                	mov    edx,DWORD PTR [eax]
10001d9b:	8b 45 f4             	mov    eax,DWORD PTR [ebp-0xc]
10001d9e:	8b 00                	mov    eax,DWORD PTR [eax]
10001da0:	39 c2                	cmp    edx,eax
10001da2:	7e 19                	jle    10001dbd <Rect_intersect+0xd8>
10001da4:	8b 45 0c             	mov    eax,DWORD PTR [ebp+0xc]
10001da7:	8b 10                	mov    edx,DWORD PTR [eax]
10001da9:	8b 45 f4             	mov    eax,DWORD PTR [ebp-0xc]
10001dac:	8b 40 08             	mov    eax,DWORD PTR [eax+0x8]
10001daf:	39 c2                	cmp    edx,eax
10001db1:	7f 0a                	jg     10001dbd <Rect_intersect+0xd8>
10001db3:	8b 45 0c             	mov    eax,DWORD PTR [ebp+0xc]
10001db6:	8b 10                	mov    edx,DWORD PTR [eax]
10001db8:	8b 45 f4             	mov    eax,DWORD PTR [ebp-0xc]
10001dbb:	89 10                	mov    DWORD PTR [eax],edx
10001dbd:	8b 45 0c             	mov    eax,DWORD PTR [ebp+0xc]
10001dc0:	8b 50 0c             	mov    edx,DWORD PTR [eax+0xc]
10001dc3:	8b 45 f4             	mov    eax,DWORD PTR [ebp-0xc]
10001dc6:	8b 40 04             	mov    eax,DWORD PTR [eax+0x4]
10001dc9:	39 c2                	cmp    edx,eax
10001dcb:	7c 1c                	jl     10001de9 <Rect_intersect+0x104>
10001dcd:	8b 45 0c             	mov    eax,DWORD PTR [ebp+0xc]
10001dd0:	8b 50 0c             	mov    edx,DWORD PTR [eax+0xc]
10001dd3:	8b 45 f4             	mov    eax,DWORD PTR [ebp-0xc]
10001dd6:	8b 40 0c             	mov    eax,DWORD PTR [eax+0xc]
10001dd9:	39 c2                	cmp    edx,eax
10001ddb:	7d 0c                	jge    10001de9 <Rect_intersect+0x104>
10001ddd:	8b 45 0c             	mov    eax,DWORD PTR [ebp+0xc]
10001de0:	8b 50 0c             	mov    edx,DWORD PTR [eax+0xc]
10001de3:	8b 45 f4             	mov    eax,DWORD PTR [ebp-0xc]
10001de6:	89 50 0c             	mov    DWORD PTR [eax+0xc],edx
10001de9:	8b 45 0c             	mov    eax,DWORD PTR [ebp+0xc]
10001dec:	8b 50 08             	mov    edx,DWORD PTR [eax+0x8]
10001def:	8b 45 f4             	mov    eax,DWORD PTR [ebp-0xc]
10001df2:	8b 00                	mov    eax,DWORD PTR [eax]
10001df4:	39 c2                	cmp    edx,eax
10001df6:	7c 1c                	jl     10001e14 <Rect_intersect+0x12f>
10001df8:	8b 45 0c             	mov    eax,DWORD PTR [ebp+0xc]
10001dfb:	8b 50 08             	mov    edx,DWORD PTR [eax+0x8]
10001dfe:	8b 45 f4             	mov    eax,DWORD PTR [ebp-0xc]
10001e01:	8b 40 08             	mov    eax,DWORD PTR [eax+0x8]
10001e04:	39 c2                	cmp    edx,eax
10001e06:	7d 0c                	jge    10001e14 <Rect_intersect+0x12f>
10001e08:	8b 45 0c             	mov    eax,DWORD PTR [ebp+0xc]
10001e0b:	8b 50 08             	mov    edx,DWORD PTR [eax+0x8]
10001e0e:	8b 45 f4             	mov    eax,DWORD PTR [ebp-0xc]
10001e11:	89 50 08             	mov    DWORD PTR [eax+0x8],edx
10001e14:	8b 45 f4             	mov    eax,DWORD PTR [ebp-0xc]
10001e17:	8b 5d fc             	mov    ebx,DWORD PTR [ebp-0x4]
10001e1a:	c9                   	leave  
10001e1b:	c3                   	ret    

10001e1c <Window_new>:
10001e1c:	55                   	push   ebp
10001e1d:	89 e5                	mov    ebp,esp
10001e1f:	56                   	push   esi
10001e20:	53                   	push   ebx
10001e21:	83 ec 30             	sub    esp,0x30
10001e24:	8b 75 08             	mov    esi,DWORD PTR [ebp+0x8]
10001e27:	8b 5d 0c             	mov    ebx,DWORD PTR [ebp+0xc]
10001e2a:	8b 4d 10             	mov    ecx,DWORD PTR [ebp+0x10]
10001e2d:	8b 55 14             	mov    edx,DWORD PTR [ebp+0x14]
10001e30:	8b 45 18             	mov    eax,DWORD PTR [ebp+0x18]
10001e33:	66 89 75 e4          	mov    WORD PTR [ebp-0x1c],si
10001e37:	66 89 5d e0          	mov    WORD PTR [ebp-0x20],bx
10001e3b:	66 89 4d dc          	mov    WORD PTR [ebp-0x24],cx
10001e3f:	66 89 55 d8          	mov    WORD PTR [ebp-0x28],dx
10001e43:	66 89 45 d4          	mov    WORD PTR [ebp-0x2c],ax
10001e47:	83 ec 0c             	sub    esp,0xc
10001e4a:	6a 6c                	push   0x6c
10001e4c:	e8 fc ff ff ff       	call   10001e4d <Window_new+0x31>	10001e4d: R_386_PC32	malloc
10001e51:	83 c4 10             	add    esp,0x10
10001e54:	89 45 f4             	mov    DWORD PTR [ebp-0xc],eax
10001e57:	83 7d f4 00          	cmp    DWORD PTR [ebp-0xc],0x0
10001e5b:	75 05                	jne    10001e62 <Window_new+0x46>
10001e5d:	8b 45 f4             	mov    eax,DWORD PTR [ebp-0xc]
10001e60:	eb 46                	jmp    10001ea8 <Window_new+0x8c>
10001e62:	0f b7 75 d4          	movzx  esi,WORD PTR [ebp-0x2c]
10001e66:	0f b7 5d d8          	movzx  ebx,WORD PTR [ebp-0x28]
10001e6a:	0f b7 4d dc          	movzx  ecx,WORD PTR [ebp-0x24]
10001e6e:	0f bf 55 e0          	movsx  edx,WORD PTR [ebp-0x20]
10001e72:	0f bf 45 e4          	movsx  eax,WORD PTR [ebp-0x1c]
10001e76:	83 ec 04             	sub    esp,0x4
10001e79:	ff 75 1c             	push   DWORD PTR [ebp+0x1c]
10001e7c:	56                   	push   esi
10001e7d:	53                   	push   ebx
10001e7e:	51                   	push   ecx
10001e7f:	52                   	push   edx
10001e80:	50                   	push   eax
10001e81:	ff 75 f4             	push   DWORD PTR [ebp-0xc]
10001e84:	e8 fc ff ff ff       	call   10001e85 <Window_new+0x69>	10001e85: R_386_PC32	Window_init
10001e89:	83 c4 20             	add    esp,0x20
10001e8c:	85 c0                	test   eax,eax
10001e8e:	75 15                	jne    10001ea5 <Window_new+0x89>
10001e90:	83 ec 0c             	sub    esp,0xc
10001e93:	ff 75 f4             	push   DWORD PTR [ebp-0xc]
10001e96:	e8 fc ff ff ff       	call   10001e97 <Window_new+0x7b>	10001e97: R_386_PC32	free
10001e9b:	83 c4 10             	add    esp,0x10
10001e9e:	b8 00 00 00 00       	mov    eax,0x0
10001ea3:	eb 03                	jmp    10001ea8 <Window_new+0x8c>
10001ea5:	8b 45 f4             	mov    eax,DWORD PTR [ebp-0xc]
10001ea8:	8d 65 f8             	lea    esp,[ebp-0x8]
10001eab:	5b                   	pop    ebx
10001eac:	5e                   	pop    esi
10001ead:	5d                   	pop    ebp
10001eae:	c3                   	ret    

10001eaf <Window_init>:
10001eaf:	55                   	push   ebp
10001eb0:	89 e5                	mov    ebp,esp
10001eb2:	56                   	push   esi
10001eb3:	53                   	push   ebx
10001eb4:	83 ec 20             	sub    esp,0x20
10001eb7:	8b 75 0c             	mov    esi,DWORD PTR [ebp+0xc]
10001eba:	8b 5d 10             	mov    ebx,DWORD PTR [ebp+0x10]
10001ebd:	8b 4d 14             	mov    ecx,DWORD PTR [ebp+0x14]
10001ec0:	8b 55 18             	mov    edx,DWORD PTR [ebp+0x18]
10001ec3:	8b 45 1c             	mov    eax,DWORD PTR [ebp+0x1c]
10001ec6:	66 89 75 f4          	mov    WORD PTR [ebp-0xc],si
10001eca:	66 89 5d f0          	mov    WORD PTR [ebp-0x10],bx
10001ece:	66 89 4d ec          	mov    WORD PTR [ebp-0x14],cx
10001ed2:	66 89 55 e8          	mov    WORD PTR [ebp-0x18],dx
10001ed6:	66 89 45 e4          	mov    WORD PTR [ebp-0x1c],ax
10001eda:	e8 fc ff ff ff       	call   10001edb <Window_init+0x2c>	10001edb: R_386_PC32	List_new
10001edf:	89 c2                	mov    edx,eax
10001ee1:	8b 45 08             	mov    eax,DWORD PTR [ebp+0x8]
10001ee4:	89 50 1c             	mov    DWORD PTR [eax+0x1c],edx
10001ee7:	8b 45 08             	mov    eax,DWORD PTR [ebp+0x8]
10001eea:	8b 40 1c             	mov    eax,DWORD PTR [eax+0x1c]
10001eed:	85 c0                	test   eax,eax
10001eef:	75 0a                	jne    10001efb <Window_init+0x4c>
10001ef1:	b8 00 00 00 00       	mov    eax,0x0
10001ef6:	e9 19 01 00 00       	jmp    10002014 <Window_init+0x165>
10001efb:	8b 55 08             	mov    edx,DWORD PTR [ebp+0x8]
10001efe:	8b 45 f4             	mov    eax,DWORD PTR [ebp-0xc]
10001f01:	66 89 42 04          	mov    WORD PTR [edx+0x4],ax
10001f05:	8b 55 08             	mov    edx,DWORD PTR [ebp+0x8]
10001f08:	8b 45 f0             	mov    eax,DWORD PTR [ebp-0x10]
10001f0b:	66 89 42 06          	mov    WORD PTR [edx+0x6],ax
10001f0f:	8b 45 ec             	mov    eax,DWORD PTR [ebp-0x14]
10001f12:	8b 55 08             	mov    edx,DWORD PTR [ebp+0x8]
10001f15:	66 89 42 08          	mov    WORD PTR [edx+0x8],ax
10001f19:	8b 45 e8             	mov    eax,DWORD PTR [ebp-0x18]
10001f1c:	8b 55 08             	mov    edx,DWORD PTR [ebp+0x8]
10001f1f:	66 89 42 0a          	mov    WORD PTR [edx+0xa],ax
10001f23:	8b 45 08             	mov    eax,DWORD PTR [ebp+0x8]
10001f26:	8b 55 20             	mov    edx,DWORD PTR [ebp+0x20]
10001f29:	89 50 10             	mov    DWORD PTR [eax+0x10],edx
10001f2c:	8b 55 08             	mov    edx,DWORD PTR [ebp+0x8]
10001f2f:	8b 45 e4             	mov    eax,DWORD PTR [ebp-0x1c]
10001f32:	66 89 42 0c          	mov    WORD PTR [edx+0xc],ax
10001f36:	8b 45 08             	mov    eax,DWORD PTR [ebp+0x8]
10001f39:	c7 00 00 00 00 00    	mov    DWORD PTR [eax],0x0
10001f3f:	8b 45 08             	mov    eax,DWORD PTR [ebp+0x8]
10001f42:	c7 40 14 00 00 00 00 	mov    DWORD PTR [eax+0x14],0x0
10001f49:	8b 45 08             	mov    eax,DWORD PTR [ebp+0x8]
10001f4c:	66 c7 40 20 00 00    	mov    WORD PTR [eax+0x20],0x0
10001f52:	8b 45 08             	mov    eax,DWORD PTR [ebp+0x8]
10001f55:	66 c7 40 22 00 00    	mov    WORD PTR [eax+0x22],0x0
10001f5b:	8b 45 08             	mov    eax,DWORD PTR [ebp+0x8]
10001f5e:	c6 40 28 00          	mov    BYTE PTR [eax+0x28],0x0
10001f62:	8b 45 08             	mov    eax,DWORD PTR [ebp+0x8]
10001f65:	c7 40 2c 00 00 00 00 	mov    DWORD PTR [eax+0x2c],0x0	10001f68: R_386_32	Window_paint_handler
10001f6c:	8b 45 08             	mov    eax,DWORD PTR [ebp+0x8]
10001f6f:	c7 40 34 00 00 00 00 	mov    DWORD PTR [eax+0x34],0x0	10001f72: R_386_32	Window_mousedown_handler
10001f76:	8b 45 08             	mov    eax,DWORD PTR [ebp+0x8]
10001f79:	c7 40 38 00 00 00 00 	mov    DWORD PTR [eax+0x38],0x0	10001f7c: R_386_32	Window_mousedown_handler
10001f80:	8b 45 08             	mov    eax,DWORD PTR [ebp+0x8]
10001f83:	c7 40 30 00 00 00 00 	mov    DWORD PTR [eax+0x30],0x0	10001f86: R_386_32	Window_mousedown_handler
10001f8a:	8b 45 08             	mov    eax,DWORD PTR [ebp+0x8]
10001f8d:	c7 40 3c 00 00 00 00 	mov    DWORD PTR [eax+0x3c],0x0	10001f90: R_386_32	Window_mousedown_handler
10001f94:	8b 45 08             	mov    eax,DWORD PTR [ebp+0x8]
10001f97:	c7 40 40 00 00 00 00 	mov    DWORD PTR [eax+0x40],0x0	10001f9a: R_386_32	Window_mousedown_handler
10001f9e:	8b 45 08             	mov    eax,DWORD PTR [ebp+0x8]
10001fa1:	c7 40 44 00 00 00 00 	mov    DWORD PTR [eax+0x44],0x0	10001fa4: R_386_32	Window_resize_handler
10001fa8:	8b 45 08             	mov    eax,DWORD PTR [ebp+0x8]
10001fab:	c7 40 48 00 00 00 00 	mov    DWORD PTR [eax+0x48],0x0	10001fae: R_386_32	Window_move_handler
10001fb2:	8b 45 08             	mov    eax,DWORD PTR [ebp+0x8]
10001fb5:	c7 40 5c 00 00 00 00 	mov    DWORD PTR [eax+0x5c],0x0
10001fbc:	c7 40 60 00 00 00 00 	mov    DWORD PTR [eax+0x60],0x0
10001fc3:	8b 45 08             	mov    eax,DWORD PTR [ebp+0x8]
10001fc6:	c6 40 58 00          	mov    BYTE PTR [eax+0x58],0x0
10001fca:	8b 45 08             	mov    eax,DWORD PTR [ebp+0x8]
10001fcd:	c7 40 68 ff ff ff ff 	mov    DWORD PTR [eax+0x68],0xffffffff
10001fd4:	8b 45 08             	mov    eax,DWORD PTR [ebp+0x8]
10001fd7:	c7 40 64 00 00 00 00 	mov    DWORD PTR [eax+0x64],0x0
10001fde:	8b 45 08             	mov    eax,DWORD PTR [ebp+0x8]
10001fe1:	c7 40 18 00 00 00 00 	mov    DWORD PTR [eax+0x18],0x0
10001fe8:	8b 45 08             	mov    eax,DWORD PTR [ebp+0x8]
10001feb:	c7 40 4c 00 00 00 00 	mov    DWORD PTR [eax+0x4c],0x0
10001ff2:	8b 45 08             	mov    eax,DWORD PTR [ebp+0x8]
10001ff5:	c7 40 24 00 00 00 00 	mov    DWORD PTR [eax+0x24],0x0
10001ffc:	0f b7 45 e4          	movzx  eax,WORD PTR [ebp-0x1c]
10002000:	83 e0 02             	and    eax,0x2
10002003:	85 c0                	test   eax,eax
10002005:	74 08                	je     1000200f <Window_init+0x160>
10002007:	8b 45 08             	mov    eax,DWORD PTR [ebp+0x8]
1000200a:	a3 00 00 00 00       	mov    ds:0x0,eax	1000200b: R_386_32	active_window
1000200f:	b8 01 00 00 00       	mov    eax,0x1
10002014:	83 c4 20             	add    esp,0x20
10002017:	5b                   	pop    ebx
10002018:	5e                   	pop    esi
10002019:	5d                   	pop    ebp
1000201a:	c3                   	ret    

1000201b <Window_screen_x>:
1000201b:	55                   	push   ebp
1000201c:	89 e5                	mov    ebp,esp
1000201e:	53                   	push   ebx
1000201f:	83 ec 04             	sub    esp,0x4
10002022:	8b 45 08             	mov    eax,DWORD PTR [ebp+0x8]
10002025:	8b 00                	mov    eax,DWORD PTR [eax]
10002027:	85 c0                	test   eax,eax
10002029:	74 1e                	je     10002049 <Window_screen_x+0x2e>
1000202b:	8b 45 08             	mov    eax,DWORD PTR [ebp+0x8]
1000202e:	8b 40 04             	mov    eax,DWORD PTR [eax+0x4]
10002031:	0f bf d8             	movsx  ebx,ax
10002034:	8b 45 08             	mov    eax,DWORD PTR [ebp+0x8]
10002037:	8b 00                	mov    eax,DWORD PTR [eax]
10002039:	83 ec 0c             	sub    esp,0xc
1000203c:	50                   	push   eax
1000203d:	e8 fc ff ff ff       	call   1000203e <Window_screen_x+0x23>	1000203e: R_386_PC32	Window_screen_x
10002042:	83 c4 10             	add    esp,0x10
10002045:	01 d8                	add    eax,ebx
10002047:	eb 07                	jmp    10002050 <Window_screen_x+0x35>
10002049:	8b 45 08             	mov    eax,DWORD PTR [ebp+0x8]
1000204c:	8b 40 04             	mov    eax,DWORD PTR [eax+0x4]
1000204f:	98                   	cwde   
10002050:	8b 5d fc             	mov    ebx,DWORD PTR [ebp-0x4]
10002053:	c9                   	leave  
10002054:	c3                   	ret    

10002055 <Window_screen_y>:
10002055:	55                   	push   ebp
10002056:	89 e5                	mov    ebp,esp
10002058:	53                   	push   ebx
10002059:	83 ec 04             	sub    esp,0x4
1000205c:	8b 45 08             	mov    eax,DWORD PTR [ebp+0x8]
1000205f:	8b 00                	mov    eax,DWORD PTR [eax]
10002061:	85 c0                	test   eax,eax
10002063:	74 1f                	je     10002084 <Window_screen_y+0x2f>
10002065:	8b 45 08             	mov    eax,DWORD PTR [ebp+0x8]
10002068:	66 8b 40 06          	mov    ax,WORD PTR [eax+0x6]
1000206c:	0f bf d8             	movsx  ebx,ax
1000206f:	8b 45 08             	mov    eax,DWORD PTR [ebp+0x8]
10002072:	8b 00                	mov    eax,DWORD PTR [eax]
10002074:	83 ec 0c             	sub    esp,0xc
10002077:	50                   	push   eax
10002078:	e8 fc ff ff ff       	call   10002079 <Window_screen_y+0x24>	10002079: R_386_PC32	Window_screen_y
1000207d:	83 c4 10             	add    esp,0x10
10002080:	01 d8                	add    eax,ebx
10002082:	eb 08                	jmp    1000208c <Window_screen_y+0x37>
10002084:	8b 45 08             	mov    eax,DWORD PTR [ebp+0x8]
10002087:	66 8b 40 06          	mov    ax,WORD PTR [eax+0x6]
1000208b:	98                   	cwde   
1000208c:	8b 5d fc             	mov    ebx,DWORD PTR [ebp-0x4]
1000208f:	c9                   	leave  
10002090:	c3                   	ret    

10002091 <Window_draw_border>:
10002091:	55                   	push   ebp
10002092:	89 e5                	mov    ebp,esp
10002094:	56                   	push   esi
10002095:	53                   	push   ebx
10002096:	83 ec 10             	sub    esp,0x10
10002099:	83 ec 0c             	sub    esp,0xc
1000209c:	ff 75 08             	push   DWORD PTR [ebp+0x8]
1000209f:	e8 fc ff ff ff       	call   100020a0 <Window_draw_border+0xf>	100020a0: R_386_PC32	Window_screen_x
100020a4:	83 c4 10             	add    esp,0x10
100020a7:	89 45 f4             	mov    DWORD PTR [ebp-0xc],eax
100020aa:	83 ec 0c             	sub    esp,0xc
100020ad:	ff 75 08             	push   DWORD PTR [ebp+0x8]
100020b0:	e8 fc ff ff ff       	call   100020b1 <Window_draw_border+0x20>	100020b1: R_386_PC32	Window_screen_y
100020b5:	83 c4 10             	add    esp,0x10
100020b8:	89 45 f0             	mov    DWORD PTR [ebp-0x10],eax
100020bb:	8b 45 08             	mov    eax,DWORD PTR [ebp+0x8]
100020be:	8b 40 08             	mov    eax,DWORD PTR [eax+0x8]
100020c1:	0f bf d0             	movsx  edx,ax
100020c4:	8b 45 f0             	mov    eax,DWORD PTR [ebp-0x10]
100020c7:	8d 48 17             	lea    ecx,[eax+0x17]
100020ca:	8b 45 08             	mov    eax,DWORD PTR [ebp+0x8]
100020cd:	8b 40 10             	mov    eax,DWORD PTR [eax+0x10]
100020d0:	83 ec 0c             	sub    esp,0xc
100020d3:	68 aa aa aa 00       	push   0xaaaaaa
100020d8:	52                   	push   edx
100020d9:	51                   	push   ecx
100020da:	ff 75 f4             	push   DWORD PTR [ebp-0xc]
100020dd:	50                   	push   eax
100020de:	e8 fc ff ff ff       	call   100020df <Window_draw_border+0x4e>	100020df: R_386_PC32	Context_horizontal_line
100020e3:	83 c4 20             	add    esp,0x20
100020e6:	8b 45 08             	mov    eax,DWORD PTR [ebp+0x8]
100020e9:	8b 40 08             	mov    eax,DWORD PTR [eax+0x8]
100020ec:	0f bf d0             	movsx  edx,ax
100020ef:	8b 45 f0             	mov    eax,DWORD PTR [ebp-0x10]
100020f2:	8d 48 18             	lea    ecx,[eax+0x18]
100020f5:	8b 45 08             	mov    eax,DWORD PTR [ebp+0x8]
100020f8:	8b 40 10             	mov    eax,DWORD PTR [eax+0x10]
100020fb:	83 ec 0c             	sub    esp,0xc
100020fe:	68 aa aa aa 00       	push   0xaaaaaa
10002103:	52                   	push   edx
10002104:	51                   	push   ecx
10002105:	ff 75 f4             	push   DWORD PTR [ebp-0xc]
10002108:	50                   	push   eax
10002109:	e8 fc ff ff ff       	call   1000210a <Window_draw_border+0x79>	1000210a: R_386_PC32	Context_horizontal_line
1000210e:	83 c4 20             	add    esp,0x20
10002111:	8b 45 08             	mov    eax,DWORD PTR [ebp+0x8]
10002114:	8b 40 08             	mov    eax,DWORD PTR [eax+0x8]
10002117:	0f bf d0             	movsx  edx,ax
1000211a:	8b 45 f0             	mov    eax,DWORD PTR [ebp-0x10]
1000211d:	8d 48 19             	lea    ecx,[eax+0x19]
10002120:	8b 45 08             	mov    eax,DWORD PTR [ebp+0x8]
10002123:	8b 40 10             	mov    eax,DWORD PTR [eax+0x10]
10002126:	83 ec 0c             	sub    esp,0xc
10002129:	68 aa aa aa 00       	push   0xaaaaaa
1000212e:	52                   	push   edx
1000212f:	51                   	push   ecx
10002130:	ff 75 f4             	push   DWORD PTR [ebp-0xc]
10002133:	50                   	push   eax
10002134:	e8 fc ff ff ff       	call   10002135 <Window_draw_border+0xa4>	10002135: R_386_PC32	Context_horizontal_line
10002139:	83 c4 20             	add    esp,0x20
1000213c:	8b 45 08             	mov    eax,DWORD PTR [ebp+0x8]
1000213f:	8b 40 08             	mov    eax,DWORD PTR [eax+0x8]
10002142:	0f bf d0             	movsx  edx,ax
10002145:	8b 45 08             	mov    eax,DWORD PTR [ebp+0x8]
10002148:	8b 40 10             	mov    eax,DWORD PTR [eax+0x10]
1000214b:	83 ec 0c             	sub    esp,0xc
1000214e:	68 aa aa aa 00       	push   0xaaaaaa
10002153:	52                   	push   edx
10002154:	ff 75 f0             	push   DWORD PTR [ebp-0x10]
10002157:	ff 75 f4             	push   DWORD PTR [ebp-0xc]
1000215a:	50                   	push   eax
1000215b:	e8 fc ff ff ff       	call   1000215c <Window_draw_border+0xcb>	1000215c: R_386_PC32	Context_horizontal_line
10002160:	83 c4 20             	add    esp,0x20
10002163:	8b 45 08             	mov    eax,DWORD PTR [ebp+0x8]
10002166:	8b 40 08             	mov    eax,DWORD PTR [eax+0x8]
10002169:	98                   	cwde   
1000216a:	83 e8 02             	sub    eax,0x2
1000216d:	89 c3                	mov    ebx,eax
1000216f:	8b 45 f0             	mov    eax,DWORD PTR [ebp-0x10]
10002172:	8d 48 01             	lea    ecx,[eax+0x1]
10002175:	8b 45 f4             	mov    eax,DWORD PTR [ebp-0xc]
10002178:	8d 50 01             	lea    edx,[eax+0x1]
1000217b:	8b 45 08             	mov    eax,DWORD PTR [ebp+0x8]
1000217e:	8b 40 10             	mov    eax,DWORD PTR [eax+0x10]
10002181:	83 ec 0c             	sub    esp,0xc
10002184:	68 ff ff ff 00       	push   0xffffff
10002189:	53                   	push   ebx
1000218a:	51                   	push   ecx
1000218b:	52                   	push   edx
1000218c:	50                   	push   eax
1000218d:	e8 fc ff ff ff       	call   1000218e <Window_draw_border+0xfd>	1000218e: R_386_PC32	Context_horizontal_line
10002192:	83 c4 20             	add    esp,0x20
10002195:	8b 45 08             	mov    eax,DWORD PTR [ebp+0x8]
10002198:	8b 40 08             	mov    eax,DWORD PTR [eax+0x8]
1000219b:	98                   	cwde   
1000219c:	83 e8 04             	sub    eax,0x4
1000219f:	89 c3                	mov    ebx,eax
100021a1:	8b 45 f0             	mov    eax,DWORD PTR [ebp-0x10]
100021a4:	8d 48 02             	lea    ecx,[eax+0x2]
100021a7:	8b 45 f4             	mov    eax,DWORD PTR [ebp-0xc]
100021aa:	8d 50 02             	lea    edx,[eax+0x2]
100021ad:	8b 45 08             	mov    eax,DWORD PTR [ebp+0x8]
100021b0:	8b 40 10             	mov    eax,DWORD PTR [eax+0x10]
100021b3:	83 ec 0c             	sub    esp,0xc
100021b6:	68 aa aa aa 00       	push   0xaaaaaa
100021bb:	53                   	push   ebx
100021bc:	51                   	push   ecx
100021bd:	52                   	push   edx
100021be:	50                   	push   eax
100021bf:	e8 fc ff ff ff       	call   100021c0 <Window_draw_border+0x12f>	100021c0: R_386_PC32	Context_horizontal_line
100021c4:	83 c4 20             	add    esp,0x20
100021c7:	8b 45 08             	mov    eax,DWORD PTR [ebp+0x8]
100021ca:	8b 40 08             	mov    eax,DWORD PTR [eax+0x8]
100021cd:	98                   	cwde   
100021ce:	83 e8 04             	sub    eax,0x4
100021d1:	89 c3                	mov    ebx,eax
100021d3:	8b 45 08             	mov    eax,DWORD PTR [ebp+0x8]
100021d6:	66 8b 40 0a          	mov    ax,WORD PTR [eax+0xa]
100021da:	0f bf d0             	movsx  edx,ax
100021dd:	8b 45 f0             	mov    eax,DWORD PTR [ebp-0x10]
100021e0:	01 d0                	add    eax,edx
100021e2:	8d 48 fd             	lea    ecx,[eax-0x3]
100021e5:	8b 45 f4             	mov    eax,DWORD PTR [ebp-0xc]
100021e8:	8d 50 02             	lea    edx,[eax+0x2]
100021eb:	8b 45 08             	mov    eax,DWORD PTR [ebp+0x8]
100021ee:	8b 40 10             	mov    eax,DWORD PTR [eax+0x10]
100021f1:	83 ec 0c             	sub    esp,0xc
100021f4:	68 aa aa aa 00       	push   0xaaaaaa
100021f9:	53                   	push   ebx
100021fa:	51                   	push   ecx
100021fb:	52                   	push   edx
100021fc:	50                   	push   eax
100021fd:	e8 fc ff ff ff       	call   100021fe <Window_draw_border+0x16d>	100021fe: R_386_PC32	Context_horizontal_line
10002202:	83 c4 20             	add    esp,0x20
10002205:	8b 45 08             	mov    eax,DWORD PTR [ebp+0x8]
10002208:	8b 40 08             	mov    eax,DWORD PTR [eax+0x8]
1000220b:	98                   	cwde   
1000220c:	83 e8 02             	sub    eax,0x2
1000220f:	89 c3                	mov    ebx,eax
10002211:	8b 45 08             	mov    eax,DWORD PTR [ebp+0x8]
10002214:	66 8b 40 0a          	mov    ax,WORD PTR [eax+0xa]
10002218:	0f bf d0             	movsx  edx,ax
1000221b:	8b 45 f0             	mov    eax,DWORD PTR [ebp-0x10]
1000221e:	01 d0                	add    eax,edx
10002220:	8d 48 fe             	lea    ecx,[eax-0x2]
10002223:	8b 45 f4             	mov    eax,DWORD PTR [ebp-0xc]
10002226:	8d 50 01             	lea    edx,[eax+0x1]
10002229:	8b 45 08             	mov    eax,DWORD PTR [ebp+0x8]
1000222c:	8b 40 10             	mov    eax,DWORD PTR [eax+0x10]
1000222f:	83 ec 0c             	sub    esp,0xc
10002232:	68 55 55 55 00       	push   0x555555
10002237:	53                   	push   ebx
10002238:	51                   	push   ecx
10002239:	52                   	push   edx
1000223a:	50                   	push   eax
1000223b:	e8 fc ff ff ff       	call   1000223c <Window_draw_border+0x1ab>	1000223c: R_386_PC32	Context_horizontal_line
10002240:	83 c4 20             	add    esp,0x20
10002243:	8b 45 08             	mov    eax,DWORD PTR [ebp+0x8]
10002246:	8b 40 08             	mov    eax,DWORD PTR [eax+0x8]
10002249:	0f bf d0             	movsx  edx,ax
1000224c:	8b 45 08             	mov    eax,DWORD PTR [ebp+0x8]
1000224f:	66 8b 40 0a          	mov    ax,WORD PTR [eax+0xa]
10002253:	0f bf c8             	movsx  ecx,ax
10002256:	8b 45 f0             	mov    eax,DWORD PTR [ebp-0x10]
10002259:	01 c8                	add    eax,ecx
1000225b:	8d 48 ff             	lea    ecx,[eax-0x1]
1000225e:	8b 45 08             	mov    eax,DWORD PTR [ebp+0x8]
10002261:	8b 40 10             	mov    eax,DWORD PTR [eax+0x10]
10002264:	83 ec 0c             	sub    esp,0xc
10002267:	6a 00                	push   0x0
10002269:	52                   	push   edx
1000226a:	51                   	push   ecx
1000226b:	ff 75 f4             	push   DWORD PTR [ebp-0xc]
1000226e:	50                   	push   eax
1000226f:	e8 fc ff ff ff       	call   10002270 <Window_draw_border+0x1df>	10002270: R_386_PC32	Context_horizontal_line
10002274:	83 c4 20             	add    esp,0x20
10002277:	8b 45 08             	mov    eax,DWORD PTR [ebp+0x8]
1000227a:	66 8b 40 0a          	mov    ax,WORD PTR [eax+0xa]
1000227e:	98                   	cwde   
1000227f:	48                   	dec    eax
10002280:	89 c2                	mov    edx,eax
10002282:	8b 45 08             	mov    eax,DWORD PTR [ebp+0x8]
10002285:	8b 40 10             	mov    eax,DWORD PTR [eax+0x10]
10002288:	83 ec 0c             	sub    esp,0xc
1000228b:	68 aa aa aa 00       	push   0xaaaaaa
10002290:	52                   	push   edx
10002291:	ff 75 f0             	push   DWORD PTR [ebp-0x10]
10002294:	ff 75 f4             	push   DWORD PTR [ebp-0xc]
10002297:	50                   	push   eax
10002298:	e8 fc ff ff ff       	call   10002299 <Window_draw_border+0x208>	10002299: R_386_PC32	Context_vertical_line
1000229d:	83 c4 20             	add    esp,0x20
100022a0:	8b 45 08             	mov    eax,DWORD PTR [ebp+0x8]
100022a3:	66 8b 40 0a          	mov    ax,WORD PTR [eax+0xa]
100022a7:	98                   	cwde   
100022a8:	83 e8 03             	sub    eax,0x3
100022ab:	89 c3                	mov    ebx,eax
100022ad:	8b 45 f0             	mov    eax,DWORD PTR [ebp-0x10]
100022b0:	8d 48 01             	lea    ecx,[eax+0x1]
100022b3:	8b 45 f4             	mov    eax,DWORD PTR [ebp-0xc]
100022b6:	8d 50 01             	lea    edx,[eax+0x1]
100022b9:	8b 45 08             	mov    eax,DWORD PTR [ebp+0x8]
100022bc:	8b 40 10             	mov    eax,DWORD PTR [eax+0x10]
100022bf:	83 ec 0c             	sub    esp,0xc
100022c2:	68 ff ff ff 00       	push   0xffffff
100022c7:	53                   	push   ebx
100022c8:	51                   	push   ecx
100022c9:	52                   	push   edx
100022ca:	50                   	push   eax
100022cb:	e8 fc ff ff ff       	call   100022cc <Window_draw_border+0x23b>	100022cc: R_386_PC32	Context_vertical_line
100022d0:	83 c4 20             	add    esp,0x20
100022d3:	8b 45 08             	mov    eax,DWORD PTR [ebp+0x8]
100022d6:	66 8b 40 0a          	mov    ax,WORD PTR [eax+0xa]
100022da:	98                   	cwde   
100022db:	83 e8 05             	sub    eax,0x5
100022de:	89 c3                	mov    ebx,eax
100022e0:	8b 45 f0             	mov    eax,DWORD PTR [ebp-0x10]
100022e3:	8d 48 02             	lea    ecx,[eax+0x2]
100022e6:	8b 45 f4             	mov    eax,DWORD PTR [ebp-0xc]
100022e9:	8d 50 02             	lea    edx,[eax+0x2]
100022ec:	8b 45 08             	mov    eax,DWORD PTR [ebp+0x8]
100022ef:	8b 40 10             	mov    eax,DWORD PTR [eax+0x10]
100022f2:	83 ec 0c             	sub    esp,0xc
100022f5:	68 aa aa aa 00       	push   0xaaaaaa
100022fa:	53                   	push   ebx
100022fb:	51                   	push   ecx
100022fc:	52                   	push   edx
100022fd:	50                   	push   eax
100022fe:	e8 fc ff ff ff       	call   100022ff <Window_draw_border+0x26e>	100022ff: R_386_PC32	Context_vertical_line
10002303:	83 c4 20             	add    esp,0x20
10002306:	8b 45 08             	mov    eax,DWORD PTR [ebp+0x8]
10002309:	66 8b 40 0a          	mov    ax,WORD PTR [eax+0xa]
1000230d:	0f bf d0             	movsx  edx,ax
10002310:	8b 45 08             	mov    eax,DWORD PTR [ebp+0x8]
10002313:	8b 40 08             	mov    eax,DWORD PTR [eax+0x8]
10002316:	0f bf c8             	movsx  ecx,ax
10002319:	8b 45 f4             	mov    eax,DWORD PTR [ebp-0xc]
1000231c:	01 c8                	add    eax,ecx
1000231e:	8d 48 ff             	lea    ecx,[eax-0x1]
10002321:	8b 45 08             	mov    eax,DWORD PTR [ebp+0x8]
10002324:	8b 40 10             	mov    eax,DWORD PTR [eax+0x10]
10002327:	83 ec 0c             	sub    esp,0xc
1000232a:	6a 00                	push   0x0
1000232c:	52                   	push   edx
1000232d:	ff 75 f0             	push   DWORD PTR [ebp-0x10]
10002330:	51                   	push   ecx
10002331:	50                   	push   eax
10002332:	e8 fc ff ff ff       	call   10002333 <Window_draw_border+0x2a2>	10002333: R_386_PC32	Context_vertical_line
10002337:	83 c4 20             	add    esp,0x20
1000233a:	8b 45 08             	mov    eax,DWORD PTR [ebp+0x8]
1000233d:	66 8b 40 0a          	mov    ax,WORD PTR [eax+0xa]
10002341:	98                   	cwde   
10002342:	83 e8 02             	sub    eax,0x2
10002345:	89 c3                	mov    ebx,eax
10002347:	8b 45 f0             	mov    eax,DWORD PTR [ebp-0x10]
1000234a:	8d 48 01             	lea    ecx,[eax+0x1]
1000234d:	8b 45 08             	mov    eax,DWORD PTR [ebp+0x8]
10002350:	8b 40 08             	mov    eax,DWORD PTR [eax+0x8]
10002353:	0f bf d0             	movsx  edx,ax
10002356:	8b 45 f4             	mov    eax,DWORD PTR [ebp-0xc]
10002359:	01 d0                	add    eax,edx
1000235b:	8d 50 fe             	lea    edx,[eax-0x2]
1000235e:	8b 45 08             	mov    eax,DWORD PTR [ebp+0x8]
10002361:	8b 40 10             	mov    eax,DWORD PTR [eax+0x10]
10002364:	83 ec 0c             	sub    esp,0xc
10002367:	68 55 55 55 00       	push   0x555555
1000236c:	53                   	push   ebx
1000236d:	51                   	push   ecx
1000236e:	52                   	push   edx
1000236f:	50                   	push   eax
10002370:	e8 fc ff ff ff       	call   10002371 <Window_draw_border+0x2e0>	10002371: R_386_PC32	Context_vertical_line
10002375:	83 c4 20             	add    esp,0x20
10002378:	8b 45 08             	mov    eax,DWORD PTR [ebp+0x8]
1000237b:	66 8b 40 0a          	mov    ax,WORD PTR [eax+0xa]
1000237f:	98                   	cwde   
10002380:	83 e8 04             	sub    eax,0x4
10002383:	89 c3                	mov    ebx,eax
10002385:	8b 45 f0             	mov    eax,DWORD PTR [ebp-0x10]
10002388:	8d 48 02             	lea    ecx,[eax+0x2]
1000238b:	8b 45 08             	mov    eax,DWORD PTR [ebp+0x8]
1000238e:	8b 40 08             	mov    eax,DWORD PTR [eax+0x8]
10002391:	0f bf d0             	movsx  edx,ax
10002394:	8b 45 f4             	mov    eax,DWORD PTR [ebp-0xc]
10002397:	01 d0                	add    eax,edx
10002399:	8d 50 fd             	lea    edx,[eax-0x3]
1000239c:	8b 45 08             	mov    eax,DWORD PTR [ebp+0x8]
1000239f:	8b 40 10             	mov    eax,DWORD PTR [eax+0x10]
100023a2:	83 ec 0c             	sub    esp,0xc
100023a5:	68 aa aa aa 00       	push   0xaaaaaa
100023aa:	53                   	push   ebx
100023ab:	51                   	push   ecx
100023ac:	52                   	push   edx
100023ad:	50                   	push   eax
100023ae:	e8 fc ff ff ff       	call   100023af <Window_draw_border+0x31e>	100023af: R_386_PC32	Context_vertical_line
100023b3:	83 c4 20             	add    esp,0x20
100023b6:	a1 00 00 00 00       	mov    eax,ds:0x0	100023b7: R_386_32	active_window
100023bb:	39 45 08             	cmp    DWORD PTR [ebp+0x8],eax
100023be:	75 14                	jne    100023d4 <Window_draw_border+0x343>
100023c0:	8b 45 08             	mov    eax,DWORD PTR [ebp+0x8]
100023c3:	8b 00                	mov    eax,DWORD PTR [eax]
100023c5:	8b 40 18             	mov    eax,DWORD PTR [eax+0x18]
100023c8:	39 45 08             	cmp    DWORD PTR [ebp+0x8],eax
100023cb:	75 07                	jne    100023d4 <Window_draw_border+0x343>
100023cd:	ba 80 00 00 00       	mov    edx,0x80
100023d2:	eb 05                	jmp    100023d9 <Window_draw_border+0x348>
100023d4:	ba 55 55 55 00       	mov    edx,0x555555
100023d9:	8b 45 08             	mov    eax,DWORD PTR [ebp+0x8]
100023dc:	8b 40 08             	mov    eax,DWORD PTR [eax+0x8]
100023df:	98                   	cwde   
100023e0:	83 e8 06             	sub    eax,0x6
100023e3:	89 c6                	mov    esi,eax
100023e5:	8b 45 f0             	mov    eax,DWORD PTR [ebp-0x10]
100023e8:	8d 58 03             	lea    ebx,[eax+0x3]
100023eb:	8b 45 f4             	mov    eax,DWORD PTR [ebp-0xc]
100023ee:	8d 48 03             	lea    ecx,[eax+0x3]
100023f1:	8b 45 08             	mov    eax,DWORD PTR [ebp+0x8]
100023f4:	8b 40 10             	mov    eax,DWORD PTR [eax+0x10]
100023f7:	83 ec 08             	sub    esp,0x8
100023fa:	52                   	push   edx
100023fb:	6a 14                	push   0x14
100023fd:	56                   	push   esi
100023fe:	53                   	push   ebx
100023ff:	51                   	push   ecx
10002400:	50                   	push   eax
10002401:	e8 fc ff ff ff       	call   10002402 <Window_draw_border+0x371>	10002402: R_386_PC32	Context_fill_rect
10002406:	83 c4 20             	add    esp,0x20
10002409:	a1 00 00 00 00       	mov    eax,ds:0x0	1000240a: R_386_32	active_window
1000240e:	39 45 08             	cmp    DWORD PTR [ebp+0x8],eax
10002411:	75 14                	jne    10002427 <Window_draw_border+0x396>
10002413:	8b 45 08             	mov    eax,DWORD PTR [ebp+0x8]
10002416:	8b 00                	mov    eax,DWORD PTR [eax]
10002418:	8b 40 18             	mov    eax,DWORD PTR [eax+0x18]
1000241b:	39 45 08             	cmp    DWORD PTR [ebp+0x8],eax
1000241e:	75 07                	jne    10002427 <Window_draw_border+0x396>
10002420:	b9 ff ff ff 00       	mov    ecx,0xffffff
10002425:	eb 05                	jmp    1000242c <Window_draw_border+0x39b>
10002427:	b9 aa aa aa 00       	mov    ecx,0xaaaaaa
1000242c:	8b 45 f0             	mov    eax,DWORD PTR [ebp-0x10]
1000242f:	8d 70 06             	lea    esi,[eax+0x6]
10002432:	8b 45 f4             	mov    eax,DWORD PTR [ebp-0xc]
10002435:	8d 58 0a             	lea    ebx,[eax+0xa]
10002438:	8b 45 08             	mov    eax,DWORD PTR [ebp+0x8]
1000243b:	8b 50 4c             	mov    edx,DWORD PTR [eax+0x4c]
1000243e:	8b 45 08             	mov    eax,DWORD PTR [ebp+0x8]
10002441:	8b 40 10             	mov    eax,DWORD PTR [eax+0x10]
10002444:	83 ec 08             	sub    esp,0x8
10002447:	6a 01                	push   0x1
10002449:	51                   	push   ecx
1000244a:	56                   	push   esi
1000244b:	53                   	push   ebx
1000244c:	52                   	push   edx
1000244d:	50                   	push   eax
1000244e:	e8 fc ff ff ff       	call   1000244f <Window_draw_border+0x3be>	1000244f: R_386_PC32	Context_draw_text
10002453:	83 c4 20             	add    esp,0x20
10002456:	90                   	nop
10002457:	8d 65 f8             	lea    esp,[ebp-0x8]
1000245a:	5b                   	pop    ebx
1000245b:	5e                   	pop    esi
1000245c:	5d                   	pop    ebp
1000245d:	c3                   	ret    

1000245e <Window_apply_bound_clipping>:
1000245e:	55                   	push   ebp
1000245f:	89 e5                	mov    ebp,esp
10002461:	53                   	push   ebx
10002462:	83 ec 24             	sub    esp,0x24
10002465:	8b 45 08             	mov    eax,DWORD PTR [ebp+0x8]
10002468:	8b 40 10             	mov    eax,DWORD PTR [eax+0x10]
1000246b:	85 c0                	test   eax,eax
1000246d:	0f 84 4f 02 00 00    	je     100026c2 <Window_apply_bound_clipping+0x264>
10002473:	83 ec 0c             	sub    esp,0xc
10002476:	ff 75 08             	push   DWORD PTR [ebp+0x8]
10002479:	e8 fc ff ff ff       	call   1000247a <Window_apply_bound_clipping+0x1c>	1000247a: R_386_PC32	Window_screen_x
1000247e:	83 c4 10             	add    esp,0x10
10002481:	89 45 ec             	mov    DWORD PTR [ebp-0x14],eax
10002484:	83 ec 0c             	sub    esp,0xc
10002487:	ff 75 08             	push   DWORD PTR [ebp+0x8]
1000248a:	e8 fc ff ff ff       	call   1000248b <Window_apply_bound_clipping+0x2d>	1000248b: R_386_PC32	Window_screen_y
1000248f:	83 c4 10             	add    esp,0x10
10002492:	89 45 e8             	mov    DWORD PTR [ebp-0x18],eax
10002495:	8b 45 08             	mov    eax,DWORD PTR [ebp+0x8]
10002498:	8b 40 0c             	mov    eax,DWORD PTR [eax+0xc]
1000249b:	0f b7 c0             	movzx  eax,ax
1000249e:	83 e0 01             	and    eax,0x1
100024a1:	85 c0                	test   eax,eax
100024a3:	75 46                	jne    100024eb <Window_apply_bound_clipping+0x8d>
100024a5:	83 7d 0c 00          	cmp    DWORD PTR [ebp+0xc],0x0
100024a9:	74 40                	je     100024eb <Window_apply_bound_clipping+0x8d>
100024ab:	83 45 ec 03          	add    DWORD PTR [ebp-0x14],0x3
100024af:	83 45 e8 1a          	add    DWORD PTR [ebp-0x18],0x1a
100024b3:	8b 45 08             	mov    eax,DWORD PTR [ebp+0x8]
100024b6:	8b 40 08             	mov    eax,DWORD PTR [eax+0x8]
100024b9:	0f bf d0             	movsx  edx,ax
100024bc:	8b 45 ec             	mov    eax,DWORD PTR [ebp-0x14]
100024bf:	01 d0                	add    eax,edx
100024c1:	8d 50 f9             	lea    edx,[eax-0x7]
100024c4:	8b 45 08             	mov    eax,DWORD PTR [ebp+0x8]
100024c7:	66 8b 40 0a          	mov    ax,WORD PTR [eax+0xa]
100024cb:	0f bf c8             	movsx  ecx,ax
100024ce:	8b 45 e8             	mov    eax,DWORD PTR [ebp-0x18]
100024d1:	01 c8                	add    eax,ecx
100024d3:	83 e8 1e             	sub    eax,0x1e
100024d6:	52                   	push   edx
100024d7:	50                   	push   eax
100024d8:	ff 75 ec             	push   DWORD PTR [ebp-0x14]
100024db:	ff 75 e8             	push   DWORD PTR [ebp-0x18]
100024de:	e8 fc ff ff ff       	call   100024df <Window_apply_bound_clipping+0x81>	100024df: R_386_PC32	Rect_new
100024e3:	83 c4 10             	add    esp,0x10
100024e6:	89 45 f4             	mov    DWORD PTR [ebp-0xc],eax
100024e9:	eb 34                	jmp    1000251f <Window_apply_bound_clipping+0xc1>
100024eb:	8b 45 08             	mov    eax,DWORD PTR [ebp+0x8]
100024ee:	8b 40 08             	mov    eax,DWORD PTR [eax+0x8]
100024f1:	0f bf d0             	movsx  edx,ax
100024f4:	8b 45 ec             	mov    eax,DWORD PTR [ebp-0x14]
100024f7:	01 d0                	add    eax,edx
100024f9:	8d 50 ff             	lea    edx,[eax-0x1]
100024fc:	8b 45 08             	mov    eax,DWORD PTR [ebp+0x8]
100024ff:	66 8b 40 0a          	mov    ax,WORD PTR [eax+0xa]
10002503:	0f bf c8             	movsx  ecx,ax
10002506:	8b 45 e8             	mov    eax,DWORD PTR [ebp-0x18]
10002509:	01 c8                	add    eax,ecx
1000250b:	48                   	dec    eax
1000250c:	52                   	push   edx
1000250d:	50                   	push   eax
1000250e:	ff 75 ec             	push   DWORD PTR [ebp-0x14]
10002511:	ff 75 e8             	push   DWORD PTR [ebp-0x18]
10002514:	e8 fc ff ff ff       	call   10002515 <Window_apply_bound_clipping+0xb7>	10002515: R_386_PC32	Rect_new
10002519:	83 c4 10             	add    esp,0x10
1000251c:	89 45 f4             	mov    DWORD PTR [ebp-0xc],eax
1000251f:	8b 45 08             	mov    eax,DWORD PTR [ebp+0x8]
10002522:	8b 00                	mov    eax,DWORD PTR [eax]
10002524:	85 c0                	test   eax,eax
10002526:	0f 85 a6 00 00 00    	jne    100025d2 <Window_apply_bound_clipping+0x174>
1000252c:	83 7d 10 00          	cmp    DWORD PTR [ebp+0x10],0x0
10002530:	0f 84 82 00 00 00    	je     100025b8 <Window_apply_bound_clipping+0x15a>
10002536:	c7 45 f0 00 00 00 00 	mov    DWORD PTR [ebp-0x10],0x0
1000253d:	eb 53                	jmp    10002592 <Window_apply_bound_clipping+0x134>
1000253f:	8b 45 f0             	mov    eax,DWORD PTR [ebp-0x10]
10002542:	83 ec 08             	sub    esp,0x8
10002545:	50                   	push   eax
10002546:	ff 75 10             	push   DWORD PTR [ebp+0x10]
10002549:	e8 fc ff ff ff       	call   1000254a <Window_apply_bound_clipping+0xec>	1000254a: R_386_PC32	List_get_at
1000254e:	83 c4 10             	add    esp,0x10
10002551:	89 45 e4             	mov    DWORD PTR [ebp-0x1c],eax
10002554:	8b 45 e4             	mov    eax,DWORD PTR [ebp-0x1c]
10002557:	8b 58 0c             	mov    ebx,DWORD PTR [eax+0xc]
1000255a:	8b 45 e4             	mov    eax,DWORD PTR [ebp-0x1c]
1000255d:	8b 48 08             	mov    ecx,DWORD PTR [eax+0x8]
10002560:	8b 45 e4             	mov    eax,DWORD PTR [ebp-0x1c]
10002563:	8b 50 04             	mov    edx,DWORD PTR [eax+0x4]
10002566:	8b 45 e4             	mov    eax,DWORD PTR [ebp-0x1c]
10002569:	8b 00                	mov    eax,DWORD PTR [eax]
1000256b:	53                   	push   ebx
1000256c:	51                   	push   ecx
1000256d:	52                   	push   edx
1000256e:	50                   	push   eax
1000256f:	e8 fc ff ff ff       	call   10002570 <Window_apply_bound_clipping+0x112>	10002570: R_386_PC32	Rect_new
10002574:	83 c4 10             	add    esp,0x10
10002577:	89 45 e0             	mov    DWORD PTR [ebp-0x20],eax
1000257a:	8b 45 08             	mov    eax,DWORD PTR [ebp+0x8]
1000257d:	8b 40 10             	mov    eax,DWORD PTR [eax+0x10]
10002580:	83 ec 08             	sub    esp,0x8
10002583:	ff 75 e0             	push   DWORD PTR [ebp-0x20]
10002586:	50                   	push   eax
10002587:	e8 fc ff ff ff       	call   10002588 <Window_apply_bound_clipping+0x12a>	10002588: R_386_PC32	Context_add_clip_rect
1000258c:	83 c4 10             	add    esp,0x10
1000258f:	ff 45 f0             	inc    DWORD PTR [ebp-0x10]
10002592:	8b 45 10             	mov    eax,DWORD PTR [ebp+0x10]
10002595:	8b 10                	mov    edx,DWORD PTR [eax]
10002597:	8b 45 f0             	mov    eax,DWORD PTR [ebp-0x10]
1000259a:	39 c2                	cmp    edx,eax
1000259c:	77 a1                	ja     1000253f <Window_apply_bound_clipping+0xe1>
1000259e:	8b 45 08             	mov    eax,DWORD PTR [ebp+0x8]
100025a1:	8b 40 10             	mov    eax,DWORD PTR [eax+0x10]
100025a4:	83 ec 08             	sub    esp,0x8
100025a7:	ff 75 f4             	push   DWORD PTR [ebp-0xc]
100025aa:	50                   	push   eax
100025ab:	e8 fc ff ff ff       	call   100025ac <Window_apply_bound_clipping+0x14e>	100025ac: R_386_PC32	Context_intersect_clip_rect
100025b0:	83 c4 10             	add    esp,0x10
100025b3:	e9 0b 01 00 00       	jmp    100026c3 <Window_apply_bound_clipping+0x265>
100025b8:	8b 45 08             	mov    eax,DWORD PTR [ebp+0x8]
100025bb:	8b 40 10             	mov    eax,DWORD PTR [eax+0x10]
100025be:	83 ec 08             	sub    esp,0x8
100025c1:	ff 75 f4             	push   DWORD PTR [ebp-0xc]
100025c4:	50                   	push   eax
100025c5:	e8 fc ff ff ff       	call   100025c6 <Window_apply_bound_clipping+0x168>	100025c6: R_386_PC32	Context_add_clip_rect
100025ca:	83 c4 10             	add    esp,0x10
100025cd:	e9 f1 00 00 00       	jmp    100026c3 <Window_apply_bound_clipping+0x265>
100025d2:	8b 45 08             	mov    eax,DWORD PTR [ebp+0x8]
100025d5:	8b 00                	mov    eax,DWORD PTR [eax]
100025d7:	83 ec 04             	sub    esp,0x4
100025da:	ff 75 10             	push   DWORD PTR [ebp+0x10]
100025dd:	6a 01                	push   0x1
100025df:	50                   	push   eax
100025e0:	e8 fc ff ff ff       	call   100025e1 <Window_apply_bound_clipping+0x183>	100025e1: R_386_PC32	Window_apply_bound_clipping
100025e5:	83 c4 10             	add    esp,0x10
100025e8:	8b 45 08             	mov    eax,DWORD PTR [ebp+0x8]
100025eb:	8b 40 10             	mov    eax,DWORD PTR [eax+0x10]
100025ee:	83 ec 08             	sub    esp,0x8
100025f1:	ff 75 f4             	push   DWORD PTR [ebp-0xc]
100025f4:	50                   	push   eax
100025f5:	e8 fc ff ff ff       	call   100025f6 <Window_apply_bound_clipping+0x198>	100025f6: R_386_PC32	Context_intersect_clip_rect
100025fa:	83 c4 10             	add    esp,0x10
100025fd:	8b 45 08             	mov    eax,DWORD PTR [ebp+0x8]
10002600:	8b 00                	mov    eax,DWORD PTR [eax]
10002602:	83 ec 08             	sub    esp,0x8
10002605:	ff 75 08             	push   DWORD PTR [ebp+0x8]
10002608:	50                   	push   eax
10002609:	e8 fc ff ff ff       	call   1000260a <Window_apply_bound_clipping+0x1ac>	1000260a: R_386_PC32	Window_get_windows_above
1000260e:	83 c4 10             	add    esp,0x10
10002611:	89 45 dc             	mov    DWORD PTR [ebp-0x24],eax
10002614:	e9 8c 00 00 00       	jmp    100026a5 <Window_apply_bound_clipping+0x247>
10002619:	83 ec 08             	sub    esp,0x8
1000261c:	6a 00                	push   0x0
1000261e:	ff 75 dc             	push   DWORD PTR [ebp-0x24]
10002621:	e8 fc ff ff ff       	call   10002622 <Window_apply_bound_clipping+0x1c4>	10002622: R_386_PC32	List_remove_at
10002626:	83 c4 10             	add    esp,0x10
10002629:	89 45 d8             	mov    DWORD PTR [ebp-0x28],eax
1000262c:	83 ec 0c             	sub    esp,0xc
1000262f:	ff 75 d8             	push   DWORD PTR [ebp-0x28]
10002632:	e8 fc ff ff ff       	call   10002633 <Window_apply_bound_clipping+0x1d5>	10002633: R_386_PC32	Window_screen_x
10002637:	83 c4 10             	add    esp,0x10
1000263a:	89 45 ec             	mov    DWORD PTR [ebp-0x14],eax
1000263d:	83 ec 0c             	sub    esp,0xc
10002640:	ff 75 d8             	push   DWORD PTR [ebp-0x28]
10002643:	e8 fc ff ff ff       	call   10002644 <Window_apply_bound_clipping+0x1e6>	10002644: R_386_PC32	Window_screen_y
10002648:	83 c4 10             	add    esp,0x10
1000264b:	89 45 e8             	mov    DWORD PTR [ebp-0x18],eax
1000264e:	8b 45 d8             	mov    eax,DWORD PTR [ebp-0x28]
10002651:	8b 40 08             	mov    eax,DWORD PTR [eax+0x8]
10002654:	0f bf d0             	movsx  edx,ax
10002657:	8b 45 ec             	mov    eax,DWORD PTR [ebp-0x14]
1000265a:	01 d0                	add    eax,edx
1000265c:	8d 50 ff             	lea    edx,[eax-0x1]
1000265f:	8b 45 d8             	mov    eax,DWORD PTR [ebp-0x28]
10002662:	66 8b 40 0a          	mov    ax,WORD PTR [eax+0xa]
10002666:	0f bf c8             	movsx  ecx,ax
10002669:	8b 45 e8             	mov    eax,DWORD PTR [ebp-0x18]
1000266c:	01 c8                	add    eax,ecx
1000266e:	48                   	dec    eax
1000266f:	52                   	push   edx
10002670:	50                   	push   eax
10002671:	ff 75 ec             	push   DWORD PTR [ebp-0x14]
10002674:	ff 75 e8             	push   DWORD PTR [ebp-0x18]
10002677:	e8 fc ff ff ff       	call   10002678 <Window_apply_bound_clipping+0x21a>	10002678: R_386_PC32	Rect_new
1000267c:	83 c4 10             	add    esp,0x10
1000267f:	89 45 f4             	mov    DWORD PTR [ebp-0xc],eax
10002682:	8b 45 08             	mov    eax,DWORD PTR [ebp+0x8]
10002685:	8b 40 10             	mov    eax,DWORD PTR [eax+0x10]
10002688:	83 ec 08             	sub    esp,0x8
1000268b:	ff 75 f4             	push   DWORD PTR [ebp-0xc]
1000268e:	50                   	push   eax
1000268f:	e8 fc ff ff ff       	call   10002690 <Window_apply_bound_clipping+0x232>	10002690: R_386_PC32	Context_subtract_clip_rect
10002694:	83 c4 10             	add    esp,0x10
10002697:	83 ec 0c             	sub    esp,0xc
1000269a:	ff 75 f4             	push   DWORD PTR [ebp-0xc]
1000269d:	e8 fc ff ff ff       	call   1000269e <Window_apply_bound_clipping+0x240>	1000269e: R_386_PC32	free
100026a2:	83 c4 10             	add    esp,0x10
100026a5:	8b 45 dc             	mov    eax,DWORD PTR [ebp-0x24]
100026a8:	8b 00                	mov    eax,DWORD PTR [eax]
100026aa:	85 c0                	test   eax,eax
100026ac:	0f 85 67 ff ff ff    	jne    10002619 <Window_apply_bound_clipping+0x1bb>
100026b2:	83 ec 0c             	sub    esp,0xc
100026b5:	ff 75 dc             	push   DWORD PTR [ebp-0x24]
100026b8:	e8 fc ff ff ff       	call   100026b9 <Window_apply_bound_clipping+0x25b>	100026b9: R_386_PC32	free
100026bd:	83 c4 10             	add    esp,0x10
100026c0:	eb 01                	jmp    100026c3 <Window_apply_bound_clipping+0x265>
100026c2:	90                   	nop
100026c3:	8b 5d fc             	mov    ebx,DWORD PTR [ebp-0x4]
100026c6:	c9                   	leave  
100026c7:	c3                   	ret    

100026c8 <Window_update_title>:
100026c8:	55                   	push   ebp
100026c9:	89 e5                	mov    ebp,esp
100026cb:	83 ec 08             	sub    esp,0x8
100026ce:	8b 45 08             	mov    eax,DWORD PTR [ebp+0x8]
100026d1:	8b 40 10             	mov    eax,DWORD PTR [eax+0x10]
100026d4:	85 c0                	test   eax,eax
100026d6:	74 44                	je     1000271c <Window_update_title+0x54>
100026d8:	8b 45 08             	mov    eax,DWORD PTR [ebp+0x8]
100026db:	8b 40 0c             	mov    eax,DWORD PTR [eax+0xc]
100026de:	0f b7 c0             	movzx  eax,ax
100026e1:	83 e0 01             	and    eax,0x1
100026e4:	85 c0                	test   eax,eax
100026e6:	75 37                	jne    1000271f <Window_update_title+0x57>
100026e8:	83 ec 04             	sub    esp,0x4
100026eb:	6a 00                	push   0x0
100026ed:	6a 00                	push   0x0
100026ef:	ff 75 08             	push   DWORD PTR [ebp+0x8]
100026f2:	e8 fc ff ff ff       	call   100026f3 <Window_update_title+0x2b>	100026f3: R_386_PC32	Window_apply_bound_clipping
100026f7:	83 c4 10             	add    esp,0x10
100026fa:	83 ec 0c             	sub    esp,0xc
100026fd:	ff 75 08             	push   DWORD PTR [ebp+0x8]
10002700:	e8 fc ff ff ff       	call   10002701 <Window_update_title+0x39>	10002701: R_386_PC32	Window_draw_border
10002705:	83 c4 10             	add    esp,0x10
10002708:	8b 45 08             	mov    eax,DWORD PTR [ebp+0x8]
1000270b:	8b 40 10             	mov    eax,DWORD PTR [eax+0x10]
1000270e:	83 ec 0c             	sub    esp,0xc
10002711:	50                   	push   eax
10002712:	e8 fc ff ff ff       	call   10002713 <Window_update_title+0x4b>	10002713: R_386_PC32	Context_clear_clip_rects
10002717:	83 c4 10             	add    esp,0x10
1000271a:	eb 04                	jmp    10002720 <Window_update_title+0x58>
1000271c:	90                   	nop
1000271d:	eb 01                	jmp    10002720 <Window_update_title+0x58>
1000271f:	90                   	nop
10002720:	c9                   	leave  
10002721:	c3                   	ret    

10002722 <Window_invalidate>:
10002722:	55                   	push   ebp
10002723:	89 e5                	mov    ebp,esp
10002725:	83 ec 18             	sub    esp,0x18
10002728:	83 ec 0c             	sub    esp,0xc
1000272b:	ff 75 08             	push   DWORD PTR [ebp+0x8]
1000272e:	e8 fc ff ff ff       	call   1000272f <Window_invalidate+0xd>	1000272f: R_386_PC32	Window_screen_x
10002733:	83 c4 10             	add    esp,0x10
10002736:	89 45 f4             	mov    DWORD PTR [ebp-0xc],eax
10002739:	83 ec 0c             	sub    esp,0xc
1000273c:	ff 75 08             	push   DWORD PTR [ebp+0x8]
1000273f:	e8 fc ff ff ff       	call   10002740 <Window_invalidate+0x1e>	10002740: R_386_PC32	Window_screen_y
10002744:	83 c4 10             	add    esp,0x10
10002747:	89 45 f0             	mov    DWORD PTR [ebp-0x10],eax
1000274a:	8b 45 f0             	mov    eax,DWORD PTR [ebp-0x10]
1000274d:	01 45 0c             	add    DWORD PTR [ebp+0xc],eax
10002750:	8b 45 f0             	mov    eax,DWORD PTR [ebp-0x10]
10002753:	01 45 14             	add    DWORD PTR [ebp+0x14],eax
10002756:	8b 45 f4             	mov    eax,DWORD PTR [ebp-0xc]
10002759:	01 45 10             	add    DWORD PTR [ebp+0x10],eax
1000275c:	8b 45 f4             	mov    eax,DWORD PTR [ebp-0xc]
1000275f:	01 45 18             	add    DWORD PTR [ebp+0x18],eax
10002762:	e8 fc ff ff ff       	call   10002763 <Window_invalidate+0x41>	10002763: R_386_PC32	List_new
10002767:	89 45 ec             	mov    DWORD PTR [ebp-0x14],eax
1000276a:	83 7d ec 00          	cmp    DWORD PTR [ebp-0x14],0x0
1000276e:	0f 84 a1 00 00 00    	je     10002815 <Window_invalidate+0xf3>
10002774:	ff 75 18             	push   DWORD PTR [ebp+0x18]
10002777:	ff 75 14             	push   DWORD PTR [ebp+0x14]
1000277a:	ff 75 10             	push   DWORD PTR [ebp+0x10]
1000277d:	ff 75 0c             	push   DWORD PTR [ebp+0xc]
10002780:	e8 fc ff ff ff       	call   10002781 <Window_invalidate+0x5f>	10002781: R_386_PC32	Rect_new
10002785:	83 c4 10             	add    esp,0x10
10002788:	89 45 e8             	mov    DWORD PTR [ebp-0x18],eax
1000278b:	83 7d e8 00          	cmp    DWORD PTR [ebp-0x18],0x0
1000278f:	75 10                	jne    100027a1 <Window_invalidate+0x7f>
10002791:	83 ec 0c             	sub    esp,0xc
10002794:	ff 75 ec             	push   DWORD PTR [ebp-0x14]
10002797:	e8 fc ff ff ff       	call   10002798 <Window_invalidate+0x76>	10002798: R_386_PC32	free
1000279c:	83 c4 10             	add    esp,0x10
1000279f:	eb 75                	jmp    10002816 <Window_invalidate+0xf4>
100027a1:	83 ec 08             	sub    esp,0x8
100027a4:	ff 75 e8             	push   DWORD PTR [ebp-0x18]
100027a7:	ff 75 ec             	push   DWORD PTR [ebp-0x14]
100027aa:	e8 fc ff ff ff       	call   100027ab <Window_invalidate+0x89>	100027ab: R_386_PC32	List_add
100027af:	83 c4 10             	add    esp,0x10
100027b2:	85 c0                	test   eax,eax
100027b4:	75 1e                	jne    100027d4 <Window_invalidate+0xb2>
100027b6:	83 ec 0c             	sub    esp,0xc
100027b9:	ff 75 ec             	push   DWORD PTR [ebp-0x14]
100027bc:	e8 fc ff ff ff       	call   100027bd <Window_invalidate+0x9b>	100027bd: R_386_PC32	free
100027c1:	83 c4 10             	add    esp,0x10
100027c4:	83 ec 0c             	sub    esp,0xc
100027c7:	ff 75 e8             	push   DWORD PTR [ebp-0x18]
100027ca:	e8 fc ff ff ff       	call   100027cb <Window_invalidate+0xa9>	100027cb: R_386_PC32	free
100027cf:	83 c4 10             	add    esp,0x10
100027d2:	eb 42                	jmp    10002816 <Window_invalidate+0xf4>
100027d4:	83 ec 04             	sub    esp,0x4
100027d7:	6a 00                	push   0x0
100027d9:	ff 75 ec             	push   DWORD PTR [ebp-0x14]
100027dc:	ff 75 08             	push   DWORD PTR [ebp+0x8]
100027df:	e8 fc ff ff ff       	call   100027e0 <Window_invalidate+0xbe>	100027e0: R_386_PC32	Window_paint
100027e4:	83 c4 10             	add    esp,0x10
100027e7:	83 ec 08             	sub    esp,0x8
100027ea:	6a 00                	push   0x0
100027ec:	ff 75 ec             	push   DWORD PTR [ebp-0x14]
100027ef:	e8 fc ff ff ff       	call   100027f0 <Window_invalidate+0xce>	100027f0: R_386_PC32	List_remove_at
100027f4:	83 c4 10             	add    esp,0x10
100027f7:	83 ec 0c             	sub    esp,0xc
100027fa:	ff 75 ec             	push   DWORD PTR [ebp-0x14]
100027fd:	e8 fc ff ff ff       	call   100027fe <Window_invalidate+0xdc>	100027fe: R_386_PC32	free
10002802:	83 c4 10             	add    esp,0x10
10002805:	83 ec 0c             	sub    esp,0xc
10002808:	ff 75 e8             	push   DWORD PTR [ebp-0x18]
1000280b:	e8 fc ff ff ff       	call   1000280c <Window_invalidate+0xea>	1000280c: R_386_PC32	free
10002810:	83 c4 10             	add    esp,0x10
10002813:	eb 01                	jmp    10002816 <Window_invalidate+0xf4>
10002815:	90                   	nop
10002816:	c9                   	leave  
10002817:	c3                   	ret    

10002818 <Window_paint>:
10002818:	55                   	push   ebp
10002819:	89 e5                	mov    ebp,esp
1000281b:	83 ec 38             	sub    esp,0x38
1000281e:	8b 45 10             	mov    eax,DWORD PTR [ebp+0x10]
10002821:	88 45 d4             	mov    BYTE PTR [ebp-0x2c],al
10002824:	8b 45 08             	mov    eax,DWORD PTR [ebp+0x8]
10002827:	8b 40 10             	mov    eax,DWORD PTR [eax+0x10]
1000282a:	85 c0                	test   eax,eax
1000282c:	0f 84 c1 02 00 00    	je     10002af3 <Window_paint+0x2db>
10002832:	83 ec 04             	sub    esp,0x4
10002835:	ff 75 0c             	push   DWORD PTR [ebp+0xc]
10002838:	6a 00                	push   0x0
1000283a:	ff 75 08             	push   DWORD PTR [ebp+0x8]
1000283d:	e8 fc ff ff ff       	call   1000283e <Window_paint+0x26>	1000283e: R_386_PC32	Window_apply_bound_clipping
10002842:	83 c4 10             	add    esp,0x10
10002845:	83 ec 0c             	sub    esp,0xc
10002848:	ff 75 08             	push   DWORD PTR [ebp+0x8]
1000284b:	e8 fc ff ff ff       	call   1000284c <Window_paint+0x34>	1000284c: R_386_PC32	Window_screen_x
10002850:	83 c4 10             	add    esp,0x10
10002853:	89 45 ec             	mov    DWORD PTR [ebp-0x14],eax
10002856:	83 ec 0c             	sub    esp,0xc
10002859:	ff 75 08             	push   DWORD PTR [ebp+0x8]
1000285c:	e8 fc ff ff ff       	call   1000285d <Window_paint+0x45>	1000285d: R_386_PC32	Window_screen_y
10002861:	83 c4 10             	add    esp,0x10
10002864:	89 45 e8             	mov    DWORD PTR [ebp-0x18],eax
10002867:	8b 45 08             	mov    eax,DWORD PTR [ebp+0x8]
1000286a:	8b 40 0c             	mov    eax,DWORD PTR [eax+0xc]
1000286d:	0f b7 c0             	movzx  eax,ax
10002870:	83 e0 01             	and    eax,0x1
10002873:	85 c0                	test   eax,eax
10002875:	75 61                	jne    100028d8 <Window_paint+0xc0>
10002877:	83 ec 0c             	sub    esp,0xc
1000287a:	ff 75 08             	push   DWORD PTR [ebp+0x8]
1000287d:	e8 fc ff ff ff       	call   1000287e <Window_paint+0x66>	1000287e: R_386_PC32	Window_draw_border
10002882:	83 c4 10             	add    esp,0x10
10002885:	83 45 ec 03          	add    DWORD PTR [ebp-0x14],0x3
10002889:	83 45 e8 1a          	add    DWORD PTR [ebp-0x18],0x1a
1000288d:	8b 45 08             	mov    eax,DWORD PTR [ebp+0x8]
10002890:	8b 40 08             	mov    eax,DWORD PTR [eax+0x8]
10002893:	0f bf d0             	movsx  edx,ax
10002896:	8b 45 ec             	mov    eax,DWORD PTR [ebp-0x14]
10002899:	01 d0                	add    eax,edx
1000289b:	8d 50 f9             	lea    edx,[eax-0x7]
1000289e:	8b 45 08             	mov    eax,DWORD PTR [ebp+0x8]
100028a1:	66 8b 40 0a          	mov    ax,WORD PTR [eax+0xa]
100028a5:	0f bf c8             	movsx  ecx,ax
100028a8:	8b 45 e8             	mov    eax,DWORD PTR [ebp-0x18]
100028ab:	01 c8                	add    eax,ecx
100028ad:	83 e8 1e             	sub    eax,0x1e
100028b0:	52                   	push   edx
100028b1:	50                   	push   eax
100028b2:	ff 75 ec             	push   DWORD PTR [ebp-0x14]
100028b5:	ff 75 e8             	push   DWORD PTR [ebp-0x18]
100028b8:	e8 fc ff ff ff       	call   100028b9 <Window_paint+0xa1>	100028b9: R_386_PC32	Rect_new
100028bd:	83 c4 10             	add    esp,0x10
100028c0:	89 45 e4             	mov    DWORD PTR [ebp-0x1c],eax
100028c3:	8b 45 08             	mov    eax,DWORD PTR [ebp+0x8]
100028c6:	8b 40 10             	mov    eax,DWORD PTR [eax+0x10]
100028c9:	83 ec 08             	sub    esp,0x8
100028cc:	ff 75 e4             	push   DWORD PTR [ebp-0x1c]
100028cf:	50                   	push   eax
100028d0:	e8 fc ff ff ff       	call   100028d1 <Window_paint+0xb9>	100028d1: R_386_PC32	Context_intersect_clip_rect
100028d5:	83 c4 10             	add    esp,0x10
100028d8:	c7 45 f4 00 00 00 00 	mov    DWORD PTR [ebp-0xc],0x0
100028df:	e9 95 00 00 00       	jmp    10002979 <Window_paint+0x161>
100028e4:	8b 55 f4             	mov    edx,DWORD PTR [ebp-0xc]
100028e7:	8b 45 08             	mov    eax,DWORD PTR [ebp+0x8]
100028ea:	8b 40 1c             	mov    eax,DWORD PTR [eax+0x1c]
100028ed:	83 ec 08             	sub    esp,0x8
100028f0:	52                   	push   edx
100028f1:	50                   	push   eax
100028f2:	e8 fc ff ff ff       	call   100028f3 <Window_paint+0xdb>	100028f3: R_386_PC32	List_get_at
100028f7:	83 c4 10             	add    esp,0x10
100028fa:	89 45 e0             	mov    DWORD PTR [ebp-0x20],eax
100028fd:	83 ec 0c             	sub    esp,0xc
10002900:	ff 75 e0             	push   DWORD PTR [ebp-0x20]
10002903:	e8 fc ff ff ff       	call   10002904 <Window_paint+0xec>	10002904: R_386_PC32	Window_screen_x
10002908:	83 c4 10             	add    esp,0x10
1000290b:	89 45 dc             	mov    DWORD PTR [ebp-0x24],eax
1000290e:	83 ec 0c             	sub    esp,0xc
10002911:	ff 75 e0             	push   DWORD PTR [ebp-0x20]
10002914:	e8 fc ff ff ff       	call   10002915 <Window_paint+0xfd>	10002915: R_386_PC32	Window_screen_y
10002919:	83 c4 10             	add    esp,0x10
1000291c:	89 45 d8             	mov    DWORD PTR [ebp-0x28],eax
1000291f:	8b 45 e0             	mov    eax,DWORD PTR [ebp-0x20]
10002922:	8b 40 08             	mov    eax,DWORD PTR [eax+0x8]
10002925:	0f bf d0             	movsx  edx,ax
10002928:	8b 45 dc             	mov    eax,DWORD PTR [ebp-0x24]
1000292b:	01 d0                	add    eax,edx
1000292d:	8d 50 ff             	lea    edx,[eax-0x1]
10002930:	8b 45 e0             	mov    eax,DWORD PTR [ebp-0x20]
10002933:	66 8b 40 0a          	mov    ax,WORD PTR [eax+0xa]
10002937:	0f bf c8             	movsx  ecx,ax
1000293a:	8b 45 d8             	mov    eax,DWORD PTR [ebp-0x28]
1000293d:	01 c8                	add    eax,ecx
1000293f:	48                   	dec    eax
10002940:	52                   	push   edx
10002941:	50                   	push   eax
10002942:	ff 75 dc             	push   DWORD PTR [ebp-0x24]
10002945:	ff 75 d8             	push   DWORD PTR [ebp-0x28]
10002948:	e8 fc ff ff ff       	call   10002949 <Window_paint+0x131>	10002949: R_386_PC32	Rect_new
1000294d:	83 c4 10             	add    esp,0x10
10002950:	89 45 e4             	mov    DWORD PTR [ebp-0x1c],eax
10002953:	8b 45 08             	mov    eax,DWORD PTR [ebp+0x8]
10002956:	8b 40 10             	mov    eax,DWORD PTR [eax+0x10]
10002959:	83 ec 08             	sub    esp,0x8
1000295c:	ff 75 e4             	push   DWORD PTR [ebp-0x1c]
1000295f:	50                   	push   eax
10002960:	e8 fc ff ff ff       	call   10002961 <Window_paint+0x149>	10002961: R_386_PC32	Context_subtract_clip_rect
10002965:	83 c4 10             	add    esp,0x10
10002968:	83 ec 0c             	sub    esp,0xc
1000296b:	ff 75 e4             	push   DWORD PTR [ebp-0x1c]
1000296e:	e8 fc ff ff ff       	call   1000296f <Window_paint+0x157>	1000296f: R_386_PC32	free
10002973:	83 c4 10             	add    esp,0x10
10002976:	ff 45 f4             	inc    DWORD PTR [ebp-0xc]
10002979:	8b 45 08             	mov    eax,DWORD PTR [ebp+0x8]
1000297c:	8b 40 1c             	mov    eax,DWORD PTR [eax+0x1c]
1000297f:	8b 10                	mov    edx,DWORD PTR [eax]
10002981:	8b 45 f4             	mov    eax,DWORD PTR [ebp-0xc]
10002984:	39 c2                	cmp    edx,eax
10002986:	0f 87 58 ff ff ff    	ja     100028e4 <Window_paint+0xcc>
1000298c:	8b 45 08             	mov    eax,DWORD PTR [ebp+0x8]
1000298f:	8b 40 10             	mov    eax,DWORD PTR [eax+0x10]
10002992:	8b 55 ec             	mov    edx,DWORD PTR [ebp-0x14]
10002995:	89 50 08             	mov    DWORD PTR [eax+0x8],edx
10002998:	8b 45 08             	mov    eax,DWORD PTR [ebp+0x8]
1000299b:	8b 40 10             	mov    eax,DWORD PTR [eax+0x10]
1000299e:	8b 55 e8             	mov    edx,DWORD PTR [ebp-0x18]
100029a1:	89 50 0c             	mov    DWORD PTR [eax+0xc],edx
100029a4:	8b 45 08             	mov    eax,DWORD PTR [ebp+0x8]
100029a7:	8b 40 2c             	mov    eax,DWORD PTR [eax+0x2c]
100029aa:	83 ec 0c             	sub    esp,0xc
100029ad:	ff 75 08             	push   DWORD PTR [ebp+0x8]
100029b0:	ff d0                	call   eax
100029b2:	83 c4 10             	add    esp,0x10
100029b5:	8b 45 08             	mov    eax,DWORD PTR [ebp+0x8]
100029b8:	8b 40 10             	mov    eax,DWORD PTR [eax+0x10]
100029bb:	83 ec 0c             	sub    esp,0xc
100029be:	50                   	push   eax
100029bf:	e8 fc ff ff ff       	call   100029c0 <Window_paint+0x1a8>	100029c0: R_386_PC32	Context_clear_clip_rects
100029c4:	83 c4 10             	add    esp,0x10
100029c7:	8b 45 08             	mov    eax,DWORD PTR [ebp+0x8]
100029ca:	8b 40 10             	mov    eax,DWORD PTR [eax+0x10]
100029cd:	c7 40 08 00 00 00 00 	mov    DWORD PTR [eax+0x8],0x0
100029d4:	8b 45 08             	mov    eax,DWORD PTR [ebp+0x8]
100029d7:	8b 40 10             	mov    eax,DWORD PTR [eax+0x10]
100029da:	c7 40 0c 00 00 00 00 	mov    DWORD PTR [eax+0xc],0x0
100029e1:	80 7d d4 00          	cmp    BYTE PTR [ebp-0x2c],0x0
100029e5:	0f 84 0b 01 00 00    	je     10002af6 <Window_paint+0x2de>
100029eb:	c7 45 f4 00 00 00 00 	mov    DWORD PTR [ebp-0xc],0x0
100029f2:	e9 e7 00 00 00       	jmp    10002ade <Window_paint+0x2c6>
100029f7:	8b 55 f4             	mov    edx,DWORD PTR [ebp-0xc]
100029fa:	8b 45 08             	mov    eax,DWORD PTR [ebp+0x8]
100029fd:	8b 40 1c             	mov    eax,DWORD PTR [eax+0x1c]
10002a00:	83 ec 08             	sub    esp,0x8
10002a03:	52                   	push   edx
10002a04:	50                   	push   eax
10002a05:	e8 fc ff ff ff       	call   10002a06 <Window_paint+0x1ee>	10002a06: R_386_PC32	List_get_at
10002a0a:	83 c4 10             	add    esp,0x10
10002a0d:	89 45 e0             	mov    DWORD PTR [ebp-0x20],eax
10002a10:	83 7d 0c 00          	cmp    DWORD PTR [ebp+0xc],0x0
10002a14:	0f 84 ab 00 00 00    	je     10002ac5 <Window_paint+0x2ad>
10002a1a:	c7 45 f0 00 00 00 00 	mov    DWORD PTR [ebp-0x10],0x0
10002a21:	e9 80 00 00 00       	jmp    10002aa6 <Window_paint+0x28e>
10002a26:	8b 45 f0             	mov    eax,DWORD PTR [ebp-0x10]
10002a29:	83 ec 08             	sub    esp,0x8
10002a2c:	50                   	push   eax
10002a2d:	ff 75 0c             	push   DWORD PTR [ebp+0xc]
10002a30:	e8 fc ff ff ff       	call   10002a31 <Window_paint+0x219>	10002a31: R_386_PC32	List_get_at
10002a35:	83 c4 10             	add    esp,0x10
10002a38:	89 45 e4             	mov    DWORD PTR [ebp-0x1c],eax
10002a3b:	83 ec 0c             	sub    esp,0xc
10002a3e:	ff 75 e0             	push   DWORD PTR [ebp-0x20]
10002a41:	e8 fc ff ff ff       	call   10002a42 <Window_paint+0x22a>	10002a42: R_386_PC32	Window_screen_x
10002a46:	83 c4 10             	add    esp,0x10
10002a49:	89 45 ec             	mov    DWORD PTR [ebp-0x14],eax
10002a4c:	83 ec 0c             	sub    esp,0xc
10002a4f:	ff 75 e0             	push   DWORD PTR [ebp-0x20]
10002a52:	e8 fc ff ff ff       	call   10002a53 <Window_paint+0x23b>	10002a53: R_386_PC32	Window_screen_y
10002a57:	83 c4 10             	add    esp,0x10
10002a5a:	89 45 e8             	mov    DWORD PTR [ebp-0x18],eax
10002a5d:	8b 45 e0             	mov    eax,DWORD PTR [ebp-0x20]
10002a60:	8b 40 08             	mov    eax,DWORD PTR [eax+0x8]
10002a63:	0f bf d0             	movsx  edx,ax
10002a66:	8b 45 ec             	mov    eax,DWORD PTR [ebp-0x14]
10002a69:	01 c2                	add    edx,eax
10002a6b:	8b 45 e4             	mov    eax,DWORD PTR [ebp-0x1c]
10002a6e:	8b 40 04             	mov    eax,DWORD PTR [eax+0x4]
10002a71:	39 c2                	cmp    edx,eax
10002a73:	7e 2e                	jle    10002aa3 <Window_paint+0x28b>
10002a75:	8b 45 e4             	mov    eax,DWORD PTR [ebp-0x1c]
10002a78:	8b 40 0c             	mov    eax,DWORD PTR [eax+0xc]
10002a7b:	39 45 ec             	cmp    DWORD PTR [ebp-0x14],eax
10002a7e:	7f 23                	jg     10002aa3 <Window_paint+0x28b>
10002a80:	8b 45 e0             	mov    eax,DWORD PTR [ebp-0x20]
10002a83:	66 8b 40 0a          	mov    ax,WORD PTR [eax+0xa]
10002a87:	0f bf d0             	movsx  edx,ax
10002a8a:	8b 45 e8             	mov    eax,DWORD PTR [ebp-0x18]
10002a8d:	01 c2                	add    edx,eax
10002a8f:	8b 45 e4             	mov    eax,DWORD PTR [ebp-0x1c]
10002a92:	8b 00                	mov    eax,DWORD PTR [eax]
10002a94:	39 c2                	cmp    edx,eax
10002a96:	7e 0b                	jle    10002aa3 <Window_paint+0x28b>
10002a98:	8b 45 e4             	mov    eax,DWORD PTR [ebp-0x1c]
10002a9b:	8b 40 08             	mov    eax,DWORD PTR [eax+0x8]
10002a9e:	39 45 e8             	cmp    DWORD PTR [ebp-0x18],eax
10002aa1:	7e 15                	jle    10002ab8 <Window_paint+0x2a0>
10002aa3:	ff 45 f0             	inc    DWORD PTR [ebp-0x10]
10002aa6:	8b 45 0c             	mov    eax,DWORD PTR [ebp+0xc]
10002aa9:	8b 10                	mov    edx,DWORD PTR [eax]
10002aab:	8b 45 f0             	mov    eax,DWORD PTR [ebp-0x10]
10002aae:	39 c2                	cmp    edx,eax
10002ab0:	0f 87 70 ff ff ff    	ja     10002a26 <Window_paint+0x20e>
10002ab6:	eb 01                	jmp    10002ab9 <Window_paint+0x2a1>
10002ab8:	90                   	nop
10002ab9:	8b 45 0c             	mov    eax,DWORD PTR [ebp+0xc]
10002abc:	8b 10                	mov    edx,DWORD PTR [eax]
10002abe:	8b 45 f0             	mov    eax,DWORD PTR [ebp-0x10]
10002ac1:	39 c2                	cmp    edx,eax
10002ac3:	74 15                	je     10002ada <Window_paint+0x2c2>
10002ac5:	83 ec 04             	sub    esp,0x4
10002ac8:	6a 01                	push   0x1
10002aca:	ff 75 0c             	push   DWORD PTR [ebp+0xc]
10002acd:	ff 75 e0             	push   DWORD PTR [ebp-0x20]
10002ad0:	e8 fc ff ff ff       	call   10002ad1 <Window_paint+0x2b9>	10002ad1: R_386_PC32	Window_paint
10002ad5:	83 c4 10             	add    esp,0x10
10002ad8:	eb 01                	jmp    10002adb <Window_paint+0x2c3>
10002ada:	90                   	nop
10002adb:	ff 45 f4             	inc    DWORD PTR [ebp-0xc]
10002ade:	8b 45 08             	mov    eax,DWORD PTR [ebp+0x8]
10002ae1:	8b 40 1c             	mov    eax,DWORD PTR [eax+0x1c]
10002ae4:	8b 10                	mov    edx,DWORD PTR [eax]
10002ae6:	8b 45 f4             	mov    eax,DWORD PTR [ebp-0xc]
10002ae9:	39 c2                	cmp    edx,eax
10002aeb:	0f 87 06 ff ff ff    	ja     100029f7 <Window_paint+0x1df>
10002af1:	eb 04                	jmp    10002af7 <Window_paint+0x2df>
10002af3:	90                   	nop
10002af4:	eb 01                	jmp    10002af7 <Window_paint+0x2df>
10002af6:	90                   	nop
10002af7:	c9                   	leave  
10002af8:	c3                   	ret    

10002af9 <Window_paint_handler>:
10002af9:	55                   	push   ebp
10002afa:	89 e5                	mov    ebp,esp
10002afc:	83 ec 08             	sub    esp,0x8
10002aff:	8b 45 08             	mov    eax,DWORD PTR [ebp+0x8]
10002b02:	66 8b 40 0a          	mov    ax,WORD PTR [eax+0xa]
10002b06:	0f bf c8             	movsx  ecx,ax
10002b09:	8b 45 08             	mov    eax,DWORD PTR [ebp+0x8]
10002b0c:	8b 40 08             	mov    eax,DWORD PTR [eax+0x8]
10002b0f:	0f bf d0             	movsx  edx,ax
10002b12:	8b 45 08             	mov    eax,DWORD PTR [ebp+0x8]
10002b15:	8b 40 10             	mov    eax,DWORD PTR [eax+0x10]
10002b18:	83 ec 08             	sub    esp,0x8
10002b1b:	68 aa aa aa 00       	push   0xaaaaaa
10002b20:	51                   	push   ecx
10002b21:	52                   	push   edx
10002b22:	6a 00                	push   0x0
10002b24:	6a 00                	push   0x0
10002b26:	50                   	push   eax
10002b27:	e8 fc ff ff ff       	call   10002b28 <Window_paint_handler+0x2f>	10002b28: R_386_PC32	Context_fill_rect
10002b2c:	83 c4 20             	add    esp,0x20
10002b2f:	90                   	nop
10002b30:	c9                   	leave  
10002b31:	c3                   	ret    

10002b32 <Window_get_windows_above>:
10002b32:	55                   	push   ebp
10002b33:	89 e5                	mov    ebp,esp
10002b35:	83 ec 18             	sub    esp,0x18
10002b38:	e8 fc ff ff ff       	call   10002b39 <Window_get_windows_above+0x7>	10002b39: R_386_PC32	List_new
10002b3d:	89 45 f0             	mov    DWORD PTR [ebp-0x10],eax
10002b40:	83 7d f0 00          	cmp    DWORD PTR [ebp-0x10],0x0
10002b44:	75 08                	jne    10002b4e <Window_get_windows_above+0x1c>
10002b46:	8b 45 f0             	mov    eax,DWORD PTR [ebp-0x10]
10002b49:	e9 fe 00 00 00       	jmp    10002c4c <Window_get_windows_above+0x11a>
10002b4e:	c7 45 f4 00 00 00 00 	mov    DWORD PTR [ebp-0xc],0x0
10002b55:	eb 1e                	jmp    10002b75 <Window_get_windows_above+0x43>
10002b57:	8b 55 f4             	mov    edx,DWORD PTR [ebp-0xc]
10002b5a:	8b 45 08             	mov    eax,DWORD PTR [ebp+0x8]
10002b5d:	8b 40 1c             	mov    eax,DWORD PTR [eax+0x1c]
10002b60:	83 ec 08             	sub    esp,0x8
10002b63:	52                   	push   edx
10002b64:	50                   	push   eax
10002b65:	e8 fc ff ff ff       	call   10002b66 <Window_get_windows_above+0x34>	10002b66: R_386_PC32	List_get_at
10002b6a:	83 c4 10             	add    esp,0x10
10002b6d:	39 45 0c             	cmp    DWORD PTR [ebp+0xc],eax
10002b70:	74 14                	je     10002b86 <Window_get_windows_above+0x54>
10002b72:	ff 45 f4             	inc    DWORD PTR [ebp-0xc]
10002b75:	8b 45 08             	mov    eax,DWORD PTR [ebp+0x8]
10002b78:	8b 40 1c             	mov    eax,DWORD PTR [eax+0x1c]
10002b7b:	8b 10                	mov    edx,DWORD PTR [eax]
10002b7d:	8b 45 f4             	mov    eax,DWORD PTR [ebp-0xc]
10002b80:	39 c2                	cmp    edx,eax
10002b82:	77 d3                	ja     10002b57 <Window_get_windows_above+0x25>
10002b84:	eb 01                	jmp    10002b87 <Window_get_windows_above+0x55>
10002b86:	90                   	nop
10002b87:	ff 45 f4             	inc    DWORD PTR [ebp-0xc]
10002b8a:	e9 a7 00 00 00       	jmp    10002c36 <Window_get_windows_above+0x104>
10002b8f:	8b 55 f4             	mov    edx,DWORD PTR [ebp-0xc]
10002b92:	8b 45 08             	mov    eax,DWORD PTR [ebp+0x8]
10002b95:	8b 40 1c             	mov    eax,DWORD PTR [eax+0x1c]
10002b98:	83 ec 08             	sub    esp,0x8
10002b9b:	52                   	push   edx
10002b9c:	50                   	push   eax
10002b9d:	e8 fc ff ff ff       	call   10002b9e <Window_get_windows_above+0x6c>	10002b9e: R_386_PC32	List_get_at
10002ba2:	83 c4 10             	add    esp,0x10
10002ba5:	89 45 ec             	mov    DWORD PTR [ebp-0x14],eax
10002ba8:	8b 45 0c             	mov    eax,DWORD PTR [ebp+0xc]
10002bab:	8b 40 04             	mov    eax,DWORD PTR [eax+0x4]
10002bae:	0f bf d0             	movsx  edx,ax
10002bb1:	8b 45 0c             	mov    eax,DWORD PTR [ebp+0xc]
10002bb4:	8b 40 08             	mov    eax,DWORD PTR [eax+0x8]
10002bb7:	98                   	cwde   
10002bb8:	01 c2                	add    edx,eax
10002bba:	8b 45 ec             	mov    eax,DWORD PTR [ebp-0x14]
10002bbd:	8b 40 04             	mov    eax,DWORD PTR [eax+0x4]
10002bc0:	98                   	cwde   
10002bc1:	39 c2                	cmp    edx,eax
10002bc3:	7e 6e                	jle    10002c33 <Window_get_windows_above+0x101>
10002bc5:	8b 45 ec             	mov    eax,DWORD PTR [ebp-0x14]
10002bc8:	8b 40 04             	mov    eax,DWORD PTR [eax+0x4]
10002bcb:	0f bf d0             	movsx  edx,ax
10002bce:	8b 45 ec             	mov    eax,DWORD PTR [ebp-0x14]
10002bd1:	8b 40 08             	mov    eax,DWORD PTR [eax+0x8]
10002bd4:	98                   	cwde   
10002bd5:	01 c2                	add    edx,eax
10002bd7:	8b 45 0c             	mov    eax,DWORD PTR [ebp+0xc]
10002bda:	8b 40 04             	mov    eax,DWORD PTR [eax+0x4]
10002bdd:	98                   	cwde   
10002bde:	39 c2                	cmp    edx,eax
10002be0:	7e 51                	jle    10002c33 <Window_get_windows_above+0x101>
10002be2:	8b 45 0c             	mov    eax,DWORD PTR [ebp+0xc]
10002be5:	66 8b 40 06          	mov    ax,WORD PTR [eax+0x6]
10002be9:	0f bf d0             	movsx  edx,ax
10002bec:	8b 45 0c             	mov    eax,DWORD PTR [ebp+0xc]
10002bef:	66 8b 40 0a          	mov    ax,WORD PTR [eax+0xa]
10002bf3:	98                   	cwde   
10002bf4:	01 c2                	add    edx,eax
10002bf6:	8b 45 ec             	mov    eax,DWORD PTR [ebp-0x14]
10002bf9:	66 8b 40 06          	mov    ax,WORD PTR [eax+0x6]
10002bfd:	98                   	cwde   
10002bfe:	39 c2                	cmp    edx,eax
10002c00:	7e 31                	jle    10002c33 <Window_get_windows_above+0x101>
10002c02:	8b 45 ec             	mov    eax,DWORD PTR [ebp-0x14]
10002c05:	66 8b 40 06          	mov    ax,WORD PTR [eax+0x6]
10002c09:	0f bf d0             	movsx  edx,ax
10002c0c:	8b 45 ec             	mov    eax,DWORD PTR [ebp-0x14]
10002c0f:	66 8b 40 0a          	mov    ax,WORD PTR [eax+0xa]
10002c13:	98                   	cwde   
10002c14:	01 c2                	add    edx,eax
10002c16:	8b 45 0c             	mov    eax,DWORD PTR [ebp+0xc]
10002c19:	66 8b 40 06          	mov    ax,WORD PTR [eax+0x6]
10002c1d:	98                   	cwde   
10002c1e:	39 c2                	cmp    edx,eax
10002c20:	7e 11                	jle    10002c33 <Window_get_windows_above+0x101>
10002c22:	83 ec 08             	sub    esp,0x8
10002c25:	ff 75 ec             	push   DWORD PTR [ebp-0x14]
10002c28:	ff 75 f0             	push   DWORD PTR [ebp-0x10]
10002c2b:	e8 fc ff ff ff       	call   10002c2c <Window_get_windows_above+0xfa>	10002c2c: R_386_PC32	List_add
10002c30:	83 c4 10             	add    esp,0x10
10002c33:	ff 45 f4             	inc    DWORD PTR [ebp-0xc]
10002c36:	8b 45 08             	mov    eax,DWORD PTR [ebp+0x8]
10002c39:	8b 40 1c             	mov    eax,DWORD PTR [eax+0x1c]
10002c3c:	8b 10                	mov    edx,DWORD PTR [eax]
10002c3e:	8b 45 f4             	mov    eax,DWORD PTR [ebp-0xc]
10002c41:	39 c2                	cmp    edx,eax
10002c43:	0f 87 46 ff ff ff    	ja     10002b8f <Window_get_windows_above+0x5d>
10002c49:	8b 45 f0             	mov    eax,DWORD PTR [ebp-0x10]
10002c4c:	c9                   	leave  
10002c4d:	c3                   	ret    

10002c4e <Window_get_windows_below>:
10002c4e:	55                   	push   ebp
10002c4f:	89 e5                	mov    ebp,esp
10002c51:	83 ec 18             	sub    esp,0x18
10002c54:	e8 fc ff ff ff       	call   10002c55 <Window_get_windows_below+0x7>	10002c55: R_386_PC32	List_new
10002c59:	89 45 f0             	mov    DWORD PTR [ebp-0x10],eax
10002c5c:	83 7d f0 00          	cmp    DWORD PTR [ebp-0x10],0x0
10002c60:	75 08                	jne    10002c6a <Window_get_windows_below+0x1c>
10002c62:	8b 45 f0             	mov    eax,DWORD PTR [ebp-0x10]
10002c65:	e9 f1 00 00 00       	jmp    10002d5b <Window_get_windows_below+0x10d>
10002c6a:	8b 45 08             	mov    eax,DWORD PTR [ebp+0x8]
10002c6d:	8b 40 1c             	mov    eax,DWORD PTR [eax+0x1c]
10002c70:	8b 00                	mov    eax,DWORD PTR [eax]
10002c72:	48                   	dec    eax
10002c73:	89 45 f4             	mov    DWORD PTR [ebp-0xc],eax
10002c76:	eb 1e                	jmp    10002c96 <Window_get_windows_below+0x48>
10002c78:	8b 55 f4             	mov    edx,DWORD PTR [ebp-0xc]
10002c7b:	8b 45 08             	mov    eax,DWORD PTR [ebp+0x8]
10002c7e:	8b 40 1c             	mov    eax,DWORD PTR [eax+0x1c]
10002c81:	83 ec 08             	sub    esp,0x8
10002c84:	52                   	push   edx
10002c85:	50                   	push   eax
10002c86:	e8 fc ff ff ff       	call   10002c87 <Window_get_windows_below+0x39>	10002c87: R_386_PC32	List_get_at
10002c8b:	83 c4 10             	add    esp,0x10
10002c8e:	39 45 0c             	cmp    DWORD PTR [ebp+0xc],eax
10002c91:	74 0b                	je     10002c9e <Window_get_windows_below+0x50>
10002c93:	ff 4d f4             	dec    DWORD PTR [ebp-0xc]
10002c96:	83 7d f4 00          	cmp    DWORD PTR [ebp-0xc],0x0
10002c9a:	79 dc                	jns    10002c78 <Window_get_windows_below+0x2a>
10002c9c:	eb 01                	jmp    10002c9f <Window_get_windows_below+0x51>
10002c9e:	90                   	nop
10002c9f:	ff 4d f4             	dec    DWORD PTR [ebp-0xc]
10002ca2:	e9 a7 00 00 00       	jmp    10002d4e <Window_get_windows_below+0x100>
10002ca7:	8b 55 f4             	mov    edx,DWORD PTR [ebp-0xc]
10002caa:	8b 45 08             	mov    eax,DWORD PTR [ebp+0x8]
10002cad:	8b 40 1c             	mov    eax,DWORD PTR [eax+0x1c]
10002cb0:	83 ec 08             	sub    esp,0x8
10002cb3:	52                   	push   edx
10002cb4:	50                   	push   eax
10002cb5:	e8 fc ff ff ff       	call   10002cb6 <Window_get_windows_below+0x68>	10002cb6: R_386_PC32	List_get_at
10002cba:	83 c4 10             	add    esp,0x10
10002cbd:	89 45 ec             	mov    DWORD PTR [ebp-0x14],eax
10002cc0:	8b 45 0c             	mov    eax,DWORD PTR [ebp+0xc]
10002cc3:	8b 40 04             	mov    eax,DWORD PTR [eax+0x4]
10002cc6:	0f bf d0             	movsx  edx,ax
10002cc9:	8b 45 0c             	mov    eax,DWORD PTR [ebp+0xc]
10002ccc:	8b 40 08             	mov    eax,DWORD PTR [eax+0x8]
10002ccf:	98                   	cwde   
10002cd0:	01 c2                	add    edx,eax
10002cd2:	8b 45 ec             	mov    eax,DWORD PTR [ebp-0x14]
10002cd5:	8b 40 04             	mov    eax,DWORD PTR [eax+0x4]
10002cd8:	98                   	cwde   
10002cd9:	39 c2                	cmp    edx,eax
10002cdb:	7e 6e                	jle    10002d4b <Window_get_windows_below+0xfd>
10002cdd:	8b 45 ec             	mov    eax,DWORD PTR [ebp-0x14]
10002ce0:	8b 40 04             	mov    eax,DWORD PTR [eax+0x4]
10002ce3:	0f bf d0             	movsx  edx,ax
10002ce6:	8b 45 ec             	mov    eax,DWORD PTR [ebp-0x14]
10002ce9:	8b 40 08             	mov    eax,DWORD PTR [eax+0x8]
10002cec:	98                   	cwde   
10002ced:	01 c2                	add    edx,eax
10002cef:	8b 45 0c             	mov    eax,DWORD PTR [ebp+0xc]
10002cf2:	8b 40 04             	mov    eax,DWORD PTR [eax+0x4]
10002cf5:	98                   	cwde   
10002cf6:	39 c2                	cmp    edx,eax
10002cf8:	7e 51                	jle    10002d4b <Window_get_windows_below+0xfd>
10002cfa:	8b 45 0c             	mov    eax,DWORD PTR [ebp+0xc]
10002cfd:	66 8b 40 06          	mov    ax,WORD PTR [eax+0x6]
10002d01:	0f bf d0             	movsx  edx,ax
10002d04:	8b 45 0c             	mov    eax,DWORD PTR [ebp+0xc]
10002d07:	66 8b 40 0a          	mov    ax,WORD PTR [eax+0xa]
10002d0b:	98                   	cwde   
10002d0c:	01 c2                	add    edx,eax
10002d0e:	8b 45 ec             	mov    eax,DWORD PTR [ebp-0x14]
10002d11:	66 8b 40 06          	mov    ax,WORD PTR [eax+0x6]
10002d15:	98                   	cwde   
10002d16:	39 c2                	cmp    edx,eax
10002d18:	7e 31                	jle    10002d4b <Window_get_windows_below+0xfd>
10002d1a:	8b 45 ec             	mov    eax,DWORD PTR [ebp-0x14]
10002d1d:	66 8b 40 06          	mov    ax,WORD PTR [eax+0x6]
10002d21:	0f bf d0             	movsx  edx,ax
10002d24:	8b 45 ec             	mov    eax,DWORD PTR [ebp-0x14]
10002d27:	66 8b 40 0a          	mov    ax,WORD PTR [eax+0xa]
10002d2b:	98                   	cwde   
10002d2c:	01 c2                	add    edx,eax
10002d2e:	8b 45 0c             	mov    eax,DWORD PTR [ebp+0xc]
10002d31:	66 8b 40 06          	mov    ax,WORD PTR [eax+0x6]
10002d35:	98                   	cwde   
10002d36:	39 c2                	cmp    edx,eax
10002d38:	7e 11                	jle    10002d4b <Window_get_windows_below+0xfd>
10002d3a:	83 ec 08             	sub    esp,0x8
10002d3d:	ff 75 ec             	push   DWORD PTR [ebp-0x14]
10002d40:	ff 75 f0             	push   DWORD PTR [ebp-0x10]
10002d43:	e8 fc ff ff ff       	call   10002d44 <Window_get_windows_below+0xf6>	10002d44: R_386_PC32	List_add
10002d48:	83 c4 10             	add    esp,0x10
10002d4b:	ff 4d f4             	dec    DWORD PTR [ebp-0xc]
10002d4e:	83 7d f4 00          	cmp    DWORD PTR [ebp-0xc],0x0
10002d52:	0f 89 4f ff ff ff    	jns    10002ca7 <Window_get_windows_below+0x59>
10002d58:	8b 45 f0             	mov    eax,DWORD PTR [ebp-0x10]
10002d5b:	c9                   	leave  
10002d5c:	c3                   	ret    

10002d5d <Window_raise>:
10002d5d:	55                   	push   ebp
10002d5e:	89 e5                	mov    ebp,esp
10002d60:	83 ec 28             	sub    esp,0x28
10002d63:	8b 45 0c             	mov    eax,DWORD PTR [ebp+0xc]
10002d66:	88 45 e4             	mov    BYTE PTR [ebp-0x1c],al
10002d69:	8b 45 08             	mov    eax,DWORD PTR [ebp+0x8]
10002d6c:	8b 40 0c             	mov    eax,DWORD PTR [eax+0xc]
10002d6f:	0f b7 c0             	movzx  eax,ax
10002d72:	83 e0 02             	and    eax,0x2
10002d75:	85 c0                	test   eax,eax
10002d77:	74 08                	je     10002d81 <Window_raise+0x24>
10002d79:	8b 45 08             	mov    eax,DWORD PTR [ebp+0x8]
10002d7c:	a3 00 00 00 00       	mov    ds:0x0,eax	10002d7d: R_386_32	active_window
10002d81:	8b 45 08             	mov    eax,DWORD PTR [ebp+0x8]
10002d84:	8b 00                	mov    eax,DWORD PTR [eax]
10002d86:	85 c0                	test   eax,eax
10002d88:	0f 84 b5 00 00 00    	je     10002e43 <Window_raise+0xe6>
10002d8e:	8b 45 08             	mov    eax,DWORD PTR [ebp+0x8]
10002d91:	8b 00                	mov    eax,DWORD PTR [eax]
10002d93:	89 45 f0             	mov    DWORD PTR [ebp-0x10],eax
10002d96:	8b 45 f0             	mov    eax,DWORD PTR [ebp-0x10]
10002d99:	8b 40 18             	mov    eax,DWORD PTR [eax+0x18]
10002d9c:	39 45 08             	cmp    DWORD PTR [ebp+0x8],eax
10002d9f:	0f 84 a1 00 00 00    	je     10002e46 <Window_raise+0xe9>
10002da5:	8b 45 f0             	mov    eax,DWORD PTR [ebp-0x10]
10002da8:	8b 40 18             	mov    eax,DWORD PTR [eax+0x18]
10002dab:	89 45 ec             	mov    DWORD PTR [ebp-0x14],eax
10002dae:	c7 45 f4 00 00 00 00 	mov    DWORD PTR [ebp-0xc],0x0
10002db5:	eb 1e                	jmp    10002dd5 <Window_raise+0x78>
10002db7:	8b 55 f4             	mov    edx,DWORD PTR [ebp-0xc]
10002dba:	8b 45 f0             	mov    eax,DWORD PTR [ebp-0x10]
10002dbd:	8b 40 1c             	mov    eax,DWORD PTR [eax+0x1c]
10002dc0:	83 ec 08             	sub    esp,0x8
10002dc3:	52                   	push   edx
10002dc4:	50                   	push   eax
10002dc5:	e8 fc ff ff ff       	call   10002dc6 <Window_raise+0x69>	10002dc6: R_386_PC32	List_get_at
10002dca:	83 c4 10             	add    esp,0x10
10002dcd:	39 45 08             	cmp    DWORD PTR [ebp+0x8],eax
10002dd0:	74 14                	je     10002de6 <Window_raise+0x89>
10002dd2:	ff 45 f4             	inc    DWORD PTR [ebp-0xc]
10002dd5:	8b 45 f0             	mov    eax,DWORD PTR [ebp-0x10]
10002dd8:	8b 40 1c             	mov    eax,DWORD PTR [eax+0x1c]
10002ddb:	8b 10                	mov    edx,DWORD PTR [eax]
10002ddd:	8b 45 f4             	mov    eax,DWORD PTR [ebp-0xc]
10002de0:	39 c2                	cmp    edx,eax
10002de2:	77 d3                	ja     10002db7 <Window_raise+0x5a>
10002de4:	eb 01                	jmp    10002de7 <Window_raise+0x8a>
10002de6:	90                   	nop
10002de7:	8b 55 f4             	mov    edx,DWORD PTR [ebp-0xc]
10002dea:	8b 45 f0             	mov    eax,DWORD PTR [ebp-0x10]
10002ded:	8b 40 1c             	mov    eax,DWORD PTR [eax+0x1c]
10002df0:	83 ec 08             	sub    esp,0x8
10002df3:	52                   	push   edx
10002df4:	50                   	push   eax
10002df5:	e8 fc ff ff ff       	call   10002df6 <Window_raise+0x99>	10002df6: R_386_PC32	List_remove_at
10002dfa:	83 c4 10             	add    esp,0x10
10002dfd:	8b 45 f0             	mov    eax,DWORD PTR [ebp-0x10]
10002e00:	8b 40 1c             	mov    eax,DWORD PTR [eax+0x1c]
10002e03:	83 ec 08             	sub    esp,0x8
10002e06:	ff 75 08             	push   DWORD PTR [ebp+0x8]
10002e09:	50                   	push   eax
10002e0a:	e8 fc ff ff ff       	call   10002e0b <Window_raise+0xae>	10002e0b: R_386_PC32	List_add
10002e0f:	83 c4 10             	add    esp,0x10
10002e12:	8b 45 f0             	mov    eax,DWORD PTR [ebp-0x10]
10002e15:	8b 55 08             	mov    edx,DWORD PTR [ebp+0x8]
10002e18:	89 50 18             	mov    DWORD PTR [eax+0x18],edx
10002e1b:	80 7d e4 00          	cmp    BYTE PTR [ebp-0x1c],0x0
10002e1f:	74 28                	je     10002e49 <Window_raise+0xec>
10002e21:	83 ec 04             	sub    esp,0x4
10002e24:	6a 01                	push   0x1
10002e26:	6a 00                	push   0x0
10002e28:	ff 75 08             	push   DWORD PTR [ebp+0x8]
10002e2b:	e8 fc ff ff ff       	call   10002e2c <Window_raise+0xcf>	10002e2c: R_386_PC32	Window_paint
10002e30:	83 c4 10             	add    esp,0x10
10002e33:	83 ec 0c             	sub    esp,0xc
10002e36:	ff 75 ec             	push   DWORD PTR [ebp-0x14]
10002e39:	e8 fc ff ff ff       	call   10002e3a <Window_raise+0xdd>	10002e3a: R_386_PC32	Window_update_title
10002e3e:	83 c4 10             	add    esp,0x10
10002e41:	eb 07                	jmp    10002e4a <Window_raise+0xed>
10002e43:	90                   	nop
10002e44:	eb 04                	jmp    10002e4a <Window_raise+0xed>
10002e46:	90                   	nop
10002e47:	eb 01                	jmp    10002e4a <Window_raise+0xed>
10002e49:	90                   	nop
10002e4a:	c9                   	leave  
10002e4b:	c3                   	ret    

10002e4c <Window_resize>:
10002e4c:	55                   	push   ebp
10002e4d:	89 e5                	mov    ebp,esp
10002e4f:	83 ec 38             	sub    esp,0x38
10002e52:	83 7d 0c 01          	cmp    DWORD PTR [ebp+0xc],0x1
10002e56:	7f 07                	jg     10002e5f <Window_resize+0x13>
10002e58:	c7 45 0c 02 00 00 00 	mov    DWORD PTR [ebp+0xc],0x2
10002e5f:	83 7d 10 01          	cmp    DWORD PTR [ebp+0x10],0x1
10002e63:	7f 07                	jg     10002e6c <Window_resize+0x20>
10002e65:	c7 45 10 02 00 00 00 	mov    DWORD PTR [ebp+0x10],0x2
10002e6c:	8b 45 08             	mov    eax,DWORD PTR [ebp+0x8]
10002e6f:	8b 40 0c             	mov    eax,DWORD PTR [eax+0xc]
10002e72:	0f b7 c0             	movzx  eax,ax
10002e75:	83 e0 02             	and    eax,0x2
10002e78:	85 c0                	test   eax,eax
10002e7a:	74 1a                	je     10002e96 <Window_resize+0x4a>
10002e7c:	83 7d 0c 1f          	cmp    DWORD PTR [ebp+0xc],0x1f
10002e80:	7f 07                	jg     10002e89 <Window_resize+0x3d>
10002e82:	c7 45 0c 20 00 00 00 	mov    DWORD PTR [ebp+0xc],0x20
10002e89:	83 7d 10 29          	cmp    DWORD PTR [ebp+0x10],0x29
10002e8d:	7f 07                	jg     10002e96 <Window_resize+0x4a>
10002e8f:	c7 45 10 2a 00 00 00 	mov    DWORD PTR [ebp+0x10],0x2a
10002e96:	8b 45 08             	mov    eax,DWORD PTR [ebp+0x8]
10002e99:	8b 40 08             	mov    eax,DWORD PTR [eax+0x8]
10002e9c:	98                   	cwde   
10002e9d:	89 45 f4             	mov    DWORD PTR [ebp-0xc],eax
10002ea0:	8b 45 08             	mov    eax,DWORD PTR [ebp+0x8]
10002ea3:	66 8b 40 0a          	mov    ax,WORD PTR [eax+0xa]
10002ea7:	98                   	cwde   
10002ea8:	89 45 f0             	mov    DWORD PTR [ebp-0x10],eax
10002eab:	83 ec 08             	sub    esp,0x8
10002eae:	6a 00                	push   0x0
10002eb0:	ff 75 08             	push   DWORD PTR [ebp+0x8]
10002eb3:	e8 fc ff ff ff       	call   10002eb4 <Window_resize+0x68>	10002eb4: R_386_PC32	Window_raise
10002eb8:	83 c4 10             	add    esp,0x10
10002ebb:	83 ec 04             	sub    esp,0x4
10002ebe:	6a 00                	push   0x0
10002ec0:	6a 00                	push   0x0
10002ec2:	ff 75 08             	push   DWORD PTR [ebp+0x8]
10002ec5:	e8 fc ff ff ff       	call   10002ec6 <Window_resize+0x7a>	10002ec6: R_386_PC32	Window_apply_bound_clipping
10002eca:	83 c4 10             	add    esp,0x10
10002ecd:	8b 45 0c             	mov    eax,DWORD PTR [ebp+0xc]
10002ed0:	8b 55 08             	mov    edx,DWORD PTR [ebp+0x8]
10002ed3:	66 89 42 08          	mov    WORD PTR [edx+0x8],ax
10002ed7:	8b 45 10             	mov    eax,DWORD PTR [ebp+0x10]
10002eda:	8b 55 08             	mov    edx,DWORD PTR [ebp+0x8]
10002edd:	66 89 42 0a          	mov    WORD PTR [edx+0xa],ax
10002ee1:	83 ec 0c             	sub    esp,0xc
10002ee4:	ff 75 08             	push   DWORD PTR [ebp+0x8]
10002ee7:	e8 fc ff ff ff       	call   10002ee8 <Window_resize+0x9c>	10002ee8: R_386_PC32	Window_screen_y
10002eec:	83 c4 10             	add    esp,0x10
10002eef:	89 45 d4             	mov    DWORD PTR [ebp-0x2c],eax
10002ef2:	83 ec 0c             	sub    esp,0xc
10002ef5:	ff 75 08             	push   DWORD PTR [ebp+0x8]
10002ef8:	e8 fc ff ff ff       	call   10002ef9 <Window_resize+0xad>	10002ef9: R_386_PC32	Window_screen_x
10002efd:	83 c4 10             	add    esp,0x10
10002f00:	89 45 d8             	mov    DWORD PTR [ebp-0x28],eax
10002f03:	8b 55 d4             	mov    edx,DWORD PTR [ebp-0x2c]
10002f06:	8b 45 08             	mov    eax,DWORD PTR [ebp+0x8]
10002f09:	66 8b 40 0a          	mov    ax,WORD PTR [eax+0xa]
10002f0d:	98                   	cwde   
10002f0e:	01 d0                	add    eax,edx
10002f10:	48                   	dec    eax
10002f11:	89 45 dc             	mov    DWORD PTR [ebp-0x24],eax
10002f14:	8b 55 d8             	mov    edx,DWORD PTR [ebp-0x28]
10002f17:	8b 45 08             	mov    eax,DWORD PTR [ebp+0x8]
10002f1a:	8b 40 08             	mov    eax,DWORD PTR [eax+0x8]
10002f1d:	98                   	cwde   
10002f1e:	01 d0                	add    eax,edx
10002f20:	48                   	dec    eax
10002f21:	89 45 e0             	mov    DWORD PTR [ebp-0x20],eax
10002f24:	8b 45 f4             	mov    eax,DWORD PTR [ebp-0xc]
10002f27:	8b 55 08             	mov    edx,DWORD PTR [ebp+0x8]
10002f2a:	66 89 42 08          	mov    WORD PTR [edx+0x8],ax
10002f2e:	8b 45 f0             	mov    eax,DWORD PTR [ebp-0x10]
10002f31:	8b 55 08             	mov    edx,DWORD PTR [ebp+0x8]
10002f34:	66 89 42 0a          	mov    WORD PTR [edx+0xa],ax
10002f38:	8b 45 08             	mov    eax,DWORD PTR [ebp+0x8]
10002f3b:	8b 40 10             	mov    eax,DWORD PTR [eax+0x10]
10002f3e:	83 ec 08             	sub    esp,0x8
10002f41:	8d 55 d4             	lea    edx,[ebp-0x2c]
10002f44:	52                   	push   edx
10002f45:	50                   	push   eax
10002f46:	e8 fc ff ff ff       	call   10002f47 <Window_resize+0xfb>	10002f47: R_386_PC32	Context_subtract_clip_rect
10002f4b:	83 c4 10             	add    esp,0x10
10002f4e:	e8 fc ff ff ff       	call   10002f4f <Window_resize+0x103>	10002f4f: R_386_PC32	List_new
10002f53:	89 45 ec             	mov    DWORD PTR [ebp-0x14],eax
10002f56:	83 7d ec 00          	cmp    DWORD PTR [ebp-0x14],0x0
10002f5a:	75 17                	jne    10002f73 <Window_resize+0x127>
10002f5c:	8b 45 08             	mov    eax,DWORD PTR [ebp+0x8]
10002f5f:	8b 40 10             	mov    eax,DWORD PTR [eax+0x10]
10002f62:	83 ec 0c             	sub    esp,0xc
10002f65:	50                   	push   eax
10002f66:	e8 fc ff ff ff       	call   10002f67 <Window_resize+0x11b>	10002f67: R_386_PC32	Context_clear_clip_rects
10002f6b:	83 c4 10             	add    esp,0x10
10002f6e:	e9 f1 00 00 00       	jmp    10003064 <Window_resize+0x218>
10002f73:	8b 45 08             	mov    eax,DWORD PTR [ebp+0x8]
10002f76:	8b 40 10             	mov    eax,DWORD PTR [eax+0x10]
10002f79:	8b 40 10             	mov    eax,DWORD PTR [eax+0x10]
10002f7c:	89 45 e8             	mov    DWORD PTR [ebp-0x18],eax
10002f7f:	8b 45 08             	mov    eax,DWORD PTR [ebp+0x8]
10002f82:	8b 40 10             	mov    eax,DWORD PTR [eax+0x10]
10002f85:	8b 55 ec             	mov    edx,DWORD PTR [ebp-0x14]
10002f88:	89 50 10             	mov    DWORD PTR [eax+0x10],edx
10002f8b:	8b 45 08             	mov    eax,DWORD PTR [ebp+0x8]
10002f8e:	8b 00                	mov    eax,DWORD PTR [eax]
10002f90:	83 ec 08             	sub    esp,0x8
10002f93:	ff 75 08             	push   DWORD PTR [ebp+0x8]
10002f96:	50                   	push   eax
10002f97:	e8 fc ff ff ff       	call   10002f98 <Window_resize+0x14c>	10002f98: R_386_PC32	Window_get_windows_below
10002f9c:	83 c4 10             	add    esp,0x10
10002f9f:	89 45 e4             	mov    DWORD PTR [ebp-0x1c],eax
10002fa2:	8b 45 0c             	mov    eax,DWORD PTR [ebp+0xc]
10002fa5:	8b 55 08             	mov    edx,DWORD PTR [ebp+0x8]
10002fa8:	66 89 42 08          	mov    WORD PTR [edx+0x8],ax
10002fac:	8b 45 10             	mov    eax,DWORD PTR [ebp+0x10]
10002faf:	8b 55 08             	mov    edx,DWORD PTR [ebp+0x8]
10002fb2:	66 89 42 0a          	mov    WORD PTR [edx+0xa],ax
10002fb6:	8b 45 08             	mov    eax,DWORD PTR [ebp+0x8]
10002fb9:	8b 40 44             	mov    eax,DWORD PTR [eax+0x44]
10002fbc:	83 ec 04             	sub    esp,0x4
10002fbf:	ff 75 10             	push   DWORD PTR [ebp+0x10]
10002fc2:	ff 75 0c             	push   DWORD PTR [ebp+0xc]
10002fc5:	ff 75 08             	push   DWORD PTR [ebp+0x8]
10002fc8:	ff d0                	call   eax
10002fca:	83 c4 10             	add    esp,0x10
10002fcd:	eb 21                	jmp    10002ff0 <Window_resize+0x1a4>
10002fcf:	83 ec 08             	sub    esp,0x8
10002fd2:	6a 00                	push   0x0
10002fd4:	ff 75 e4             	push   DWORD PTR [ebp-0x1c]
10002fd7:	e8 fc ff ff ff       	call   10002fd8 <Window_resize+0x18c>	10002fd8: R_386_PC32	List_remove_at
10002fdc:	83 c4 10             	add    esp,0x10
10002fdf:	83 ec 04             	sub    esp,0x4
10002fe2:	6a 01                	push   0x1
10002fe4:	ff 75 e8             	push   DWORD PTR [ebp-0x18]
10002fe7:	50                   	push   eax
10002fe8:	e8 fc ff ff ff       	call   10002fe9 <Window_resize+0x19d>	10002fe9: R_386_PC32	Window_paint
10002fed:	83 c4 10             	add    esp,0x10
10002ff0:	8b 45 e4             	mov    eax,DWORD PTR [ebp-0x1c]
10002ff3:	8b 00                	mov    eax,DWORD PTR [eax]
10002ff5:	85 c0                	test   eax,eax
10002ff7:	75 d6                	jne    10002fcf <Window_resize+0x183>
10002ff9:	8b 45 08             	mov    eax,DWORD PTR [ebp+0x8]
10002ffc:	8b 00                	mov    eax,DWORD PTR [eax]
10002ffe:	83 ec 04             	sub    esp,0x4
10003001:	6a 00                	push   0x0
10003003:	ff 75 e8             	push   DWORD PTR [ebp-0x18]
10003006:	50                   	push   eax
10003007:	e8 fc ff ff ff       	call   10003008 <Window_resize+0x1bc>	10003008: R_386_PC32	Window_paint
1000300c:	83 c4 10             	add    esp,0x10
1000300f:	eb 1c                	jmp    1000302d <Window_resize+0x1e1>
10003011:	83 ec 08             	sub    esp,0x8
10003014:	6a 00                	push   0x0
10003016:	ff 75 e8             	push   DWORD PTR [ebp-0x18]
10003019:	e8 fc ff ff ff       	call   1000301a <Window_resize+0x1ce>	1000301a: R_386_PC32	List_remove_at
1000301e:	83 c4 10             	add    esp,0x10
10003021:	83 ec 0c             	sub    esp,0xc
10003024:	50                   	push   eax
10003025:	e8 fc ff ff ff       	call   10003026 <Window_resize+0x1da>	10003026: R_386_PC32	free
1000302a:	83 c4 10             	add    esp,0x10
1000302d:	8b 45 e8             	mov    eax,DWORD PTR [ebp-0x18]
10003030:	8b 00                	mov    eax,DWORD PTR [eax]
10003032:	85 c0                	test   eax,eax
10003034:	75 db                	jne    10003011 <Window_resize+0x1c5>
10003036:	83 ec 0c             	sub    esp,0xc
10003039:	ff 75 e8             	push   DWORD PTR [ebp-0x18]
1000303c:	e8 fc ff ff ff       	call   1000303d <Window_resize+0x1f1>	1000303d: R_386_PC32	free
10003041:	83 c4 10             	add    esp,0x10
10003044:	83 ec 0c             	sub    esp,0xc
10003047:	ff 75 e4             	push   DWORD PTR [ebp-0x1c]
1000304a:	e8 fc ff ff ff       	call   1000304b <Window_resize+0x1ff>	1000304b: R_386_PC32	free
1000304f:	83 c4 10             	add    esp,0x10
10003052:	83 ec 04             	sub    esp,0x4
10003055:	6a 01                	push   0x1
10003057:	6a 00                	push   0x0
10003059:	ff 75 08             	push   DWORD PTR [ebp+0x8]
1000305c:	e8 fc ff ff ff       	call   1000305d <Window_resize+0x211>	1000305d: R_386_PC32	Window_paint
10003061:	83 c4 10             	add    esp,0x10
10003064:	c9                   	leave  
10003065:	c3                   	ret    

10003066 <Window_move>:
10003066:	55                   	push   ebp
10003067:	89 e5                	mov    ebp,esp
10003069:	83 ec 38             	sub    esp,0x38
1000306c:	8b 45 08             	mov    eax,DWORD PTR [ebp+0x8]
1000306f:	8b 40 04             	mov    eax,DWORD PTR [eax+0x4]
10003072:	98                   	cwde   
10003073:	89 45 f4             	mov    DWORD PTR [ebp-0xc],eax
10003076:	8b 45 08             	mov    eax,DWORD PTR [ebp+0x8]
10003079:	66 8b 40 06          	mov    ax,WORD PTR [eax+0x6]
1000307d:	98                   	cwde   
1000307e:	89 45 f0             	mov    DWORD PTR [ebp-0x10],eax
10003081:	83 ec 08             	sub    esp,0x8
10003084:	6a 00                	push   0x0
10003086:	ff 75 08             	push   DWORD PTR [ebp+0x8]
10003089:	e8 fc ff ff ff       	call   1000308a <Window_move+0x24>	1000308a: R_386_PC32	Window_raise
1000308e:	83 c4 10             	add    esp,0x10
10003091:	83 ec 04             	sub    esp,0x4
10003094:	6a 00                	push   0x0
10003096:	6a 00                	push   0x0
10003098:	ff 75 08             	push   DWORD PTR [ebp+0x8]
1000309b:	e8 fc ff ff ff       	call   1000309c <Window_move+0x36>	1000309c: R_386_PC32	Window_apply_bound_clipping
100030a0:	83 c4 10             	add    esp,0x10
100030a3:	8b 45 0c             	mov    eax,DWORD PTR [ebp+0xc]
100030a6:	8b 55 08             	mov    edx,DWORD PTR [ebp+0x8]
100030a9:	66 89 42 04          	mov    WORD PTR [edx+0x4],ax
100030ad:	8b 45 10             	mov    eax,DWORD PTR [ebp+0x10]
100030b0:	8b 55 08             	mov    edx,DWORD PTR [ebp+0x8]
100030b3:	66 89 42 06          	mov    WORD PTR [edx+0x6],ax
100030b7:	83 ec 0c             	sub    esp,0xc
100030ba:	ff 75 08             	push   DWORD PTR [ebp+0x8]
100030bd:	e8 fc ff ff ff       	call   100030be <Window_move+0x58>	100030be: R_386_PC32	Window_screen_y
100030c2:	83 c4 10             	add    esp,0x10
100030c5:	89 45 d4             	mov    DWORD PTR [ebp-0x2c],eax
100030c8:	83 ec 0c             	sub    esp,0xc
100030cb:	ff 75 08             	push   DWORD PTR [ebp+0x8]
100030ce:	e8 fc ff ff ff       	call   100030cf <Window_move+0x69>	100030cf: R_386_PC32	Window_screen_x
100030d3:	83 c4 10             	add    esp,0x10
100030d6:	89 45 d8             	mov    DWORD PTR [ebp-0x28],eax
100030d9:	8b 55 d4             	mov    edx,DWORD PTR [ebp-0x2c]
100030dc:	8b 45 08             	mov    eax,DWORD PTR [ebp+0x8]
100030df:	66 8b 40 0a          	mov    ax,WORD PTR [eax+0xa]
100030e3:	98                   	cwde   
100030e4:	01 d0                	add    eax,edx
100030e6:	48                   	dec    eax
100030e7:	89 45 dc             	mov    DWORD PTR [ebp-0x24],eax
100030ea:	8b 55 d8             	mov    edx,DWORD PTR [ebp-0x28]
100030ed:	8b 45 08             	mov    eax,DWORD PTR [ebp+0x8]
100030f0:	8b 40 08             	mov    eax,DWORD PTR [eax+0x8]
100030f3:	98                   	cwde   
100030f4:	01 d0                	add    eax,edx
100030f6:	48                   	dec    eax
100030f7:	89 45 e0             	mov    DWORD PTR [ebp-0x20],eax
100030fa:	8b 45 08             	mov    eax,DWORD PTR [ebp+0x8]
100030fd:	8b 40 48             	mov    eax,DWORD PTR [eax+0x48]
10003100:	83 ec 04             	sub    esp,0x4
10003103:	ff 75 10             	push   DWORD PTR [ebp+0x10]
10003106:	ff 75 0c             	push   DWORD PTR [ebp+0xc]
10003109:	ff 75 08             	push   DWORD PTR [ebp+0x8]
1000310c:	ff d0                	call   eax
1000310e:	83 c4 10             	add    esp,0x10
10003111:	8b 45 f4             	mov    eax,DWORD PTR [ebp-0xc]
10003114:	8b 55 08             	mov    edx,DWORD PTR [ebp+0x8]
10003117:	66 89 42 04          	mov    WORD PTR [edx+0x4],ax
1000311b:	8b 45 f0             	mov    eax,DWORD PTR [ebp-0x10]
1000311e:	8b 55 08             	mov    edx,DWORD PTR [ebp+0x8]
10003121:	66 89 42 06          	mov    WORD PTR [edx+0x6],ax
10003125:	8b 45 08             	mov    eax,DWORD PTR [ebp+0x8]
10003128:	8b 40 10             	mov    eax,DWORD PTR [eax+0x10]
1000312b:	83 ec 08             	sub    esp,0x8
1000312e:	8d 55 d4             	lea    edx,[ebp-0x2c]
10003131:	52                   	push   edx
10003132:	50                   	push   eax
10003133:	e8 fc ff ff ff       	call   10003134 <Window_move+0xce>	10003134: R_386_PC32	Context_subtract_clip_rect
10003138:	83 c4 10             	add    esp,0x10
1000313b:	e8 fc ff ff ff       	call   1000313c <Window_move+0xd6>	1000313c: R_386_PC32	List_new
10003140:	89 45 ec             	mov    DWORD PTR [ebp-0x14],eax
10003143:	83 7d ec 00          	cmp    DWORD PTR [ebp-0x14],0x0
10003147:	75 17                	jne    10003160 <Window_move+0xfa>
10003149:	8b 45 08             	mov    eax,DWORD PTR [ebp+0x8]
1000314c:	8b 40 10             	mov    eax,DWORD PTR [eax+0x10]
1000314f:	83 ec 0c             	sub    esp,0xc
10003152:	50                   	push   eax
10003153:	e8 fc ff ff ff       	call   10003154 <Window_move+0xee>	10003154: R_386_PC32	Context_clear_clip_rects
10003158:	83 c4 10             	add    esp,0x10
1000315b:	e9 da 00 00 00       	jmp    1000323a <Window_move+0x1d4>
10003160:	8b 45 08             	mov    eax,DWORD PTR [ebp+0x8]
10003163:	8b 40 10             	mov    eax,DWORD PTR [eax+0x10]
10003166:	8b 40 10             	mov    eax,DWORD PTR [eax+0x10]
10003169:	89 45 e8             	mov    DWORD PTR [ebp-0x18],eax
1000316c:	8b 45 08             	mov    eax,DWORD PTR [ebp+0x8]
1000316f:	8b 40 10             	mov    eax,DWORD PTR [eax+0x10]
10003172:	8b 55 ec             	mov    edx,DWORD PTR [ebp-0x14]
10003175:	89 50 10             	mov    DWORD PTR [eax+0x10],edx
10003178:	8b 45 08             	mov    eax,DWORD PTR [ebp+0x8]
1000317b:	8b 00                	mov    eax,DWORD PTR [eax]
1000317d:	83 ec 08             	sub    esp,0x8
10003180:	ff 75 08             	push   DWORD PTR [ebp+0x8]
10003183:	50                   	push   eax
10003184:	e8 fc ff ff ff       	call   10003185 <Window_move+0x11f>	10003185: R_386_PC32	Window_get_windows_below
10003189:	83 c4 10             	add    esp,0x10
1000318c:	89 45 e4             	mov    DWORD PTR [ebp-0x1c],eax
1000318f:	8b 45 0c             	mov    eax,DWORD PTR [ebp+0xc]
10003192:	8b 55 08             	mov    edx,DWORD PTR [ebp+0x8]
10003195:	66 89 42 04          	mov    WORD PTR [edx+0x4],ax
10003199:	8b 45 10             	mov    eax,DWORD PTR [ebp+0x10]
1000319c:	8b 55 08             	mov    edx,DWORD PTR [ebp+0x8]
1000319f:	66 89 42 06          	mov    WORD PTR [edx+0x6],ax
100031a3:	eb 21                	jmp    100031c6 <Window_move+0x160>
100031a5:	83 ec 08             	sub    esp,0x8
100031a8:	6a 00                	push   0x0
100031aa:	ff 75 e4             	push   DWORD PTR [ebp-0x1c]
100031ad:	e8 fc ff ff ff       	call   100031ae <Window_move+0x148>	100031ae: R_386_PC32	List_remove_at
100031b2:	83 c4 10             	add    esp,0x10
100031b5:	83 ec 04             	sub    esp,0x4
100031b8:	6a 01                	push   0x1
100031ba:	ff 75 e8             	push   DWORD PTR [ebp-0x18]
100031bd:	50                   	push   eax
100031be:	e8 fc ff ff ff       	call   100031bf <Window_move+0x159>	100031bf: R_386_PC32	Window_paint
100031c3:	83 c4 10             	add    esp,0x10
100031c6:	8b 45 e4             	mov    eax,DWORD PTR [ebp-0x1c]
100031c9:	8b 00                	mov    eax,DWORD PTR [eax]
100031cb:	85 c0                	test   eax,eax
100031cd:	75 d6                	jne    100031a5 <Window_move+0x13f>
100031cf:	8b 45 08             	mov    eax,DWORD PTR [ebp+0x8]
100031d2:	8b 00                	mov    eax,DWORD PTR [eax]
100031d4:	83 ec 04             	sub    esp,0x4
100031d7:	6a 00                	push   0x0
100031d9:	ff 75 e8             	push   DWORD PTR [ebp-0x18]
100031dc:	50                   	push   eax
100031dd:	e8 fc ff ff ff       	call   100031de <Window_move+0x178>	100031de: R_386_PC32	Window_paint
100031e2:	83 c4 10             	add    esp,0x10
100031e5:	eb 1c                	jmp    10003203 <Window_move+0x19d>
100031e7:	83 ec 08             	sub    esp,0x8
100031ea:	6a 00                	push   0x0
100031ec:	ff 75 e8             	push   DWORD PTR [ebp-0x18]
100031ef:	e8 fc ff ff ff       	call   100031f0 <Window_move+0x18a>	100031f0: R_386_PC32	List_remove_at
100031f4:	83 c4 10             	add    esp,0x10
100031f7:	83 ec 0c             	sub    esp,0xc
100031fa:	50                   	push   eax
100031fb:	e8 fc ff ff ff       	call   100031fc <Window_move+0x196>	100031fc: R_386_PC32	free
10003200:	83 c4 10             	add    esp,0x10
10003203:	8b 45 e8             	mov    eax,DWORD PTR [ebp-0x18]
10003206:	8b 00                	mov    eax,DWORD PTR [eax]
10003208:	85 c0                	test   eax,eax
1000320a:	75 db                	jne    100031e7 <Window_move+0x181>
1000320c:	83 ec 0c             	sub    esp,0xc
1000320f:	ff 75 e8             	push   DWORD PTR [ebp-0x18]
10003212:	e8 fc ff ff ff       	call   10003213 <Window_move+0x1ad>	10003213: R_386_PC32	free
10003217:	83 c4 10             	add    esp,0x10
1000321a:	83 ec 0c             	sub    esp,0xc
1000321d:	ff 75 e4             	push   DWORD PTR [ebp-0x1c]
10003220:	e8 fc ff ff ff       	call   10003221 <Window_move+0x1bb>	10003221: R_386_PC32	free
10003225:	83 c4 10             	add    esp,0x10
10003228:	83 ec 04             	sub    esp,0x4
1000322b:	6a 01                	push   0x1
1000322d:	6a 00                	push   0x0
1000322f:	ff 75 08             	push   DWORD PTR [ebp+0x8]
10003232:	e8 fc ff ff ff       	call   10003233 <Window_move+0x1cd>	10003233: R_386_PC32	Window_paint
10003237:	83 c4 10             	add    esp,0x10
1000323a:	c9                   	leave  
1000323b:	c3                   	ret    

1000323c <Window_process_mouse>:
1000323c:	55                   	push   ebp
1000323d:	89 e5                	mov    ebp,esp
1000323f:	53                   	push   ebx
10003240:	83 ec 44             	sub    esp,0x44
10003243:	8b 55 0c             	mov    edx,DWORD PTR [ebp+0xc]
10003246:	8b 45 10             	mov    eax,DWORD PTR [ebp+0x10]
10003249:	8b 4d 14             	mov    ecx,DWORD PTR [ebp+0x14]
1000324c:	66 89 55 c4          	mov    WORD PTR [ebp-0x3c],dx
10003250:	66 89 45 c0          	mov    WORD PTR [ebp-0x40],ax
10003254:	88 c8                	mov    al,cl
10003256:	88 45 bc             	mov    BYTE PTR [ebp-0x44],al
10003259:	c7 45 f0 ff ff ff ff 	mov    DWORD PTR [ebp-0x10],0xffffffff
10003260:	8b 45 08             	mov    eax,DWORD PTR [ebp+0x8]
10003263:	8b 40 1c             	mov    eax,DWORD PTR [eax+0x1c]
10003266:	8b 00                	mov    eax,DWORD PTR [eax]
10003268:	48                   	dec    eax
10003269:	89 45 f4             	mov    DWORD PTR [ebp-0xc],eax
1000326c:	e9 66 08 00 00       	jmp    10003ad7 <Window_process_mouse+0x89b>
10003271:	8b 55 f4             	mov    edx,DWORD PTR [ebp-0xc]
10003274:	8b 45 08             	mov    eax,DWORD PTR [ebp+0x8]
10003277:	8b 40 1c             	mov    eax,DWORD PTR [eax+0x1c]
1000327a:	83 ec 08             	sub    esp,0x8
1000327d:	52                   	push   edx
1000327e:	50                   	push   eax
1000327f:	e8 fc ff ff ff       	call   10003280 <Window_process_mouse+0x44>	10003280: R_386_PC32	List_get_at
10003284:	83 c4 10             	add    esp,0x10
10003287:	89 45 ec             	mov    DWORD PTR [ebp-0x14],eax
1000328a:	0f b7 55 c4          	movzx  edx,WORD PTR [ebp-0x3c]
1000328e:	8b 45 ec             	mov    eax,DWORD PTR [ebp-0x14]
10003291:	8b 40 04             	mov    eax,DWORD PTR [eax+0x4]
10003294:	98                   	cwde   
10003295:	83 e8 0c             	sub    eax,0xc
10003298:	39 c2                	cmp    edx,eax
1000329a:	0f 8c 30 08 00 00    	jl     10003ad0 <Window_process_mouse+0x894>
100032a0:	0f b7 55 c4          	movzx  edx,WORD PTR [ebp-0x3c]
100032a4:	8b 45 ec             	mov    eax,DWORD PTR [ebp-0x14]
100032a7:	8b 40 04             	mov    eax,DWORD PTR [eax+0x4]
100032aa:	0f bf c8             	movsx  ecx,ax
100032ad:	8b 45 ec             	mov    eax,DWORD PTR [ebp-0x14]
100032b0:	8b 40 08             	mov    eax,DWORD PTR [eax+0x8]
100032b3:	98                   	cwde   
100032b4:	01 c8                	add    eax,ecx
100032b6:	39 c2                	cmp    edx,eax
100032b8:	0f 8d 12 08 00 00    	jge    10003ad0 <Window_process_mouse+0x894>
100032be:	0f b7 55 c0          	movzx  edx,WORD PTR [ebp-0x40]
100032c2:	8b 45 ec             	mov    eax,DWORD PTR [ebp-0x14]
100032c5:	66 8b 40 06          	mov    ax,WORD PTR [eax+0x6]
100032c9:	98                   	cwde   
100032ca:	83 e8 0c             	sub    eax,0xc
100032cd:	39 c2                	cmp    edx,eax
100032cf:	0f 8c fb 07 00 00    	jl     10003ad0 <Window_process_mouse+0x894>
100032d5:	0f b7 55 c0          	movzx  edx,WORD PTR [ebp-0x40]
100032d9:	8b 45 ec             	mov    eax,DWORD PTR [ebp-0x14]
100032dc:	66 8b 40 06          	mov    ax,WORD PTR [eax+0x6]
100032e0:	0f bf c8             	movsx  ecx,ax
100032e3:	8b 45 ec             	mov    eax,DWORD PTR [ebp-0x14]
100032e6:	66 8b 40 0a          	mov    ax,WORD PTR [eax+0xa]
100032ea:	98                   	cwde   
100032eb:	01 c8                	add    eax,ecx
100032ed:	39 c2                	cmp    edx,eax
100032ef:	0f 8d db 07 00 00    	jge    10003ad0 <Window_process_mouse+0x894>
100032f5:	8b 45 ec             	mov    eax,DWORD PTR [ebp-0x14]
100032f8:	8b 40 0c             	mov    eax,DWORD PTR [eax+0xc]
100032fb:	0f b7 c0             	movzx  eax,ax
100032fe:	83 e0 01             	and    eax,0x1
10003301:	85 c0                	test   eax,eax
10003303:	0f 85 86 00 00 00    	jne    1000338f <Window_process_mouse+0x153>
10003309:	8b 45 ec             	mov    eax,DWORD PTR [ebp-0x14]
1000330c:	8a 40 58             	mov    al,BYTE PTR [eax+0x58]
1000330f:	83 f0 01             	xor    eax,0x1
10003312:	84 c0                	test   al,al
10003314:	74 79                	je     1000338f <Window_process_mouse+0x153>
10003316:	0f b7 55 c4          	movzx  edx,WORD PTR [ebp-0x3c]
1000331a:	8b 45 ec             	mov    eax,DWORD PTR [ebp-0x14]
1000331d:	8b 40 04             	mov    eax,DWORD PTR [eax+0x4]
10003320:	0f bf c8             	movsx  ecx,ax
10003323:	8b 45 ec             	mov    eax,DWORD PTR [ebp-0x14]
10003326:	8b 40 08             	mov    eax,DWORD PTR [eax+0x8]
10003329:	98                   	cwde   
1000332a:	01 c8                	add    eax,ecx
1000332c:	83 e8 12             	sub    eax,0x12
1000332f:	39 c2                	cmp    edx,eax
10003331:	7c 5c                	jl     1000338f <Window_process_mouse+0x153>
10003333:	0f b7 55 c4          	movzx  edx,WORD PTR [ebp-0x3c]
10003337:	8b 45 ec             	mov    eax,DWORD PTR [ebp-0x14]
1000333a:	8b 40 04             	mov    eax,DWORD PTR [eax+0x4]
1000333d:	0f bf c8             	movsx  ecx,ax
10003340:	8b 45 ec             	mov    eax,DWORD PTR [ebp-0x14]
10003343:	8b 40 08             	mov    eax,DWORD PTR [eax+0x8]
10003346:	98                   	cwde   
10003347:	01 c8                	add    eax,ecx
10003349:	39 c2                	cmp    edx,eax
1000334b:	7d 42                	jge    1000338f <Window_process_mouse+0x153>
1000334d:	0f b7 55 c0          	movzx  edx,WORD PTR [ebp-0x40]
10003351:	8b 45 ec             	mov    eax,DWORD PTR [ebp-0x14]
10003354:	66 8b 40 06          	mov    ax,WORD PTR [eax+0x6]
10003358:	0f bf c8             	movsx  ecx,ax
1000335b:	8b 45 ec             	mov    eax,DWORD PTR [ebp-0x14]
1000335e:	66 8b 40 0a          	mov    ax,WORD PTR [eax+0xa]
10003362:	98                   	cwde   
10003363:	01 c8                	add    eax,ecx
10003365:	83 e8 12             	sub    eax,0x12
10003368:	39 c2                	cmp    edx,eax
1000336a:	7c 23                	jl     1000338f <Window_process_mouse+0x153>
1000336c:	0f b7 55 c0          	movzx  edx,WORD PTR [ebp-0x40]
10003370:	8b 45 ec             	mov    eax,DWORD PTR [ebp-0x14]
10003373:	66 8b 40 06          	mov    ax,WORD PTR [eax+0x6]
10003377:	0f bf c8             	movsx  ecx,ax
1000337a:	8b 45 ec             	mov    eax,DWORD PTR [ebp-0x14]
1000337d:	66 8b 40 0a          	mov    ax,WORD PTR [eax+0xa]
10003381:	98                   	cwde   
10003382:	01 c8                	add    eax,ecx
10003384:	39 c2                	cmp    edx,eax
10003386:	7d 07                	jge    1000338f <Window_process_mouse+0x153>
10003388:	b8 01 00 00 00       	mov    eax,0x1
1000338d:	eb 05                	jmp    10003394 <Window_process_mouse+0x158>
1000338f:	b8 00 00 00 00       	mov    eax,0x0
10003394:	88 45 eb             	mov    BYTE PTR [ebp-0x15],al
10003397:	80 65 eb 01          	and    BYTE PTR [ebp-0x15],0x1
1000339b:	8b 45 ec             	mov    eax,DWORD PTR [ebp-0x14]
1000339e:	8b 40 0c             	mov    eax,DWORD PTR [eax+0xc]
100033a1:	0f b7 c0             	movzx  eax,ax
100033a4:	83 e0 01             	and    eax,0x1
100033a7:	85 c0                	test   eax,eax
100033a9:	75 77                	jne    10003422 <Window_process_mouse+0x1e6>
100033ab:	8b 45 ec             	mov    eax,DWORD PTR [ebp-0x14]
100033ae:	8a 40 58             	mov    al,BYTE PTR [eax+0x58]
100033b1:	83 f0 01             	xor    eax,0x1
100033b4:	84 c0                	test   al,al
100033b6:	74 6a                	je     10003422 <Window_process_mouse+0x1e6>
100033b8:	0f b7 55 c4          	movzx  edx,WORD PTR [ebp-0x3c]
100033bc:	8b 45 ec             	mov    eax,DWORD PTR [ebp-0x14]
100033bf:	8b 40 04             	mov    eax,DWORD PTR [eax+0x4]
100033c2:	0f bf c8             	movsx  ecx,ax
100033c5:	8b 45 ec             	mov    eax,DWORD PTR [ebp-0x14]
100033c8:	8b 40 08             	mov    eax,DWORD PTR [eax+0x8]
100033cb:	98                   	cwde   
100033cc:	01 c8                	add    eax,ecx
100033ce:	83 e8 0c             	sub    eax,0xc
100033d1:	39 c2                	cmp    edx,eax
100033d3:	7c 4d                	jl     10003422 <Window_process_mouse+0x1e6>
100033d5:	0f b7 55 c4          	movzx  edx,WORD PTR [ebp-0x3c]
100033d9:	8b 45 ec             	mov    eax,DWORD PTR [ebp-0x14]
100033dc:	8b 40 04             	mov    eax,DWORD PTR [eax+0x4]
100033df:	0f bf c8             	movsx  ecx,ax
100033e2:	8b 45 ec             	mov    eax,DWORD PTR [ebp-0x14]
100033e5:	8b 40 08             	mov    eax,DWORD PTR [eax+0x8]
100033e8:	98                   	cwde   
100033e9:	01 c8                	add    eax,ecx
100033eb:	39 c2                	cmp    edx,eax
100033ed:	7d 33                	jge    10003422 <Window_process_mouse+0x1e6>
100033ef:	0f b7 55 c0          	movzx  edx,WORD PTR [ebp-0x40]
100033f3:	8b 45 ec             	mov    eax,DWORD PTR [ebp-0x14]
100033f6:	66 8b 40 06          	mov    ax,WORD PTR [eax+0x6]
100033fa:	98                   	cwde   
100033fb:	39 c2                	cmp    edx,eax
100033fd:	7c 23                	jl     10003422 <Window_process_mouse+0x1e6>
100033ff:	0f b7 55 c0          	movzx  edx,WORD PTR [ebp-0x40]
10003403:	8b 45 ec             	mov    eax,DWORD PTR [ebp-0x14]
10003406:	66 8b 40 06          	mov    ax,WORD PTR [eax+0x6]
1000340a:	0f bf c8             	movsx  ecx,ax
1000340d:	8b 45 ec             	mov    eax,DWORD PTR [ebp-0x14]
10003410:	66 8b 40 0a          	mov    ax,WORD PTR [eax+0xa]
10003414:	98                   	cwde   
10003415:	01 c8                	add    eax,ecx
10003417:	39 c2                	cmp    edx,eax
10003419:	7d 07                	jge    10003422 <Window_process_mouse+0x1e6>
1000341b:	b8 01 00 00 00       	mov    eax,0x1
10003420:	eb 05                	jmp    10003427 <Window_process_mouse+0x1eb>
10003422:	b8 00 00 00 00       	mov    eax,0x0
10003427:	88 45 ea             	mov    BYTE PTR [ebp-0x16],al
1000342a:	80 65 ea 01          	and    BYTE PTR [ebp-0x16],0x1
1000342e:	8b 45 ec             	mov    eax,DWORD PTR [ebp-0x14]
10003431:	8b 40 0c             	mov    eax,DWORD PTR [eax+0xc]
10003434:	0f b7 c0             	movzx  eax,ax
10003437:	83 e0 01             	and    eax,0x1
1000343a:	85 c0                	test   eax,eax
1000343c:	75 63                	jne    100034a1 <Window_process_mouse+0x265>
1000343e:	8b 45 ec             	mov    eax,DWORD PTR [ebp-0x14]
10003441:	8a 40 58             	mov    al,BYTE PTR [eax+0x58]
10003444:	83 f0 01             	xor    eax,0x1
10003447:	84 c0                	test   al,al
10003449:	74 56                	je     100034a1 <Window_process_mouse+0x265>
1000344b:	0f b7 55 c4          	movzx  edx,WORD PTR [ebp-0x3c]
1000344f:	8b 45 ec             	mov    eax,DWORD PTR [ebp-0x14]
10003452:	8b 40 04             	mov    eax,DWORD PTR [eax+0x4]
10003455:	98                   	cwde   
10003456:	83 e8 0c             	sub    eax,0xc
10003459:	39 c2                	cmp    edx,eax
1000345b:	7c 44                	jl     100034a1 <Window_process_mouse+0x265>
1000345d:	8b 45 ec             	mov    eax,DWORD PTR [ebp-0x14]
10003460:	8b 40 04             	mov    eax,DWORD PTR [eax+0x4]
10003463:	0f bf d0             	movsx  edx,ax
10003466:	0f b7 45 c4          	movzx  eax,WORD PTR [ebp-0x3c]
1000346a:	39 c2                	cmp    edx,eax
1000346c:	7c 33                	jl     100034a1 <Window_process_mouse+0x265>
1000346e:	0f b7 55 c0          	movzx  edx,WORD PTR [ebp-0x40]
10003472:	8b 45 ec             	mov    eax,DWORD PTR [ebp-0x14]
10003475:	66 8b 40 06          	mov    ax,WORD PTR [eax+0x6]
10003479:	98                   	cwde   
1000347a:	39 c2                	cmp    edx,eax
1000347c:	7c 23                	jl     100034a1 <Window_process_mouse+0x265>
1000347e:	0f b7 55 c0          	movzx  edx,WORD PTR [ebp-0x40]
10003482:	8b 45 ec             	mov    eax,DWORD PTR [ebp-0x14]
10003485:	66 8b 40 06          	mov    ax,WORD PTR [eax+0x6]
10003489:	0f bf c8             	movsx  ecx,ax
1000348c:	8b 45 ec             	mov    eax,DWORD PTR [ebp-0x14]
1000348f:	66 8b 40 0a          	mov    ax,WORD PTR [eax+0xa]
10003493:	98                   	cwde   
10003494:	01 c8                	add    eax,ecx
10003496:	39 c2                	cmp    edx,eax
10003498:	7d 07                	jge    100034a1 <Window_process_mouse+0x265>
1000349a:	b8 01 00 00 00       	mov    eax,0x1
1000349f:	eb 05                	jmp    100034a6 <Window_process_mouse+0x26a>
100034a1:	b8 00 00 00 00       	mov    eax,0x0
100034a6:	88 45 e9             	mov    BYTE PTR [ebp-0x17],al
100034a9:	80 65 e9 01          	and    BYTE PTR [ebp-0x17],0x1
100034ad:	8b 45 ec             	mov    eax,DWORD PTR [ebp-0x14]
100034b0:	8b 40 0c             	mov    eax,DWORD PTR [eax+0xc]
100034b3:	0f b7 c0             	movzx  eax,ax
100034b6:	83 e0 01             	and    eax,0x1
100034b9:	85 c0                	test   eax,eax
100034bb:	75 60                	jne    1000351d <Window_process_mouse+0x2e1>
100034bd:	8b 45 ec             	mov    eax,DWORD PTR [ebp-0x14]
100034c0:	8a 40 58             	mov    al,BYTE PTR [eax+0x58]
100034c3:	83 f0 01             	xor    eax,0x1
100034c6:	84 c0                	test   al,al
100034c8:	74 53                	je     1000351d <Window_process_mouse+0x2e1>
100034ca:	0f b7 55 c4          	movzx  edx,WORD PTR [ebp-0x3c]
100034ce:	8b 45 ec             	mov    eax,DWORD PTR [ebp-0x14]
100034d1:	8b 40 04             	mov    eax,DWORD PTR [eax+0x4]
100034d4:	98                   	cwde   
100034d5:	39 c2                	cmp    edx,eax
100034d7:	7c 44                	jl     1000351d <Window_process_mouse+0x2e1>
100034d9:	0f b7 55 c4          	movzx  edx,WORD PTR [ebp-0x3c]
100034dd:	8b 45 ec             	mov    eax,DWORD PTR [ebp-0x14]
100034e0:	8b 40 04             	mov    eax,DWORD PTR [eax+0x4]
100034e3:	0f bf c8             	movsx  ecx,ax
100034e6:	8b 45 ec             	mov    eax,DWORD PTR [ebp-0x14]
100034e9:	8b 40 08             	mov    eax,DWORD PTR [eax+0x8]
100034ec:	98                   	cwde   
100034ed:	01 c8                	add    eax,ecx
100034ef:	39 c2                	cmp    edx,eax
100034f1:	7d 2a                	jge    1000351d <Window_process_mouse+0x2e1>
100034f3:	0f b7 55 c0          	movzx  edx,WORD PTR [ebp-0x40]
100034f7:	8b 45 ec             	mov    eax,DWORD PTR [ebp-0x14]
100034fa:	66 8b 40 06          	mov    ax,WORD PTR [eax+0x6]
100034fe:	98                   	cwde   
100034ff:	83 e8 0c             	sub    eax,0xc
10003502:	39 c2                	cmp    edx,eax
10003504:	7c 17                	jl     1000351d <Window_process_mouse+0x2e1>
10003506:	0f b7 55 c0          	movzx  edx,WORD PTR [ebp-0x40]
1000350a:	8b 45 ec             	mov    eax,DWORD PTR [ebp-0x14]
1000350d:	66 8b 40 06          	mov    ax,WORD PTR [eax+0x6]
10003511:	98                   	cwde   
10003512:	39 c2                	cmp    edx,eax
10003514:	7d 07                	jge    1000351d <Window_process_mouse+0x2e1>
10003516:	b8 01 00 00 00       	mov    eax,0x1
1000351b:	eb 05                	jmp    10003522 <Window_process_mouse+0x2e6>
1000351d:	b8 00 00 00 00       	mov    eax,0x0
10003522:	88 45 e8             	mov    BYTE PTR [ebp-0x18],al
10003525:	80 65 e8 01          	and    BYTE PTR [ebp-0x18],0x1
10003529:	8b 45 ec             	mov    eax,DWORD PTR [ebp-0x14]
1000352c:	8b 40 0c             	mov    eax,DWORD PTR [eax+0xc]
1000352f:	0f b7 c0             	movzx  eax,ax
10003532:	83 e0 01             	and    eax,0x1
10003535:	85 c0                	test   eax,eax
10003537:	75 78                	jne    100035b1 <Window_process_mouse+0x375>
10003539:	8b 45 ec             	mov    eax,DWORD PTR [ebp-0x14]
1000353c:	8a 40 58             	mov    al,BYTE PTR [eax+0x58]
1000353f:	83 f0 01             	xor    eax,0x1
10003542:	84 c0                	test   al,al
10003544:	74 6b                	je     100035b1 <Window_process_mouse+0x375>
10003546:	0f b7 55 c4          	movzx  edx,WORD PTR [ebp-0x3c]
1000354a:	8b 45 ec             	mov    eax,DWORD PTR [ebp-0x14]
1000354d:	8b 40 04             	mov    eax,DWORD PTR [eax+0x4]
10003550:	98                   	cwde   
10003551:	39 c2                	cmp    edx,eax
10003553:	7c 5c                	jl     100035b1 <Window_process_mouse+0x375>
10003555:	0f b7 55 c4          	movzx  edx,WORD PTR [ebp-0x3c]
10003559:	8b 45 ec             	mov    eax,DWORD PTR [ebp-0x14]
1000355c:	8b 40 04             	mov    eax,DWORD PTR [eax+0x4]
1000355f:	0f bf c8             	movsx  ecx,ax
10003562:	8b 45 ec             	mov    eax,DWORD PTR [ebp-0x14]
10003565:	8b 40 08             	mov    eax,DWORD PTR [eax+0x8]
10003568:	98                   	cwde   
10003569:	01 c8                	add    eax,ecx
1000356b:	39 c2                	cmp    edx,eax
1000356d:	7d 42                	jge    100035b1 <Window_process_mouse+0x375>
1000356f:	0f b7 55 c0          	movzx  edx,WORD PTR [ebp-0x40]
10003573:	8b 45 ec             	mov    eax,DWORD PTR [ebp-0x14]
10003576:	66 8b 40 06          	mov    ax,WORD PTR [eax+0x6]
1000357a:	0f bf c8             	movsx  ecx,ax
1000357d:	8b 45 ec             	mov    eax,DWORD PTR [ebp-0x14]
10003580:	66 8b 40 0a          	mov    ax,WORD PTR [eax+0xa]
10003584:	98                   	cwde   
10003585:	01 c8                	add    eax,ecx
10003587:	83 e8 0c             	sub    eax,0xc
1000358a:	39 c2                	cmp    edx,eax
1000358c:	7c 23                	jl     100035b1 <Window_process_mouse+0x375>
1000358e:	0f b7 55 c0          	movzx  edx,WORD PTR [ebp-0x40]
10003592:	8b 45 ec             	mov    eax,DWORD PTR [ebp-0x14]
10003595:	66 8b 40 06          	mov    ax,WORD PTR [eax+0x6]
10003599:	0f bf c8             	movsx  ecx,ax
1000359c:	8b 45 ec             	mov    eax,DWORD PTR [ebp-0x14]
1000359f:	66 8b 40 0a          	mov    ax,WORD PTR [eax+0xa]
100035a3:	98                   	cwde   
100035a4:	01 c8                	add    eax,ecx
100035a6:	39 c2                	cmp    edx,eax
100035a8:	7d 07                	jge    100035b1 <Window_process_mouse+0x375>
100035aa:	b8 01 00 00 00       	mov    eax,0x1
100035af:	eb 05                	jmp    100035b6 <Window_process_mouse+0x37a>
100035b1:	b8 00 00 00 00       	mov    eax,0x0
100035b6:	88 45 e7             	mov    BYTE PTR [ebp-0x19],al
100035b9:	80 65 e7 01          	and    BYTE PTR [ebp-0x19],0x1
100035bd:	8b 45 ec             	mov    eax,DWORD PTR [ebp-0x14]
100035c0:	8b 40 0c             	mov    eax,DWORD PTR [eax+0xc]
100035c3:	0f b7 c0             	movzx  eax,ax
100035c6:	83 e0 01             	and    eax,0x1
100035c9:	85 c0                	test   eax,eax
100035cb:	75 37                	jne    10003604 <Window_process_mouse+0x3c8>
100035cd:	0f b7 55 c0          	movzx  edx,WORD PTR [ebp-0x40]
100035d1:	8b 45 ec             	mov    eax,DWORD PTR [ebp-0x14]
100035d4:	66 8b 40 06          	mov    ax,WORD PTR [eax+0x6]
100035d8:	98                   	cwde   
100035d9:	39 c2                	cmp    edx,eax
100035db:	7c 27                	jl     10003604 <Window_process_mouse+0x3c8>
100035dd:	8b 45 ec             	mov    eax,DWORD PTR [ebp-0x14]
100035e0:	66 8b 40 06          	mov    ax,WORD PTR [eax+0x6]
100035e4:	98                   	cwde   
100035e5:	8d 50 1b             	lea    edx,[eax+0x1b]
100035e8:	0f b7 45 c0          	movzx  eax,WORD PTR [ebp-0x40]
100035ec:	39 c2                	cmp    edx,eax
100035ee:	7c 14                	jl     10003604 <Window_process_mouse+0x3c8>
100035f0:	8b 45 ec             	mov    eax,DWORD PTR [ebp-0x14]
100035f3:	8a 40 58             	mov    al,BYTE PTR [eax+0x58]
100035f6:	83 f0 01             	xor    eax,0x1
100035f9:	84 c0                	test   al,al
100035fb:	74 07                	je     10003604 <Window_process_mouse+0x3c8>
100035fd:	b8 01 00 00 00       	mov    eax,0x1
10003602:	eb 05                	jmp    10003609 <Window_process_mouse+0x3cd>
10003604:	b8 00 00 00 00       	mov    eax,0x0
10003609:	88 45 e6             	mov    BYTE PTR [ebp-0x1a],al
1000360c:	80 65 e6 01          	and    BYTE PTR [ebp-0x1a],0x1
10003610:	8b 45 ec             	mov    eax,DWORD PTR [ebp-0x14]
10003613:	8b 40 0c             	mov    eax,DWORD PTR [eax+0xc]
10003616:	0f b7 c0             	movzx  eax,ax
10003619:	83 e0 01             	and    eax,0x1
1000361c:	85 c0                	test   eax,eax
1000361e:	75 73                	jne    10003693 <Window_process_mouse+0x457>
10003620:	8b 45 ec             	mov    eax,DWORD PTR [ebp-0x14]
10003623:	8a 40 58             	mov    al,BYTE PTR [eax+0x58]
10003626:	83 f0 01             	xor    eax,0x1
10003629:	84 c0                	test   al,al
1000362b:	74 66                	je     10003693 <Window_process_mouse+0x457>
1000362d:	0f b7 55 c4          	movzx  edx,WORD PTR [ebp-0x3c]
10003631:	8b 45 ec             	mov    eax,DWORD PTR [ebp-0x14]
10003634:	8b 40 04             	mov    eax,DWORD PTR [eax+0x4]
10003637:	98                   	cwde   
10003638:	83 e8 0c             	sub    eax,0xc
1000363b:	39 c2                	cmp    edx,eax
1000363d:	7c 54                	jl     10003693 <Window_process_mouse+0x457>
1000363f:	8b 45 ec             	mov    eax,DWORD PTR [ebp-0x14]
10003642:	8b 40 04             	mov    eax,DWORD PTR [eax+0x4]
10003645:	98                   	cwde   
10003646:	8d 50 02             	lea    edx,[eax+0x2]
10003649:	0f b7 45 c4          	movzx  eax,WORD PTR [ebp-0x3c]
1000364d:	39 c2                	cmp    edx,eax
1000364f:	7c 42                	jl     10003693 <Window_process_mouse+0x457>
10003651:	0f b7 55 c0          	movzx  edx,WORD PTR [ebp-0x40]
10003655:	8b 45 ec             	mov    eax,DWORD PTR [ebp-0x14]
10003658:	66 8b 40 06          	mov    ax,WORD PTR [eax+0x6]
1000365c:	0f bf c8             	movsx  ecx,ax
1000365f:	8b 45 ec             	mov    eax,DWORD PTR [ebp-0x14]
10003662:	66 8b 40 0a          	mov    ax,WORD PTR [eax+0xa]
10003666:	98                   	cwde   
10003667:	01 c8                	add    eax,ecx
10003669:	83 e8 12             	sub    eax,0x12
1000366c:	39 c2                	cmp    edx,eax
1000366e:	7c 23                	jl     10003693 <Window_process_mouse+0x457>
10003670:	0f b7 55 c0          	movzx  edx,WORD PTR [ebp-0x40]
10003674:	8b 45 ec             	mov    eax,DWORD PTR [ebp-0x14]
10003677:	66 8b 40 06          	mov    ax,WORD PTR [eax+0x6]
1000367b:	0f bf c8             	movsx  ecx,ax
1000367e:	8b 45 ec             	mov    eax,DWORD PTR [ebp-0x14]
10003681:	66 8b 40 0a          	mov    ax,WORD PTR [eax+0xa]
10003685:	98                   	cwde   
10003686:	01 c8                	add    eax,ecx
10003688:	39 c2                	cmp    edx,eax
1000368a:	7d 07                	jge    10003693 <Window_process_mouse+0x457>
1000368c:	b8 01 00 00 00       	mov    eax,0x1
10003691:	eb 05                	jmp    10003698 <Window_process_mouse+0x45c>
10003693:	b8 00 00 00 00       	mov    eax,0x0
10003698:	88 45 e5             	mov    BYTE PTR [ebp-0x1b],al
1000369b:	80 65 e5 01          	and    BYTE PTR [ebp-0x1b],0x1
1000369f:	80 7d eb 00          	cmp    BYTE PTR [ebp-0x15],0x0
100036a3:	74 09                	je     100036ae <Window_process_mouse+0x472>
100036a5:	c7 45 f0 00 03 00 00 	mov    DWORD PTR [ebp-0x10],0x300
100036ac:	eb 49                	jmp    100036f7 <Window_process_mouse+0x4bb>
100036ae:	80 7d e5 00          	cmp    BYTE PTR [ebp-0x1b],0x0
100036b2:	74 09                	je     100036bd <Window_process_mouse+0x481>
100036b4:	c7 45 f0 00 03 00 00 	mov    DWORD PTR [ebp-0x10],0x300
100036bb:	eb 3a                	jmp    100036f7 <Window_process_mouse+0x4bb>
100036bd:	80 7d ea 00          	cmp    BYTE PTR [ebp-0x16],0x0
100036c1:	74 09                	je     100036cc <Window_process_mouse+0x490>
100036c3:	c7 45 f0 00 05 00 00 	mov    DWORD PTR [ebp-0x10],0x500
100036ca:	eb 2b                	jmp    100036f7 <Window_process_mouse+0x4bb>
100036cc:	80 7d e7 00          	cmp    BYTE PTR [ebp-0x19],0x0
100036d0:	74 09                	je     100036db <Window_process_mouse+0x49f>
100036d2:	c7 45 f0 00 04 00 00 	mov    DWORD PTR [ebp-0x10],0x400
100036d9:	eb 1c                	jmp    100036f7 <Window_process_mouse+0x4bb>
100036db:	80 7d e9 00          	cmp    BYTE PTR [ebp-0x17],0x0
100036df:	74 09                	je     100036ea <Window_process_mouse+0x4ae>
100036e1:	c7 45 f0 00 05 00 00 	mov    DWORD PTR [ebp-0x10],0x500
100036e8:	eb 0d                	jmp    100036f7 <Window_process_mouse+0x4bb>
100036ea:	80 7d e8 00          	cmp    BYTE PTR [ebp-0x18],0x0
100036ee:	74 07                	je     100036f7 <Window_process_mouse+0x4bb>
100036f0:	c7 45 f0 00 04 00 00 	mov    DWORD PTR [ebp-0x10],0x400
100036f7:	8b 45 08             	mov    eax,DWORD PTR [ebp+0x8]
100036fa:	8b 55 f0             	mov    edx,DWORD PTR [ebp-0x10]
100036fd:	89 50 68             	mov    DWORD PTR [eax+0x68],edx
10003700:	0f b7 55 c4          	movzx  edx,WORD PTR [ebp-0x3c]
10003704:	8b 45 ec             	mov    eax,DWORD PTR [ebp-0x14]
10003707:	8b 40 04             	mov    eax,DWORD PTR [eax+0x4]
1000370a:	98                   	cwde   
1000370b:	39 c2                	cmp    edx,eax
1000370d:	7c 10                	jl     1000371f <Window_process_mouse+0x4e3>
1000370f:	0f b7 55 c0          	movzx  edx,WORD PTR [ebp-0x40]
10003713:	8b 45 ec             	mov    eax,DWORD PTR [ebp-0x14]
10003716:	66 8b 40 06          	mov    ax,WORD PTR [eax+0x6]
1000371a:	98                   	cwde   
1000371b:	39 c2                	cmp    edx,eax
1000371d:	7d 0a                	jge    10003729 <Window_process_mouse+0x4ed>
1000371f:	83 7d f0 ff          	cmp    DWORD PTR [ebp-0x10],0xffffffff
10003723:	0f 84 aa 03 00 00    	je     10003ad3 <Window_process_mouse+0x897>
10003729:	80 7d bc 00          	cmp    BYTE PTR [ebp-0x44],0x0
1000372d:	0f 84 68 03 00 00    	je     10003a9b <Window_process_mouse+0x85f>
10003733:	8b 45 08             	mov    eax,DWORD PTR [ebp+0x8]
10003736:	8a 40 28             	mov    al,BYTE PTR [eax+0x28]
10003739:	84 c0                	test   al,al
1000373b:	0f 85 5a 03 00 00    	jne    10003a9b <Window_process_mouse+0x85f>
10003741:	83 ec 08             	sub    esp,0x8
10003744:	6a 01                	push   0x1
10003746:	ff 75 ec             	push   DWORD PTR [ebp-0x14]
10003749:	e8 fc ff ff ff       	call   1000374a <Window_process_mouse+0x50e>	1000374a: R_386_PC32	Window_raise
1000374e:	83 c4 10             	add    esp,0x10
10003751:	8b 45 ec             	mov    eax,DWORD PTR [ebp-0x14]
10003754:	8b 40 0c             	mov    eax,DWORD PTR [eax+0xc]
10003757:	0f b7 c0             	movzx  eax,ax
1000375a:	83 e0 01             	and    eax,0x1
1000375d:	85 c0                	test   eax,eax
1000375f:	0f 85 48 01 00 00    	jne    100038ad <Window_process_mouse+0x671>
10003765:	0f b7 55 c0          	movzx  edx,WORD PTR [ebp-0x40]
10003769:	8b 45 ec             	mov    eax,DWORD PTR [ebp-0x14]
1000376c:	66 8b 40 06          	mov    ax,WORD PTR [eax+0x6]
10003770:	98                   	cwde   
10003771:	39 c2                	cmp    edx,eax
10003773:	0f 8c 34 01 00 00    	jl     100038ad <Window_process_mouse+0x671>
10003779:	8b 45 ec             	mov    eax,DWORD PTR [ebp-0x14]
1000377c:	66 8b 40 06          	mov    ax,WORD PTR [eax+0x6]
10003780:	98                   	cwde   
10003781:	8d 50 1b             	lea    edx,[eax+0x1b]
10003784:	0f b7 45 c0          	movzx  eax,WORD PTR [ebp-0x40]
10003788:	39 c2                	cmp    edx,eax
1000378a:	0f 8c 1d 01 00 00    	jl     100038ad <Window_process_mouse+0x671>
10003790:	e8 fc ff ff ff       	call   10003791 <Window_process_mouse+0x555>	10003791: R_386_PC32	getNanoSinceBoot
10003795:	8b 4d ec             	mov    ecx,DWORD PTR [ebp-0x14]
10003798:	8b 59 60             	mov    ebx,DWORD PTR [ecx+0x60]
1000379b:	8b 49 5c             	mov    ecx,DWORD PTR [ecx+0x5c]
1000379e:	81 c1 00 a3 e1 11    	add    ecx,0x11e1a300
100037a4:	83 d3 00             	adc    ebx,0x0
100037a7:	39 c8                	cmp    eax,ecx
100037a9:	89 d0                	mov    eax,edx
100037ab:	19 d8                	sbb    eax,ebx
100037ad:	0f 83 ec 00 00 00    	jae    1000389f <Window_process_mouse+0x663>
100037b3:	8b 45 ec             	mov    eax,DWORD PTR [ebp-0x14]
100037b6:	c7 40 5c 00 00 00 00 	mov    DWORD PTR [eax+0x5c],0x0
100037bd:	c7 40 60 00 00 00 00 	mov    DWORD PTR [eax+0x60],0x0
100037c4:	8b 45 ec             	mov    eax,DWORD PTR [ebp-0x14]
100037c7:	8a 40 58             	mov    al,BYTE PTR [eax+0x58]
100037ca:	84 c0                	test   al,al
100037cc:	74 44                	je     10003812 <Window_process_mouse+0x5d6>
100037ce:	8b 45 ec             	mov    eax,DWORD PTR [ebp-0x14]
100037d1:	66 8b 40 52          	mov    ax,WORD PTR [eax+0x52]
100037d5:	0f bf d0             	movsx  edx,ax
100037d8:	8b 45 ec             	mov    eax,DWORD PTR [ebp-0x14]
100037db:	8b 40 50             	mov    eax,DWORD PTR [eax+0x50]
100037de:	98                   	cwde   
100037df:	83 ec 04             	sub    esp,0x4
100037e2:	52                   	push   edx
100037e3:	50                   	push   eax
100037e4:	ff 75 ec             	push   DWORD PTR [ebp-0x14]
100037e7:	e8 fc ff ff ff       	call   100037e8 <Window_process_mouse+0x5ac>	100037e8: R_386_PC32	Window_resize
100037ec:	83 c4 10             	add    esp,0x10
100037ef:	8b 45 ec             	mov    eax,DWORD PTR [ebp-0x14]
100037f2:	66 8b 40 56          	mov    ax,WORD PTR [eax+0x56]
100037f6:	0f bf d0             	movsx  edx,ax
100037f9:	8b 45 ec             	mov    eax,DWORD PTR [ebp-0x14]
100037fc:	8b 40 54             	mov    eax,DWORD PTR [eax+0x54]
100037ff:	98                   	cwde   
10003800:	83 ec 04             	sub    esp,0x4
10003803:	52                   	push   edx
10003804:	50                   	push   eax
10003805:	ff 75 ec             	push   DWORD PTR [ebp-0x14]
10003808:	e8 fc ff ff ff       	call   10003809 <Window_process_mouse+0x5cd>	10003809: R_386_PC32	Window_move
1000380d:	83 c4 10             	add    esp,0x10
10003810:	eb 71                	jmp    10003883 <Window_process_mouse+0x647>
10003812:	8b 45 ec             	mov    eax,DWORD PTR [ebp-0x14]
10003815:	8b 40 08             	mov    eax,DWORD PTR [eax+0x8]
10003818:	8b 55 ec             	mov    edx,DWORD PTR [ebp-0x14]
1000381b:	66 89 42 50          	mov    WORD PTR [edx+0x50],ax
1000381f:	8b 45 ec             	mov    eax,DWORD PTR [ebp-0x14]
10003822:	66 8b 40 0a          	mov    ax,WORD PTR [eax+0xa]
10003826:	8b 55 ec             	mov    edx,DWORD PTR [ebp-0x14]
10003829:	66 89 42 52          	mov    WORD PTR [edx+0x52],ax
1000382d:	8b 45 ec             	mov    eax,DWORD PTR [ebp-0x14]
10003830:	8b 40 04             	mov    eax,DWORD PTR [eax+0x4]
10003833:	8b 55 ec             	mov    edx,DWORD PTR [ebp-0x14]
10003836:	66 89 42 54          	mov    WORD PTR [edx+0x54],ax
1000383a:	8b 45 ec             	mov    eax,DWORD PTR [ebp-0x14]
1000383d:	66 8b 40 06          	mov    ax,WORD PTR [eax+0x6]
10003841:	8b 55 ec             	mov    edx,DWORD PTR [ebp-0x14]
10003844:	66 89 42 56          	mov    WORD PTR [edx+0x56],ax
10003848:	83 ec 04             	sub    esp,0x4
1000384b:	6a fd                	push   0xfffffffd
1000384d:	6a fd                	push   0xfffffffd
1000384f:	ff 75 ec             	push   DWORD PTR [ebp-0x14]
10003852:	e8 fc ff ff ff       	call   10003853 <Window_process_mouse+0x617>	10003853: R_386_PC32	Window_move
10003857:	83 c4 10             	add    esp,0x10
1000385a:	a1 00 00 00 00       	mov    eax,ds:0x0	1000385b: R_386_32	desktop
1000385f:	66 8b 40 0a          	mov    ax,WORD PTR [eax+0xa]
10003863:	98                   	cwde   
10003864:	8d 50 06             	lea    edx,[eax+0x6]
10003867:	a1 00 00 00 00       	mov    eax,ds:0x0	10003868: R_386_32	desktop
1000386c:	8b 40 08             	mov    eax,DWORD PTR [eax+0x8]
1000386f:	98                   	cwde   
10003870:	83 c0 06             	add    eax,0x6
10003873:	83 ec 04             	sub    esp,0x4
10003876:	52                   	push   edx
10003877:	50                   	push   eax
10003878:	ff 75 ec             	push   DWORD PTR [ebp-0x14]
1000387b:	e8 fc ff ff ff       	call   1000387c <Window_process_mouse+0x640>	1000387c: R_386_PC32	Window_resize
10003880:	83 c4 10             	add    esp,0x10
10003883:	8b 45 ec             	mov    eax,DWORD PTR [ebp-0x14]
10003886:	8a 40 58             	mov    al,BYTE PTR [eax+0x58]
10003889:	83 f0 01             	xor    eax,0x1
1000388c:	0f b6 c0             	movzx  eax,al
1000388f:	85 c0                	test   eax,eax
10003891:	0f 95 c2             	setne  dl
10003894:	8b 45 ec             	mov    eax,DWORD PTR [ebp-0x14]
10003897:	88 50 58             	mov    BYTE PTR [eax+0x58],dl
1000389a:	e9 42 02 00 00       	jmp    10003ae1 <Window_process_mouse+0x8a5>
1000389f:	e8 fc ff ff ff       	call   100038a0 <Window_process_mouse+0x664>	100038a0: R_386_PC32	getNanoSinceBoot
100038a4:	8b 4d ec             	mov    ecx,DWORD PTR [ebp-0x14]
100038a7:	89 41 5c             	mov    DWORD PTR [ecx+0x5c],eax
100038aa:	89 51 60             	mov    DWORD PTR [ecx+0x60],edx
100038ad:	80 7d eb 00          	cmp    BYTE PTR [ebp-0x15],0x0
100038b1:	74 41                	je     100038f4 <Window_process_mouse+0x6b8>
100038b3:	8b 45 ec             	mov    eax,DWORD PTR [ebp-0x14]
100038b6:	8b 40 08             	mov    eax,DWORD PTR [eax+0x8]
100038b9:	89 c2                	mov    edx,eax
100038bb:	8b 45 c4             	mov    eax,DWORD PTR [ebp-0x3c]
100038be:	29 d0                	sub    eax,edx
100038c0:	8b 55 08             	mov    edx,DWORD PTR [ebp+0x8]
100038c3:	66 89 42 20          	mov    WORD PTR [edx+0x20],ax
100038c7:	8b 45 ec             	mov    eax,DWORD PTR [ebp-0x14]
100038ca:	66 8b 40 0a          	mov    ax,WORD PTR [eax+0xa]
100038ce:	89 c2                	mov    edx,eax
100038d0:	8b 45 c0             	mov    eax,DWORD PTR [ebp-0x40]
100038d3:	29 d0                	sub    eax,edx
100038d5:	8b 55 08             	mov    edx,DWORD PTR [ebp+0x8]
100038d8:	66 89 42 22          	mov    WORD PTR [edx+0x22],ax
100038dc:	8b 45 08             	mov    eax,DWORD PTR [ebp+0x8]
100038df:	8b 55 ec             	mov    edx,DWORD PTR [ebp-0x14]
100038e2:	89 50 14             	mov    DWORD PTR [eax+0x14],edx
100038e5:	8b 45 08             	mov    eax,DWORD PTR [ebp+0x8]
100038e8:	c7 40 24 02 00 00 00 	mov    DWORD PTR [eax+0x24],0x2
100038ef:	e9 ed 01 00 00       	jmp    10003ae1 <Window_process_mouse+0x8a5>
100038f4:	80 7d e5 00          	cmp    BYTE PTR [ebp-0x1b],0x0
100038f8:	74 41                	je     1000393b <Window_process_mouse+0x6ff>
100038fa:	8b 45 ec             	mov    eax,DWORD PTR [ebp-0x14]
100038fd:	8b 40 08             	mov    eax,DWORD PTR [eax+0x8]
10003900:	89 c2                	mov    edx,eax
10003902:	8b 45 c4             	mov    eax,DWORD PTR [ebp-0x3c]
10003905:	29 d0                	sub    eax,edx
10003907:	8b 55 08             	mov    edx,DWORD PTR [ebp+0x8]
1000390a:	66 89 42 20          	mov    WORD PTR [edx+0x20],ax
1000390e:	8b 45 ec             	mov    eax,DWORD PTR [ebp-0x14]
10003911:	66 8b 40 0a          	mov    ax,WORD PTR [eax+0xa]
10003915:	89 c2                	mov    edx,eax
10003917:	8b 45 c0             	mov    eax,DWORD PTR [ebp-0x40]
1000391a:	29 d0                	sub    eax,edx
1000391c:	8b 55 08             	mov    edx,DWORD PTR [ebp+0x8]
1000391f:	66 89 42 22          	mov    WORD PTR [edx+0x22],ax
10003923:	8b 45 08             	mov    eax,DWORD PTR [ebp+0x8]
10003926:	8b 55 ec             	mov    edx,DWORD PTR [ebp-0x14]
10003929:	89 50 14             	mov    DWORD PTR [eax+0x14],edx
1000392c:	8b 45 08             	mov    eax,DWORD PTR [ebp+0x8]
1000392f:	c7 40 24 07 00 00 00 	mov    DWORD PTR [eax+0x24],0x7
10003936:	e9 a6 01 00 00       	jmp    10003ae1 <Window_process_mouse+0x8a5>
1000393b:	80 7d ea 00          	cmp    BYTE PTR [ebp-0x16],0x0
1000393f:	74 41                	je     10003982 <Window_process_mouse+0x746>
10003941:	8b 45 ec             	mov    eax,DWORD PTR [ebp-0x14]
10003944:	8b 40 08             	mov    eax,DWORD PTR [eax+0x8]
10003947:	89 c2                	mov    edx,eax
10003949:	8b 45 c4             	mov    eax,DWORD PTR [ebp-0x3c]
1000394c:	29 d0                	sub    eax,edx
1000394e:	8b 55 08             	mov    edx,DWORD PTR [ebp+0x8]
10003951:	66 89 42 20          	mov    WORD PTR [edx+0x20],ax
10003955:	8b 45 ec             	mov    eax,DWORD PTR [ebp-0x14]
10003958:	66 8b 40 0a          	mov    ax,WORD PTR [eax+0xa]
1000395c:	89 c2                	mov    edx,eax
1000395e:	8b 45 c0             	mov    eax,DWORD PTR [ebp-0x40]
10003961:	29 d0                	sub    eax,edx
10003963:	8b 55 08             	mov    edx,DWORD PTR [ebp+0x8]
10003966:	66 89 42 22          	mov    WORD PTR [edx+0x22],ax
1000396a:	8b 45 08             	mov    eax,DWORD PTR [ebp+0x8]
1000396d:	8b 55 ec             	mov    edx,DWORD PTR [ebp-0x14]
10003970:	89 50 14             	mov    DWORD PTR [eax+0x14],edx
10003973:	8b 45 08             	mov    eax,DWORD PTR [ebp+0x8]
10003976:	c7 40 24 03 00 00 00 	mov    DWORD PTR [eax+0x24],0x3
1000397d:	e9 5f 01 00 00       	jmp    10003ae1 <Window_process_mouse+0x8a5>
10003982:	80 7d e9 00          	cmp    BYTE PTR [ebp-0x17],0x0
10003986:	74 41                	je     100039c9 <Window_process_mouse+0x78d>
10003988:	8b 45 ec             	mov    eax,DWORD PTR [ebp-0x14]
1000398b:	8b 40 08             	mov    eax,DWORD PTR [eax+0x8]
1000398e:	89 c2                	mov    edx,eax
10003990:	8b 45 c4             	mov    eax,DWORD PTR [ebp-0x3c]
10003993:	29 d0                	sub    eax,edx
10003995:	8b 55 08             	mov    edx,DWORD PTR [ebp+0x8]
10003998:	66 89 42 20          	mov    WORD PTR [edx+0x20],ax
1000399c:	8b 45 ec             	mov    eax,DWORD PTR [ebp-0x14]
1000399f:	66 8b 40 0a          	mov    ax,WORD PTR [eax+0xa]
100039a3:	89 c2                	mov    edx,eax
100039a5:	8b 45 c0             	mov    eax,DWORD PTR [ebp-0x40]
100039a8:	29 d0                	sub    eax,edx
100039aa:	8b 55 08             	mov    edx,DWORD PTR [ebp+0x8]
100039ad:	66 89 42 22          	mov    WORD PTR [edx+0x22],ax
100039b1:	8b 45 08             	mov    eax,DWORD PTR [ebp+0x8]
100039b4:	8b 55 ec             	mov    edx,DWORD PTR [ebp-0x14]
100039b7:	89 50 14             	mov    DWORD PTR [eax+0x14],edx
100039ba:	8b 45 08             	mov    eax,DWORD PTR [ebp+0x8]
100039bd:	c7 40 24 05 00 00 00 	mov    DWORD PTR [eax+0x24],0x5
100039c4:	e9 18 01 00 00       	jmp    10003ae1 <Window_process_mouse+0x8a5>
100039c9:	80 7d e7 00          	cmp    BYTE PTR [ebp-0x19],0x0
100039cd:	74 41                	je     10003a10 <Window_process_mouse+0x7d4>
100039cf:	8b 45 ec             	mov    eax,DWORD PTR [ebp-0x14]
100039d2:	8b 40 08             	mov    eax,DWORD PTR [eax+0x8]
100039d5:	89 c2                	mov    edx,eax
100039d7:	8b 45 c4             	mov    eax,DWORD PTR [ebp-0x3c]
100039da:	29 d0                	sub    eax,edx
100039dc:	8b 55 08             	mov    edx,DWORD PTR [ebp+0x8]
100039df:	66 89 42 20          	mov    WORD PTR [edx+0x20],ax
100039e3:	8b 45 ec             	mov    eax,DWORD PTR [ebp-0x14]
100039e6:	66 8b 40 0a          	mov    ax,WORD PTR [eax+0xa]
100039ea:	89 c2                	mov    edx,eax
100039ec:	8b 45 c0             	mov    eax,DWORD PTR [ebp-0x40]
100039ef:	29 d0                	sub    eax,edx
100039f1:	8b 55 08             	mov    edx,DWORD PTR [ebp+0x8]
100039f4:	66 89 42 22          	mov    WORD PTR [edx+0x22],ax
100039f8:	8b 45 08             	mov    eax,DWORD PTR [ebp+0x8]
100039fb:	8b 55 ec             	mov    edx,DWORD PTR [ebp-0x14]
100039fe:	89 50 14             	mov    DWORD PTR [eax+0x14],edx
10003a01:	8b 45 08             	mov    eax,DWORD PTR [ebp+0x8]
10003a04:	c7 40 24 04 00 00 00 	mov    DWORD PTR [eax+0x24],0x4
10003a0b:	e9 d1 00 00 00       	jmp    10003ae1 <Window_process_mouse+0x8a5>
10003a10:	80 7d e8 00          	cmp    BYTE PTR [ebp-0x18],0x0
10003a14:	74 41                	je     10003a57 <Window_process_mouse+0x81b>
10003a16:	8b 45 ec             	mov    eax,DWORD PTR [ebp-0x14]
10003a19:	8b 40 08             	mov    eax,DWORD PTR [eax+0x8]
10003a1c:	89 c2                	mov    edx,eax
10003a1e:	8b 45 c4             	mov    eax,DWORD PTR [ebp-0x3c]
10003a21:	29 d0                	sub    eax,edx
10003a23:	8b 55 08             	mov    edx,DWORD PTR [ebp+0x8]
10003a26:	66 89 42 20          	mov    WORD PTR [edx+0x20],ax
10003a2a:	8b 45 ec             	mov    eax,DWORD PTR [ebp-0x14]
10003a2d:	66 8b 40 0a          	mov    ax,WORD PTR [eax+0xa]
10003a31:	89 c2                	mov    edx,eax
10003a33:	8b 45 c0             	mov    eax,DWORD PTR [ebp-0x40]
10003a36:	29 d0                	sub    eax,edx
10003a38:	8b 55 08             	mov    edx,DWORD PTR [ebp+0x8]
10003a3b:	66 89 42 22          	mov    WORD PTR [edx+0x22],ax
10003a3f:	8b 45 08             	mov    eax,DWORD PTR [ebp+0x8]
10003a42:	8b 55 ec             	mov    edx,DWORD PTR [ebp-0x14]
10003a45:	89 50 14             	mov    DWORD PTR [eax+0x14],edx
10003a48:	8b 45 08             	mov    eax,DWORD PTR [ebp+0x8]
10003a4b:	c7 40 24 06 00 00 00 	mov    DWORD PTR [eax+0x24],0x6
10003a52:	e9 8a 00 00 00       	jmp    10003ae1 <Window_process_mouse+0x8a5>
10003a57:	80 7d e6 00          	cmp    BYTE PTR [ebp-0x1a],0x0
10003a5b:	74 3e                	je     10003a9b <Window_process_mouse+0x85f>
10003a5d:	8b 45 ec             	mov    eax,DWORD PTR [ebp-0x14]
10003a60:	8b 40 04             	mov    eax,DWORD PTR [eax+0x4]
10003a63:	89 c2                	mov    edx,eax
10003a65:	8b 45 c4             	mov    eax,DWORD PTR [ebp-0x3c]
10003a68:	29 d0                	sub    eax,edx
10003a6a:	8b 55 08             	mov    edx,DWORD PTR [ebp+0x8]
10003a6d:	66 89 42 20          	mov    WORD PTR [edx+0x20],ax
10003a71:	8b 45 ec             	mov    eax,DWORD PTR [ebp-0x14]
10003a74:	66 8b 40 06          	mov    ax,WORD PTR [eax+0x6]
10003a78:	89 c2                	mov    edx,eax
10003a7a:	8b 45 c0             	mov    eax,DWORD PTR [ebp-0x40]
10003a7d:	29 d0                	sub    eax,edx
10003a7f:	8b 55 08             	mov    edx,DWORD PTR [ebp+0x8]
10003a82:	66 89 42 22          	mov    WORD PTR [edx+0x22],ax
10003a86:	8b 45 08             	mov    eax,DWORD PTR [ebp+0x8]
10003a89:	8b 55 ec             	mov    edx,DWORD PTR [ebp-0x14]
10003a8c:	89 50 14             	mov    DWORD PTR [eax+0x14],edx
10003a8f:	8b 45 08             	mov    eax,DWORD PTR [ebp+0x8]
10003a92:	c7 40 24 01 00 00 00 	mov    DWORD PTR [eax+0x24],0x1
10003a99:	eb 46                	jmp    10003ae1 <Window_process_mouse+0x8a5>
10003a9b:	0f b6 4d bc          	movzx  ecx,BYTE PTR [ebp-0x44]
10003a9f:	8b 45 ec             	mov    eax,DWORD PTR [ebp-0x14]
10003aa2:	66 8b 40 06          	mov    ax,WORD PTR [eax+0x6]
10003aa6:	89 c2                	mov    edx,eax
10003aa8:	8b 45 c0             	mov    eax,DWORD PTR [ebp-0x40]
10003aab:	29 d0                	sub    eax,edx
10003aad:	0f b7 d0             	movzx  edx,ax
10003ab0:	8b 45 ec             	mov    eax,DWORD PTR [ebp-0x14]
10003ab3:	8b 40 04             	mov    eax,DWORD PTR [eax+0x4]
10003ab6:	89 c3                	mov    ebx,eax
10003ab8:	8b 45 c4             	mov    eax,DWORD PTR [ebp-0x3c]
10003abb:	29 d8                	sub    eax,ebx
10003abd:	0f b7 c0             	movzx  eax,ax
10003ac0:	51                   	push   ecx
10003ac1:	52                   	push   edx
10003ac2:	50                   	push   eax
10003ac3:	ff 75 ec             	push   DWORD PTR [ebp-0x14]
10003ac6:	e8 fc ff ff ff       	call   10003ac7 <Window_process_mouse+0x88b>	10003ac7: R_386_PC32	Window_process_mouse
10003acb:	83 c4 10             	add    esp,0x10
10003ace:	eb 11                	jmp    10003ae1 <Window_process_mouse+0x8a5>
10003ad0:	90                   	nop
10003ad1:	eb 01                	jmp    10003ad4 <Window_process_mouse+0x898>
10003ad3:	90                   	nop
10003ad4:	ff 4d f4             	dec    DWORD PTR [ebp-0xc]
10003ad7:	83 7d f4 00          	cmp    DWORD PTR [ebp-0xc],0x0
10003adb:	0f 89 90 f7 ff ff    	jns    10003271 <Window_process_mouse+0x35>
10003ae1:	83 7d f0 ff          	cmp    DWORD PTR [ebp-0x10],0xffffffff
10003ae5:	75 1a                	jne    10003b01 <Window_process_mouse+0x8c5>
10003ae7:	8b 45 08             	mov    eax,DWORD PTR [ebp+0x8]
10003aea:	8b 50 64             	mov    edx,DWORD PTR [eax+0x64]
10003aed:	a1 00 00 00 00       	mov    eax,ds:0x0	10003aee: R_386_32	desktop
10003af2:	83 ec 08             	sub    esp,0x8
10003af5:	52                   	push   edx
10003af6:	50                   	push   eax
10003af7:	e8 fc ff ff ff       	call   10003af8 <Window_process_mouse+0x8bc>	10003af8: R_386_PC32	Desktop_set_mouse
10003afc:	83 c4 10             	add    esp,0x10
10003aff:	eb 14                	jmp    10003b15 <Window_process_mouse+0x8d9>
10003b01:	a1 00 00 00 00       	mov    eax,ds:0x0	10003b02: R_386_32	desktop
10003b06:	83 ec 08             	sub    esp,0x8
10003b09:	ff 75 f0             	push   DWORD PTR [ebp-0x10]
10003b0c:	50                   	push   eax
10003b0d:	e8 fc ff ff ff       	call   10003b0e <Window_process_mouse+0x8d2>	10003b0e: R_386_PC32	Desktop_set_mouse
10003b12:	83 c4 10             	add    esp,0x10
10003b15:	80 7d bc 00          	cmp    BYTE PTR [ebp-0x44],0x0
10003b19:	75 0a                	jne    10003b25 <Window_process_mouse+0x8e9>
10003b1b:	8b 45 08             	mov    eax,DWORD PTR [ebp+0x8]
10003b1e:	c7 40 14 00 00 00 00 	mov    DWORD PTR [eax+0x14],0x0
10003b25:	8b 45 08             	mov    eax,DWORD PTR [ebp+0x8]
10003b28:	8b 40 14             	mov    eax,DWORD PTR [eax+0x14]
10003b2b:	85 c0                	test   eax,eax
10003b2d:	0f 84 e3 02 00 00    	je     10003e16 <Window_process_mouse+0xbda>
10003b33:	8b 45 08             	mov    eax,DWORD PTR [ebp+0x8]
10003b36:	8b 40 24             	mov    eax,DWORD PTR [eax+0x24]
10003b39:	83 f8 01             	cmp    eax,0x1
10003b3c:	75 36                	jne    10003b74 <Window_process_mouse+0x938>
10003b3e:	0f b7 55 c0          	movzx  edx,WORD PTR [ebp-0x40]
10003b42:	8b 45 08             	mov    eax,DWORD PTR [ebp+0x8]
10003b45:	66 8b 40 22          	mov    ax,WORD PTR [eax+0x22]
10003b49:	98                   	cwde   
10003b4a:	89 d1                	mov    ecx,edx
10003b4c:	29 c1                	sub    ecx,eax
10003b4e:	0f b7 55 c4          	movzx  edx,WORD PTR [ebp-0x3c]
10003b52:	8b 45 08             	mov    eax,DWORD PTR [ebp+0x8]
10003b55:	8b 40 20             	mov    eax,DWORD PTR [eax+0x20]
10003b58:	98                   	cwde   
10003b59:	29 c2                	sub    edx,eax
10003b5b:	8b 45 08             	mov    eax,DWORD PTR [ebp+0x8]
10003b5e:	8b 40 14             	mov    eax,DWORD PTR [eax+0x14]
10003b61:	83 ec 04             	sub    esp,0x4
10003b64:	51                   	push   ecx
10003b65:	52                   	push   edx
10003b66:	50                   	push   eax
10003b67:	e8 fc ff ff ff       	call   10003b68 <Window_process_mouse+0x92c>	10003b68: R_386_PC32	Window_move
10003b6c:	83 c4 10             	add    esp,0x10
10003b6f:	e9 a2 02 00 00       	jmp    10003e16 <Window_process_mouse+0xbda>
10003b74:	8b 45 08             	mov    eax,DWORD PTR [ebp+0x8]
10003b77:	8b 40 24             	mov    eax,DWORD PTR [eax+0x24]
10003b7a:	83 f8 02             	cmp    eax,0x2
10003b7d:	75 36                	jne    10003bb5 <Window_process_mouse+0x979>
10003b7f:	0f b7 55 c0          	movzx  edx,WORD PTR [ebp-0x40]
10003b83:	8b 45 08             	mov    eax,DWORD PTR [ebp+0x8]
10003b86:	66 8b 40 22          	mov    ax,WORD PTR [eax+0x22]
10003b8a:	98                   	cwde   
10003b8b:	89 d1                	mov    ecx,edx
10003b8d:	29 c1                	sub    ecx,eax
10003b8f:	0f b7 55 c4          	movzx  edx,WORD PTR [ebp-0x3c]
10003b93:	8b 45 08             	mov    eax,DWORD PTR [ebp+0x8]
10003b96:	8b 40 20             	mov    eax,DWORD PTR [eax+0x20]
10003b99:	98                   	cwde   
10003b9a:	29 c2                	sub    edx,eax
10003b9c:	8b 45 08             	mov    eax,DWORD PTR [ebp+0x8]
10003b9f:	8b 40 14             	mov    eax,DWORD PTR [eax+0x14]
10003ba2:	83 ec 04             	sub    esp,0x4
10003ba5:	51                   	push   ecx
10003ba6:	52                   	push   edx
10003ba7:	50                   	push   eax
10003ba8:	e8 fc ff ff ff       	call   10003ba9 <Window_process_mouse+0x96d>	10003ba9: R_386_PC32	Window_resize
10003bad:	83 c4 10             	add    esp,0x10
10003bb0:	e9 61 02 00 00       	jmp    10003e16 <Window_process_mouse+0xbda>
10003bb5:	8b 45 08             	mov    eax,DWORD PTR [ebp+0x8]
10003bb8:	8b 40 24             	mov    eax,DWORD PTR [eax+0x24]
10003bbb:	83 f8 03             	cmp    eax,0x3
10003bbe:	75 33                	jne    10003bf3 <Window_process_mouse+0x9b7>
10003bc0:	8b 45 08             	mov    eax,DWORD PTR [ebp+0x8]
10003bc3:	8b 40 14             	mov    eax,DWORD PTR [eax+0x14]
10003bc6:	66 8b 40 0a          	mov    ax,WORD PTR [eax+0xa]
10003bca:	0f bf d0             	movsx  edx,ax
10003bcd:	0f b7 4d c4          	movzx  ecx,WORD PTR [ebp-0x3c]
10003bd1:	8b 45 08             	mov    eax,DWORD PTR [ebp+0x8]
10003bd4:	8b 40 20             	mov    eax,DWORD PTR [eax+0x20]
10003bd7:	98                   	cwde   
10003bd8:	29 c1                	sub    ecx,eax
10003bda:	8b 45 08             	mov    eax,DWORD PTR [ebp+0x8]
10003bdd:	8b 40 14             	mov    eax,DWORD PTR [eax+0x14]
10003be0:	83 ec 04             	sub    esp,0x4
10003be3:	52                   	push   edx
10003be4:	51                   	push   ecx
10003be5:	50                   	push   eax
10003be6:	e8 fc ff ff ff       	call   10003be7 <Window_process_mouse+0x9ab>	10003be7: R_386_PC32	Window_resize
10003beb:	83 c4 10             	add    esp,0x10
10003bee:	e9 23 02 00 00       	jmp    10003e16 <Window_process_mouse+0xbda>
10003bf3:	8b 45 08             	mov    eax,DWORD PTR [ebp+0x8]
10003bf6:	8b 40 24             	mov    eax,DWORD PTR [eax+0x24]
10003bf9:	83 f8 04             	cmp    eax,0x4
10003bfc:	75 35                	jne    10003c33 <Window_process_mouse+0x9f7>
10003bfe:	0f b7 55 c0          	movzx  edx,WORD PTR [ebp-0x40]
10003c02:	8b 45 08             	mov    eax,DWORD PTR [ebp+0x8]
10003c05:	66 8b 40 22          	mov    ax,WORD PTR [eax+0x22]
10003c09:	98                   	cwde   
10003c0a:	89 d1                	mov    ecx,edx
10003c0c:	29 c1                	sub    ecx,eax
10003c0e:	8b 45 08             	mov    eax,DWORD PTR [ebp+0x8]
10003c11:	8b 40 14             	mov    eax,DWORD PTR [eax+0x14]
10003c14:	8b 40 08             	mov    eax,DWORD PTR [eax+0x8]
10003c17:	0f bf d0             	movsx  edx,ax
10003c1a:	8b 45 08             	mov    eax,DWORD PTR [ebp+0x8]
10003c1d:	8b 40 14             	mov    eax,DWORD PTR [eax+0x14]
10003c20:	83 ec 04             	sub    esp,0x4
10003c23:	51                   	push   ecx
10003c24:	52                   	push   edx
10003c25:	50                   	push   eax
10003c26:	e8 fc ff ff ff       	call   10003c27 <Window_process_mouse+0x9eb>	10003c27: R_386_PC32	Window_resize
10003c2b:	83 c4 10             	add    esp,0x10
10003c2e:	e9 e3 01 00 00       	jmp    10003e16 <Window_process_mouse+0xbda>
10003c33:	8b 45 08             	mov    eax,DWORD PTR [ebp+0x8]
10003c36:	8b 40 24             	mov    eax,DWORD PTR [eax+0x24]
10003c39:	83 f8 07             	cmp    eax,0x7
10003c3c:	0f 85 96 00 00 00    	jne    10003cd8 <Window_process_mouse+0xa9c>
10003c42:	8b 45 08             	mov    eax,DWORD PTR [ebp+0x8]
10003c45:	8b 40 14             	mov    eax,DWORD PTR [eax+0x14]
10003c48:	8b 40 04             	mov    eax,DWORD PTR [eax+0x4]
10003c4b:	0f bf d0             	movsx  edx,ax
10003c4e:	0f b7 45 c4          	movzx  eax,WORD PTR [ebp-0x3c]
10003c52:	29 c2                	sub    edx,eax
10003c54:	89 d0                	mov    eax,edx
10003c56:	89 45 e0             	mov    DWORD PTR [ebp-0x20],eax
10003c59:	8b 45 08             	mov    eax,DWORD PTR [ebp+0x8]
10003c5c:	8b 40 14             	mov    eax,DWORD PTR [eax+0x14]
10003c5f:	8b 40 08             	mov    eax,DWORD PTR [eax+0x8]
10003c62:	98                   	cwde   
10003c63:	89 45 dc             	mov    DWORD PTR [ebp-0x24],eax
10003c66:	0f b7 55 c0          	movzx  edx,WORD PTR [ebp-0x40]
10003c6a:	8b 45 08             	mov    eax,DWORD PTR [ebp+0x8]
10003c6d:	66 8b 40 22          	mov    ax,WORD PTR [eax+0x22]
10003c71:	98                   	cwde   
10003c72:	89 d1                	mov    ecx,edx
10003c74:	29 c1                	sub    ecx,eax
10003c76:	8b 45 08             	mov    eax,DWORD PTR [ebp+0x8]
10003c79:	8b 40 14             	mov    eax,DWORD PTR [eax+0x14]
10003c7c:	8b 40 08             	mov    eax,DWORD PTR [eax+0x8]
10003c7f:	0f bf d0             	movsx  edx,ax
10003c82:	8b 45 e0             	mov    eax,DWORD PTR [ebp-0x20]
10003c85:	01 c2                	add    edx,eax
10003c87:	8b 45 08             	mov    eax,DWORD PTR [ebp+0x8]
10003c8a:	8b 40 14             	mov    eax,DWORD PTR [eax+0x14]
10003c8d:	83 ec 04             	sub    esp,0x4
10003c90:	51                   	push   ecx
10003c91:	52                   	push   edx
10003c92:	50                   	push   eax
10003c93:	e8 fc ff ff ff       	call   10003c94 <Window_process_mouse+0xa58>	10003c94: R_386_PC32	Window_resize
10003c98:	83 c4 10             	add    esp,0x10
10003c9b:	8b 45 08             	mov    eax,DWORD PTR [ebp+0x8]
10003c9e:	8b 40 14             	mov    eax,DWORD PTR [eax+0x14]
10003ca1:	8b 40 08             	mov    eax,DWORD PTR [eax+0x8]
10003ca4:	98                   	cwde   
10003ca5:	39 45 dc             	cmp    DWORD PTR [ebp-0x24],eax
10003ca8:	0f 84 68 01 00 00    	je     10003e16 <Window_process_mouse+0xbda>
10003cae:	8b 45 08             	mov    eax,DWORD PTR [ebp+0x8]
10003cb1:	8b 40 14             	mov    eax,DWORD PTR [eax+0x14]
10003cb4:	66 8b 40 06          	mov    ax,WORD PTR [eax+0x6]
10003cb8:	0f bf c8             	movsx  ecx,ax
10003cbb:	0f b7 55 c4          	movzx  edx,WORD PTR [ebp-0x3c]
10003cbf:	8b 45 08             	mov    eax,DWORD PTR [ebp+0x8]
10003cc2:	8b 40 14             	mov    eax,DWORD PTR [eax+0x14]
10003cc5:	83 ec 04             	sub    esp,0x4
10003cc8:	51                   	push   ecx
10003cc9:	52                   	push   edx
10003cca:	50                   	push   eax
10003ccb:	e8 fc ff ff ff       	call   10003ccc <Window_process_mouse+0xa90>	10003ccc: R_386_PC32	Window_move
10003cd0:	83 c4 10             	add    esp,0x10
10003cd3:	e9 3e 01 00 00       	jmp    10003e16 <Window_process_mouse+0xbda>
10003cd8:	8b 45 08             	mov    eax,DWORD PTR [ebp+0x8]
10003cdb:	8b 40 24             	mov    eax,DWORD PTR [eax+0x24]
10003cde:	83 f8 05             	cmp    eax,0x5
10003ce1:	0f 85 93 00 00 00    	jne    10003d7a <Window_process_mouse+0xb3e>
10003ce7:	8b 45 08             	mov    eax,DWORD PTR [ebp+0x8]
10003cea:	8b 40 14             	mov    eax,DWORD PTR [eax+0x14]
10003ced:	8b 40 04             	mov    eax,DWORD PTR [eax+0x4]
10003cf0:	0f bf d0             	movsx  edx,ax
10003cf3:	0f b7 45 c4          	movzx  eax,WORD PTR [ebp-0x3c]
10003cf7:	29 c2                	sub    edx,eax
10003cf9:	89 d0                	mov    eax,edx
10003cfb:	89 45 d8             	mov    DWORD PTR [ebp-0x28],eax
10003cfe:	8b 45 08             	mov    eax,DWORD PTR [ebp+0x8]
10003d01:	8b 40 14             	mov    eax,DWORD PTR [eax+0x14]
10003d04:	8b 40 08             	mov    eax,DWORD PTR [eax+0x8]
10003d07:	98                   	cwde   
10003d08:	89 45 d4             	mov    DWORD PTR [ebp-0x2c],eax
10003d0b:	8b 45 08             	mov    eax,DWORD PTR [ebp+0x8]
10003d0e:	8b 40 14             	mov    eax,DWORD PTR [eax+0x14]
10003d11:	66 8b 40 0a          	mov    ax,WORD PTR [eax+0xa]
10003d15:	0f bf d0             	movsx  edx,ax
10003d18:	8b 45 08             	mov    eax,DWORD PTR [ebp+0x8]
10003d1b:	8b 40 14             	mov    eax,DWORD PTR [eax+0x14]
10003d1e:	8b 40 08             	mov    eax,DWORD PTR [eax+0x8]
10003d21:	0f bf c8             	movsx  ecx,ax
10003d24:	8b 45 d8             	mov    eax,DWORD PTR [ebp-0x28]
10003d27:	01 c1                	add    ecx,eax
10003d29:	8b 45 08             	mov    eax,DWORD PTR [ebp+0x8]
10003d2c:	8b 40 14             	mov    eax,DWORD PTR [eax+0x14]
10003d2f:	83 ec 04             	sub    esp,0x4
10003d32:	52                   	push   edx
10003d33:	51                   	push   ecx
10003d34:	50                   	push   eax
10003d35:	e8 fc ff ff ff       	call   10003d36 <Window_process_mouse+0xafa>	10003d36: R_386_PC32	Window_resize
10003d3a:	83 c4 10             	add    esp,0x10
10003d3d:	8b 45 08             	mov    eax,DWORD PTR [ebp+0x8]
10003d40:	8b 40 14             	mov    eax,DWORD PTR [eax+0x14]
10003d43:	8b 40 08             	mov    eax,DWORD PTR [eax+0x8]
10003d46:	98                   	cwde   
10003d47:	39 45 d4             	cmp    DWORD PTR [ebp-0x2c],eax
10003d4a:	0f 84 c6 00 00 00    	je     10003e16 <Window_process_mouse+0xbda>
10003d50:	8b 45 08             	mov    eax,DWORD PTR [ebp+0x8]
10003d53:	8b 40 14             	mov    eax,DWORD PTR [eax+0x14]
10003d56:	66 8b 40 06          	mov    ax,WORD PTR [eax+0x6]
10003d5a:	0f bf c8             	movsx  ecx,ax
10003d5d:	0f b7 55 c4          	movzx  edx,WORD PTR [ebp-0x3c]
10003d61:	8b 45 08             	mov    eax,DWORD PTR [ebp+0x8]
10003d64:	8b 40 14             	mov    eax,DWORD PTR [eax+0x14]
10003d67:	83 ec 04             	sub    esp,0x4
10003d6a:	51                   	push   ecx
10003d6b:	52                   	push   edx
10003d6c:	50                   	push   eax
10003d6d:	e8 fc ff ff ff       	call   10003d6e <Window_process_mouse+0xb32>	10003d6e: R_386_PC32	Window_move
10003d72:	83 c4 10             	add    esp,0x10
10003d75:	e9 9c 00 00 00       	jmp    10003e16 <Window_process_mouse+0xbda>
10003d7a:	8b 45 08             	mov    eax,DWORD PTR [ebp+0x8]
10003d7d:	8b 40 24             	mov    eax,DWORD PTR [eax+0x24]
10003d80:	83 f8 06             	cmp    eax,0x6
10003d83:	0f 85 8d 00 00 00    	jne    10003e16 <Window_process_mouse+0xbda>
10003d89:	8b 45 08             	mov    eax,DWORD PTR [ebp+0x8]
10003d8c:	8b 40 14             	mov    eax,DWORD PTR [eax+0x14]
10003d8f:	66 8b 40 06          	mov    ax,WORD PTR [eax+0x6]
10003d93:	0f bf d0             	movsx  edx,ax
10003d96:	0f b7 45 c0          	movzx  eax,WORD PTR [ebp-0x40]
10003d9a:	29 c2                	sub    edx,eax
10003d9c:	89 d0                	mov    eax,edx
10003d9e:	89 45 d0             	mov    DWORD PTR [ebp-0x30],eax
10003da1:	8b 45 08             	mov    eax,DWORD PTR [ebp+0x8]
10003da4:	8b 40 14             	mov    eax,DWORD PTR [eax+0x14]
10003da7:	66 8b 40 0a          	mov    ax,WORD PTR [eax+0xa]
10003dab:	98                   	cwde   
10003dac:	89 45 cc             	mov    DWORD PTR [ebp-0x34],eax
10003daf:	8b 45 08             	mov    eax,DWORD PTR [ebp+0x8]
10003db2:	8b 40 14             	mov    eax,DWORD PTR [eax+0x14]
10003db5:	66 8b 40 0a          	mov    ax,WORD PTR [eax+0xa]
10003db9:	0f bf d0             	movsx  edx,ax
10003dbc:	8b 45 d0             	mov    eax,DWORD PTR [ebp-0x30]
10003dbf:	8d 0c 02             	lea    ecx,[edx+eax*1]
10003dc2:	8b 45 08             	mov    eax,DWORD PTR [ebp+0x8]
10003dc5:	8b 40 14             	mov    eax,DWORD PTR [eax+0x14]
10003dc8:	8b 40 08             	mov    eax,DWORD PTR [eax+0x8]
10003dcb:	0f bf d0             	movsx  edx,ax
10003dce:	8b 45 08             	mov    eax,DWORD PTR [ebp+0x8]
10003dd1:	8b 40 14             	mov    eax,DWORD PTR [eax+0x14]
10003dd4:	83 ec 04             	sub    esp,0x4
10003dd7:	51                   	push   ecx
10003dd8:	52                   	push   edx
10003dd9:	50                   	push   eax
10003dda:	e8 fc ff ff ff       	call   10003ddb <Window_process_mouse+0xb9f>	10003ddb: R_386_PC32	Window_resize
10003ddf:	83 c4 10             	add    esp,0x10
10003de2:	8b 45 08             	mov    eax,DWORD PTR [ebp+0x8]
10003de5:	8b 40 14             	mov    eax,DWORD PTR [eax+0x14]
10003de8:	66 8b 40 0a          	mov    ax,WORD PTR [eax+0xa]
10003dec:	98                   	cwde   
10003ded:	39 45 cc             	cmp    DWORD PTR [ebp-0x34],eax
10003df0:	74 24                	je     10003e16 <Window_process_mouse+0xbda>
10003df2:	0f b7 4d c0          	movzx  ecx,WORD PTR [ebp-0x40]
10003df6:	8b 45 08             	mov    eax,DWORD PTR [ebp+0x8]
10003df9:	8b 40 14             	mov    eax,DWORD PTR [eax+0x14]
10003dfc:	8b 40 04             	mov    eax,DWORD PTR [eax+0x4]
10003dff:	0f bf d0             	movsx  edx,ax
10003e02:	8b 45 08             	mov    eax,DWORD PTR [ebp+0x8]
10003e05:	8b 40 14             	mov    eax,DWORD PTR [eax+0x14]
10003e08:	83 ec 04             	sub    esp,0x4
10003e0b:	51                   	push   ecx
10003e0c:	52                   	push   edx
10003e0d:	50                   	push   eax
10003e0e:	e8 fc ff ff ff       	call   10003e0f <Window_process_mouse+0xbd3>	10003e0f: R_386_PC32	Window_move
10003e13:	83 c4 10             	add    esp,0x10
10003e16:	8b 45 08             	mov    eax,DWORD PTR [ebp+0x8]
10003e19:	8b 40 30             	mov    eax,DWORD PTR [eax+0x30]
10003e1c:	85 c0                	test   eax,eax
10003e1e:	74 30                	je     10003e50 <Window_process_mouse+0xc14>
10003e20:	80 7d bc 00          	cmp    BYTE PTR [ebp-0x44],0x0
10003e24:	74 2a                	je     10003e50 <Window_process_mouse+0xc14>
10003e26:	8b 45 08             	mov    eax,DWORD PTR [ebp+0x8]
10003e29:	8a 40 28             	mov    al,BYTE PTR [eax+0x28]
10003e2c:	84 c0                	test   al,al
10003e2e:	75 20                	jne    10003e50 <Window_process_mouse+0xc14>
10003e30:	8b 45 08             	mov    eax,DWORD PTR [ebp+0x8]
10003e33:	8b 40 30             	mov    eax,DWORD PTR [eax+0x30]
10003e36:	0f b7 4d c0          	movzx  ecx,WORD PTR [ebp-0x40]
10003e3a:	0f b7 55 c4          	movzx  edx,WORD PTR [ebp-0x3c]
10003e3e:	83 ec 04             	sub    esp,0x4
10003e41:	51                   	push   ecx
10003e42:	52                   	push   edx
10003e43:	ff 75 08             	push   DWORD PTR [ebp+0x8]
10003e46:	ff d0                	call   eax
10003e48:	83 c4 10             	add    esp,0x10
10003e4b:	e9 8f 00 00 00       	jmp    10003edf <Window_process_mouse+0xca3>
10003e50:	8b 45 08             	mov    eax,DWORD PTR [ebp+0x8]
10003e53:	8b 40 3c             	mov    eax,DWORD PTR [eax+0x3c]
10003e56:	85 c0                	test   eax,eax
10003e58:	74 2d                	je     10003e87 <Window_process_mouse+0xc4b>
10003e5a:	80 7d bc 00          	cmp    BYTE PTR [ebp-0x44],0x0
10003e5e:	75 27                	jne    10003e87 <Window_process_mouse+0xc4b>
10003e60:	8b 45 08             	mov    eax,DWORD PTR [ebp+0x8]
10003e63:	8a 40 28             	mov    al,BYTE PTR [eax+0x28]
10003e66:	84 c0                	test   al,al
10003e68:	74 1d                	je     10003e87 <Window_process_mouse+0xc4b>
10003e6a:	8b 45 08             	mov    eax,DWORD PTR [ebp+0x8]
10003e6d:	8b 40 3c             	mov    eax,DWORD PTR [eax+0x3c]
10003e70:	0f b7 4d c0          	movzx  ecx,WORD PTR [ebp-0x40]
10003e74:	0f b7 55 c4          	movzx  edx,WORD PTR [ebp-0x3c]
10003e78:	83 ec 04             	sub    esp,0x4
10003e7b:	51                   	push   ecx
10003e7c:	52                   	push   edx
10003e7d:	ff 75 08             	push   DWORD PTR [ebp+0x8]
10003e80:	ff d0                	call   eax
10003e82:	83 c4 10             	add    esp,0x10
10003e85:	eb 58                	jmp    10003edf <Window_process_mouse+0xca3>
10003e87:	8b 45 08             	mov    eax,DWORD PTR [ebp+0x8]
10003e8a:	8b 40 38             	mov    eax,DWORD PTR [eax+0x38]
10003e8d:	85 c0                	test   eax,eax
10003e8f:	74 23                	je     10003eb4 <Window_process_mouse+0xc78>
10003e91:	80 7d bc 00          	cmp    BYTE PTR [ebp-0x44],0x0
10003e95:	74 1d                	je     10003eb4 <Window_process_mouse+0xc78>
10003e97:	8b 45 08             	mov    eax,DWORD PTR [ebp+0x8]
10003e9a:	8b 40 38             	mov    eax,DWORD PTR [eax+0x38]
10003e9d:	0f b7 4d c0          	movzx  ecx,WORD PTR [ebp-0x40]
10003ea1:	0f b7 55 c4          	movzx  edx,WORD PTR [ebp-0x3c]
10003ea5:	83 ec 04             	sub    esp,0x4
10003ea8:	51                   	push   ecx
10003ea9:	52                   	push   edx
10003eaa:	ff 75 08             	push   DWORD PTR [ebp+0x8]
10003ead:	ff d0                	call   eax
10003eaf:	83 c4 10             	add    esp,0x10
10003eb2:	eb 2b                	jmp    10003edf <Window_process_mouse+0xca3>
10003eb4:	8b 45 08             	mov    eax,DWORD PTR [ebp+0x8]
10003eb7:	8b 40 34             	mov    eax,DWORD PTR [eax+0x34]
10003eba:	85 c0                	test   eax,eax
10003ebc:	74 21                	je     10003edf <Window_process_mouse+0xca3>
10003ebe:	80 7d bc 00          	cmp    BYTE PTR [ebp-0x44],0x0
10003ec2:	75 1b                	jne    10003edf <Window_process_mouse+0xca3>
10003ec4:	8b 45 08             	mov    eax,DWORD PTR [ebp+0x8]
10003ec7:	8b 40 34             	mov    eax,DWORD PTR [eax+0x34]
10003eca:	0f b7 4d c0          	movzx  ecx,WORD PTR [ebp-0x40]
10003ece:	0f b7 55 c4          	movzx  edx,WORD PTR [ebp-0x3c]
10003ed2:	83 ec 04             	sub    esp,0x4
10003ed5:	51                   	push   ecx
10003ed6:	52                   	push   edx
10003ed7:	ff 75 08             	push   DWORD PTR [ebp+0x8]
10003eda:	ff d0                	call   eax
10003edc:	83 c4 10             	add    esp,0x10
10003edf:	8b 45 08             	mov    eax,DWORD PTR [ebp+0x8]
10003ee2:	8a 55 bc             	mov    dl,BYTE PTR [ebp-0x44]
10003ee5:	88 50 28             	mov    BYTE PTR [eax+0x28],dl
10003ee8:	90                   	nop
10003ee9:	8b 5d fc             	mov    ebx,DWORD PTR [ebp-0x4]
10003eec:	c9                   	leave  
10003eed:	c3                   	ret    

10003eee <Window_mousedown_handler>:
10003eee:	90                   	nop
10003eef:	c3                   	ret    

10003ef0 <Window_resize_handler>:
10003ef0:	90                   	nop
10003ef1:	c3                   	ret    

10003ef2 <Window_move_handler>:
10003ef2:	90                   	nop
10003ef3:	c3                   	ret    

10003ef4 <Window_update_context>:
10003ef4:	55                   	push   ebp
10003ef5:	89 e5                	mov    ebp,esp
10003ef7:	83 ec 18             	sub    esp,0x18
10003efa:	8b 45 08             	mov    eax,DWORD PTR [ebp+0x8]
10003efd:	8b 55 0c             	mov    edx,DWORD PTR [ebp+0xc]
10003f00:	89 50 10             	mov    DWORD PTR [eax+0x10],edx
10003f03:	c7 45 f4 00 00 00 00 	mov    DWORD PTR [ebp-0xc],0x0
10003f0a:	eb 28                	jmp    10003f34 <Window_update_context+0x40>
10003f0c:	8b 55 f4             	mov    edx,DWORD PTR [ebp-0xc]
10003f0f:	8b 45 08             	mov    eax,DWORD PTR [ebp+0x8]
10003f12:	8b 40 1c             	mov    eax,DWORD PTR [eax+0x1c]
10003f15:	83 ec 08             	sub    esp,0x8
10003f18:	52                   	push   edx
10003f19:	50                   	push   eax
10003f1a:	e8 fc ff ff ff       	call   10003f1b <Window_update_context+0x27>	10003f1b: R_386_PC32	List_get_at
10003f1f:	83 c4 10             	add    esp,0x10
10003f22:	83 ec 08             	sub    esp,0x8
10003f25:	ff 75 0c             	push   DWORD PTR [ebp+0xc]
10003f28:	50                   	push   eax
10003f29:	e8 fc ff ff ff       	call   10003f2a <Window_update_context+0x36>	10003f2a: R_386_PC32	Window_update_context
10003f2e:	83 c4 10             	add    esp,0x10
10003f31:	ff 45 f4             	inc    DWORD PTR [ebp-0xc]
10003f34:	8b 45 08             	mov    eax,DWORD PTR [ebp+0x8]
10003f37:	8b 40 1c             	mov    eax,DWORD PTR [eax+0x1c]
10003f3a:	8b 10                	mov    edx,DWORD PTR [eax]
10003f3c:	8b 45 f4             	mov    eax,DWORD PTR [ebp-0xc]
10003f3f:	39 c2                	cmp    edx,eax
10003f41:	77 c9                	ja     10003f0c <Window_update_context+0x18>
10003f43:	90                   	nop
10003f44:	c9                   	leave  
10003f45:	c3                   	ret    

10003f46 <Window_insert_child>:
10003f46:	55                   	push   ebp
10003f47:	89 e5                	mov    ebp,esp
10003f49:	83 ec 08             	sub    esp,0x8
10003f4c:	8b 45 0c             	mov    eax,DWORD PTR [ebp+0xc]
10003f4f:	8b 55 08             	mov    edx,DWORD PTR [ebp+0x8]
10003f52:	89 10                	mov    DWORD PTR [eax],edx
10003f54:	8b 45 08             	mov    eax,DWORD PTR [ebp+0x8]
10003f57:	8b 40 1c             	mov    eax,DWORD PTR [eax+0x1c]
10003f5a:	83 ec 08             	sub    esp,0x8
10003f5d:	ff 75 0c             	push   DWORD PTR [ebp+0xc]
10003f60:	50                   	push   eax
10003f61:	e8 fc ff ff ff       	call   10003f62 <Window_insert_child+0x1c>	10003f62: R_386_PC32	List_add
10003f66:	83 c4 10             	add    esp,0x10
10003f69:	8b 45 0c             	mov    eax,DWORD PTR [ebp+0xc]
10003f6c:	8b 00                	mov    eax,DWORD PTR [eax]
10003f6e:	8b 55 0c             	mov    edx,DWORD PTR [ebp+0xc]
10003f71:	89 50 18             	mov    DWORD PTR [eax+0x18],edx
10003f74:	8b 45 08             	mov    eax,DWORD PTR [ebp+0x8]
10003f77:	8b 40 10             	mov    eax,DWORD PTR [eax+0x10]
10003f7a:	83 ec 08             	sub    esp,0x8
10003f7d:	50                   	push   eax
10003f7e:	ff 75 0c             	push   DWORD PTR [ebp+0xc]
10003f81:	e8 fc ff ff ff       	call   10003f82 <Window_insert_child+0x3c>	10003f82: R_386_PC32	Window_update_context
10003f86:	83 c4 10             	add    esp,0x10
10003f89:	90                   	nop
10003f8a:	c9                   	leave  
10003f8b:	c3                   	ret    

10003f8c <Window_create_window>:
10003f8c:	55                   	push   ebp
10003f8d:	89 e5                	mov    ebp,esp
10003f8f:	57                   	push   edi
10003f90:	56                   	push   esi
10003f91:	53                   	push   ebx
10003f92:	83 ec 3c             	sub    esp,0x3c
10003f95:	8b 75 0c             	mov    esi,DWORD PTR [ebp+0xc]
10003f98:	8b 5d 10             	mov    ebx,DWORD PTR [ebp+0x10]
10003f9b:	8b 4d 14             	mov    ecx,DWORD PTR [ebp+0x14]
10003f9e:	8b 55 18             	mov    edx,DWORD PTR [ebp+0x18]
10003fa1:	8b 45 1c             	mov    eax,DWORD PTR [ebp+0x1c]
10003fa4:	66 89 75 d4          	mov    WORD PTR [ebp-0x2c],si
10003fa8:	66 89 5d d0          	mov    WORD PTR [ebp-0x30],bx
10003fac:	66 89 4d cc          	mov    WORD PTR [ebp-0x34],cx
10003fb0:	66 89 55 c8          	mov    WORD PTR [ebp-0x38],dx
10003fb4:	66 89 45 c4          	mov    WORD PTR [ebp-0x3c],ax
10003fb8:	8b 45 08             	mov    eax,DWORD PTR [ebp+0x8]
10003fbb:	8b 78 10             	mov    edi,DWORD PTR [eax+0x10]
10003fbe:	0f b7 75 c4          	movzx  esi,WORD PTR [ebp-0x3c]
10003fc2:	8b 45 c8             	mov    eax,DWORD PTR [ebp-0x38]
10003fc5:	0f b7 d8             	movzx  ebx,ax
10003fc8:	0f b7 4d cc          	movzx  ecx,WORD PTR [ebp-0x34]
10003fcc:	0f bf 55 d0          	movsx  edx,WORD PTR [ebp-0x30]
10003fd0:	0f bf 45 d4          	movsx  eax,WORD PTR [ebp-0x2c]
10003fd4:	83 ec 08             	sub    esp,0x8
10003fd7:	57                   	push   edi
10003fd8:	56                   	push   esi
10003fd9:	53                   	push   ebx
10003fda:	51                   	push   ecx
10003fdb:	52                   	push   edx
10003fdc:	50                   	push   eax
10003fdd:	e8 fc ff ff ff       	call   10003fde <Window_create_window+0x52>	10003fde: R_386_PC32	Window_new
10003fe2:	83 c4 20             	add    esp,0x20
10003fe5:	89 45 e4             	mov    DWORD PTR [ebp-0x1c],eax
10003fe8:	83 7d e4 00          	cmp    DWORD PTR [ebp-0x1c],0x0
10003fec:	75 05                	jne    10003ff3 <Window_create_window+0x67>
10003fee:	8b 45 e4             	mov    eax,DWORD PTR [ebp-0x1c]
10003ff1:	eb 44                	jmp    10004037 <Window_create_window+0xab>
10003ff3:	8b 45 08             	mov    eax,DWORD PTR [ebp+0x8]
10003ff6:	8b 40 1c             	mov    eax,DWORD PTR [eax+0x1c]
10003ff9:	83 ec 08             	sub    esp,0x8
10003ffc:	ff 75 e4             	push   DWORD PTR [ebp-0x1c]
10003fff:	50                   	push   eax
10004000:	e8 fc ff ff ff       	call   10004001 <Window_create_window+0x75>	10004001: R_386_PC32	List_add
10004005:	83 c4 10             	add    esp,0x10
10004008:	85 c0                	test   eax,eax
1000400a:	75 15                	jne    10004021 <Window_create_window+0x95>
1000400c:	83 ec 0c             	sub    esp,0xc
1000400f:	ff 75 e4             	push   DWORD PTR [ebp-0x1c]
10004012:	e8 fc ff ff ff       	call   10004013 <Window_create_window+0x87>	10004013: R_386_PC32	free
10004017:	83 c4 10             	add    esp,0x10
1000401a:	b8 00 00 00 00       	mov    eax,0x0
1000401f:	eb 16                	jmp    10004037 <Window_create_window+0xab>
10004021:	8b 45 e4             	mov    eax,DWORD PTR [ebp-0x1c]
10004024:	8b 55 08             	mov    edx,DWORD PTR [ebp+0x8]
10004027:	89 10                	mov    DWORD PTR [eax],edx
10004029:	8b 45 e4             	mov    eax,DWORD PTR [ebp-0x1c]
1000402c:	8b 00                	mov    eax,DWORD PTR [eax]
1000402e:	8b 55 e4             	mov    edx,DWORD PTR [ebp-0x1c]
10004031:	89 50 18             	mov    DWORD PTR [eax+0x18],edx
10004034:	8b 45 e4             	mov    eax,DWORD PTR [ebp-0x1c]
10004037:	8d 65 f4             	lea    esp,[ebp-0xc]
1000403a:	5b                   	pop    ebx
1000403b:	5e                   	pop    esi
1000403c:	5f                   	pop    edi
1000403d:	5d                   	pop    ebp
1000403e:	c3                   	ret    

1000403f <Window_set_title>:
1000403f:	55                   	push   ebp
10004040:	89 e5                	mov    ebp,esp
10004042:	83 ec 18             	sub    esp,0x18
10004045:	8b 45 08             	mov    eax,DWORD PTR [ebp+0x8]
10004048:	8b 40 4c             	mov    eax,DWORD PTR [eax+0x4c]
1000404b:	85 c0                	test   eax,eax
1000404d:	74 2f                	je     1000407e <Window_set_title+0x3f>
1000404f:	c7 45 f4 00 00 00 00 	mov    DWORD PTR [ebp-0xc],0x0
10004056:	eb 03                	jmp    1000405b <Window_set_title+0x1c>
10004058:	ff 45 f4             	inc    DWORD PTR [ebp-0xc]
1000405b:	8b 45 08             	mov    eax,DWORD PTR [ebp+0x8]
1000405e:	8b 50 4c             	mov    edx,DWORD PTR [eax+0x4c]
10004061:	8b 45 f4             	mov    eax,DWORD PTR [ebp-0xc]
10004064:	01 d0                	add    eax,edx
10004066:	8a 00                	mov    al,BYTE PTR [eax]
10004068:	84 c0                	test   al,al
1000406a:	75 ec                	jne    10004058 <Window_set_title+0x19>
1000406c:	8b 45 08             	mov    eax,DWORD PTR [ebp+0x8]
1000406f:	8b 40 4c             	mov    eax,DWORD PTR [eax+0x4c]
10004072:	83 ec 0c             	sub    esp,0xc
10004075:	50                   	push   eax
10004076:	e8 fc ff ff ff       	call   10004077 <Window_set_title+0x38>	10004077: R_386_PC32	free
1000407b:	83 c4 10             	add    esp,0x10
1000407e:	c7 45 f4 00 00 00 00 	mov    DWORD PTR [ebp-0xc],0x0
10004085:	eb 03                	jmp    1000408a <Window_set_title+0x4b>
10004087:	ff 45 f4             	inc    DWORD PTR [ebp-0xc]
1000408a:	8b 55 f4             	mov    edx,DWORD PTR [ebp-0xc]
1000408d:	8b 45 0c             	mov    eax,DWORD PTR [ebp+0xc]
10004090:	01 d0                	add    eax,edx
10004092:	8a 00                	mov    al,BYTE PTR [eax]
10004094:	84 c0                	test   al,al
10004096:	75 ef                	jne    10004087 <Window_set_title+0x48>
10004098:	8b 45 f4             	mov    eax,DWORD PTR [ebp-0xc]
1000409b:	40                   	inc    eax
1000409c:	83 ec 0c             	sub    esp,0xc
1000409f:	50                   	push   eax
100040a0:	e8 fc ff ff ff       	call   100040a1 <Window_set_title+0x62>	100040a1: R_386_PC32	malloc
100040a5:	83 c4 10             	add    esp,0x10
100040a8:	89 c2                	mov    edx,eax
100040aa:	8b 45 08             	mov    eax,DWORD PTR [ebp+0x8]
100040ad:	89 50 4c             	mov    DWORD PTR [eax+0x4c],edx
100040b0:	8b 45 08             	mov    eax,DWORD PTR [ebp+0x8]
100040b3:	8b 40 4c             	mov    eax,DWORD PTR [eax+0x4c]
100040b6:	85 c0                	test   eax,eax
100040b8:	74 75                	je     1000412f <Window_set_title+0xf0>
100040ba:	c7 45 f0 00 00 00 00 	mov    DWORD PTR [ebp-0x10],0x0
100040c1:	eb 1b                	jmp    100040de <Window_set_title+0x9f>
100040c3:	8b 55 f0             	mov    edx,DWORD PTR [ebp-0x10]
100040c6:	8b 45 0c             	mov    eax,DWORD PTR [ebp+0xc]
100040c9:	8d 0c 02             	lea    ecx,[edx+eax*1]
100040cc:	8b 45 08             	mov    eax,DWORD PTR [ebp+0x8]
100040cf:	8b 50 4c             	mov    edx,DWORD PTR [eax+0x4c]
100040d2:	8b 45 f0             	mov    eax,DWORD PTR [ebp-0x10]
100040d5:	01 c2                	add    edx,eax
100040d7:	8a 01                	mov    al,BYTE PTR [ecx]
100040d9:	88 02                	mov    BYTE PTR [edx],al
100040db:	ff 45 f0             	inc    DWORD PTR [ebp-0x10]
100040de:	8b 45 f0             	mov    eax,DWORD PTR [ebp-0x10]
100040e1:	3b 45 f4             	cmp    eax,DWORD PTR [ebp-0xc]
100040e4:	7e dd                	jle    100040c3 <Window_set_title+0x84>
100040e6:	8b 45 08             	mov    eax,DWORD PTR [ebp+0x8]
100040e9:	8b 40 0c             	mov    eax,DWORD PTR [eax+0xc]
100040ec:	0f b7 c0             	movzx  eax,ax
100040ef:	83 e0 01             	and    eax,0x1
100040f2:	85 c0                	test   eax,eax
100040f4:	74 29                	je     1000411f <Window_set_title+0xe0>
100040f6:	8b 45 08             	mov    eax,DWORD PTR [ebp+0x8]
100040f9:	8b 40 08             	mov    eax,DWORD PTR [eax+0x8]
100040fc:	98                   	cwde   
100040fd:	8d 50 ff             	lea    edx,[eax-0x1]
10004100:	8b 45 08             	mov    eax,DWORD PTR [ebp+0x8]
10004103:	66 8b 40 0a          	mov    ax,WORD PTR [eax+0xa]
10004107:	98                   	cwde   
10004108:	48                   	dec    eax
10004109:	83 ec 0c             	sub    esp,0xc
1000410c:	52                   	push   edx
1000410d:	50                   	push   eax
1000410e:	6a 00                	push   0x0
10004110:	6a 00                	push   0x0
10004112:	ff 75 08             	push   DWORD PTR [ebp+0x8]
10004115:	e8 fc ff ff ff       	call   10004116 <Window_set_title+0xd7>	10004116: R_386_PC32	Window_invalidate
1000411a:	83 c4 20             	add    esp,0x20
1000411d:	eb 11                	jmp    10004130 <Window_set_title+0xf1>
1000411f:	83 ec 0c             	sub    esp,0xc
10004122:	ff 75 08             	push   DWORD PTR [ebp+0x8]
10004125:	e8 fc ff ff ff       	call   10004126 <Window_set_title+0xe7>	10004126: R_386_PC32	Window_update_title
1000412a:	83 c4 10             	add    esp,0x10
1000412d:	eb 01                	jmp    10004130 <Window_set_title+0xf1>
1000412f:	90                   	nop
10004130:	c9                   	leave  
10004131:	c3                   	ret    
10004132:	66 90                	xchg   ax,ax
10004134:	66 90                	xchg   ax,ax
10004136:	66 90                	xchg   ax,ax
10004138:	66 90                	xchg   ax,ax
1000413a:	66 90                	xchg   ax,ax
1000413c:	66 90                	xchg   ax,ax
1000413e:	66 90                	xchg   ax,ax

10004140 <TERMINAL_KEYBUFFER_IN_SIZE>:
10004140:	96 00 00 00                                         ....

10004144 <TERMINAL_KEYBUFFER_OUT_SIZE>:
10004144:	2c 01 00 00 43 3a 2f 42 61 6e 61 6e 61 2f 43 75     ,...C:/Banana/Cu
10004154:	72 73 6f 72 73 2f 53 54 41 4e 44 41 52 44 2e 43     rsors/STANDARD.C
10004164:	55 52 00 4e 52 4d 4c 00 57 41 49 54 00 54 4c 44     UR.NRML.WAIT.TLD
10004174:	52 00 54 45 58 54 00 56 45 52 54 00 48 4f 52 5a     R.TEXT.VERT.HORZ
10004184:	00 48 41 4e 44 00 4d 6f 75 73 65 20 64 6f 77 6e     .HAND.Mouse down
10004194:	2e 00 4d 6f 75 73 65 20 75 70 2e 00 52 65 73 69     ..Mouse up..Resi
100041a4:	7a 69 6e 67 2e 2e 2e 00 59 6f 75 20 63 6c 69 63     zing....You clic
100041b4:	6b 65 64 20 74 68 65 20 70 61 6e 69 63 20 62 75     ked the panic bu
100041c4:	74 74 6f 6e 21 00 43 61 75 73 65 20 61 20 70 61     tton!.Cause a pa
100041d4:	6e 69 63 21 00 00 00 00 00 00 00 00 00 00 ff 00     nic!............
100041e4:	00 00 ff 00 00 00 ff 00 00 00 ff 00 00 ff 00 00     ................
100041f4:	00 ff 00 00 00 ff 00 00 00 ff 00 00 ff 00 00 00     ................
10004204:	ff 00 00 00 ff 00 00 00 ff 00 00 00 00 ff ff 00     ................
10004214:	ff 00 ff 00 ff ff 00 00 ff ff ff 00 00 00 00 00     ................
10004224:	aa 00 00 00 00 aa 00 00 aa aa 00 00 00 00 aa 00     ................
10004234:	aa 00 aa 00 2a aa d4 00 aa aa aa 00 55 55 55 00     ....*.......UUU.
10004244:	ff 55 55 00 55 ff 55 00 ff ff 55 00 55 55 ff 00     .UU.U.U...U.UU..
10004254:	ff 55 ff 00 55 ff ff 00 ff ff ff 00 43 3a 2f 42     .U..U.......C:/B
10004264:	61 6e 61 6e 61 2f 57 61 6c 6c 70 61 70 65 72 73     anana/Wallpapers
10004274:	2f 64 65 66 61 75 6c 74 2e 74 67 61 00              /default.tga.
