Archive member included to satisfy reference by file (symbol)

/cygdrive/d/Users/Alex/Desktop/Toolchain/Output/bin/../lib/gcc/i386-banana/8.1.0/libgcc.a(_divdi3.o)
                              acpica/osl.32 (__divdi3)
/cygdrive/d/Users/Alex/Desktop/Toolchain/Output/bin/../lib/gcc/i386-banana/8.1.0/libgcc.a(_moddi3.o)
                              acpica/osl.32 (__moddi3)
/cygdrive/d/Users/Alex/Desktop/Toolchain/Output/bin/../lib/gcc/i386-banana/8.1.0/libgcc.a(_udivdi3.o)
                              acpica/utmath.32 (__udivdi3)
/cygdrive/d/Users/Alex/Desktop/Toolchain/Output/bin/../lib/gcc/i386-banana/8.1.0/libgcc.a(_umoddi3.o)
                              acpica/utmath.32 (__umoddi3)
D:/Users/Alex/Desktop/Banana/kernel/libk/libm32.a(s_fabs.c.o)
                              hal/libresample/samplerate.32 (fabs)
D:/Users/Alex/Desktop/Banana/kernel/libk/libm32.a(s_lrint.S.o)
                              hal/libresample/samplerate.32 (lrint)
D:/Users/Alex/Desktop/Banana/kernel/libk/libm32.a(s_lrintf.S.o)
                              hal/sound/sndhw.32 (lrintf)

Allocating common symbols
Common symbol       size              file

AcpiGbl_StateCache  0x4               acpica/utglobal.32
AcpiGbl_OwnerIdMask
                    0x200             acpica/utglobal.32
AcpiGbl_StepToNextCall
                    0x1               acpica/utglobal.32
AcpiGbl_RootTableList
                    0x10              acpica/utglobal.32
AcpiGbl_FadtGpeDevice
                    0x4               acpica/utglobal.32
AcpiGbl_GpeXruptListHead
                    0x4               acpica/utglobal.32
AcpiGbl_GlobalLockHandle
                    0x2               acpica/utglobal.32
AcpiGbl_RootNodeStruct
                    0x1c              acpica/utglobal.32
AcpiGbl_FACS        0x4               acpica/utglobal.32
AcpiGbl_AllGpesInitialized
                    0x1               acpica/utglobal.32
AcpiGbl_GlobalLockMutex
                    0x4               acpica/utglobal.32
AcpiGbl_IntegerByteWidth
                    0x1               acpica/utglobal.32
AcpiGbl_Pm1EnableRegisterSave
                    0x2               acpica/utglobal.32
AcpiGbl_NsLookupCount
                    0x4               acpica/utglobal.32
AcpiCurrentGpeCount
                    0x4               acpica/utglobal.32
AcpiGbl_IntegerBitWidth
                    0x1               acpica/utglobal.32
AcpiGbl_NamespaceCache
                    0x4               acpica/utglobal.32
AcpiGbl_TableHandler
                    0x4               acpica/utglobal.32
AcpiGbl_HardwareLock
                    0x4               acpica/utglobal.32
AcpiGbl_FixedEventHandlers
                    0x28              acpica/utglobal.32
AcpiSciCount        0x4               acpica/utglobal.32
AcpiGbl_DSDT        0x4               acpica/utglobal.32
AcpiGbl_GlobalNotify
                    0x10              acpica/utglobal.32
AcpiGbl_GlobalLockSemaphore
                    0x4               acpica/utglobal.32
AcpiGbl_SystemAwakeAndRunning
                    0x1               acpica/utglobal.32
AcpiGbl_InterfaceHandler
                    0x4               acpica/utglobal.32
AcpiGbl_EventsInitialized
                    0x1               acpica/utglobal.32
AcpiGbl_SupportedInterfaces
                    0x4               acpica/utglobal.32
AcpiGbl_GpeLock     0x4               acpica/utglobal.32
AcpiGbl_SleepTypeB  0x1               acpica/utglobal.32
AcpiGbl_InitHandler
                    0x4               acpica/utglobal.32
AcpiGbl_GlobalLockAcquired
                    0x1               acpica/utglobal.32
AcpiGbl_XPm1bEnable
                    0xc               acpica/utglobal.32
AcpiGbl_OriginalDsdtHeader
                    0x24              acpica/utglobal.32
AcpiGbl_ReferenceCountLock
                    0x4               acpica/utglobal.32
AcpiGpeCount        0x4               acpica/utglobal.32
AcpiGbl_TableHandlerContext
                    0x4               acpica/utglobal.32
AcpiGbl_XPm1aStatus
                    0xc               acpica/utglobal.32
AcpiGbl_OriginalMode
                    0x4               acpica/utglobal.32
AcpiGbl_CmSingleStep
                    0x1               acpica/utglobal.32
AcpiGbl_GlobalEventHandlerContext
                    0x4               acpica/utglobal.32
AcpiGbl_PsFindCount
                    0x4               acpica/utglobal.32
AcpiFixedEventCount
                    0x14              acpica/utglobal.32
AcpiGbl_AcpiHardwarePresent
                    0x1               acpica/utglobal.32
AcpiGbl_MutexInfo   0x60              acpica/utglobal.32
AcpiGbl_RootNode    0x4               acpica/utglobal.32
AcpiGbl_AddressRangeList
                    0x8               acpica/utglobal.32
AcpiGbl_FADT        0x114             acpica/utglobal.32
AcpiGbl_IntegerNybbleWidth
                    0x1               acpica/utglobal.32
AcpiGbl_XPm1aEnable
                    0xc               acpica/utglobal.32
AcpiGbl_OperandCache
                    0x4               acpica/utglobal.32
AcpiGbl_SciHandlerList
                    0x4               acpica/utglobal.32
AcpiGbl_OriginalDbgLayer
                    0x4               acpica/utglobal.32
AcpiGbl_PsNodeExtCache
                    0x4               acpica/utglobal.32
AcpiGbl_GlobalLockPendingLock
                    0x4               acpica/utglobal.32
AcpiGbl_DebuggerConfiguration
                    0x1               acpica/utglobal.32
AcpiGbl_OriginalDbgLevel
                    0x4               acpica/utglobal.32
AcpiGbl_GlobalLockPending
                    0x1               acpica/utglobal.32
AcpiGbl_PsNodeCache
                    0x4               acpica/utglobal.32
AcpiGbl_SleepTypeA  0x1               acpica/utglobal.32
AcpiGbl_GpeFadtBlocks
                    0x8               acpica/utglobal.32
AcpiMethodCount     0x4               acpica/utglobal.32
AcpiGbl_ExceptionHandler
                    0x4               acpica/utglobal.32
AcpiGbl_NamespaceRwLock
                    0xc               acpica/utglobal.32
AcpiGbl_GlobalEventHandler
                    0x4               acpica/utglobal.32
AcpiGbl_CurrentWalkList
                    0x4               acpica/utglobal.32
AcpiGbl_OsiMutex    0x4               acpica/utglobal.32
AcpiGbl_GlobalLockPresent
                    0x1               acpica/utglobal.32
AcpiGbl_NextOwnerIdOffset
                    0x1               acpica/utglobal.32
AcpiGbl_LastOwnerIdIndex
                    0x1               acpica/utglobal.32
AcpiGbl_XPm1bStatus
                    0xc               acpica/utglobal.32

Discarded input sections

 .comment       0x0000000000000000       0x12 /cygdrive/d/Users/Alex/Desktop/Toolchain/Output/bin/../lib/gcc/i386-banana/8.1.0/crtbegin.o
 .comment       0x0000000000000000       0x12 acpica/dsargs.32
 .comment       0x0000000000000000       0x12 acpica/dscontrol.32
 .comment       0x0000000000000000       0x12 acpica/dsdebug.32
 .comment       0x0000000000000000       0x12 acpica/dsfield.32
 .comment       0x0000000000000000       0x12 acpica/dsinit.32
 .comment       0x0000000000000000       0x12 acpica/dsmethod.32
 .comment       0x0000000000000000       0x12 acpica/dsmthdat.32
 .comment       0x0000000000000000       0x12 acpica/dsobject.32
 .comment       0x0000000000000000       0x12 acpica/dsopcode.32
 .comment       0x0000000000000000       0x12 acpica/dspkginit.32
 .comment       0x0000000000000000       0x12 acpica/dsutils.32
 .comment       0x0000000000000000       0x12 acpica/dswexec.32
 .comment       0x0000000000000000       0x12 acpica/dswload.32
 .comment       0x0000000000000000       0x12 acpica/dswload2.32
 .comment       0x0000000000000000       0x12 acpica/dswscope.32
 .comment       0x0000000000000000       0x12 acpica/dswstate.32
 .comment       0x0000000000000000       0x12 acpica/evevent.32
 .comment       0x0000000000000000       0x12 acpica/evglock.32
 .comment       0x0000000000000000       0x12 acpica/evgpe.32
 .comment       0x0000000000000000       0x12 acpica/evgpeblk.32
 .comment       0x0000000000000000       0x12 acpica/evgpeinit.32
 .comment       0x0000000000000000       0x12 acpica/evgpeutil.32
 .comment       0x0000000000000000       0x12 acpica/evhandler.32
 .comment       0x0000000000000000       0x12 acpica/evmisc.32
 .comment       0x0000000000000000       0x12 acpica/evregion.32
 .comment       0x0000000000000000       0x12 acpica/evrgnini.32
 .comment       0x0000000000000000       0x12 acpica/evsci.32
 .comment       0x0000000000000000       0x12 acpica/evxface.32
 .comment       0x0000000000000000       0x12 acpica/evxfevnt.32
 .comment       0x0000000000000000       0x12 acpica/evxfgpe.32
 .comment       0x0000000000000000       0x12 acpica/evxfregn.32
 .comment       0x0000000000000000       0x12 acpica/exconcat.32
 .comment       0x0000000000000000       0x12 acpica/exconfig.32
 .comment       0x0000000000000000       0x12 acpica/exconvrt.32
 .comment       0x0000000000000000       0x12 acpica/excreate.32
 .comment       0x0000000000000000       0x12 acpica/exdebug.32
 .comment       0x0000000000000000       0x12 acpica/exdump.32
 .comment       0x0000000000000000       0x12 acpica/exfield.32
 .comment       0x0000000000000000       0x12 acpica/exfldio.32
 .comment       0x0000000000000000       0x12 acpica/exmisc.32
 .comment       0x0000000000000000       0x12 acpica/exmutex.32
 .comment       0x0000000000000000       0x12 acpica/exnames.32
 .comment       0x0000000000000000       0x12 acpica/exoparg1.32
 .comment       0x0000000000000000       0x12 acpica/exoparg2.32
 .comment       0x0000000000000000       0x12 acpica/exoparg3.32
 .comment       0x0000000000000000       0x12 acpica/exoparg6.32
 .comment       0x0000000000000000       0x12 acpica/exprep.32
 .comment       0x0000000000000000       0x12 acpica/exregion.32
 .comment       0x0000000000000000       0x12 acpica/exresnte.32
 .comment       0x0000000000000000       0x12 acpica/exresolv.32
 .comment       0x0000000000000000       0x12 acpica/exresop.32
 .comment       0x0000000000000000       0x12 acpica/exserial.32
 .comment       0x0000000000000000       0x12 acpica/exstore.32
 .comment       0x0000000000000000       0x12 acpica/exstoren.32
 .comment       0x0000000000000000       0x12 acpica/exstorob.32
 .comment       0x0000000000000000       0x12 acpica/exsystem.32
 .comment       0x0000000000000000       0x12 acpica/extrace.32
 .comment       0x0000000000000000       0x12 acpica/exutils.32
 .comment       0x0000000000000000       0x12 acpica/hwacpi.32
 .comment       0x0000000000000000       0x12 acpica/hwesleep.32
 .comment       0x0000000000000000       0x12 acpica/hwgpe.32
 .comment       0x0000000000000000       0x12 acpica/hwpci.32
 .comment       0x0000000000000000       0x12 acpica/hwregs.32
 .comment       0x0000000000000000       0x12 acpica/hwsleep.32
 .comment       0x0000000000000000       0x12 acpica/hwtimer.32
 .comment       0x0000000000000000       0x12 acpica/hwvalid.32
 .comment       0x0000000000000000       0x12 acpica/hwxface.32
 .comment       0x0000000000000000       0x12 acpica/hwxfsleep.32
 .comment       0x0000000000000000       0x12 acpica/nsaccess.32
 .comment       0x0000000000000000       0x12 acpica/nsalloc.32
 .comment       0x0000000000000000       0x12 acpica/nsarguments.32
 .comment       0x0000000000000000       0x12 acpica/nsconvert.32
 .comment       0x0000000000000000       0x12 acpica/nsdump.32
 .comment       0x0000000000000000       0x12 acpica/nsdumpdv.32
 .comment       0x0000000000000000       0x12 acpica/nseval.32
 .comment       0x0000000000000000       0x12 acpica/nsinit.32
 .comment       0x0000000000000000       0x12 acpica/nsload.32
 .comment       0x0000000000000000       0x12 acpica/nsnames.32
 .comment       0x0000000000000000       0x12 acpica/nsobject.32
 .comment       0x0000000000000000       0x12 acpica/nsparse.32
 .comment       0x0000000000000000       0x12 acpica/nspredef.32
 .comment       0x0000000000000000       0x12 acpica/nsprepkg.32
 .comment       0x0000000000000000       0x12 acpica/nsrepair.32
 .comment       0x0000000000000000       0x12 acpica/nsrepair2.32
 .comment       0x0000000000000000       0x12 acpica/nssearch.32
 .comment       0x0000000000000000       0x12 acpica/nsutils.32
 .comment       0x0000000000000000       0x12 acpica/nswalk.32
 .comment       0x0000000000000000       0x12 acpica/nsxfeval.32
 .comment       0x0000000000000000       0x12 acpica/nsxfname.32
 .comment       0x0000000000000000       0x12 acpica/nsxfobj.32
 .comment       0x0000000000000000       0x12 acpica/psargs.32
 .comment       0x0000000000000000       0x12 acpica/psloop.32
 .comment       0x0000000000000000       0x12 acpica/psobject.32
 .comment       0x0000000000000000       0x12 acpica/psopcode.32
 .comment       0x0000000000000000       0x12 acpica/psopinfo.32
 .comment       0x0000000000000000       0x12 acpica/psparse.32
 .comment       0x0000000000000000       0x12 acpica/psscope.32
 .comment       0x0000000000000000       0x12 acpica/pstree.32
 .comment       0x0000000000000000       0x12 acpica/psutils.32
 .comment       0x0000000000000000       0x12 acpica/pswalk.32
 .comment       0x0000000000000000       0x12 acpica/psxface.32
 .comment       0x0000000000000000       0x12 acpica/rsaddr.32
 .comment       0x0000000000000000       0x12 acpica/rscalc.32
 .comment       0x0000000000000000       0x12 acpica/rscreate.32
 .comment       0x0000000000000000       0x12 acpica/rsdump.32
 .comment       0x0000000000000000       0x12 acpica/rsdumpinfo.32
 .comment       0x0000000000000000       0x12 acpica/rsinfo.32
 .comment       0x0000000000000000       0x12 acpica/rsio.32
 .comment       0x0000000000000000       0x12 acpica/rsirq.32
 .comment       0x0000000000000000       0x12 acpica/rslist.32
 .comment       0x0000000000000000       0x12 acpica/rsmemory.32
 .comment       0x0000000000000000       0x12 acpica/rsmisc.32
 .comment       0x0000000000000000       0x12 acpica/rsserial.32
 .comment       0x0000000000000000       0x12 acpica/rsutils.32
 .comment       0x0000000000000000       0x12 acpica/rsxface.32
 .comment       0x0000000000000000       0x12 acpica/tbdata.32
 .comment       0x0000000000000000       0x12 acpica/tbfadt.32
 .comment       0x0000000000000000       0x12 acpica/tbfind.32
 .comment       0x0000000000000000       0x12 acpica/tbinstal.32
 .comment       0x0000000000000000       0x12 acpica/tbprint.32
 .comment       0x0000000000000000       0x12 acpica/tbutils.32
 .comment       0x0000000000000000       0x12 acpica/tbxface.32
 .comment       0x0000000000000000       0x12 acpica/tbxfload.32
 .comment       0x0000000000000000       0x12 acpica/tbxfroot.32
 .comment       0x0000000000000000       0x12 acpica/utaddress.32
 .comment       0x0000000000000000       0x12 acpica/utalloc.32
 .comment       0x0000000000000000       0x12 acpica/utascii.32
 .comment       0x0000000000000000       0x12 acpica/utbuffer.32
 .comment       0x0000000000000000       0x12 acpica/utcache.32
 .comment       0x0000000000000000       0x12 acpica/utclib.32
 .comment       0x0000000000000000       0x12 acpica/utcopy.32
 .comment       0x0000000000000000       0x12 acpica/utdebug.32
 .comment       0x0000000000000000       0x12 acpica/utdecode.32
 .comment       0x0000000000000000       0x12 acpica/utdelete.32
 .comment       0x0000000000000000       0x12 acpica/uterror.32
 .comment       0x0000000000000000       0x12 acpica/uteval.32
 .comment       0x0000000000000000       0x12 acpica/utexcep.32
 .comment       0x0000000000000000       0x12 acpica/utglobal.32
 .comment       0x0000000000000000       0x12 acpica/uthex.32
 .comment       0x0000000000000000       0x12 acpica/utids.32
 .comment       0x0000000000000000       0x12 acpica/utinit.32
 .comment       0x0000000000000000       0x12 acpica/utlock.32
 .comment       0x0000000000000000       0x12 acpica/utmath.32
 .comment       0x0000000000000000       0x12 acpica/utmisc.32
 .comment       0x0000000000000000       0x12 acpica/utmutex.32
 .comment       0x0000000000000000       0x12 acpica/utnonansi.32
 .comment       0x0000000000000000       0x12 acpica/utobject.32
 .comment       0x0000000000000000       0x12 acpica/utosi.32
 .comment       0x0000000000000000       0x12 acpica/utownerid.32
 .comment       0x0000000000000000       0x12 acpica/utpredef.32
 .comment       0x0000000000000000       0x12 acpica/utprint.32
 .comment       0x0000000000000000       0x12 acpica/utresdecode.32
 .comment       0x0000000000000000       0x12 acpica/utresrc.32
 .comment       0x0000000000000000       0x12 acpica/utstate.32
 .comment       0x0000000000000000       0x12 acpica/utstring.32
 .comment       0x0000000000000000       0x12 acpica/utstrsuppt.32
 .comment       0x0000000000000000       0x12 acpica/utstrtoul64.32
 .comment       0x0000000000000000       0x12 acpica/uttrack.32
 .comment       0x0000000000000000       0x12 acpica/utuuid.32
 .comment       0x0000000000000000       0x12 acpica/utxface.32
 .comment       0x0000000000000000       0x12 acpica/utxferror.32
 .comment       0x0000000000000000       0x12 acpica/utxfinit.32
 .comment       0x0000000000000000       0x12 acpica/utxfmutex.32
 .comment       0x0000000000000000       0x12 core/malloc.32
 .comment       0x0000000000000000       0x12 libk/string.32
 .comment       0x0000000000000000       0x12 fs/fat/diskio.32
 .comment       0x0000000000000000       0x12 fs/fat/ff.32
 .comment       0x0000000000000000       0x12 fs/fat/ffsystem.32
 .comment       0x0000000000000000       0x12 fs/fat/ffunicode.32
 .comment       0x0000000000000000       0x12 hal/libresample/samplerate.32
 .comment       0x0000000000000000       0x12 hal/libresample/src_linear.32
 .comment       0x0000000000000000       0x12 hal/libresample/src_sinc.32
 .comment       0x0000000000000000       0x12 hal/libresample/src_zoh.32
 .comment       0x0000000000000000       0x12 acpica/osl.32
 .group         0x0000000000000000        0xc core/computer.32
 .group         0x0000000000000000       0x14 core/computer.32
 .comment       0x0000000000000000       0x12 core/computer.32
 .comment       0x0000000000000000       0x12 core/elf.32
 .comment       0x0000000000000000       0x12 core/gdt.32
 .group         0x0000000000000000        0xc core/idle.32
 .comment       0x0000000000000000       0x12 core/idle.32
 .comment       0x0000000000000000       0x12 core/idt.32
 .comment       0x0000000000000000       0x12 core/kconsole.32
 .comment       0x0000000000000000       0x12 core/kheap.32
 .comment       0x0000000000000000       0x12 core/main.32
 .comment       0x0000000000000000       0x12 core/physmgr.32
 .group         0x0000000000000000        0xc core/pipe.32
 .comment       0x0000000000000000       0x12 core/pipe.32
 .group         0x0000000000000000        0x8 core/prcssthr.32
 .group         0x0000000000000000        0xc core/prcssthr.32
 .group         0x0000000000000000        0xc core/prcssthr.32
 .group         0x0000000000000000        0x8 core/prcssthr.32
 .group         0x0000000000000000        0xc core/prcssthr.32
 .group         0x0000000000000000        0x8 core/prcssthr.32
 .group         0x0000000000000000        0x8 core/prcssthr.32
 .group         0x0000000000000000        0x8 core/prcssthr.32
 .comment       0x0000000000000000       0x12 core/prcssthr.32
 .comment       0x0000000000000000       0x12 core/syscalls.32
 .group         0x0000000000000000        0xc core/terminal.32
 .comment       0x0000000000000000       0x12 core/terminal.32
 .comment       0x0000000000000000       0x12 core/tss.32
 .group         0x0000000000000000        0xc core/unixfile.32
 .group         0x0000000000000000        0xc core/unixfile.32
 .group         0x0000000000000000        0x8 core/unixfile.32
 .group         0x0000000000000000        0xc core/unixfile.32
 .group         0x0000000000000000        0x8 core/unixfile.32
 .group         0x0000000000000000        0xc core/unixfile.32
 .group         0x0000000000000000        0xc core/unixfile.32
 .group         0x0000000000000000        0x8 core/unixfile.32
 .comment       0x0000000000000000       0x12 core/unixfile.32
 .comment       0x0000000000000000       0x12 core/virtmgr.32
 .comment       0x0000000000000000       0x12 coreobjs/c++.32
 .comment       0x0000000000000000       0x12 debugger/debug.32
 .group         0x0000000000000000        0xc fs/vfs.32
 .group         0x0000000000000000        0xc fs/vfs.32
 .group         0x0000000000000000        0xc fs/vfs.32
 .comment       0x0000000000000000       0x12 fs/vfs.32
 .group         0x0000000000000000        0xc hal/bus.32
 .comment       0x0000000000000000       0x12 hal/bus.32
 .group         0x0000000000000000        0xc hal/buzzer.32
 .comment       0x0000000000000000       0x12 hal/buzzer.32
 .group         0x0000000000000000        0xc hal/clock.32
 .comment       0x0000000000000000       0x12 hal/clock.32
 .group         0x0000000000000000        0xc hal/device.32
 .group         0x0000000000000000        0xc hal/device.32
 .group         0x0000000000000000        0xc hal/device.32
 .group         0x0000000000000000       0x14 hal/device.32
 .group         0x0000000000000000        0xc hal/device.32
 .comment       0x0000000000000000       0x12 hal/device.32
 .group         0x0000000000000000        0xc hal/diskctrl.32
 .comment       0x0000000000000000       0x12 hal/diskctrl.32
 .group         0x0000000000000000        0xc hal/diskphys.32
 .comment       0x0000000000000000       0x12 hal/diskphys.32
 .group         0x0000000000000000        0xc hal/fpu.32
 .comment       0x0000000000000000       0x12 hal/fpu.32
 .group         0x0000000000000000        0xc hal/intctrl.32
 .comment       0x0000000000000000       0x12 hal/intctrl.32
 .group         0x0000000000000000        0xc hal/keybrd.32
 .comment       0x0000000000000000       0x12 hal/keybrd.32
 .group         0x0000000000000000        0xc hal/logidisk.32
 .comment       0x0000000000000000       0x12 hal/logidisk.32
 .comment       0x0000000000000000       0x12 hal/partition.32
 .group         0x0000000000000000        0x8 hal/timer.32
 .group         0x0000000000000000        0x8 hal/timer.32
 .group         0x0000000000000000        0xc hal/timer.32
 .group         0x0000000000000000        0xc hal/timer.32
 .group         0x0000000000000000        0x8 hal/timer.32
 .group         0x0000000000000000        0xc hal/timer.32
 .text._ZN10LinkedListIV18ThreadControlBlockE15getFirstElementEv
                0x0000000000000000        0xa hal/timer.32
 .text._ZN10LinkedListIV18ThreadControlBlockE7isEmptyEv
                0x0000000000000000       0x1e hal/timer.32
 .text._ZN10LinkedListIV18ThreadControlBlockE11removeFirstEv
                0x0000000000000000       0xa2 hal/timer.32
 .text._ZN10LinkedListIV18ThreadControlBlockE10addElementEPS1_
                0x0000000000000000      0x117 hal/timer.32
 .text._ZN10LinkedListIV18ThreadControlBlockE7getNextEPS1_
                0x0000000000000000        0xb hal/timer.32
 .comment       0x0000000000000000       0x12 hal/timer.32
 .group         0x0000000000000000        0xc hal/vcache.32
 .comment       0x0000000000000000       0x12 hal/vcache.32
 .group         0x0000000000000000        0xc hw/acpi.32
 .group         0x0000000000000000       0x14 hw/acpi.32
 .comment       0x0000000000000000       0x12 hw/acpi.32
 .group         0x0000000000000000        0xc hw/cpu.32
 .group         0x0000000000000000       0x14 hw/cpu.32
 .comment       0x0000000000000000       0x12 hw/cpu.32
 .comment       0x0000000000000000       0x12 hw/ports.32
 .comment       0x0000000000000000       0x12 registry/registry.32
 .comment       0x0000000000000000       0x12 syscalls/sc_exit.32
 .comment       0x0000000000000000       0x12 syscalls/sc_sbrk.32
 .comment       0x0000000000000000       0x12 syscalls/sc_yield.32
 .comment       0x0000000000000000       0x12 vm86/vm8086.32
 .group         0x0000000000000000        0xc fs/fat/vfslink.32
 .comment       0x0000000000000000       0x12 fs/fat/vfslink.32
 .group         0x0000000000000000        0xc fs/iso9660/vfslink.32
 .comment       0x0000000000000000       0x12 fs/iso9660/vfslink.32
 .comment       0x0000000000000000       0x12 hal/sound/sndchannel.32
 .group         0x0000000000000000        0xc hal/sound/sndhw.32
 .comment       0x0000000000000000       0x12 hal/sound/sndhw.32
 .group         0x0000000000000000        0xc hw/audio/sb16.32
 .group         0x0000000000000000       0x14 hw/audio/sb16.32
 .comment       0x0000000000000000       0x12 hw/audio/sb16.32
 .group         0x0000000000000000        0xc hw/bus/isa.32
 .group         0x0000000000000000       0x14 hw/bus/isa.32
 .comment       0x0000000000000000       0x12 hw/bus/isa.32
 .group         0x0000000000000000        0xc hw/bus/pci.32
 .group         0x0000000000000000       0x14 hw/bus/pci.32
 .comment       0x0000000000000000       0x12 hw/bus/pci.32
 .group         0x0000000000000000        0xc hw/bus/ps2.32
 .group         0x0000000000000000       0x14 hw/bus/ps2.32
 .comment       0x0000000000000000       0x12 hw/bus/ps2.32
 .group         0x0000000000000000        0xc hw/bus/ps2port.32
 .group         0x0000000000000000       0x14 hw/bus/ps2port.32
 .comment       0x0000000000000000       0x12 hw/bus/ps2port.32
 .group         0x0000000000000000        0xc hw/buzzer/pcspk.32
 .group         0x0000000000000000       0x14 hw/buzzer/pcspk.32
 .comment       0x0000000000000000       0x12 hw/buzzer/pcspk.32
 .group         0x0000000000000000        0xc hw/clock/rtc.32
 .comment       0x0000000000000000       0x12 hw/clock/rtc.32
 .group         0x0000000000000000        0xc hw/diskctrl/ide.32
 .group         0x0000000000000000       0x14 hw/diskctrl/ide.32
 .comment       0x0000000000000000       0x12 hw/diskctrl/ide.32
 .group         0x0000000000000000        0xc hw/diskphys/ata.32
 .group         0x0000000000000000       0x14 hw/diskphys/ata.32
 .comment       0x0000000000000000       0x12 hw/diskphys/ata.32
 .group         0x0000000000000000        0xc hw/diskphys/atapi.32
 .group         0x0000000000000000       0x14 hw/diskphys/atapi.32
 .comment       0x0000000000000000       0x12 hw/diskphys/atapi.32
 .group         0x0000000000000000        0xc hw/dma/isadma.32
 .group         0x0000000000000000       0x14 hw/dma/isadma.32
 .comment       0x0000000000000000       0x12 hw/dma/isadma.32
 .group         0x0000000000000000        0xc hw/fpu/avx.32
 .group         0x0000000000000000       0x14 hw/fpu/avx.32
 .comment       0x0000000000000000       0x12 hw/fpu/avx.32
 .group         0x0000000000000000        0xc hw/fpu/mmx.32
 .group         0x0000000000000000       0x14 hw/fpu/mmx.32
 .comment       0x0000000000000000       0x12 hw/fpu/mmx.32
 .group         0x0000000000000000        0xc hw/fpu/sse.32
 .group         0x0000000000000000       0x14 hw/fpu/sse.32
 .comment       0x0000000000000000       0x12 hw/fpu/sse.32
 .group         0x0000000000000000        0xc hw/fpu/x87.32
 .group         0x0000000000000000       0x14 hw/fpu/x87.32
 .comment       0x0000000000000000       0x12 hw/fpu/x87.32
 .group         0x0000000000000000        0xc hw/intctrl/apic.32
 .group         0x0000000000000000       0x14 hw/intctrl/apic.32
 .group         0x0000000000000000        0xc hw/intctrl/apic.32
 .group         0x0000000000000000       0x14 hw/intctrl/apic.32
 .comment       0x0000000000000000       0x12 hw/intctrl/apic.32
 .group         0x0000000000000000        0xc hw/intctrl/pic.32
 .group         0x0000000000000000       0x14 hw/intctrl/pic.32
 .comment       0x0000000000000000       0x12 hw/intctrl/pic.32
 .group         0x0000000000000000        0xc hw/keybrd/ps2key.32
 .comment       0x0000000000000000       0x12 hw/keybrd/ps2key.32
 .group         0x0000000000000000        0xc hw/timer/apictimer.32
 .group         0x0000000000000000       0x14 hw/timer/apictimer.32
 .comment       0x0000000000000000       0x12 hw/timer/apictimer.32
 .group         0x0000000000000000        0xc hw/timer/pit.32
 .group         0x0000000000000000       0x14 hw/timer/pit.32
 .comment       0x0000000000000000       0x12 hw/timer/pit.32
 .comment       0x0000000000000000       0x12 /cygdrive/d/Users/Alex/Desktop/Toolchain/Output/bin/../lib/gcc/i386-banana/8.1.0/crtend.o
 .comment       0x0000000000000000       0x12 /cygdrive/d/Users/Alex/Desktop/Toolchain/Output/bin/../lib/gcc/i386-banana/8.1.0/libgcc.a(_divdi3.o)
 .comment       0x0000000000000000       0x12 /cygdrive/d/Users/Alex/Desktop/Toolchain/Output/bin/../lib/gcc/i386-banana/8.1.0/libgcc.a(_moddi3.o)
 .comment       0x0000000000000000       0x12 /cygdrive/d/Users/Alex/Desktop/Toolchain/Output/bin/../lib/gcc/i386-banana/8.1.0/libgcc.a(_udivdi3.o)
 .comment       0x0000000000000000       0x12 /cygdrive/d/Users/Alex/Desktop/Toolchain/Output/bin/../lib/gcc/i386-banana/8.1.0/libgcc.a(_umoddi3.o)
 .comment       0x0000000000000000       0x12 D:/Users/Alex/Desktop/Banana/kernel/libk/libm32.a(s_fabs.c.o)

Memory Configuration

Name             Origin             Length             Attributes
*default*        0x0000000000000000 0xffffffffffffffff

Linker script and memory map

LOAD D:/Users/Alex/Desktop/Banana/kernel/boot.32
LOAD crti.32
LOAD /cygdrive/d/Users/Alex/Desktop/Toolchain/Output/bin/../lib/gcc/i386-banana/8.1.0/crtbegin.o
LOAD D:/Users/Alex/Desktop/Banana/kernel/morenasm.32
LOAD acpica/dsargs.32
LOAD acpica/dscontrol.32
LOAD acpica/dsdebug.32
LOAD acpica/dsfield.32
LOAD acpica/dsinit.32
LOAD acpica/dsmethod.32
LOAD acpica/dsmthdat.32
LOAD acpica/dsobject.32
LOAD acpica/dsopcode.32
LOAD acpica/dspkginit.32
LOAD acpica/dsutils.32
LOAD acpica/dswexec.32
LOAD acpica/dswload.32
LOAD acpica/dswload2.32
LOAD acpica/dswscope.32
LOAD acpica/dswstate.32
LOAD acpica/evevent.32
LOAD acpica/evglock.32
LOAD acpica/evgpe.32
LOAD acpica/evgpeblk.32
LOAD acpica/evgpeinit.32
LOAD acpica/evgpeutil.32
LOAD acpica/evhandler.32
LOAD acpica/evmisc.32
LOAD acpica/evregion.32
LOAD acpica/evrgnini.32
LOAD acpica/evsci.32
LOAD acpica/evxface.32
LOAD acpica/evxfevnt.32
LOAD acpica/evxfgpe.32
LOAD acpica/evxfregn.32
LOAD acpica/exconcat.32
LOAD acpica/exconfig.32
LOAD acpica/exconvrt.32
LOAD acpica/excreate.32
LOAD acpica/exdebug.32
LOAD acpica/exdump.32
LOAD acpica/exfield.32
LOAD acpica/exfldio.32
LOAD acpica/exmisc.32
LOAD acpica/exmutex.32
LOAD acpica/exnames.32
LOAD acpica/exoparg1.32
LOAD acpica/exoparg2.32
LOAD acpica/exoparg3.32
LOAD acpica/exoparg6.32
LOAD acpica/exprep.32
LOAD acpica/exregion.32
LOAD acpica/exresnte.32
LOAD acpica/exresolv.32
LOAD acpica/exresop.32
LOAD acpica/exserial.32
LOAD acpica/exstore.32
LOAD acpica/exstoren.32
LOAD acpica/exstorob.32
LOAD acpica/exsystem.32
LOAD acpica/extrace.32
LOAD acpica/exutils.32
LOAD acpica/hwacpi.32
LOAD acpica/hwesleep.32
LOAD acpica/hwgpe.32
LOAD acpica/hwpci.32
LOAD acpica/hwregs.32
LOAD acpica/hwsleep.32
LOAD acpica/hwtimer.32
LOAD acpica/hwvalid.32
LOAD acpica/hwxface.32
LOAD acpica/hwxfsleep.32
LOAD acpica/nsaccess.32
LOAD acpica/nsalloc.32
LOAD acpica/nsarguments.32
LOAD acpica/nsconvert.32
LOAD acpica/nsdump.32
LOAD acpica/nsdumpdv.32
LOAD acpica/nseval.32
LOAD acpica/nsinit.32
LOAD acpica/nsload.32
LOAD acpica/nsnames.32
LOAD acpica/nsobject.32
LOAD acpica/nsparse.32
LOAD acpica/nspredef.32
LOAD acpica/nsprepkg.32
LOAD acpica/nsrepair.32
LOAD acpica/nsrepair2.32
LOAD acpica/nssearch.32
LOAD acpica/nsutils.32
LOAD acpica/nswalk.32
LOAD acpica/nsxfeval.32
LOAD acpica/nsxfname.32
LOAD acpica/nsxfobj.32
LOAD acpica/psargs.32
LOAD acpica/psloop.32
LOAD acpica/psobject.32
LOAD acpica/psopcode.32
LOAD acpica/psopinfo.32
LOAD acpica/psparse.32
LOAD acpica/psscope.32
LOAD acpica/pstree.32
LOAD acpica/psutils.32
LOAD acpica/pswalk.32
LOAD acpica/psxface.32
LOAD acpica/rsaddr.32
LOAD acpica/rscalc.32
LOAD acpica/rscreate.32
LOAD acpica/rsdump.32
LOAD acpica/rsdumpinfo.32
LOAD acpica/rsinfo.32
LOAD acpica/rsio.32
LOAD acpica/rsirq.32
LOAD acpica/rslist.32
LOAD acpica/rsmemory.32
LOAD acpica/rsmisc.32
LOAD acpica/rsserial.32
LOAD acpica/rsutils.32
LOAD acpica/rsxface.32
LOAD acpica/tbdata.32
LOAD acpica/tbfadt.32
LOAD acpica/tbfind.32
LOAD acpica/tbinstal.32
LOAD acpica/tbprint.32
LOAD acpica/tbutils.32
LOAD acpica/tbxface.32
LOAD acpica/tbxfload.32
LOAD acpica/tbxfroot.32
LOAD acpica/utaddress.32
LOAD acpica/utalloc.32
LOAD acpica/utascii.32
LOAD acpica/utbuffer.32
LOAD acpica/utcache.32
LOAD acpica/utclib.32
LOAD acpica/utcopy.32
LOAD acpica/utdebug.32
LOAD acpica/utdecode.32
LOAD acpica/utdelete.32
LOAD acpica/uterror.32
LOAD acpica/uteval.32
LOAD acpica/utexcep.32
LOAD acpica/utglobal.32
LOAD acpica/uthex.32
LOAD acpica/utids.32
LOAD acpica/utinit.32
LOAD acpica/utlock.32
LOAD acpica/utmath.32
LOAD acpica/utmisc.32
LOAD acpica/utmutex.32
LOAD acpica/utnonansi.32
LOAD acpica/utobject.32
LOAD acpica/utosi.32
LOAD acpica/utownerid.32
LOAD acpica/utpredef.32
LOAD acpica/utprint.32
LOAD acpica/utresdecode.32
LOAD acpica/utresrc.32
LOAD acpica/utstate.32
LOAD acpica/utstring.32
LOAD acpica/utstrsuppt.32
LOAD acpica/utstrtoul64.32
LOAD acpica/uttrack.32
LOAD acpica/utuuid.32
LOAD acpica/utxface.32
LOAD acpica/utxferror.32
LOAD acpica/utxfinit.32
LOAD acpica/utxfmutex.32
LOAD core/malloc.32
LOAD libk/string.32
LOAD fs/fat/diskio.32
LOAD fs/fat/ff.32
LOAD fs/fat/ffsystem.32
LOAD fs/fat/ffunicode.32
LOAD hal/libresample/samplerate.32
LOAD hal/libresample/src_linear.32
LOAD hal/libresample/src_sinc.32
LOAD hal/libresample/src_zoh.32
LOAD acpica/osl.32
LOAD core/computer.32
LOAD core/elf.32
LOAD core/gdt.32
LOAD core/idle.32
LOAD core/idt.32
LOAD core/kconsole.32
LOAD core/kheap.32
LOAD core/main.32
LOAD core/physmgr.32
LOAD core/pipe.32
LOAD core/prcssthr.32
LOAD core/syscalls.32
LOAD core/terminal.32
LOAD core/tss.32
LOAD core/unixfile.32
LOAD core/virtmgr.32
LOAD coreobjs/c++.32
LOAD debugger/debug.32
LOAD fs/vfs.32
LOAD hal/bus.32
LOAD hal/buzzer.32
LOAD hal/clock.32
LOAD hal/device.32
LOAD hal/diskctrl.32
LOAD hal/diskphys.32
LOAD hal/fpu.32
LOAD hal/intctrl.32
LOAD hal/keybrd.32
LOAD hal/logidisk.32
LOAD hal/partition.32
LOAD hal/timer.32
LOAD hal/vcache.32
LOAD hw/acpi.32
LOAD hw/cpu.32
LOAD hw/ports.32
LOAD registry/registry.32
LOAD syscalls/sc_exit.32
LOAD syscalls/sc_sbrk.32
LOAD syscalls/sc_yield.32
LOAD vm86/vm8086.32
LOAD fs/fat/vfslink.32
LOAD fs/iso9660/vfslink.32
LOAD hal/sound/sndchannel.32
LOAD hal/sound/sndhw.32
LOAD hw/audio/sb16.32
LOAD hw/bus/isa.32
LOAD hw/bus/pci.32
LOAD hw/bus/ps2.32
LOAD hw/bus/ps2port.32
LOAD hw/buzzer/pcspk.32
LOAD hw/clock/rtc.32
LOAD hw/diskctrl/ide.32
LOAD hw/diskphys/ata.32
LOAD hw/diskphys/atapi.32
LOAD hw/dma/isadma.32
LOAD hw/fpu/avx.32
LOAD hw/fpu/mmx.32
LOAD hw/fpu/sse.32
LOAD hw/fpu/x87.32
LOAD hw/intctrl/apic.32
LOAD hw/intctrl/pic.32
LOAD hw/keybrd/ps2key.32
LOAD hw/timer/apictimer.32
LOAD hw/timer/pit.32
LOAD hw/fpu/x86/avx.32
LOAD hw/fpu/x86/sse.32
LOAD hw/fpu/x86/x87.32
LOAD /cygdrive/d/Users/Alex/Desktop/Toolchain/Output/bin/../lib/gcc/i386-banana/8.1.0/crtend.o
LOAD crtn.32
LOAD /cygdrive/d/Users/Alex/Desktop/Toolchain/Output/bin/../lib/gcc/i386-banana/8.1.0/libgcc.a
LOAD D:/Users/Alex/Desktop/Banana/kernel/libk/libm32.a
                0x00000000c0000000                . = 0xc0000000

.text           0x00000000c0000000    0x60e88
 *(.text)
 .text          0x00000000c0000000       0x39 D:/Users/Alex/Desktop/Banana/kernel/boot.32
                0x00000000c000001e                callGlobalConstructors
 .text          0x00000000c0000039        0x0 crti.32
 *fill*         0x00000000c0000039        0x3 
 .text          0x00000000c000003c      0x101 /cygdrive/d/Users/Alex/Desktop/Toolchain/Output/bin/../lib/gcc/i386-banana/8.1.0/crtbegin.o
 *fill*         0x00000000c000013d        0x3 
 .text          0x00000000c0000140      0x443 D:/Users/Alex/Desktop/Banana/kernel/morenasm.32
                0x00000000c0000140                doTPAUSE
                0x00000000c000014a                hasLegacyFPU
                0x00000000c000016f                is486
                0x00000000c00001d2                goToVM86
                0x00000000c0000203                goToUsermode
                0x00000000c000022e                switchToThreadASMFirstTime
                0x00000000c000023c                switchToThreadASM
                0x00000000c00002d4                detectCPUID
                0x00000000c00002ea                asmQuickAcquireLock
                0x00000000c0000308                asmQuickReleaseLock
                0x00000000c0000314                asmAcquireLock
                0x00000000c0000335                asmReleaseLock
                0x00000000c0000348                loadGDT
                0x00000000c0000368                isr0
                0x00000000c0000378                isr1
                0x00000000c0000382                isr2
                0x00000000c000038c                isr3
                0x00000000c0000396                isr4
                0x00000000c00003a0                isr5
                0x00000000c00003aa                isr6
                0x00000000c00003b4                isr7
                0x00000000c00003be                isr8
                0x00000000c00003c6                isr9
                0x00000000c00003d0                isr10
                0x00000000c00003d8                isr11
                0x00000000c00003e0                isr12
                0x00000000c00003e8                isr13
                0x00000000c00003f0                isr14
                0x00000000c00003f8                isr15
                0x00000000c0000402                isr16
                0x00000000c000040c                isr17
                0x00000000c0000416                isr18
                0x00000000c0000420                isr96
                0x00000000c000042a                irq0
                0x00000000c0000434                irq1
                0x00000000c000043e                irq2
                0x00000000c0000448                irq3
                0x00000000c0000452                irq4
                0x00000000c000045c                irq5
                0x00000000c0000466                irq6
                0x00000000c0000470                irq7
                0x00000000c000047a                irq8
                0x00000000c0000484                irq9
                0x00000000c000048e                irq10
                0x00000000c0000498                irq11
                0x00000000c00004a2                irq12
                0x00000000c00004ac                irq13
                0x00000000c00004b6                irq14
                0x00000000c00004c0                irq15
                0x00000000c00004ca                irq16
                0x00000000c00004d4                irq17
                0x00000000c00004de                irq18
                0x00000000c00004e8                irq19
                0x00000000c00004f2                irq20
                0x00000000c00004fc                irq21
                0x00000000c0000506                irq22
                0x00000000c0000510                irq23
                0x00000000c000051a                int_common_stub
                0x00000000c000054a                syscall_common_stub
 .text          0x00000000c0000583      0x3da acpica/dsargs.32
                0x00000000c0000712                AcpiDsGetBufferFieldArguments
                0x00000000c0000771                AcpiDsGetBankFieldArguments
                0x00000000c00007d0                AcpiDsGetBufferArguments
                0x00000000c0000841                AcpiDsGetPackageArguments
                0x00000000c00008b2                AcpiDsGetRegionArguments
 .text          0x00000000c000095d      0x47a acpica/dscontrol.32
                0x00000000c000095f                AcpiDsExecBeginControlOp
                0x00000000c0000a8f                AcpiDsExecEndControlOp
 .text          0x00000000c0000dd7        0x2 acpica/dsdebug.32
                0x00000000c0000dd7                AcpiDsDumpMethodStack
 .text          0x00000000c0000dd9      0x9f6 acpica/dsfield.32
                0x00000000c0000dd9                AcpiDsCreateBufferField
                0x00000000c00012cf                AcpiDsCreateField
                0x00000000c00013d9                AcpiDsInitFieldObjects
                0x00000000c000157a                AcpiDsCreateBankField
                0x00000000c00016ae                AcpiDsCreateIndexField
 .text          0x00000000c00017cf      0x22d acpica/dsinit.32
                0x00000000c000194a                AcpiDsInitializeObjects
 .text          0x00000000c00019fc      0x9d7 acpica/dsmethod.32
                0x00000000c00019fc                AcpiDsAutoSerializeMethod
                0x00000000c0001b54                AcpiDsMethodError
                0x00000000c0001cb0                AcpiDsBeginMethodExecution
                0x00000000c0001f53                AcpiDsCallControlMethod
                0x00000000c0002150                AcpiDsRestartControlMethod
                0x00000000c00021ef                AcpiDsTerminateControlMethod
 .text          0x00000000c00023d3      0x743 acpica/dsmthdat.32
                0x00000000c00023d3                AcpiDsMethodDataInit
                0x00000000c00025bc                AcpiDsMethodDataDeleteAll
                0x00000000c0002689                AcpiDsMethodDataInitArgs
                0x00000000c0002700                AcpiDsMethodDataGetNode
                0x00000000c000283b                AcpiDsMethodDataGetValue
                0x00000000c00029ca                AcpiDsStoreObjectToLocal
 .text          0x00000000c0002b16      0x736 acpica/dsobject.32
                0x00000000c0002b16                AcpiDsBuildInternalObject
                0x00000000c0002cb8                AcpiDsBuildInternalBufferObj
                0x00000000c0002e21                AcpiDsCreateNode
                0x00000000c0002eb7                AcpiDsInitObjectFromOp
 .text          0x00000000c000324c      0xa93 acpica/dsopcode.32
                0x00000000c000324c                AcpiDsInitializeRegion
                0x00000000c000355f                AcpiDsEvalBufferFieldOperands
                0x00000000c00036d0                AcpiDsEvalRegionOperands
                0x00000000c0003875                AcpiDsEvalTableRegionOperands
                0x00000000c0003a2f                AcpiDsEvalDataObjectOperands
                0x00000000c0003be3                AcpiDsEvalBankFieldOperands
 .text          0x00000000c0003cdf      0x597 acpica/dspkginit.32
                0x00000000c0003cdf                AcpiDsBuildInternalPackageObj
                0x00000000c0004038                AcpiDsInitPackageElement
 .text          0x00000000c0004276      0x956 acpica/dsutils.32
                0x00000000c0004278                AcpiDsClearImplicitReturn
                0x00000000c00042bb                AcpiDsDoImplicitReturn
                0x00000000c000432b                AcpiDsIsResultUsed
                0x00000000c00044bd                AcpiDsDeleteResultIfNotUsed
                0x00000000c0004535                AcpiDsResolveOperands
                0x00000000c0004591                AcpiDsClearOperands
                0x00000000c00045e5                AcpiDsCreateOperand
                0x00000000c0004950                AcpiDsCreateOperands
                0x00000000c0004a40                AcpiDsEvaluateNamePath
 .text          0x00000000c0004bcc      0xa84 acpica/dswexec.32
                0x00000000c0004bd4                AcpiDsGetPredicateValue
                0x00000000c0004df0                AcpiDsExecBeginOp
                0x00000000c0004fed                AcpiDsExecEndOp
 .text          0x00000000c0005650      0x6f7 acpica/dswload.32
                0x00000000c0005650                AcpiDsInitCallbacks
                0x00000000c0005720                AcpiDsLoad1BeginOp
                0x00000000c0005a89                AcpiDsLoad1EndOp
 .text          0x00000000c0005d47      0x901 acpica/dswload2.32
                0x00000000c0005d47                AcpiDsLoad2BeginOp
                0x00000000c00061b6                AcpiDsLoad2EndOp
 .text          0x00000000c0006648      0x161 acpica/dswscope.32
                0x00000000c0006648                AcpiDsScopeStackClear
                0x00000000c0006688                AcpiDsScopeStackPush
                0x00000000c000674f                AcpiDsScopeStackPop
 .text          0x00000000c00067a9      0x8f5 acpica/dswstate.32
                0x00000000c00067a9                AcpiDsResultPop
                0x00000000c00068db                AcpiDsResultPush
                0x00000000c0006b3e                AcpiDsObjStackPush
                0x00000000c0006bbd                AcpiDsObjStackPop
                0x00000000c0006c3f                AcpiDsObjStackPopAndDelete
                0x00000000c0006cbe                AcpiDsGetCurrentWalkState
                0x00000000c0006cd6                AcpiDsPushWalkState
                0x00000000c0006cf0                AcpiDsPopWalkState
                0x00000000c0006d15                AcpiDsCreateWalkState
                0x00000000c0006daa                AcpiDsInitAmlWalk
                0x00000000c0006f76                AcpiDsDeleteWalkState
 .text          0x00000000c000709e      0x307 acpica/evevent.32
                0x00000000c000709e                AcpiEvInitializeEvents
                0x00000000c0007113                AcpiEvInstallXruptHandlers
                0x00000000c0007211                AcpiEvFixedEventDetect
 .text          0x00000000c00073a5      0x2d8 acpica/evglock.32
                0x00000000c00073a5                AcpiEvInitGlobalLockHandler
                0x00000000c0007431                AcpiEvRemoveGlobalLockHandler
                0x00000000c00074ea                AcpiEvAcquireGlobalLock
                0x00000000c00075f8                AcpiEvReleaseGlobalLock
 .text          0x00000000c000767d      0x960 acpica/evgpe.32
                0x00000000c000767d                AcpiEvUpdateGpeEnableMask
                0x00000000c00076eb                AcpiEvEnableGpe
                0x00000000c0007709                AcpiEvMaskGpe
                0x00000000c00077db                AcpiEvAddGpeReference
                0x00000000c000786e                AcpiEvRemoveGpeReference
                0x00000000c00078e9                AcpiEvLowGetGpeInfo
                0x00000000c000794a                AcpiEvGetGpeEventInfo
                0x00000000c00079d2                AcpiEvGpeDetect
                0x00000000c0007c8e                AcpiEvFinishGpe
                0x00000000c0007cde                AcpiEvDetectGpe
                0x00000000c0007e6b                AcpiEvGpeDispatch
 .text          0x00000000c0007fdd      0x726 acpica/evgpeblk.32
                0x00000000c00080a7                AcpiEvDeleteGpeBlock
                0x00000000c0008423                AcpiEvCreateGpeBlock
                0x00000000c0008598                AcpiEvInitializeGpeBlock
 .text          0x00000000c0008703      0x48d acpica/evgpeinit.32
                0x00000000c0008703                AcpiEvGpeInitialize
                0x00000000c0008905                AcpiEvUpdateGpes
                0x00000000c00089f9                AcpiEvMatchGpeMethod
 .text          0x00000000c0008b90      0x407 acpica/evgpeutil.32
                0x00000000c0008b90                AcpiEvWalkGpeList
                0x00000000c0008c2f                AcpiEvGetGpeDevice
                0x00000000c0008c90                AcpiEvGetGpeXruptBlock
                0x00000000c0008dbf                AcpiEvDeleteGpeXrupt
                0x00000000c0008e89                AcpiEvDeleteGpeHandlers
 .text          0x00000000c0008f97      0x4a5 acpica/evhandler.32
                0x00000000c0008f97                AcpiEvInstallRegionHandlers
                0x00000000c0009021                AcpiEvHasDefaultHandler
                0x00000000c0009183                AcpiEvFindRegionHandler
                0x00000000c00091b7                AcpiEvInstallSpaceHandler
 .text          0x00000000c000943c      0x32c acpica/evmisc.32
                0x00000000c000943c                AcpiEvIsNotifyObject
                0x00000000c0009462                AcpiEvQueueNotifyRequest
                0x00000000c0009619                AcpiEvTerminate
 .text          0x00000000c0009768      0x9c7 acpica/evregion.32
                0x00000000c0009768                AcpiEvInitializeOpRegions
                0x00000000c00097f1                AcpiEvAddressSpaceDispatch
                0x00000000c0009af2                AcpiEvDetachRegion
                0x00000000c0009cf4                AcpiEvAttachRegion
                0x00000000c0009d44                AcpiEvExecuteRegMethod
                0x00000000c0009f2b                AcpiEvExecuteRegMethods
 .text          0x00000000c000a12f      0x535 acpica/evrgnini.32
                0x00000000c000a12f                AcpiEvSystemMemoryRegionSetup
                0x00000000c000a1dc                AcpiEvIoSpaceRegionSetup
                0x00000000c000a1ff                AcpiEvPciConfigRegionSetup
                0x00000000c000a460                AcpiEvIsPciRootBridge
                0x00000000c000a52b                AcpiEvPciBarRegionSetup
                0x00000000c000a531                AcpiEvCmosRegionSetup
                0x00000000c000a537                AcpiEvDefaultRegionSetup
                0x00000000c000a55a                AcpiEvInitializeRegion
 .text          0x00000000c000a664      0x1a4 acpica/evsci.32
                0x00000000c000a664                AcpiEvSciDispatch
                0x00000000c000a720                AcpiEvGpeXruptHandler
                0x00000000c000a749                AcpiEvInstallSciHandler
                0x00000000c000a77f                AcpiEvRemoveAllSciHandlers
 .text          0x00000000c000a808      0xcf1 acpica/evxface.32
                0x00000000c000a808                AcpiInstallNotifyHandler
                0x00000000c000aa63                AcpiRemoveNotifyHandler
                0x00000000c000ac87                AcpiInstallExceptionHandler
                0x00000000c000acd4                AcpiInstallSciHandler
                0x00000000c000adc2                AcpiRemoveSciHandler
                0x00000000c000aea7                AcpiInstallGlobalEventHandler
                0x00000000c000af09                AcpiInstallFixedEventHandler
                0x00000000c000afe4                AcpiRemoveFixedEventHandler
                0x00000000c000b27c                AcpiInstallGpeHandler
                0x00000000c000b2a6                AcpiInstallGpeRawHandler
                0x00000000c000b2d0                AcpiRemoveGpeHandler
                0x00000000c000b460                AcpiAcquireGlobalLock
                0x00000000c000b4bf                AcpiReleaseGlobalLock
 .text          0x00000000c000b4f9      0x38d acpica/evxfevnt.32
                0x00000000c000b4f9                AcpiEnable
                0x00000000c000b56b                AcpiDisable
                0x00000000c000b5cc                AcpiEnableEvent
                0x00000000c000b69a                AcpiDisableEvent
                0x00000000c000b767                AcpiClearEvent
                0x00000000c000b7bc                AcpiGetEventStatus
 .text          0x00000000c000b886      0xa22 acpica/evxfgpe.32
                0x00000000c000b886                AcpiUpdateAllGpes
                0x00000000c000b911                AcpiEnableGpe
                0x00000000c000b991                AcpiDisableGpe
                0x00000000c000b9f6                AcpiSetGpe
                0x00000000c000baa1                AcpiMaskGpe
                0x00000000c000bb13                AcpiMarkGpeForWake
                0x00000000c000bb7f                AcpiSetupGpeForWake
                0x00000000c000bd05                AcpiSetGpeWakeMask
                0x00000000c000be0f                AcpiClearGpe
                0x00000000c000be7d                AcpiGetGpeStatus
                0x00000000c000beee                AcpiDispatchGpe
                0x00000000c000bf09                AcpiFinishGpe
                0x00000000c000bf70                AcpiDisableAllGpes
                0x00000000c000bfab                AcpiEnableAllRuntimeGpes
                0x00000000c000bfe6                AcpiEnableAllWakeupGpes
                0x00000000c000c021                AcpiInstallGpeBlock
                0x00000000c000c171                AcpiRemoveGpeBlock
                0x00000000c000c23a                AcpiGetGpeDevice
 .text          0x00000000c000c2a8      0x1f7 acpica/evxfregn.32
                0x00000000c000c2a8                AcpiInstallAddressSpaceHandler
                0x00000000c000c34e                AcpiRemoveAddressSpaceHandler
 .text          0x00000000c000c49f      0x4fd acpica/exconcat.32
                0x00000000c000c49f                AcpiExDoConcatenate
                0x00000000c000c89a                AcpiExConcatTemplate
 .text          0x00000000c000c99c      0x62b acpica/exconfig.32
                0x00000000c000c9fb                AcpiExLoadTableOp
                0x00000000c000cc80                AcpiExLoadOp
                0x00000000c000cf10                AcpiExUnloadTable
 .text          0x00000000c000cfc7      0x74e acpica/exconvrt.32
                0x00000000c000cfc7                AcpiExConvertToInteger
                0x00000000c000d126                AcpiExConvertToBuffer
                0x00000000c000d384                AcpiExConvertToString
                0x00000000c000d5ce                AcpiExConvertToTargetType
 .text          0x00000000c000d715      0x52a acpica/excreate.32
                0x00000000c000d715                AcpiExCreateAlias
                0x00000000c000d797                AcpiExCreateEvent
                0x00000000c000d81a                AcpiExCreateMutex
                0x00000000c000d8c7                AcpiExCreateRegion
                0x00000000c000da27                AcpiExCreateProcessor
                0x00000000c000dad0                AcpiExCreatePowerResource
                0x00000000c000db64                AcpiExCreateMethod
 .text          0x00000000c000dc3f      0x557 acpica/exdebug.32
                0x00000000c000dc3f                AcpiExDoDebugObject
 .text          0x00000000c000e196        0x0 acpica/exdump.32
 .text          0x00000000c000e196      0x4d5 acpica/exfield.32
                0x00000000c000e196                AcpiExGetProtocolBufferLength
                0x00000000c000e1ea                AcpiExReadDataFromField
                0x00000000c000e411                AcpiExWriteDataToField
 .text          0x00000000c000e66b      0xed6 acpica/exfldio.32
                0x00000000c000e8ae                AcpiExAccessRegion
                0x00000000c000ec96                AcpiExWriteWithUpdateRule
                0x00000000c000ee88                AcpiExExtractFromField
                0x00000000c000f1c0                AcpiExInsertIntoField
 .text          0x00000000c000f541      0x664 acpica/exmisc.32
                0x00000000c000f541                AcpiExGetObjectReference
                0x00000000c000f63c                AcpiExDoMathOp
                0x00000000c000f80d                AcpiExDoLogicalNumericOp
                0x00000000c000f911                AcpiExDoLogicalOp
 .text          0x00000000c000fba5      0x5d0 acpica/exmutex.32
                0x00000000c000fba5                AcpiExUnlinkMutex
                0x00000000c000fc4b                AcpiExAcquireMutexObject
                0x00000000c000fd20                AcpiExAcquireMutex
                0x00000000c000fe67                AcpiExReleaseMutexObject
                0x00000000c000ff06                AcpiExReleaseMutex
                0x00000000c00100e3                AcpiExReleaseAllMutexes
 .text          0x00000000c0010175      0x457 acpica/exnames.32
                0x00000000c001034d                AcpiExGetNameString
 .text          0x00000000c00105cc     0x1142 acpica/exoparg1.32
                0x00000000c00105cc                AcpiExOpcode_0A_0T_1R
                0x00000000c0010682                AcpiExOpcode_1A_0T_0R
                0x00000000c0010784                AcpiExOpcode_1A_1T_0R
                0x00000000c00107fe                AcpiExOpcode_1A_1T_1R
                0x00000000c0010fce                AcpiExOpcode_1A_0T_1R
 .text          0x00000000c001170e      0x8df acpica/exoparg2.32
                0x00000000c001170e                AcpiExOpcode_2A_0T_0R
                0x00000000c00117df                AcpiExOpcode_2A_2T_1R
                0x00000000c001195f                AcpiExOpcode_2A_1T_1R
                0x00000000c0011e0c                AcpiExOpcode_2A_0T_1R
 .text          0x00000000c0011fed      0x33c acpica/exoparg3.32
                0x00000000c0011fed                AcpiExOpcode_3A_0T_0R
                0x00000000c00120ec                AcpiExOpcode_3A_1T_1R
 .text          0x00000000c0012329      0x36c acpica/exoparg6.32
                0x00000000c0012436                AcpiExOpcode_6A_0T_1R
 .text          0x00000000c0012695      0x53f acpica/exprep.32
                0x00000000c001274f                AcpiExPrepCommonFieldObject
                0x00000000c00127e7                AcpiExPrepFieldValue
 .text          0x00000000c0012bd4      0x4b7 acpica/exregion.32
                0x00000000c0012bd4                AcpiExSystemMemorySpaceHandler
                0x00000000c0012ed9                AcpiExSystemIoSpaceHandler
                0x00000000c0012f56                AcpiExPciConfigSpaceHandler
                0x00000000c0012fe7                AcpiExCmosSpaceHandler
                0x00000000c0013005                AcpiExPciBarSpaceHandler
                0x00000000c0013023                AcpiExDataTableSpaceHandler
 .text          0x00000000c001308b      0x360 acpica/exresnte.32
                0x00000000c001308b                AcpiExResolveNodeToValue
 .text          0x00000000c00133eb      0x61b acpica/exresolv.32
                0x00000000c00133eb                AcpiExResolveToValue
                0x00000000c00136ec                AcpiExResolveMultiple
 .text          0x00000000c0013a06      0x7cc acpica/exresop.32
                0x00000000c0013a93                AcpiExResolveOperands
 .text          0x00000000c00141d2      0x3a2 acpica/exserial.32
                0x00000000c00141d2                AcpiExReadGpio
                0x00000000c001421c                AcpiExWriteGpio
                0x00000000c0014280                AcpiExReadSerialBus
                0x00000000c00143d8                AcpiExWriteSerialBus
 .text          0x00000000c0014574      0x588 acpica/exstore.32
                0x00000000c0014574                AcpiExStore
                0x00000000c00148b1                AcpiExStoreObjectToNode
 .text          0x00000000c0014afc      0x296 acpica/exstoren.32
                0x00000000c0014afc                AcpiExResolveObject
                0x00000000c0014c1a                AcpiExStoreObjectToObject
 .text          0x00000000c0014d92      0x202 acpica/exstorob.32
                0x00000000c0014d92                AcpiExStoreBufferToBuffer
                0x00000000c0014e89                AcpiExStoreStringToString
 .text          0x00000000c0014f94      0x206 acpica/exsystem.32
                0x00000000c0014f94                AcpiExSystemWaitSemaphore
                0x00000000c0014fee                AcpiExSystemWaitMutex
                0x00000000c0015048                AcpiExSystemDoStall
                0x00000000c0015094                AcpiExSystemDoSleep
                0x00000000c00150e8                AcpiExSystemSignalEvent
                0x00000000c0015117                AcpiExSystemWaitEvent
                0x00000000c0015151                AcpiExSystemResetEvent
 .text          0x00000000c001519a      0x1ec acpica/extrace.32
                0x00000000c0015205                AcpiExTracePoint
                0x00000000c0015214                AcpiExStartTraceMethod
                0x00000000c00152cb                AcpiExStopTraceMethod
                0x00000000c0015356                AcpiExStartTraceOpcode
                0x00000000c001536e                AcpiExStopTraceOpcode
 .text          0x00000000c0015386      0x525 acpica/exutils.32
                0x00000000c0015386                AcpiExEnterInterpreter
                0x00000000c00153f0                AcpiExExitInterpreter
                0x00000000c001545a                AcpiExTruncateFor32bitTable
                0x00000000c00154c0                AcpiExAcquireGlobalLock
                0x00000000c0015517                AcpiExReleaseGlobalLock
                0x00000000c00155ef                AcpiExEisaIdToString
                0x00000000c0015710                AcpiExIntegerToString
                0x00000000c0015789                AcpiExPciClsToString
                0x00000000c001587e                AcpiIsValidSpaceId
 .text          0x00000000c00158ab      0x1ae acpica/hwacpi.32
                0x00000000c00158ab                AcpiHwSetMode
                0x00000000c00159fd                AcpiHwGetMode
 .text          0x00000000c0015a59      0x284 acpica/hwesleep.32
                0x00000000c0015a59                AcpiHwExecuteSleepMethod
                0x00000000c0015ac7                AcpiHwExtendedSleep
                0x00000000c0015c06                AcpiHwExtendedWakePrep
                0x00000000c0015c6c                AcpiHwExtendedWake
 .text          0x00000000c0015cdd      0x55c acpica/hwgpe.32
                0x00000000c0015cdd                AcpiHwGetGpeRegisterBit
                0x00000000c0015d07                AcpiHwLowSetGpe
                0x00000000c0015e3e                AcpiHwClearGpe
                0x00000000c0015e8c                AcpiHwGetGpeStatus
                0x00000000c001602f                AcpiHwDisableGpeBlock
                0x00000000c001608b                AcpiHwClearGpeBlock
                0x00000000c00160ec                AcpiHwEnableRuntimeGpeBlock
                0x00000000c00161d9                AcpiHwDisableAllGpes
                0x00000000c00161f9                AcpiHwEnableAllRuntimeGpes
                0x00000000c0016219                AcpiHwEnableAllWakeupGpes
 .text          0x00000000c0016239      0x338 acpica/hwpci.32
                0x00000000c0016239                AcpiHwDerivePciId
 .text          0x00000000c0016571      0xbfa acpica/hwregs.32
                0x00000000c001678e                AcpiHwValidateRegister
                0x00000000c00168cf                AcpiHwRead
                0x00000000c0016ac5                AcpiHwWrite
                0x00000000c0016c75                AcpiHwClearAcpiStatus
                0x00000000c0016ce2                AcpiHwGetBitRegisterInfo
                0x00000000c0016d1c                AcpiHwWritePm1Control
                0x00000000c0016d94                AcpiHwRegisterRead
                0x00000000c0016ed1                AcpiHwRegisterWrite
 .text          0x00000000c001716b      0x3b7 acpica/hwsleep.32
                0x00000000c001716b                AcpiHwLegacySleep
                0x00000000c0017388                AcpiHwLegacyWakePrep
                0x00000000c0017469                AcpiHwLegacyWake
 .text          0x00000000c0017522      0x198 acpica/hwtimer.32
                0x00000000c0017522                AcpiGetTimerResolution
                0x00000000c001755b                AcpiGetTimer
                0x00000000c00175c9                AcpiGetTimerDuration
 .text          0x00000000c00176ba      0x331 acpica/hwvalid.32
                0x00000000c0017823                AcpiHwReadPort
                0x00000000c0017915                AcpiHwWritePort
 .text          0x00000000c00179eb      0x47c acpica/hwxface.32
                0x00000000c00179eb                AcpiReset
                0x00000000c0017a83                AcpiRead
                0x00000000c0017aa2                AcpiWrite
                0x00000000c0017ad0                AcpiReadBitRegister
                0x00000000c0017b4a                AcpiWriteBitRegister
                0x00000000c0017c6a                AcpiGetSleepTypeData
 .text          0x00000000c0017e67      0x36c acpica/hwxfsleep.32
                0x00000000c0017ecc                AcpiSetFirmwareWakingVector
                0x00000000c0017f17                AcpiEnterSleepStateS4bios
                0x00000000c0018042                AcpiEnterSleepStatePrep
                0x00000000c001811c                AcpiEnterSleepState
                0x00000000c0018187                AcpiLeaveSleepStatePrep
                0x00000000c00181ad                AcpiLeaveSleepState
 .text          0x00000000c00181d3      0x7cd acpica/nsaccess.32
                0x00000000c00181d3                AcpiNsRootInitialize
                0x00000000c001854a                AcpiNsLookup
 .text          0x00000000c00189a0      0x44a acpica/nsalloc.32
                0x00000000c00189a0                AcpiNsCreateNode
                0x00000000c00189dc                AcpiNsDeleteNode
                0x00000000c0018a78                AcpiNsRemoveNode
                0x00000000c0018ae1                AcpiNsInstallNode
                0x00000000c0018b95                AcpiNsDeleteChildren
                0x00000000c0018c09                AcpiNsDeleteNamespaceSubtree
                0x00000000c0018cbf                AcpiNsDeleteNamespaceByOwner
 .text          0x00000000c0018dea      0x3ca acpica/nsarguments.32
                0x00000000c0018dea                AcpiNsCheckArgumentTypes
                0x00000000c0018ef2                AcpiNsCheckAcpiCompliance
                0x00000000c0019045                AcpiNsCheckArgumentCount
 .text          0x00000000c00191b4      0x5e2 acpica/nsconvert.32
                0x00000000c00191b4                AcpiNsConvertToInteger
                0x00000000c00192cb                AcpiNsConvertToString
                0x00000000c00193ce                AcpiNsConvertToBuffer
                0x00000000c0019527                AcpiNsConvertToUnicode
                0x00000000c00195eb                AcpiNsConvertToResource
                0x00000000c001969f                AcpiNsConvertToReference
 .text          0x00000000c0019796        0x0 acpica/nsdump.32
 .text          0x00000000c0019796        0x0 acpica/nsdumpdv.32
 .text          0x00000000c0019796      0x38e acpica/nseval.32
                0x00000000c0019796                AcpiNsEvaluate
 .text          0x00000000c0019b24      0x6b7 acpica/nsinit.32
                0x00000000c0019b24                AcpiNsInitializeObjects
                0x00000000c0019b85                AcpiNsInitializeDevices
                0x00000000c0019d4f                AcpiNsInitOnePackage
 .text          0x00000000c001a1db       0xdb acpica/nsload.32
                0x00000000c001a1db                AcpiNsLoadTable
 .text          0x00000000c001a2b6      0x592 acpica/nsnames.32
                0x00000000c001a2b6                AcpiNsGetExternalPathname
                0x00000000c001a2d4                AcpiNsGetPathnameLength
                0x00000000c001a32b                AcpiNsHandleToName
                0x00000000c001a39e                AcpiNsHandleToPathname
                0x00000000c001a42c                AcpiNsBuildNormalizedPath
                0x00000000c001a585                AcpiNsGetNormalizedPathname
                0x00000000c001a608                AcpiNsBuildPrefixedPathname
 .text          0x00000000c001a848      0x45a acpica/nsobject.32
                0x00000000c001a848                AcpiNsAttachObject
                0x00000000c001a9b6                AcpiNsDetachObject
                0x00000000c001aaa2                AcpiNsGetAttachedObject
                0x00000000c001ab0a                AcpiNsGetSecondaryObject
                0x00000000c001ab40                AcpiNsAttachData
                0x00000000c001abde                AcpiNsDetachData
                0x00000000c001ac56                AcpiNsGetAttachedData
 .text          0x00000000c001aca2      0x359 acpica/nsparse.32
                0x00000000c001aca2                AcpiNsExecuteTable
                0x00000000c001ae4c                AcpiNsOneCompleteParse
                0x00000000c001afdc                AcpiNsParseTable
 .text          0x00000000c001affb      0x3b5 acpica/nspredef.32
                0x00000000c001affb                AcpiNsCheckReturnValue
                0x00000000c001b112                AcpiNsCheckObjectType
 .text          0x00000000c001b3b0      0x9d3 acpica/nsprepkg.32
                0x00000000c001b3b0                AcpiNsCheckPackage
 .text          0x00000000c001bd83      0x481 acpica/nsrepair.32
                0x00000000c001bd83                AcpiNsSimpleRepair
                0x00000000c001c069                AcpiNsRepairNullElement
                0x00000000c001c122                AcpiNsRemoveNullElements
                0x00000000c001c1b6                AcpiNsWrapWithPackage
 .text          0x00000000c001c204      0x9fb acpica/nsrepair2.32
                0x00000000c001c204                AcpiNsComplexRepairs
 .text          0x00000000c001cbff      0x27a acpica/nssearch.32
                0x00000000c001cbff                AcpiNsSearchOneScope
                0x00000000c001ccc7                AcpiNsSearchAndEnter
 .text          0x00000000c001ce79      0x819 acpica/nsutils.32
                0x00000000c001ce79                AcpiNsPrintNodePathname
                0x00000000c001cef9                AcpiNsGetType
                0x00000000c001cf31                AcpiNsLocal
                0x00000000c001cf7f                AcpiNsGetInternalNameLength
                0x00000000c001d058                AcpiNsBuildInternalName
                0x00000000c001d1ff                AcpiNsInternalizeName
                0x00000000c001d292                AcpiNsExternalizeName
                0x00000000c001d4d6                AcpiNsValidateHandle
                0x00000000c001d502                AcpiNsTerminate
                0x00000000c001d553                AcpiNsOpensScope
                0x00000000c001d592                AcpiNsGetNodeUnlocked
                0x00000000c001d648                AcpiNsGetNode
 .text          0x00000000c001d692      0x264 acpica/nswalk.32
                0x00000000c001d692                AcpiNsGetNextNode
                0x00000000c001d6ab                AcpiNsGetNextNodeTyped
                0x00000000c001d700                AcpiNsWalkNamespace
 .text          0x00000000c001d8f6      0x94e acpica/nsxfeval.32
                0x00000000c001d8f6                AcpiEvaluateObjectTyped
                0x00000000c001da6e                AcpiEvaluateObject
                0x00000000c001ddbd                AcpiWalkNamespace
                0x00000000c001e051                AcpiGetDevices
                0x00000000c001e0c4                AcpiAttachData
                0x00000000c001e147                AcpiDetachData
                0x00000000c001e1c1                AcpiGetData
 .text          0x00000000c001e244      0x7f2 acpica/nsxfname.32
                0x00000000c001e244                AcpiGetHandle
                0x00000000c001e2fb                AcpiGetName
                0x00000000c001e3db                AcpiGetObjectInfo
                0x00000000c001e7f2                AcpiInstallMethod
 .text          0x00000000c001ea36      0x1f1 acpica/nsxfobj.32
                0x00000000c001ea36                AcpiGetType
                0x00000000c001eac8                AcpiGetParent
                0x00000000c001eb56                AcpiGetNextObject
 .text          0x00000000c001ec27      0xb9c acpica/psargs.32
                0x00000000c001eca2                AcpiPsGetNextPackageEnd
                0x00000000c001ecc9                AcpiPsGetNextNamestring
                0x00000000c001ed4f                AcpiPsGetNextNamepath
                0x00000000c001ef91                AcpiPsGetNextSimpleArg
                0x00000000c001f4a3                AcpiPsGetNextArg
 .text          0x00000000c001f7c3      0x8ef acpica/psloop.32
                0x00000000c001f9e6                AcpiPsParseLoop
 .text          0x00000000c00200b2      0xb0d acpica/psobject.32
                0x00000000c00201f7                AcpiPsBuildNamedOp
                0x00000000c00203b9                AcpiPsCreateOp
                0x00000000c0020618                AcpiPsCompleteOp
                0x00000000c0020a30                AcpiPsCompleteFinalOp
 .text          0x00000000c0020bbf        0x0 acpica/psopcode.32
 .text          0x00000000c0020bbf       0x97 acpica/psopinfo.32
                0x00000000c0020bbf                AcpiPsGetOpcodeInfo
                0x00000000c0020c29                AcpiPsGetOpcodeName
                0x00000000c0020c3d                AcpiPsGetArgumentCount
 .text          0x00000000c0020c56      0x936 acpica/psparse.32
                0x00000000c0020c56                AcpiPsGetOpcodeSize
                0x00000000c0020c70                AcpiPsPeekOpcode
                0x00000000c0020cb2                AcpiPsCompleteThisOp
                0x00000000c0020fc8                AcpiPsNextParseState
                0x00000000c0021120                AcpiPsParseAml
 .text          0x00000000c002158c      0x1f4 acpica/psscope.32
                0x00000000c002158c                AcpiPsGetParentScope
                0x00000000c002159a                AcpiPsHasCompletedScope
                0x00000000c00215ce                AcpiPsInitScope
                0x00000000c0021634                AcpiPsPushScope
                0x00000000c00216b7                AcpiPsPopScope
                0x00000000c002173f                AcpiPsCleanupScope
 .text          0x00000000c0021780      0x218 acpica/pstree.32
                0x00000000c0021780                AcpiPsGetArg
                0x00000000c00217f8                AcpiPsAppendArg
                0x00000000c00218ce                AcpiPsGetDepthNext
 .text          0x00000000c0021998      0x1cc acpica/psutils.32
                0x00000000c0021998                AcpiPsCreateScopeOp
                0x00000000c00219cd                AcpiPsInitOp
                0x00000000c00219ee                AcpiPsAllocOp
                0x00000000c0021ab8                AcpiPsFreeOp
                0x00000000c0021afb                AcpiPsIsLeadingChar
                0x00000000c0021b21                AcpiPsGetName
                0x00000000c0021b43                AcpiPsSetName
 .text          0x00000000c0021b64       0x99 acpica/pswalk.32
                0x00000000c0021b64                AcpiPsDeleteParseTree
 .text          0x00000000c0021bfd      0x4a2 acpica/psxface.32
                0x00000000c0021bfd                AcpiDebugTrace
                0x00000000c0021c57                AcpiPsExecuteMethod
                0x00000000c0021ec4                AcpiPsExecuteTable
 .text          0x00000000c002209f       0xf7 acpica/rsaddr.32
                0x00000000c002209f                AcpiRsGetAddressCommon
                0x00000000c0022127                AcpiRsSetAddressCommon
 .text          0x00000000c0022196      0x7f5 acpica/rscalc.32
                0x00000000c002220c                AcpiRsGetAmlLength
                0x00000000c00224c6                AcpiRsGetListLength
                0x00000000c0022862                AcpiRsGetPciRoutingTableLength
 .text          0x00000000c002298b      0x567 acpica/rscreate.32
                0x00000000c002298b                AcpiBufferToResource
                0x00000000c0022a46                AcpiRsCreateResourceList
                0x00000000c0022ae2                AcpiRsCreatePciRoutingTable
                0x00000000c0022e69                AcpiRsCreateAmlResources
 .text          0x00000000c0022ef2        0x0 acpica/rsdump.32
 .text          0x00000000c0022ef2        0x0 acpica/rsdumpinfo.32
 .text          0x00000000c0022ef2        0x0 acpica/rsinfo.32
 .text          0x00000000c0022ef2        0x0 acpica/rsio.32
 .text          0x00000000c0022ef2        0x0 acpica/rsirq.32
 .text          0x00000000c0022ef2      0x2a0 acpica/rslist.32
                0x00000000c0022ef2                AcpiRsConvertAmlToResources
                0x00000000c0023006                AcpiRsConvertResourcesToAml
 .text          0x00000000c0023192        0x0 acpica/rsmemory.32
 .text          0x00000000c0023192      0xd8c acpica/rsmisc.32
                0x00000000c0023192                AcpiRsConvertAmlToResource
                0x00000000c002391d                AcpiRsConvertResourceToAml
 .text          0x00000000c0023f1e        0x0 acpica/rsserial.32
 .text          0x00000000c0023f1e      0x61c acpica/rsutils.32
                0x00000000c0023f1e                AcpiRsDecodeBitmask
                0x00000000c0023f6c                AcpiRsEncodeBitmask
                0x00000000c0023fbd                AcpiRsMoveData
                0x00000000c0024095                AcpiRsSetResourceLength
                0x00000000c00240ed                AcpiRsSetResourceHeader
                0x00000000c0024164                AcpiRsGetResourceSource
                0x00000000c002423d                AcpiRsSetResourceSource
                0x00000000c00242a2                AcpiRsGetPrtMethodData
                0x00000000c00242f5                AcpiRsGetCrsMethodData
                0x00000000c0024348                AcpiRsGetPrsMethodData
                0x00000000c002439b                AcpiRsGetAeiMethodData
                0x00000000c00243ee                AcpiRsGetMethodData
                0x00000000c002443f                AcpiRsSetSrsMethodData
 .text          0x00000000c002453a      0x698 acpica/rsxface.32
                0x00000000c00245a7                AcpiGetIrqRoutingTable
                0x00000000c00245ea                AcpiGetCurrentResources
                0x00000000c002462d                AcpiGetPossibleResources
                0x00000000c0024670                AcpiSetCurrentResources
                0x00000000c00246d3                AcpiGetEventResources
                0x00000000c0024716                AcpiResourceToAddress64
                0x00000000c0024937                AcpiGetVendorResource
                0x00000000c0024a5f                AcpiWalkResourceBuffer
                0x00000000c0024b1d                AcpiWalkResources
 .text          0x00000000c0024bd2      0xd8f acpica/tbdata.32
                0x00000000c0024c7f                AcpiTbInitTableDescriptor
                0x00000000c0024cde                AcpiTbAcquireTable
                0x00000000c0024d66                AcpiTbReleaseTable
                0x00000000c0024d95                AcpiTbAcquireTempTable
                0x00000000c0024e5c                AcpiTbReleaseTempTable
                0x00000000c0024e73                AcpiTbValidateTable
                0x00000000c0024ec3                AcpiTbInvalidateTable
                0x00000000c0024f06                AcpiTbValidateTempTable
                0x00000000c0024feb                AcpiTbVerifyTempTable
                0x00000000c00251b1                AcpiTbResizeRootTableList
                0x00000000c0025363                AcpiTbGetNextTableDescriptor
                0x00000000c00253e0                AcpiTbTerminate
                0x00000000c0025480                AcpiTbDeleteNamespaceByOwner
                0x00000000c0025539                AcpiTbAllocateOwnerId
                0x00000000c00255a1                AcpiTbReleaseOwnerId
                0x00000000c002560d                AcpiTbGetOwnerId
                0x00000000c0025673                AcpiTbIsTableLoaded
                0x00000000c00256d7                AcpiTbSetTableLoadedFlag
                0x00000000c00257a3                AcpiTbLoadTable
                0x00000000c002582c                AcpiTbInstallAndLoadTable
                0x00000000c00258a1                AcpiTbUnloadTable
                0x00000000c0025935                AcpiTbNotifyTable
 .text          0x00000000c0025961      0x8f3 acpica/tbfadt.32
                0x00000000c0025ac5                AcpiTbParseFadt
                0x00000000c0025bf3                AcpiTbCreateLocalFadt
 .text          0x00000000c0026254      0x27a acpica/tbfind.32
                0x00000000c0026254                AcpiTbFindTable
 .text          0x00000000c00264ce      0x47b acpica/tbinstal.32
                0x00000000c00264ce                AcpiTbInstallTableWithOverride
                0x00000000c00265ae                AcpiTbInstallStandardTable
                0x00000000c0026756                AcpiTbOverrideTable
                0x00000000c00268dc                AcpiTbUninstallTable
 .text          0x00000000c0026949      0x2b1 acpica/tbprint.32
                0x00000000c00269ed                AcpiTbPrintTableHeader
                0x00000000c0026b45                AcpiTbVerifyChecksum
                0x00000000c0026bc8                AcpiTbChecksum
 .text          0x00000000c0026bfa      0x609 acpica/tbutils.32
                0x00000000c0026bfa                AcpiTbInitializeFacs
                0x00000000c0026c9e                AcpiTbCheckDsdtHeader
                0x00000000c0026d28                AcpiTbCopyDsdt
                0x00000000c0026e8d                AcpiTbParseRootTable
                0x00000000c002711f                AcpiTbGetTable
                0x00000000c002719e                AcpiTbPutTable
 .text          0x00000000c0027203      0x62b acpica/tbxface.32
                0x00000000c0027203                AcpiAllocateRootTable
                0x00000000c002721f                AcpiInitializeTables
                0x00000000c00272e9                AcpiReallocateRootTable
                0x00000000c0027433                AcpiGetTableHeader
                0x00000000c00275b3                AcpiGetTable
                0x00000000c0027674                AcpiPutTable
                0x00000000c00276f6                AcpiGetTableByIndex
                0x00000000c0027776                AcpiInstallTableHandler
                0x00000000c00277d8                AcpiRemoveTableHandler
 .text          0x00000000c002782e      0x519 acpica/tbxfload.32
                0x00000000c002782e                AcpiLoadTables
                0x00000000c00278b3                AcpiTbLoadNamespace
                0x00000000c0027b55                AcpiInstallTable
                0x00000000c0027ba5                AcpiLoadTable
                0x00000000c0027c06                AcpiUnloadParentTable
                0x00000000c0027d1e                AcpiUnloadTable
 .text          0x00000000c0027d47      0x2e0 acpica/tbxfroot.32
                0x00000000c0027d47                AcpiTbGetRsdpLength
                0x00000000c0027d87                AcpiTbValidateRsdp
                0x00000000c0027df5                AcpiFindRootPointer
                0x00000000c0027fdf                AcpiTbScanMemoryForRsdp
 .text          0x00000000c0028027      0x31c acpica/utaddress.32
                0x00000000c0028027                AcpiUtAddAddressRange
                0x00000000c00280d1                AcpiUtRemoveAddressRange
                0x00000000c0028158                AcpiUtCheckAddressRange
                0x00000000c00282e9                AcpiUtDeleteAddressLists
 .text          0x00000000c0028343      0x28d acpica/utalloc.32
                0x00000000c0028343                AcpiOsAllocateZeroed
                0x00000000c0028378                AcpiUtCreateCaches
                0x00000000c002843c                AcpiUtDeleteCaches
                0x00000000c00284d0                AcpiUtValidateBuffer
                0x00000000c002851c                AcpiUtInitializeBuffer
 .text          0x00000000c00285d0       0xee acpica/utascii.32
                0x00000000c00285d0                AcpiUtValidNameseg
                0x00000000c0028613                AcpiUtValidNameChar
                0x00000000c0028655                AcpiUtCheckAndRepairAscii
 .text          0x00000000c00286be      0x2b9 acpica/utbuffer.32
                0x00000000c00286be                AcpiUtDumpBuffer
                0x00000000c002893f                AcpiUtDebugDumpBuffer
 .text          0x00000000c0028977      0x2d4 acpica/utcache.32
                0x00000000c0028977                AcpiOsCreateCache
                0x00000000c00289ff                AcpiOsPurgeCache
                0x00000000c0028a7f                AcpiOsDeleteCache
                0x00000000c0028ab6                AcpiOsReleaseObject
                0x00000000c0028b69                AcpiOsAcquireObject
 .text          0x00000000c0028c4b      0x6ff acpica/utclib.32
                0x00000000c0028c4b                memcmp
                0x00000000c0028ca3                memmove
                0x00000000c0028d10                memcpy
                0x00000000c0028d87                memset
                0x00000000c0028db0                strlen
                0x00000000c0028dd3                strpbrk
                0x00000000c0028e15                strtok
                0x00000000c0028ea3                strcpy
                0x00000000c0028ed5                strncpy
                0x00000000c0028f29                strcmp
                0x00000000c0028f6b                strchr
                0x00000000c0028f94                strncmp
                0x00000000c0028ff0                strcat
                0x00000000c0029031                strncat
                0x00000000c002908d                strstr
                0x00000000c00290e0                simple_strtoul
                0x00000000c00292fe                toupper
                0x00000000c0029324                tolower
 .text          0x00000000c002934a      0xaf8 acpica/utcopy.32
                0x00000000c00296a7                AcpiUtCopyIobjectToEobject
                0x00000000c00299b9                AcpiUtCopyEobjectToIobject
                0x00000000c0029da7                AcpiUtCopyIobjectToIobject
 .text          0x00000000c0029e42        0x0 acpica/utdebug.32
 .text          0x00000000c0029e42      0x1db acpica/utdecode.32
                0x00000000c0029e42                AcpiUtGetRegionName
                0x00000000c0029e90                AcpiUtGetEventName
                0x00000000c0029eac                AcpiUtGetTypeName
                0x00000000c0029ec8                AcpiUtGetObjectTypeName
                0x00000000c0029f0d                AcpiUtGetNodeName
                0x00000000c0029f68                AcpiUtGetDescriptorName
                0x00000000c0029f9b                AcpiUtGetReferenceName
                0x00000000c0029ff0                AcpiUtGetMutexName
                0x00000000c002a00c                AcpiUtValidObjectType
 .text          0x00000000c002a01d      0x83c acpica/utdelete.32
                0x00000000c002a39b                AcpiUtDeleteInternalObjectList
                0x00000000c002a54d                AcpiUtUpdateObjectReference
                0x00000000c002a7e4                AcpiUtAddReference
                0x00000000c002a815                AcpiUtRemoveReference
 .text          0x00000000c002a859      0x28c acpica/uterror.32
                0x00000000c002a859                AcpiUtPredefinedWarning
                0x00000000c002a8b9                AcpiUtPredefinedInfo
                0x00000000c002a919                AcpiUtPredefinedBiosError
                0x00000000c002a979                AcpiUtPrefixedNamespaceError
                0x00000000c002aa4a                AcpiUtMethodError
 .text          0x00000000c002aae5      0x323 acpica/uteval.32
                0x00000000c002aae5                AcpiUtEvaluateObject
                0x00000000c002acc0                AcpiUtEvaluateNumericObject
                0x00000000c002ad0d                AcpiUtExecute_STA
                0x00000000c002ad71                AcpiUtExecutePowerMethods
 .text          0x00000000c002ae08      0x127 acpica/utexcep.32
                0x00000000c002ae08                AcpiFormatException
                0x00000000c002ae4d                AcpiUtValidateException
 .text          0x00000000c002af2f        0x0 acpica/utglobal.32
 .text          0x00000000c002af2f       0xea acpica/uthex.32
                0x00000000c002af2f                AcpiUtHexToAsciiChar
                0x00000000c002af7b                AcpiUtAsciiToHexByte
                0x00000000c002aff2                AcpiUtAsciiCharToHex
 .text          0x00000000c002b019      0x4eb acpica/utids.32
                0x00000000c002b019                AcpiUtExecute_HID
                0x00000000c002b0f9                AcpiUtExecute_UID
                0x00000000c002b1d9                AcpiUtExecute_CID
                0x00000000c002b3d2                AcpiUtExecute_CLS
 .text          0x00000000c002b504      0x344 acpica/utinit.32
                0x00000000c002b58c                AcpiUtInitGlobals
                0x00000000c002b7eb                AcpiUtSubsystemShutdown
 .text          0x00000000c002b848      0x1c7 acpica/utlock.32
                0x00000000c002b848                AcpiUtCreateRwLock
                0x00000000c002b897                AcpiUtDeleteRwLock
                0x00000000c002b8e0                AcpiUtAcquireReadLock
                0x00000000c002b95b                AcpiUtReleaseReadLock
                0x00000000c002b9cd                AcpiUtAcquireWriteLock
                0x00000000c002b9f3                AcpiUtReleaseWriteLock
 .text          0x00000000c002ba0f      0x210 acpica/utmath.32
                0x00000000c002ba0f                AcpiUtShortMultiply
                0x00000000c002ba5a                AcpiUtShortShiftLeft
                0x00000000c002baa3                AcpiUtShortShiftRight
                0x00000000c002baec                AcpiUtShortDivide
                0x00000000c002bb7d                AcpiUtDivide
 .text          0x00000000c002bc1f      0x2ca acpica/utmisc.32
                0x00000000c002bc1f                AcpiUtIsPciRootBridge
                0x00000000c002bc5b                AcpiUtDwordByteSwap
                0x00000000c002bc84                AcpiUtSetIntegerWidth
                0x00000000c002bcc5                AcpiUtCreateUpdateStateAndPush
                0x00000000c002bd1a                AcpiUtWalkPackageTree
 .text          0x00000000c002bee9      0x371 acpica/utmutex.32
                0x00000000c002bee9                AcpiUtMutexInitialize
                0x00000000c002bfbf                AcpiUtMutexTerminate
                0x00000000c002c0f3                AcpiUtAcquireMutex
                0x00000000c002c1ae                AcpiUtReleaseMutex
 .text          0x00000000c002c25a       0xd0 acpica/utnonansi.32
                0x00000000c002c25a                AcpiUtStrlwr
                0x00000000c002c29a                AcpiUtStrupr
                0x00000000c002c2da                AcpiUtStricmp
 .text          0x00000000c002c32a      0x5ff acpica/utobject.32
                0x00000000c002c32a                AcpiUtCreateInternalObjectDbg
                0x00000000c002c3cc                AcpiUtCreatePackageObject
                0x00000000c002c440                AcpiUtCreateIntegerObject
                0x00000000c002c48c                AcpiUtCreateBufferObject
                0x00000000c002c533                AcpiUtCreateStringObject
                0x00000000c002c5be                AcpiUtValidInternalObject
                0x00000000c002c5e2                AcpiUtAllocateObjectDescDbg
                0x00000000c002c62b                AcpiUtDeleteObjectDesc
                0x00000000c002c8e0                AcpiUtGetObjectSize
 .text          0x00000000c002c929      0x4f3 acpica/utosi.32
                0x00000000c002c929                AcpiUtInitializeInterfaces
                0x00000000c002c9b3                AcpiUtInterfaceTerminate
                0x00000000c002ca84                AcpiUtInstallInterface
                0x00000000c002cb1d                AcpiUtRemoveInterface
                0x00000000c002cbf3                AcpiUtUpdateInterfaces
                0x00000000c002cc84                AcpiUtGetInterface
                0x00000000c002ccc7                AcpiUtOsiImplementation
 .text          0x00000000c002ce1c      0x246 acpica/utownerid.32
                0x00000000c002ce1c                AcpiUtAllocateOwnerId
                0x00000000c002cf80                AcpiUtReleaseOwnerId
 .text          0x00000000c002d062       0xfd acpica/utpredef.32
                0x00000000c002d062                AcpiUtGetNextPredefinedMethod
                0x00000000c002d08c                AcpiUtMatchPredefinedMethod
                0x00000000c002d0df                AcpiUtGetExpectedReturnTypes
 .text          0x00000000c002d15f      0x9ed acpica/utprint.32
                0x00000000c002d289                AcpiUtScanNumber
                0x00000000c002d30c                AcpiUtPrintNumber
                0x00000000c002d5e2                vsnprintf
                0x00000000c002dafb                snprintf
                0x00000000c002db24                sprintf
 .text          0x00000000c002db4c        0x0 acpica/utresdecode.32
 .text          0x00000000c002db4c      0x3b0 acpica/utresrc.32
                0x00000000c002db4c                AcpiUtWalkAmlResources
                0x00000000c002dc8b                AcpiUtValidateResource
                0x00000000c002de21                AcpiUtGetResourceType
                0x00000000c002de3e                AcpiUtGetResourceLength
                0x00000000c002de71                AcpiUtGetResourceHeaderLength
                0x00000000c002de85                AcpiUtGetDescriptorLength
                0x00000000c002deb2                AcpiUtGetResourceEndTag
 .text          0x00000000c002defc      0x1ce acpica/utstate.32
                0x00000000c002defc                AcpiUtPushGenericState
                0x00000000c002df14                AcpiUtPopGenericState
                0x00000000c002df37                AcpiUtCreateGenericState
                0x00000000c002df63                AcpiUtCreateThreadState
                0x00000000c002dfe9                AcpiUtCreateUpdateState
                0x00000000c002e02a                AcpiUtCreatePkgState
                0x00000000c002e076                AcpiUtCreateControlState
                0x00000000c002e0a6                AcpiUtDeleteGenericState
 .text          0x00000000c002e0ca      0x264 acpica/utstring.32
                0x00000000c002e0ca                AcpiUtPrintString
                0x00000000c002e293                AcpiUtRepairName
 .text          0x00000000c002e32e      0x425 acpica/utstrsuppt.32
                0x00000000c002e32e                AcpiUtConvertOctalString
                0x00000000c002e3a8                AcpiUtConvertDecimalString
                0x00000000c002e42b                AcpiUtConvertHexString
                0x00000000c002e4a8                AcpiUtRemoveLeadingZeros
                0x00000000c002e4ce                AcpiUtRemoveWhitespace
                0x00000000c002e503                AcpiUtDetectHexPrefix
                0x00000000c002e531                AcpiUtRemoveHexPrefix
                0x00000000c002e56e                AcpiUtDetectOctalPrefix
 .text          0x00000000c002e753      0x238 acpica/utstrtoul64.32
                0x00000000c002e753                AcpiUtStrtoul64
                0x00000000c002e865                AcpiUtImplicitStrtoul64
                0x00000000c002e8e1                AcpiUtExplicitStrtoul64
 .text          0x00000000c002e98b        0x0 acpica/uttrack.32
 .text          0x00000000c002e98b        0x0 acpica/utuuid.32
 .text          0x00000000c002e98b      0x641 acpica/utxface.32
                0x00000000c002e98b                AcpiTerminate
                0x00000000c002e9a8                AcpiSubsystemStatus
                0x00000000c002e9c0                AcpiGetSystemInfo
                0x00000000c002ea76                AcpiGetStatistics
                0x00000000c002eacc                AcpiInstallInitializationHandler
                0x00000000c002eafb                AcpiPurgeCachedObjects
                0x00000000c002eb4c                AcpiInstallInterface
                0x00000000c002ec0d                AcpiRemoveInterface
                0x00000000c002ec81                AcpiInstallInterfaceHandler
                0x00000000c002ece5                AcpiUpdateInterfaces
                0x00000000c002ed42                AcpiCheckAddressRange
                0x00000000c002edb2                AcpiDecodePldBuffer
 .text          0x00000000c002efcc      0x245 acpica/utxferror.32
                0x00000000c002efcc                AcpiError
                0x00000000c002f015                AcpiException
                0x00000000c002f085                AcpiWarning
                0x00000000c002f0ce                AcpiInfo
                0x00000000c002f10f                AcpiBiosError
                0x00000000c002f158                AcpiBiosException
                0x00000000c002f1c8                AcpiBiosWarning
 .text          0x00000000c002f211      0x218 acpica/utxfinit.32
                0x00000000c002f211                AcpiInitializeSubsystem
                0x00000000c002f30f                AcpiEnableSubsystem
                0x00000000c002f3da                AcpiInitializeObjects
 .text          0x00000000c002f429      0x129 acpica/utxfmutex.32
                0x00000000c002f4bd                AcpiAcquireMutex
                0x00000000c002f50e                AcpiReleaseMutex
 .text          0x00000000c002f552     0x1dd5 core/malloc.32
                0x00000000c002fb3b                dlmalloc
                0x00000000c003029e                dlfree
                0x00000000c003065a                dlrealloc
                0x00000000c00309ab                dlmemalign
                0x00000000c0030bbc                dlcalloc
                0x00000000c0030ce2                dlcfree
                0x00000000c0030cf9                dlindependent_calloc
                0x00000000c0030d1b                dlindependent_comalloc
                0x00000000c0030fba                dlvalloc
                0x00000000c0030ff5                dlpvalloc
                0x00000000c0031045                dlmalloc_trim
                0x00000000c0031064                dlmalloc_usable_size
                0x00000000c00310c3                dlmallinfo
                0x00000000c0031234                dlmalloc_stats
                0x00000000c0031246                dlmallopt
 .text          0x00000000c0031327        0x0 libk/string.32
 .text          0x00000000c0031327       0xd6 fs/fat/diskio.32
                0x00000000c0031327                disk_status
                0x00000000c0031337                disk_initialize
                0x00000000c0031347                disk_read
                0x00000000c0031387                disk_write
                0x00000000c00313c7                disk_ioctl
 .text          0x00000000c00313fd     0xb16e fs/fat/ff.32
                0x00000000c00363a3                f_mount
                0x00000000c003642e                f_open
                0x00000000c0036a7f                f_read
                0x00000000c0036ede                f_write
                0x00000000c00373e4                f_sync
                0x00000000c0037706                f_close
                0x00000000c003774d                f_lseek
                0x00000000c00380ad                f_opendir
                0x00000000c0038236                f_closedir
                0x00000000c0038266                f_readdir
                0x00000000c003834f                f_stat
                0x00000000c0038406                f_getfree
                0x00000000c0038678                f_truncate
                0x00000000c0038839                f_unlink
                0x00000000c0038a6b                f_mkdir
                0x00000000c0038ddd                f_rename
                0x00000000c0039263                f_chmod
                0x00000000c00393af                f_utime
                0x00000000c0039500                f_getlabel
                0x00000000c00397dd                f_setlabel
                0x00000000c0039b62                f_forward
                0x00000000c003a87a                f_mkfs
 .text          0x00000000c003c56b       0x2d fs/fat/ffsystem.32
                0x00000000c003c56b                ff_memalloc
                0x00000000c003c581                ff_memfree
 .text          0x00000000c003c598      0x20b fs/fat/ffunicode.32
                0x00000000c003c598                ff_uni2oem
                0x00000000c003c618                ff_oem2uni
                0x00000000c003c678                ff_wtoupper
 .text          0x00000000c003c7a3      0xb2f hal/libresample/samplerate.32
                0x00000000c003c7e5                src_new
                0x00000000c003c8a6                src_callback_new
                0x00000000c003c92a                src_delete
                0x00000000c003c97f                src_process
                0x00000000c003cb47                src_callback_read
                0x00000000c003cd39                src_set_ratio
                0x00000000c003cda1                src_get_channels
                0x00000000c003cddd                src_reset
                0x00000000c003ce45                src_get_name
                0x00000000c003cea6                src_get_description
                0x00000000c003cf07                src_get_version
                0x00000000c003cf0d                src_is_valid_ratio
                0x00000000c003cf3f                src_error
                0x00000000c003cf57                src_strerror
                0x00000000c003d034                src_simple
                0x00000000c003d08e                src_short_to_float_array
                0x00000000c003d0d7                src_float_to_short_array
                0x00000000c003d179                src_int_to_float_array
                0x00000000c003d1c3                src_float_to_int_array
 .text          0x00000000c003d2d2      0x700 hal/libresample/src_linear.32
                0x00000000c003d882                linear_get_name
                0x00000000c003d899                linear_get_description
                0x00000000c003d8b0                linear_set_converter
 .text          0x00000000c003d9d2     0x31a9 hal/libresample/src_sinc.32
                0x00000000c003dad7                sinc_get_name
                0x00000000c003db08                sinc_get_description
                0x00000000c003db3b                sinc_set_converter
 .text          0x00000000c0040b7b      0x680 hal/libresample/src_zoh.32
                0x00000000c00410b2                zoh_get_name
                0x00000000c00410c9                zoh_get_description
                0x00000000c00410e0                zoh_set_converter
 .text          0x00000000c00411fb      0xf96 acpica/osl.32
                0x00000000c00411fb                isalnum
                0x00000000c0041230                isalpha
                0x00000000c0041265                isblank
                0x00000000c004127f                iscntrl
                0x00000000c0041299                isdigit
                0x00000000c00412b3                isgraph
                0x00000000c00412e8                islower
                0x00000000c0041302                isprint
                0x00000000c004132b                ispunct
                0x00000000c0041372                isspace
                0x00000000c0041395                isupper
                0x00000000c00413af                isxdigit
                0x00000000c00413ea                AcpiOsInitialize
                0x00000000c00413f0                AcpiOsTerminate
                0x00000000c00413f6                AcpiOsGetRootPointer
                0x00000000c0041421                AcpiOsPredefinedOverride
                0x00000000c0041447                AcpiOsTableOverride
                0x00000000c004145a                AcpiOsPhysicalTableOverride
                0x00000000c0041474                AcpiOsReadPort
                0x00000000c0041508                AcpiOsWritePort
                0x00000000c0041590                AcpiOsGetTimer
                0x00000000c00415b1                AcpiOsWaitEventsComplete
                0x00000000c00415ca                AcpiOsReadPciConfiguration
                0x00000000c0041683                AcpiOsWritePciConfiguration
                0x00000000c0041758                AcpiOsSignal
                0x00000000c004178d                AcpiOsReadMemory
                0x00000000c0041842                AcpiOsEnterSleep
                0x00000000c0041855                AcpiOsWriteMemory
                0x00000000c00418f2                AcpiOsMapMemory
                0x00000000c00419d7                AcpiOsUnmapMemory
                0x00000000c00419d9                AcpiOsGetPhysicalAddress
                0x00000000c0041a08                AcpiOsAllocate
                0x00000000c0041a24                AcpiOsFree
                0x00000000c0041a3b                AcpiOsReadable
                0x00000000c0041a55                AcpiOsWritable
                0x00000000c0041a6f                AcpiOsGetThreadId
                0x00000000c0041a7a                AcpiOsExecute
                0x00000000c0041a97                AcpiOsSleep
                0x00000000c0041ad7                AcpiOsStall
                0x00000000c0041b30                AcpiOsCreateSemaphore
                0x00000000c0041b75                AcpiOsDeleteSemaphore
                0x00000000c0041b92                AcpiOsWaitSemaphore
                0x00000000c0041c56                AcpiOsSignalSemaphore
                0x00000000c0041c7e                AcpiOsCreateLock
                0x00000000c0041caa                AcpiOsDeleteLock
                0x00000000c0041cac                AcpiOsAcquireLock
                0x00000000c0041cc2                AcpiOsReleaseLock
                0x00000000c0041cdc                Subhandler
                0x00000000c0041d10                AcpiOsInstallInterruptHandler
                0x00000000c0041d69                AcpiOsRemoveInterruptHandler
                0x00000000c0041d86                __i__int_str
                0x00000000c00420cc                __i_displayCharacter
                0x00000000c0042123                __i_displayString
                0x00000000c0042168                __i_internal_printf
                0x00000000c004216e                AcpiOsVprintf
                0x00000000c0042170                AcpiOsPrintf
 *fill*         0x00000000c0042191        0x1 
 .text          0x00000000c0042192      0xc0f core/computer.32
                0x00000000c0042192                Computer::Computer()
                0x00000000c0042192                Computer::Computer()
                0x00000000c00422d6                Computer::setBootMessage(char const*)
                0x00000000c00422d8                Computer::open(int, int, void*)
                0x00000000c0042434                Computer::start()
                0x00000000c0042604                Computer::detectFeatures()
                0x00000000c0042ac2                Computer::displayFeatures()
                0x00000000c0042ac4                Computer::rdmsr(unsigned int)
                0x00000000c0042b00                Computer::wrmsr(unsigned int, unsigned long long)
                0x00000000c0042b40                Computer::close(int, int, void*)
                0x00000000c0042b88                Computer::nmiEnabled()
                0x00000000c0042b96                Computer::enableNMI(bool)
                0x00000000c0042bc2                Computer::disableNMI()
                0x00000000c0042bdb                firstTask()
                0x00000000c0042bf6                Computer::readCMOS(unsigned char)
                0x00000000c0042c44                Computer::writeCMOS(unsigned char, unsigned char)
                0x00000000c0042c9a                Computer::handleNMI()
                0x00000000c0042d2a                Computer::setDiskActivityLight(int, bool)
 .text          0x00000000c0042da1     0x167f core/elf.32
                0x00000000c0042da1                allocateMemoryForTask(Process*, File*, unsigned long, unsigned long, unsigned long)
                0x00000000c004303c                loadProgramIntoMemory(Process*, char const*)
                0x00000000c00433d4                runtimeReferenceHelper()
                0x00000000c00433ed                getAddressOfKernelSymbol(char const*)
                0x00000000c004346d                loadKernelSymbolTable(char const*)
                0x00000000c00438de                loadDriverIntoMemory(char const*, unsigned long)
                0x00000000c0044275                loadDLL(char const*)
                0x00000000c0044409                executeDLL(unsigned long, void*)
 .text          0x00000000c0044420      0x2be core/gdt.32
                0x00000000c0044420                GDTEntry::setBase(unsigned int)
                0x00000000c0044466                GDTEntry::setLimit(unsigned int)
                0x00000000c0044494                GDT::GDT()
                0x00000000c0044494                GDT::GDT()
                0x00000000c00444ac                GDT::addEntry(GDTEntry)
                0x00000000c00444da                GDT::getNumberOfEntries()
                0x00000000c00444e4                GDT::flush()
                0x00000000c004450c                GDT::setup()
 .text          0x00000000c00446de       0x91 core/idle.32
                0x00000000c00446de                idleFunction(void*)
 *fill*         0x00000000c004476f        0x1 
 .text          0x00000000c0044770      0x49b core/idt.32
                0x00000000c0044770                IDTEntry::IDTEntry(bool)
                0x00000000c0044770                IDTEntry::IDTEntry(bool)
                0x00000000c00447d8                IDTEntry::setOffset(unsigned int)
                0x00000000c00447f4                IDT::IDT()
                0x00000000c00447f4                IDT::IDT()
                0x00000000c00447f6                IDT::getPointerToInvalidOpcodeEntryForF00F()
                0x00000000c0044802                IDT::addEntry(IDTEntry, int)
                0x00000000c004481e                IDT::addEntry(int, void (*)(), bool)
                0x00000000c0044866                IDT::flush()
                0x00000000c0044884                IDT::setup()
 .text          0x00000000c0044c0b      0x6dc core/kconsole.32
                0x00000000c0044c0b                panic(char const*)
                0x00000000c0045051                stringifyxWithBase(unsigned int, char*, int)
                0x00000000c00450e8                logc(char)
                0x00000000c0045132                logs(char*)
                0x00000000c004515a                logWriteInt(unsigned int)
                0x00000000c004517d                logWriteIntBase(unsigned int, int)
                0x00000000c00451a1                kprintf(char const*, ...)
 .text          0x00000000c00452e7      0x23a core/kheap.32
                0x00000000c00452e7                sbrk
                0x00000000c00453e5                mmap
                0x00000000c0045402                munmap
                0x00000000c004541f                liballoc_lock()
                0x00000000c0045431                liballoc_unlock()
                0x00000000c0045443                liballoc_alloc(int)
                0x00000000c0045467                liballoc_free(void*, int)
                0x00000000c0045489                realloc
                0x00000000c00454a2                malloc
                0x00000000c00454b8                free
                0x00000000c00454cf                rfree
                0x00000000c00454e6                calloc
 .text          0x00000000c0045521      0x64a core/main.32
                0x00000000c0045521                hwTextMode_loadInData(VgaText*)
                0x00000000c0045585                hwTextMode_loadInTitle(VgaText*, char*)
                0x00000000c00455e7                hwTextMode_scrollScreen(VgaText*)
                0x00000000c00456e1                hwTextMode_writeCharacter(VgaText*, char, VgaColour, VgaColour, int, int)
                0x00000000c0045768                hwTextMode_showCursor(VgaText*, bool)
                0x00000000c0045835                hwTextMode_update(VgaText*)
                0x00000000c0045837                hwTextMode_updateCursor(VgaText*)
                0x00000000c00458d3                hwTextMode_disableBlink(VgaText*, bool)
                0x00000000c0045988                setupTextMode()
                0x00000000c00459da                kernel_main
 .text          0x00000000c0045b6b      0x67d core/physmgr.32
                0x00000000c0045b6b                PhysMem::allocateDMA(unsigned long)
                0x00000000c0045c71                PhysMem::freeDMA(unsigned long, unsigned long)
                0x00000000c0045cda                PhysMem::setPageState(unsigned long, bool)
                0x00000000c0045d61                PhysMem::getPageState(unsigned long)
                0x00000000c0045da1                PhysMem::freePage(unsigned long)
                0x00000000c0045e54                PhysMem::allocatePage()
                0x00000000c0045f45                PhysMem::allowSegmentToBeUsed(unsigned long, unsigned long)
                0x00000000c0045f98                PhysMem::physicalMemorySetup(unsigned int)
 .text          0x00000000c00461e8      0x347 core/pipe.32
                0x00000000c00461e8                Pipe::Pipe(int)
                0x00000000c00461e8                Pipe::Pipe(int)
                0x00000000c0046248                Pipe::~Pipe()
                0x00000000c0046248                Pipe::~Pipe()
                0x00000000c004626a                Pipe::~Pipe()
                0x00000000c0046290                Pipe::isAtty()
                0x00000000c0046294                Pipe::read(unsigned long long, void*, int*)
                0x00000000c00463ee                Pipe::write(unsigned long long, void*, int*)
 *fill*         0x00000000c004652f        0x1 
 .text          0x00000000c0046530     0x1832 core/prcssthr.32
                0x00000000c0046530                changeTSS
                0x00000000c0046567                switchToThread(ThreadControlBlock*)
                0x00000000c00465d0                Process::createUserThread()
                0x00000000c00465f0                Process::createThread(void (*)(void*), void*, int)
                0x00000000c0046808                Process::addArgs(char**)
                0x00000000c00468ed                setupMultitasking(void (*)())
                0x00000000c0046a5c                Process::Process(char const*, Process*, char**)
                0x00000000c0046a5c                Process::Process(char const*, Process*, char**)
                0x00000000c0046bfc                Process::Process(bool, char const*, Process*, char**)
                0x00000000c0046bfc                Process::Process(bool, char const*, Process*, char**)
                0x00000000c0046d6b                forkProcess(regs*)
                0x00000000c0046f73                execveProcess(char const*, char* const*, char* const*)
                0x00000000c0047035                disableIRQs()
                0x00000000c0047043                getIRQNestingLevel()
                0x00000000c0047049                enableIRQs()
                0x00000000c0047060                lockScheduler()
                0x00000000c004706e                unlockScheduler()
                0x00000000c004707c                lockStuff()
                0x00000000c0047095                unlockStuff()
                0x00000000c00470cf                userModeEntryPoint(void*)
                0x00000000c00470fa                taskStartupFunction
                0x00000000c0047105                schedule()
                0x00000000c00471b1                updateTimeUsed()
                0x00000000c004724a                cleanupTerminatedTask(ThreadControlBlock*)
                0x00000000c0047721                waitTask(int, int*, int)
                0x00000000c004777e                cleanerTaskFunction(void*)
                0x00000000c0047818                terminateTask(int)
                0x00000000c00478b3                blockTaskWithSchedulerLockAlreadyHeld(TaskState)
                0x00000000c00478ff                blockTask(TaskState)
                0x00000000c0047924                unblockTask(ThreadControlBlock*)
                0x00000000c00479f9                nanoSleepUntil(unsigned long long)
                0x00000000c0047a67                nanoSleep(unsigned long long)
                0x00000000c0047aa3                sleep(unsigned long long)
                0x00000000c0047ae3                taskReturned
                0x00000000c0047b26                Semaphore::Semaphore(int)
                0x00000000c0047b26                Semaphore::Semaphore(int)
                0x00000000c0047b52                Semaphore::tryAcquire()
                0x00000000c0047b8e                Semaphore::assertLocked(char const*)
                0x00000000c0047bbe                Semaphore::acquire()
                0x00000000c0047c42                Semaphore::release()
                0x00000000c0047c94                Mutex::Mutex()
                0x00000000c0047c94                Mutex::Mutex()
 .text          0x00000000c0047d62     0x15e0 core/syscalls.32
                0x00000000c0047d62                sysCallWrite(regs*)
                0x00000000c0047dfc                sysCallRead(regs*)
                0x00000000c0047e96                sysCallGetPID(regs*)
                0x00000000c0047ea4                sysCallGetCwd(regs*)
                0x00000000c0047ed5                sysCallSetCwd(regs*)
                0x00000000c0047efd                string_ends_with(char const*, char const*)
                0x00000000c0047f58                sysCallOpen(regs*)
                0x00000000c0048106                sysCallSeek(regs*)
                0x00000000c004817b                sysCallTell(regs*)
                0x00000000c00481ea                sysCallSizeFromFilename(regs*)
                0x00000000c00482a4                sysCallSize(regs*)
                0x00000000c0048319                sysCallClose(regs*)
                0x00000000c0048387                sysCallOpenDir(regs*)
                0x00000000c004843a                sysCallReadDir(regs*)
                0x00000000c00484f4                sysCallSeekDir(regs*)
                0x00000000c00484ff                sysCallTellDir(regs*)
                0x00000000c004850a                sysCallMakeDir(regs*)
                0x00000000c00485a5                sysCallCloseDir(regs*)
                0x00000000c0048613                sysCallVerify(regs*)
                0x00000000c0048623                sysCallWait(regs*)
                0x00000000c0048650                sysCallFork(regs*)
                0x00000000c0048677                sysCallExecve(regs*)
                0x00000000c00486e2                sysCallRmdir(regs*)
                0x00000000c004876e                sysCallUnlink(regs*)
                0x00000000c00487fa                sysCallGetArgc(regs*)
                0x00000000c004880c                sysCallGetArgv(regs*)
                0x00000000c00488a7                sysCallRealpath(regs*)
                0x00000000c0048908                sysCallTTYName(regs*)
                0x00000000c00489c1                sysCallIsATTY(regs*)
                0x00000000c0048a2c                sysCallUSleep(regs*)
                0x00000000c0048ab1                sysCallSpawn(regs*)
                0x00000000c0048b5c                sysCallGetEnv(regs*)
                0x00000000c0048bc8                sysAppSettings(regs*)
                0x00000000c0048d62                sysFormatDisk(regs*)
                0x00000000c0048e12                sysSetDiskVolumeLabel(regs*)
                0x00000000c0048ea4                sysGetDiskVolumeLabel(regs*)
                0x00000000c0048f51                sysSetFatAttrib(regs*)
                0x00000000c0048ff4                sysPanic(regs*)
                0x00000000c0049028                sysShutdown(regs*)
                0x00000000c0049095                sysPipe(regs*)
                0x00000000c004910c                sysGetUnixTime(regs*)
                0x00000000c004912b                setupSystemCalls()
                0x00000000c00492db                systemCall(regs*, void*)
 .text          0x00000000c0049342     0x1942 core/terminal.32
                0x00000000c0049342                setTerminalScrollLock(bool)
                0x00000000c0049351                doTerminalCycle()
                0x00000000c004937b                addToTerminalCycle(VgaText*)
                0x00000000c00493ca                setActiveTerminal(VgaText*)
                0x00000000c00494c2                installVgaTextImplementation()
                0x00000000c00494df                scrollTerminalScrollLock(int)
                0x00000000c00494e2                VgaText::updateTitle()
                0x00000000c004956a                VgaText::load()
                0x00000000c004960e                VgaText::scrollScreen()
                0x00000000c004975a                VgaText::writeCharacter(char, VgaColour, VgaColour, int, int)
                0x00000000c004980c                VgaText::puts(char const*, VgaColour, VgaColour)
                0x00000000c0049b14                VgaText::updateCursor()
                0x00000000c0049b48                VgaText::showCursor(bool)
                0x00000000c0049b6c                VgaText::disableBlink(bool)
                0x00000000c0049bbc                VgaText::putchar(char, VgaColour, VgaColour)
                0x00000000c0049d1a                VgaText::doANSI_SGR(int)
                0x00000000c0049e46                VgaText::putchar(char)
                0x00000000c004a014                VgaText::puts(char const*)
                0x00000000c004a054                VgaText::clearScreen()
                0x00000000c004a0e8                VgaText::setDefaultBgColour(VgaColour)
                0x00000000c004a106                VgaText::setDefaultFgColour(VgaColour)
                0x00000000c004a124                VgaText::setDefaultColours(VgaColour, VgaColour)
                0x00000000c004a150                VgaText::setTitleTextColour(VgaColour)
                0x00000000c004a174                VgaText::setTitleColour(VgaColour)
                0x00000000c004a198                VgaText::setTitle(char*)
                0x00000000c004a1c6                VgaText::combineColours(unsigned char, unsigned char)
                0x00000000c004a1ec                VgaText::combineCharAndColour(char, unsigned char)
                0x00000000c004a210                VgaText::getCursorX()
                0x00000000c004a21e                VgaText::getCursorY()
                0x00000000c004a22c                VgaText::setCursor(int, int)
                0x00000000c004a25c                VgaText::setCursorX(int)
                0x00000000c004a280                VgaText::setCursorY(int)
                0x00000000c004a2a4                VgaText::incrementCursor(bool)
                0x00000000c004a346                VgaText::updateRAMUsageDisplay(int)
                0x00000000c004a41a                VgaText::putx(unsigned int)
                0x00000000c004a474                VgaText::updateDiskUsage()
                0x00000000c004a7a4                VgaText::decrementCursor(bool)
                0x00000000c004a7ea                VgaText::isShowingCursor()
                0x00000000c004a7f8                VgaText::isBlinkDisabled()
                0x00000000c004a80a                VgaText::setCursorHeight(int)
                0x00000000c004a834                VgaText::getCursorHeight()
                0x00000000c004a842                VgaText::~VgaText()
                0x00000000c004a842                VgaText::~VgaText()
                0x00000000c004a864                VgaText::~VgaText()
                0x00000000c004a88e                VgaText::VgaText(char const*)
                0x00000000c004a88e                VgaText::VgaText(char const*)
                0x00000000c004aa12                VgaText::receiveKey(unsigned char)
                0x00000000c004ab6a                VgaText::read(unsigned long long, void*, int*)
                0x00000000c004aba0                VgaText::doUpdate()
                0x00000000c004abca                VgaText::write(unsigned long long, void*, int*)
                0x00000000c004ac52                VgaText::isAtty()
                0x00000000c004ac55                newTerminal(char*)
 .text          0x00000000c004ac84      0x106 core/tss.32
                0x00000000c004ac84                TSS::TSS()
                0x00000000c004ac84                TSS::TSS()
                0x00000000c004ac86                TSS::setESP(unsigned long)
                0x00000000c004aca2                TSS::setup(unsigned long)
 .text          0x00000000c004ad8a      0x46a core/unixfile.32
                0x00000000c004ad8a                UnixFile::UnixFile(int)
                0x00000000c004ad8a                UnixFile::UnixFile(int)
                0x00000000c004adc4                UnixFile::~UnixFile()
                0x00000000c004adc4                UnixFile::~UnixFile()
                0x00000000c004ae44                UnixFile::~UnixFile()
                0x00000000c004ae6a                UnixFile::getFileDescriptor()
                0x00000000c004ae75                getFromFileDescriptor(int)
                0x00000000c004aec4                ReservedFilename::ReservedFilename(int)
                0x00000000c004aec4                ReservedFilename::ReservedFilename(int)
                0x00000000c004aeea                ReservedFilename::~ReservedFilename()
                0x00000000c004aeea                ReservedFilename::~ReservedFilename()
                0x00000000c004af0c                ReservedFilename::~ReservedFilename()
                0x00000000c004af32                ReservedFilename::read(unsigned long long, void*, int*)
                0x00000000c004b02a                ReservedFilename::isAtty()
                0x00000000c004b0a2                ReservedFilename::write(unsigned long long, void*, int*)
 .text          0x00000000c004b1f4     0x12a5 core/virtmgr.32
                0x00000000c004b1f4                VirtMem::setPageState(unsigned long, VirtMem::VirtPageState)
                0x00000000c004b283                VirtMem::getPageState(unsigned long)
                0x00000000c004b2d7                VirtMem::allocateKernelVirtualPages(int)
                0x00000000c004b41d                VirtMem::freeKernelVirtualPages(unsigned long)
                0x00000000c004b562                VirtMem::virtualMemorySetup()
                0x00000000c004b612                VirtMem::getAKernelVAS()
                0x00000000c004b618                VirtMem::setupPageSwapping(int)
                0x00000000c004b79e                VAS::allocatePages(int, int)
                0x00000000c004b952                VAS::virtualToPhysical(unsigned long)
                0x00000000c004b972                VAS::freeAllocatedPages(unsigned long)
                0x00000000c004b9a6                VAS::VAS()
                0x00000000c004b9a6                VAS::VAS()
                0x00000000c004b9d6                VAS::~VAS()
                0x00000000c004b9d6                VAS::~VAS()
                0x00000000c004bb30                VAS::VAS(VAS*)
                0x00000000c004bb30                VAS::VAS(VAS*)
                0x00000000c004be5a                VAS::VAS(bool)
                0x00000000c004be5a                VAS::VAS(bool)
                0x00000000c004c05c                VAS::mapRange(unsigned long, unsigned long, int, int)
                0x00000000c004c116                VAS::getForeignPageTableEntry(bool, unsigned long)
                0x00000000c004c168                VAS::getPageTableEntry(unsigned long)
                0x00000000c004c1a4                VAS::mapOtherVASIn(bool, VAS*)
                0x00000000c004c202                VAS::mapForeignPage(bool, VAS*, unsigned long, unsigned long, int)
                0x00000000c004c2b4                VAS::mapPage(unsigned long, unsigned long, int)
                0x00000000c004c37a                mapVASFirstTime
 .text          0x00000000c004c499      0x121 coreobjs/c++.32
                0x00000000c004c499                __cxa_atexit
                0x00000000c004c49f                __cxa_finalize
                0x00000000c004c4a1                __stack_chk_fail
                0x00000000c004c519                __cxa_pure_virtual
                0x00000000c004c532                operator new(unsigned long)
                0x00000000c004c548                operator new[](unsigned long)
                0x00000000c004c55e                operator delete(void*)
                0x00000000c004c575                operator delete(void*, unsigned long)
                0x00000000c004c58c                operator delete[](void*)
                0x00000000c004c5a3                operator delete[](void*, unsigned long)
 .text          0x00000000c004c5ba        0x0 debugger/debug.32
 .text          0x00000000c004c5ba     0x164f fs/vfs.32
                0x00000000c004c5ba                Filesystem::Filesystem()
                0x00000000c004c5ba                Filesystem::Filesystem()
                0x00000000c004c5de                Filesystem::~Filesystem()
                0x00000000c004c5de                Filesystem::~Filesystem()
                0x00000000c004c5ee                Filesystem::~Filesystem()
                0x00000000c004c614                initVFS()
                0x00000000c004c63f                standardiseFiles(char*, char const*, char const*)
                0x00000000c004c9fa                File::File(char const*, Process*)
                0x00000000c004c9fa                File::File(char const*, Process*)
                0x00000000c004ca56                File::~File()
                0x00000000c004ca56                File::~File()
                0x00000000c004ca78                File::~File()
                0x00000000c004caa2                File::open(FileOpenMode)
                0x00000000c004cb6e                File::read(unsigned long long, void*, int*)
                0x00000000c004cc3a                File::write(unsigned long long, void*, int*)
                0x00000000c004cd06                File::close()
                0x00000000c004cdbe                File::seek(unsigned long long)
                0x00000000c004ce7e                File::tell(unsigned long long*)
                0x00000000c004cf32                File::rewind()
                0x00000000c004cf4c                File::unlink()
                0x00000000c004cff8                File::rename(char const*)
                0x00000000c004d0a6                File::chfatattr(unsigned char, unsigned char)
                0x00000000c004d16c                File::exists()
                0x00000000c004d204                File::stat(unsigned long long*, bool*)
                0x00000000c004d30b                getcwd(Process*, char*, int)
                0x00000000c004d36c                setcwd(Process*, char*)
                0x00000000c004d570                Directory::Directory(char const*, Process*)
                0x00000000c004d570                Directory::Directory(char const*, Process*)
                0x00000000c004d5cc                Directory::~Directory()
                0x00000000c004d5cc                Directory::~Directory()
                0x00000000c004d5ee                Directory::~Directory()
                0x00000000c004d618                Directory::open()
                0x00000000c004d6e4                Directory::read(unsigned long long, void*, int*)
                0x00000000c004d7b0                Directory::write(unsigned long long, void*, int*)
                0x00000000c004d812                Directory::close()
                0x00000000c004d8ca                Directory::unlink()
                0x00000000c004d976                Directory::rename(char const*)
                0x00000000c004da24                Directory::exists()
                0x00000000c004dabc                Directory::read(dirent*)
                0x00000000c004db30                Directory::create()
                0x00000000c004dbdc                File::isAtty()
                0x00000000c004dbe0                Directory::isAtty()
                0x00000000c004dbe4                Filesystem::getlabel(LogicalDisk*, int, char*, unsigned int*)
                0x00000000c004dbea                Filesystem::setlabel(LogicalDisk*, int, char*)
                0x00000000c004dbf0                Filesystem::chfatattr(char const*, unsigned char, unsigned char)
 *fill*         0x00000000c004dc09        0x1 
 .text          0x00000000c004dc0a       0x7d hal/bus.32
                0x00000000c004dc0a                Bus::Bus(char const*)
                0x00000000c004dc0a                Bus::Bus(char const*)
                0x00000000c004dc3c                Bus::~Bus()
                0x00000000c004dc3c                Bus::~Bus()
                0x00000000c004dc5e                Bus::~Bus()
 *fill*         0x00000000c004dc87        0x1 
 .text          0x00000000c004dc88      0x1b2 hal/buzzer.32
                0x00000000c004dc88                Buzzer::Buzzer(char const*)
                0x00000000c004dc88                Buzzer::Buzzer(char const*)
                0x00000000c004dcc8                Buzzer::~Buzzer()
                0x00000000c004dcc8                Buzzer::~Buzzer()
                0x00000000c004dcea                Buzzer::~Buzzer()
                0x00000000c004dd13                beepThread(void*)
                0x00000000c004dd6e                Buzzer::beep(int, int, bool)
                0x00000000c004de1a                Buzzer::stop()
 .text          0x00000000c004de3a      0x6af hal/clock.32
                0x00000000c004de3a                loadClockSettings()
                0x00000000c004de54                Clock::Clock(char const*)
                0x00000000c004de54                Clock::Clock(char const*)
                0x00000000c004de86                Clock::~Clock()
                0x00000000c004de86                Clock::~Clock()
                0x00000000c004dea8                Clock::~Clock()
                0x00000000c004ded2                Clock::timeInSecondsLocal()
                0x00000000c004df40                Clock::timeInDatetimeLocal()
                0x00000000c004df6c                Clock::setTimeInSecondsLocal(unsigned long long)
                0x00000000c004dff2                Clock::setTimeInDatetimeLocal(datetime_t)
                0x00000000c004e077                datetimeToSeconds(datetime_t)
                0x00000000c004e2a2                secondsToDatetime(unsigned long long)
 *fill*         0x00000000c004e4e9        0x1 
 .text          0x00000000c004e4ea      0x906 hal/device.32
                0x00000000c004e4ea                Device::Device(char const*)
                0x00000000c004e4ea                Device::Device(char const*)
                0x00000000c004e5cc                Device::~Device()
                0x00000000c004e5cc                Device::~Device()
                0x00000000c004e5dc                Device::~Device()
                0x00000000c004e606                Device::findAndLoadDriver()
                0x00000000c004e866                Device::preOpenPCI(PCIDeviceInfo)
                0x00000000c004e89a                Device::preOpenACPI(void*, char*, char*)
                0x00000000c004e8ee                Device::addIRQHandler(int, void (*)(regs*, void*), bool, void*)
                0x00000000c004e960                Device::removeIRQHandler(int, void (*)(regs*, void*), bool)
                0x00000000c004e9c0                Device::addChild(Device*)
                0x00000000c004ea2c                Device::removeAllChildren()
                0x00000000c004ea9a                Device::hibernateAll()
                0x00000000c004eaea                Device::wakeAll()
                0x00000000c004eb3a                Device::detectAll()
                0x00000000c004eb8a                Device::disableLegacyAll()
                0x00000000c004ebda                Device::loadDriversForAll()
                0x00000000c004ec30                Device::closeAll()
                0x00000000c004ec82                Device::powerSavingAll(PowerSavingLevel)
                0x00000000c004ecd8                Device::setName(char const*)
                0x00000000c004ecf8                Device::getName()
                0x00000000c004ed06                Device::addToLinkedList(LinkedList<Device>&, DeviceType)
                0x00000000c004ed66                Device::hibernate()
                0x00000000c004ed68                Device::wake()
                0x00000000c004ed6a                Device::detect()
                0x00000000c004ed6c                Device::disableLegacy()
                0x00000000c004ed6e                Device::powerSaving(PowerSavingLevel)
                0x00000000c004ed70                getDevicesOfType(DeviceType)
                0x00000000c004eda4                DriverlessDevice::DriverlessDevice(char const*)
                0x00000000c004eda4                DriverlessDevice::DriverlessDevice(char const*)
                0x00000000c004edca                DriverlessDevice::open(int, int, void*)
                0x00000000c004ede8                DriverlessDevice::close(int, int, void*)
                0x00000000c004edee                DriverlessDevice::detect()
 .text          0x00000000c004edf0       0x7d hal/diskctrl.32
                0x00000000c004edf0                HardDiskController::HardDiskController(char const*)
                0x00000000c004edf0                HardDiskController::HardDiskController(char const*)
                0x00000000c004ee22                HardDiskController::~HardDiskController()
                0x00000000c004ee22                HardDiskController::~HardDiskController()
                0x00000000c004ee44                HardDiskController::~HardDiskController()
 *fill*         0x00000000c004ee6d        0x1 
 .text          0x00000000c004ee6e       0xdf hal/diskphys.32
                0x00000000c004ee6e                PhysicalDisk::PhysicalDisk(char const*, int)
                0x00000000c004ee6e                PhysicalDisk::PhysicalDisk(char const*, int)
                0x00000000c004eece                PhysicalDisk::startCache()
                0x00000000c004ef02                PhysicalDisk::~PhysicalDisk()
                0x00000000c004ef02                PhysicalDisk::~PhysicalDisk()
                0x00000000c004ef24                PhysicalDisk::~PhysicalDisk()
 *fill*         0x00000000c004ef4d        0x1 
 .text          0x00000000c004ef4e      0x171 hal/fpu.32
                0x00000000c004ef4e                FPU::FPU(char const*)
                0x00000000c004ef4e                FPU::FPU(char const*)
                0x00000000c004ef80                FPU::~FPU()
                0x00000000c004ef80                FPU::~FPU()
                0x00000000c004efa2                FPU::~FPU()
                0x00000000c004efcb                setupFPU()
 *fill*         0x00000000c004f0bf        0x1 
 .text          0x00000000c004f0c0      0xef3 hal/intctrl.32
                0x00000000c004f0c0                int_handler
                0x00000000c004f1ee                InterruptController::installISRHandler(int, void (*)(regs*, void*), void*)
                0x00000000c004f272                InterruptController::installIRQHandler(int, void (*)(regs*, void*), bool, void*)
                0x00000000c004f358                InterruptController::uninstallISRHandler(int, void (*)(regs*, void*))
                0x00000000c004f3ce                InterruptController::clearAllHandlers(int, bool)
                0x00000000c004f47e                InterruptController::uninstallIRQHandler(int, void (*)(regs*, void*), bool)
                0x00000000c004f54c                InterruptController::InterruptController(char const*)
                0x00000000c004f54c                InterruptController::InterruptController(char const*)
                0x00000000c004f5e2                InterruptController::~InterruptController()
                0x00000000c004f5e2                InterruptController::~InterruptController()
                0x00000000c004f604                InterruptController::~InterruptController()
                0x00000000c004f62d                displayDebugInfo(regs*)
                0x00000000c004f948                displayProgramFault(char const*)
                0x00000000c004f985                gpFault(regs*, void*)
                0x00000000c004f9f7                pgFault(regs*, void*)
                0x00000000c004fa3b                nmiHandler(regs*, void*)
                0x00000000c004fa55                otherISRHandler(regs*, void*)
                0x00000000c004faa7                opcodeFault(regs*, void*)
                0x00000000c004fb94                doubleFault(regs*, void*)
                0x00000000c004fbad                setupInterruptController()
                0x00000000c004ff66                InterruptController::convertLegacyIRQNumber(int)
 *fill*         0x00000000c004ffb3        0x1 
 .text          0x00000000c004ffb4      0x55f hal/keybrd.32
                0x00000000c004ffb4                sendKeyToTerminal(unsigned char)
                0x00000000c0050020                sendKeyboardToken(KeyboardToken)
                0x00000000c00503c8                clearInternalKeybuffer(VgaText*)
                0x00000000c00503fd                readKeyboard(VgaText*, char*, unsigned long)
                0x00000000c005048e                Keyboard::Keyboard(char const*)
                0x00000000c005048e                Keyboard::Keyboard(char const*)
                0x00000000c00504c8                Keyboard::~Keyboard()
                0x00000000c00504c8                Keyboard::~Keyboard()
                0x00000000c00504ea                Keyboard::~Keyboard()
 *fill*         0x00000000c0050513        0x1 
 .text          0x00000000c0050514      0x596 hal/logidisk.32
                0x00000000c0050514                LogicalDisk::absoluteToRelative(unsigned long long)
                0x00000000c0050590                LogicalDisk::relativeToAbsolute(unsigned long long)
                0x00000000c00505fc                LogicalDisk::LogicalDisk(char const*, PhysicalDisk*, unsigned long long, unsigned long long)
                0x00000000c00505fc                LogicalDisk::LogicalDisk(char const*, PhysicalDisk*, unsigned long long, unsigned long long)
                0x00000000c005069e                LogicalDisk::~LogicalDisk()
                0x00000000c005069e                LogicalDisk::~LogicalDisk()
                0x00000000c00506c0                LogicalDisk::~LogicalDisk()
                0x00000000c00506ea                LogicalDisk::assignDriveLetter()
                0x00000000c00507fe                LogicalDisk::mount()
                0x00000000c0050896                LogicalDisk::unmount()
                0x00000000c00508aa                LogicalDisk::open(int, int, void*)
                0x00000000c00508c8                LogicalDisk::close(int, int, void*)
                0x00000000c00508ce                LogicalDisk::unassignDriveLetter()
                0x00000000c0050976                LogicalDisk::read(unsigned long long, int, void*)
                0x00000000c0050a10                LogicalDisk::write(unsigned long long, int, void*)
 .text          0x00000000c0050aaa      0x522 hal/partition.32
                0x00000000c0050aaa                makePartition(PhysicalDisk*, unsigned long long, unsigned long long)
                0x00000000c0050b8e                createPartitionsForDisk(PhysicalDisk*)
 .text          0x00000000c0050fcc      0x417 hal/timer.32
                0x00000000c0050fcc                Timer::Timer(char const*)
                0x00000000c0050fcc                Timer::Timer(char const*)
                0x00000000c0050ffe                Timer::~Timer()
                0x00000000c0050ffe                Timer::~Timer()
                0x00000000c0051020                Timer::~Timer()
                0x00000000c005104a                Timer::read()
                0x00000000c0051058                setupTimer(int)
                0x00000000c005121b                timerHandler(unsigned long long)
 *fill*         0x00000000c00513e3        0x1 
 .text          0x00000000c00513e4      0x1e5 hal/vcache.32
                0x00000000c00513e4                VCache::VCache(PhysicalDisk*)
                0x00000000c00513e4                VCache::VCache(PhysicalDisk*)
                0x00000000c00514c8                VCache::~VCache()
                0x00000000c00514c8                VCache::~VCache()
                0x00000000c00514d8                VCache::~VCache()
                0x00000000c00514fe                VCache::write(unsigned long long, int, void*)
                0x00000000c0051564                VCache::read(unsigned long long, int, void*)
 *fill*         0x00000000c00515c9        0x1 
 .text          0x00000000c00515ca     0x189e hw/acpi.32
                0x00000000c00515ca                findRSDP()
                0x00000000c0051650                loadACPITables(unsigned char*)
                0x00000000c0051845                findRSDT(unsigned char*)
                0x00000000c0051950                findDataTable(unsigned char*, char*)
                0x00000000c00519e6                scanMADT()
                0x00000000c0051d2e                ACPI::ACPI()
                0x00000000c0051d2e                ACPI::ACPI()
                0x00000000c0051d88                acpiGlobalEventHandler(unsigned int, void*, unsigned int, void*)
                0x00000000c0051dbb                acpiWalkDescendingCallback(void*, unsigned int, void*, void**)
                0x00000000c0052466                acpiWalkAscendingCallback(void*, unsigned int, void*, void**)
                0x00000000c005246c                acpiDynamicIrqCallback(acpi_resource*, void*)
                0x00000000c0052551                acpiWalkCallback(void*, unsigned int, void*, void**)
                0x00000000c005271f                acpicaSetBrightness(void*, int)
                0x00000000c0052761                acpicaSleep()
                0x00000000c005279e                acpicaShutdown()
                0x00000000c00527d0                acpicaReset()
                0x00000000c00527de                ACPI::getPCIIRQAssignment(unsigned char, unsigned short, unsigned char)
                0x00000000c00528a6                ACPI::registerPCIIRQAssignment(void*, unsigned short, unsigned char, unsigned char)
                0x00000000c0052958                ACPI::setScreenBrightnessLevel(void*, int)
                0x00000000c0052972                ACPI::open(int, int, void*)
                0x00000000c0052d60                ACPI::writeSimpleBootFlag(SimpleBootFlagTable*)
                0x00000000c0052da4                ACPI::sleep()
                0x00000000c0052dbe                ACPI::close(int, int, void*)
 .text          0x00000000c0052e68     0x2151 hw/cpu.32
                0x00000000c0052e68                lookupAMDCPUName(unsigned char, unsigned char)
                0x00000000c0053181                lookupIntelCPUName(unsigned char, unsigned char)
                0x00000000c0053599                AMD_K6_writeback(int, int, int)
                0x00000000c0053650                AMD_K6_write_msr(unsigned int, unsigned int, unsigned int, REGS*)
                0x00000000c005366f                AMD_K6_read_msr(unsigned int, REGS*)
                0x00000000c005368e                cpuid(int, unsigned long*, unsigned long*, unsigned long*, unsigned long*)
                0x00000000c0053721                cpuidCheckEDX(unsigned int)
                0x00000000c0053751                cpuidCheckECX(unsigned int)
                0x00000000c0053781                cpuidCheckExtendedEBX(unsigned int)
                0x00000000c00537b1                cpuidCheckExtendedECX(unsigned int)
                0x00000000c00537e1                getCPUNumber()
                0x00000000c00537e7                thisCPU()
                0x00000000c0053806                CPU::CPU()
                0x00000000c0053806                CPU::CPU()
                0x00000000c0053880                CPU::open(int, int, void*)
                0x00000000c0053944                CPU::displayFeatures()
                0x00000000c0053946                CPU::detectFeatures()
                0x00000000c0054c86                CPU::close(int, int, void*)
                0x00000000c0054c8c                CPU::readCR0()
                0x00000000c0054c9e                CPU::readCR2()
                0x00000000c0054cb0                CPU::readCR3()
                0x00000000c0054cc2                CPU::readCR4()
                0x00000000c0054cd4                CPU::writeCR0(unsigned long)
                0x00000000c0054ce0                CPU::writeCR3(unsigned long)
                0x00000000c0054cec                CPU::writeCR4(unsigned long)
                0x00000000c0054cf8                CPU::setupSMEP()
                0x00000000c0054d20                CPU::setupSMAP()
                0x00000000c0054d56                CPU::setupUMIP()
                0x00000000c0054d7c                CPU::setupTSC()
                0x00000000c0054da2                CPU::setupLargePages()
                0x00000000c0054dc8                CPU::setupPAT()
                0x00000000c0054e64                CPU::setupMTRR()
                0x00000000c0054e66                CPU::setupGlobalPages()
                0x00000000c0054e8c                CPU::allowUsermodeDataAccess()
                0x00000000c0054ea6                CPU::prohibitUsermodeDataAccess()
                0x00000000c0054ec0                CPU::setupFeatures()
 .text          0x00000000c0054fb9        0x0 hw/ports.32
 .text          0x00000000c0054fb9      0x749 registry/registry.32
                0x00000000c0054fb9                Registry::findLineFromLoadedData(char*, char*, char*)
                0x00000000c00551fb                Registry::getLineFromRegistry(char*, char*, char*, char*)
                0x00000000c0055468                Registry::getLine(char*, char*, char*)
                0x00000000c00554af                Registry::readInt(char*, char*, int*)
                0x00000000c0055585                Registry::readString(char*, char*, char*, int)
                0x00000000c0055643                Registry::readBool(char*, char*, bool*)
                0x00000000c0055673                Registry::readBoolWithDefault(char*, char*, bool)
                0x00000000c00556a7                Registry::readIntWithDefault(char*, char*, int)
                0x00000000c00556d5                Registry::readStringWithDefault(char*, char*, char*, int, char*)
 .text          0x00000000c0055702       0x24 syscalls/sc_exit.32
                0x00000000c0055702                sysCallExit(regs*)
 .text          0x00000000c0055726       0x98 syscalls/sc_sbrk.32
                0x00000000c0055726                sysCallSbrk(regs*)
 .text          0x00000000c00557be       0x21 syscalls/sc_yield.32
                0x00000000c00557be                sysCallYield(regs*)
 .text          0x00000000c00557df     0x115a vm86/vm8086.32
                0x00000000c00557df                inbv(unsigned short)
                0x00000000c0055819                outbv(unsigned short, unsigned char)
                0x00000000c0055862                vm8086EntryPoint(void*)
                0x00000000c00558c9                realToLinear(unsigned short, unsigned short)
                0x00000000c00558ee                getSegment(unsigned int)
                0x00000000c00558f9                getOffset(unsigned int)
                0x00000000c0055901                loadVM8086FileAsThread(Process*, char const*, unsigned short, unsigned short, unsigned short, unsigned short)
                0x00000000c0055b7e                vm8086DoISR(regs*, int, unsigned char*, unsigned short, unsigned short)
                0x00000000c0055c6f                readByteFromReal(unsigned short, unsigned short)
                0x00000000c0055c9c                readWordFromReal(unsigned short, unsigned short)
                0x00000000c0055cca                readDwordFromReal(unsigned short, unsigned short)
                0x00000000c0055cf7                writeByteFromReal(unsigned short, unsigned short, unsigned char)
                0x00000000c0055d30                writeWordFromReal(unsigned short, unsigned short, unsigned short)
                0x00000000c0055d69                writeDwordFromReal(unsigned short, unsigned short, unsigned int)
                0x00000000c0055d9a                vm8086FaultHandler(regs*)
 *fill*         0x00000000c0056939        0x1 
 .text          0x00000000c005693a      0xe7d fs/fat/vfslink.32
                0x00000000c005693a                fatWrapperReadDisk
                0x00000000c0056978                fatWrapperWriteDisk
                0x00000000c00569b6                fatWrapperIoctl
                0x00000000c0056aa8                FAT::FAT()
                0x00000000c0056aa8                FAT::FAT()
                0x00000000c0056af4                FAT::~FAT()
                0x00000000c0056af4                FAT::~FAT()
                0x00000000c0056b16                FAT::~FAT()
                0x00000000c0056b3c                FAT::getName()
                0x00000000c0056b42                FAT::getlabel(LogicalDisk*, int, char*, unsigned int*)
                0x00000000c0056bd2                FAT::setlabel(LogicalDisk*, int, char*)
                0x00000000c0056c80                FAT::format(LogicalDisk*, int, char const*, int)
                0x00000000c0056e42                FAT::tryMount(LogicalDisk*, int)
                0x00000000c0056fce                FAT::fixFilepath(char*)
                0x00000000c0057006                FAT::open(char const*, void**, FileOpenMode)
                0x00000000c00570e8                FAT::openDir(char const*, void**)
                0x00000000c0057172                FAT::readDir(void*, unsigned long, void*, int*)
                0x00000000c0057260                FAT::read(void*, unsigned long, void*, int*)
                0x00000000c00572b0                FAT::write(void*, unsigned long, void*, int*)
                0x00000000c0057300                FAT::close(void*)
                0x00000000c0057348                FAT::closeDir(void*)
                0x00000000c0057390                FAT::seek(void*, unsigned long long)
                0x00000000c00573dc                FAT::tell(void*, unsigned long long*)
                0x00000000c0057412                FAT::stat(void*, unsigned long long*)
                0x00000000c0057448                FAT::stat(char const*, unsigned long long*, bool*)
                0x00000000c0057514                FAT::unlink(char const*)
                0x00000000c005757e                FAT::chfatattr(char const*, unsigned char, unsigned char)
                0x00000000c00576a6                FAT::rename(char const*, char const*)
                0x00000000c005774a                FAT::mkdir(char const*)
                0x00000000c00577b4                FAT::exists(char const*)
 *fill*         0x00000000c00577b7        0x1 
 .text          0x00000000c00577b8      0xa07 fs/iso9660/vfslink.32
                0x00000000c00577b8                __memmem(unsigned char*, int, unsigned char*, int)
                0x00000000c0057829                readSectorFromCDROM(unsigned int, unsigned char*, char)
                0x00000000c0057861                readRoot(unsigned int*, unsigned int*, char)
                0x00000000c0057927                readRecursively(char*, unsigned int, unsigned int, unsigned int*, unsigned int*, char)
                0x00000000c0057b40                getFileData(char*, unsigned int*, unsigned int*, char)
                0x00000000c0057ba8                ISO9660::ISO9660()
                0x00000000c0057ba8                ISO9660::ISO9660()
                0x00000000c0057bca                ISO9660::~ISO9660()
                0x00000000c0057bca                ISO9660::~ISO9660()
                0x00000000c0057bec                ISO9660::~ISO9660()
                0x00000000c0057c12                ISO9660::format(LogicalDisk*, int, char const*, int)
                0x00000000c0057c18                ISO9660::tryMount(LogicalDisk*, int)
                0x00000000c0057caa                ISO9660::open(char const*, void**, FileOpenMode)
                0x00000000c0057d64                ISO9660::read(void*, unsigned long, void*, int*)
                0x00000000c0058000                ISO9660::exists(char const*)
                0x00000000c0058004                ISO9660::seek(void*, unsigned long long)
                0x00000000c005802a                ISO9660::tell(void*, unsigned long long*)
                0x00000000c005805e                ISO9660::getName()
                0x00000000c0058064                ISO9660::stat(void*, unsigned long long*)
                0x00000000c0058098                ISO9660::stat(char const*, unsigned long long*, bool*)
                0x00000000c00580e0                ISO9660::close(void*)
                0x00000000c00580f8                ISO9660::openDir(char const*, void**)
                0x00000000c0058116                ISO9660::readDir(void*, unsigned long, void*, int*)
                0x00000000c0058134                ISO9660::closeDir(void*)
                0x00000000c005814c                ISO9660::unlink(char const*)
                0x00000000c0058164                ISO9660::write(void*, unsigned long, void*, int*)
                0x00000000c005818a                ISO9660::rename(char const*, char const*)
                0x00000000c00581a8                ISO9660::mkdir(char const*)
 *fill*         0x00000000c00581bf        0x1 
 .text          0x00000000c00581c0      0x2ee hal/sound/sndchannel.32
                0x00000000c00581c0                SoundChannel::SoundChannel(int, int, int, int)
                0x00000000c00581c0                SoundChannel::SoundChannel(int, int, int, int)
                0x00000000c00582aa                SoundChannel::~SoundChannel()
                0x00000000c00582aa                SoundChannel::~SoundChannel()
                0x00000000c00582c6                SoundChannel::setSpeed(float)
                0x00000000c00582d6                SoundChannel::getSpeed()
                0x00000000c00582e2                SoundChannel::setVolume(int)
                0x00000000c005830c                SoundChannel::getVolume()
                0x00000000c0058318                SoundChannel::pause()
                0x00000000c0058326                SoundChannel::play()
                0x00000000c0058334                SoundChannel::paused()
                0x00000000c0058340                SoundChannel::getSampleRate()
                0x00000000c005834a                SoundChannel::getBits()
                0x00000000c0058356                SoundChannel::getBufferUsed()
                0x00000000c0058362                SoundChannel::getBufferSize()
                0x00000000c005836e                SoundChannel::unbuffer(float*, int, int)
                0x00000000c0058416                SoundChannel::buffer8(unsigned char*, int)
 .text          0x00000000c00584ae      0x459 hal/sound/sndhw.32
                0x00000000c00584ae                SoundDevice::SoundDevice(char const*)
                0x00000000c00584ae                SoundDevice::SoundDevice(char const*)
                0x00000000c0058510                SoundDevice::~SoundDevice()
                0x00000000c0058510                SoundDevice::~SoundDevice()
                0x00000000c0058584                SoundDevice::~SoundDevice()
                0x00000000c00585ae                SoundDevice::getFreeChannelNum()
                0x00000000c00585e4                SoundDevice::addChannel(SoundChannel*)
                0x00000000c00586a2                SoundDevice::removeChannel(int)
                0x00000000c0058710                SoundDevice::floatTo8(float*, unsigned char*, int)
                0x00000000c00587ac                SoundDevice::getAudio(int, float*, float*)
 *fill*         0x00000000c0058907        0x1 
 .text          0x00000000c0058908      0xb2b hw/audio/sb16.32
                0x00000000c0058908                sb16Demo(void*)
                0x00000000c0058a9a                SoundBlaster16::resetDSP()
                0x00000000c0058b62                SoundBlaster16::DSPOut(unsigned short, unsigned char)
                0x00000000c0058bae                SoundBlaster16::turnSpeakerOn(bool)
                0x00000000c0058c14                SoundBlaster16::SoundBlaster16()
                0x00000000c0058c14                SoundBlaster16::SoundBlaster16()
                0x00000000c0058c7e                SoundBlaster16::handleIRQ()
                0x00000000c0058cf8                sb16Handler(regs*, void*)
                0x00000000c0058d10                SoundBlaster16::getNumHwChannels()
                0x00000000c0058d16                SoundBlaster16::beginPlayback(int, int)
                0x00000000c0058e42                SoundBlaster16::stopPlayback()
                0x00000000c0058e56                SoundBlaster16::open(int, int, void*)
                0x00000000c0059300                SoundBlaster16::onInterrupt()
                0x00000000c00593fe                SoundBlaster16::close(int, int, void*)
 *fill*         0x00000000c0059433        0x1 
 .text          0x00000000c0059434      0x484 hw/bus/isa.32
                0x00000000c0059434                ISA::ISA()
                0x00000000c0059434                ISA::ISA()
                0x00000000c005945c                ISA::open(int, int, void*)
                0x00000000c005947e                ISA::close(int, int, void*)
                0x00000000c0059484                ISA::doSpeaker()
                0x00000000c0059502                ISA::doSoundblaster()
                0x00000000c00595c4                ISA::doSerial()
                0x00000000c00595c6                ISA::doParallel()
                0x00000000c00595c8                ISA::doGameport()
                0x00000000c00595ca                ISA::doFloppy()
                0x00000000c00595da                ISA::doATA()
                0x00000000c00595dc                ISA::doPS2()
                0x00000000c0059634                ISA::doRTC()
                0x00000000c00596c6                ISA::detect()
 .text          0x00000000c00598b8      0xaeb hw/bus/pci.32
                0x00000000c00598b8                PCI::PCI()
                0x00000000c00598b8                PCI::PCI()
                0x00000000c0059930                PCI::open(int, int, void*)
                0x00000000c0059952                PCI::getVendorID(unsigned char, unsigned char, unsigned char)
                0x00000000c005998c                PCI::getHeaderType(unsigned char, unsigned char, unsigned char)
                0x00000000c00599c8                PCI::getClassCode(unsigned char, unsigned char, unsigned char)
                0x00000000c0059a3a                PCI::getProgIF(unsigned char, unsigned char, unsigned char)
                0x00000000c0059a7a                PCI::getRevisionID(unsigned char, unsigned char, unsigned char)
                0x00000000c0059ab4                PCI::getInterruptNumber(unsigned char, unsigned char, unsigned char)
                0x00000000c0059aee                PCI::getSecondaryBus(unsigned char, unsigned char, unsigned char)
                0x00000000c0059b2e                PCI::getBARAddress(unsigned char, unsigned char, unsigned char, unsigned char)
                0x00000000c0059bb6                PCI::pciReadWord(unsigned char, unsigned char, unsigned char, unsigned char)
                0x00000000c0059c52                PCI::pciWriteWord(unsigned char, unsigned char, unsigned char, unsigned char, unsigned short)
                0x00000000c0059d46                PCI::close(int, int, void*)
                0x00000000c0059d4c                PCI::foundDevice(PCIDeviceInfo)
                0x00000000c0059f9a                PCI::getDeviceData(unsigned char, unsigned char, unsigned char)
                0x00000000c005a218                PCI::checkDevice(unsigned char, unsigned char)
                0x00000000c005a2e0                PCI::checkBus(unsigned char)
                0x00000000c005a31a                PCI::detect()
 *fill*         0x00000000c005a3a3        0x1 
 .text          0x00000000c005a3a4      0x35a hw/bus/ps2.32
                0x00000000c005a3a4                PS2::PS2()
                0x00000000c005a3a4                PS2::PS2()
                0x00000000c005a46c                PS2::open(int, int, void*)
                0x00000000c005a5c8                PS2::close(int, int, void*)
                0x00000000c005a5ce                PS2::detect()
                0x00000000c005a5d0                PS2::controllerWrite(unsigned char)
                0x00000000c005a5f6                PS2::controllerWrite(unsigned char, unsigned char)
                0x00000000c005a68c                PS2::controllerRead()
 .text          0x00000000c005a6fe      0x197 hw/bus/ps2port.32
                0x00000000c005a6fe                PS2Port::PS2Port()
                0x00000000c005a6fe                PS2Port::PS2Port()
                0x00000000c005a726                PS2Port::open(int, int, void*)
                0x00000000c005a760                PS2Port::close(int, int, void*)
                0x00000000c005a766                PS2Port::detect()
                0x00000000c005a7d4                PS2Port::deviceWrite(unsigned char)
                0x00000000c005a878                PS2Port::deviceRead()
 *fill*         0x00000000c005a895        0x1 
 .text          0x00000000c005a896      0x19a hw/buzzer/pcspk.32
                0x00000000c005a896                Beep::Beep()
                0x00000000c005a896                Beep::Beep()
                0x00000000c005a95e                Beep::start(int)
                0x00000000c005aa24                Beep::open(int, int, void*)
                0x00000000c005aa2a                Beep::close(int, int, void*)
 .text          0x00000000c005aa30      0x5af hw/clock/rtc.32
                0x00000000c005aa30                RTC::open(int, int, void*)
                0x00000000c005aa36                RTC::close(int, int, void*)
                0x00000000c005aa3c                RTC::timeInSecondsUTC()
                0x00000000c005aa50                RTC::timeInDatetimeUTC()
                0x00000000c005aa84                RTC::setTimeInSecondsUTC(unsigned long long)
                0x00000000c005aacc                RTC::setTimeInDatetimeUTC(datetime_t)
                0x00000000c005aad0                RTC::get_update_in_progress_flag()
                0x00000000c005aaee                RTC::completeRTCRefresh()
                0x00000000c005ae86                rtcIRQHandler(regs*, void*)
                0x00000000c005aefc                RTC::RTC()
                0x00000000c005aefc                RTC::RTC()
                0x00000000c005af94                RTC::~RTC()
                0x00000000c005af94                RTC::~RTC()
                0x00000000c005afb6                RTC::~RTC()
 *fill*         0x00000000c005afdf        0x1 
 .text          0x00000000c005afe0     0x167c hw/diskctrl/ide.32
                0x00000000c005afe0                IDE::IDE()
                0x00000000c005afe0                IDE::IDE()
                0x00000000c005b012                IDE::prepareInterrupt(unsigned char)
                0x00000000c005b030                IDE::waitInterrupt(unsigned char)
                0x00000000c005b0e6                ideChannel0IRQHandler(regs*, void*)
                0x00000000c005b111                ideChannel1IRQHandler(regs*, void*)
                0x00000000c005b13c                IDE::open(int, int, void*)
                0x00000000c005b942                IDE::enableIRQs(unsigned char, bool)
                0x00000000c005b9bc                selectDrive(unsigned char, unsigned char)
                0x00000000c005b9d2                IDE::getBase(unsigned char)
                0x00000000c005b9f0                IDE::close(int, int, void*)
                0x00000000c005b9f6                IDE::read(unsigned char, unsigned char)
                0x00000000c005bb4a                IDE::write(unsigned char, unsigned char, unsigned char)
                0x00000000c005bc9e                IDE::readBuffer(unsigned char, unsigned char, unsigned int, unsigned int)
                0x00000000c005be5a                IDE::printError(unsigned char, unsigned char, unsigned char)
                0x00000000c005c03a                IDE::polling(unsigned char, unsigned int)
                0x00000000c005c0e4                IDE::detect()
 .text          0x00000000c005c65c      0x952 hw/diskphys/ata.32
                0x00000000c005c65c                ATA::ATA()
                0x00000000c005c65c                ATA::ATA()
                0x00000000c005c688                ATA::flush(bool)
                0x00000000c005c6f0                ATA::readyForCommand()
                0x00000000c005c75e                ATA::access(unsigned long long, int, void*, bool)
                0x00000000c005cce4                ATA::detectCHS()
                0x00000000c005cd20                ATA::open(int, int, void*)
                0x00000000c005ce74                ATA::read(unsigned long long, int, void*)
                0x00000000c005cef2                ATA::write(unsigned long long, int, void*)
                0x00000000c005cf70                ATA::close(int, int, void*)
                0x00000000c005cfac                ATA::powerSaving(PowerSavingLevel)
 .text          0x00000000c005cfae      0x8aa hw/diskphys/atapi.32
                0x00000000c005cfae                ATAPI::ATAPI()
                0x00000000c005cfae                ATAPI::ATAPI()
                0x00000000c005cfda                ATAPI::sendPacket(unsigned char*, int, bool, unsigned short*, int)
                0x00000000c005d4d6                ATAPI::readyForCommand()
                0x00000000c005d544                ATAPI::open(int, int, void*)
                0x00000000c005d62a                ATAPI::eject()
                0x00000000c005d67a                ATAPI::diskRemoved()
                0x00000000c005d69e                ATAPI::diskInserted()
                0x00000000c005d6e0                ATAPI::detectMedia()
                0x00000000c005d7d8                ATAPI::read(unsigned long long, int, void*)
                0x00000000c005d802                ATAPI::write(unsigned long long, int, void*)
                0x00000000c005d81c                ATAPI::close(int, int, void*)
 .text          0x00000000c005d858      0x976 hw/dma/isadma.32
                0x00000000c005d858                DMAChannel::DMAChannel(int)
                0x00000000c005d858                DMAChannel::DMAChannel(int)
                0x00000000c005d8aa                DMAChannel::~DMAChannel()
                0x00000000c005d8aa                DMAChannel::~DMAChannel()
                0x00000000c005d8d6                DMAChannel::getAddress()
                0x00000000c005d8e2                DMAChannel::getChannelNum()
                0x00000000c005d8ec                DMAChannel::setLength(unsigned int)
                0x00000000c005d918                DMAChannel::setAddress(unsigned int)
                0x00000000c005d928                DMAChannel::allocateAddressAndSet(unsigned short)
                0x00000000c005d970                DMAChannel::setMode(unsigned char)
                0x00000000c005d9e6                DMAChannel::start()
                0x00000000c005dc14                DMAChannel::stop()
                0x00000000c005dc16                DMAChannel::mask(bool)
                0x00000000c005dc62                DMAChannel::unmask()
                0x00000000c005dc76                DMA::DMA()
                0x00000000c005dc76                DMA::DMA()
                0x00000000c005de8a                DMA::getAvailable()
                0x00000000c005deda                DMA::open(int, int, void*)
                0x00000000c005df16                DMA::close(int, int, void*)
                0x00000000c005df1c                DMA::tryLockChannelWithBase(int)
                0x00000000c005dfbc                DMA::lockChannelWithBase(int)
                0x00000000c005dfe2                DMA::tryLockChannel8()
                0x00000000c005dffa                DMA::tryLockChannel16()
                0x00000000c005e012                DMA::tryLockChannel(int)
                0x00000000c005e0c0                DMA::lockChannel8()
                0x00000000c005e0d8                DMA::lockChannel16()
                0x00000000c005e0f0                DMA::lockChannel(int)
                0x00000000c005e128                DMA::unlockChannel(DMAChannel*)
 .text          0x00000000c005e1ce       0x8e hw/fpu/avx.32
                0x00000000c005e1ce                AVX::AVX()
                0x00000000c005e1ce                AVX::AVX()
                0x00000000c005e1f6                AVX::open(int, int, void*)
                0x00000000c005e208                AVX::close(int, int, void*)
                0x00000000c005e21a                AVX::available()
                0x00000000c005e22c                AVX::save(void*)
                0x00000000c005e244                AVX::load(void*)
 .text          0x00000000c005e25c       0x90 hw/fpu/mmx.32
                0x00000000c005e25c                MMX::MMX()
                0x00000000c005e25c                MMX::MMX()
                0x00000000c005e284                MMX::open(int, int, void*)
                0x00000000c005e296                MMX::close(int, int, void*)
                0x00000000c005e2a8                MMX::available()
                0x00000000c005e2bc                MMX::save(void*)
                0x00000000c005e2d4                MMX::load(void*)
 .text          0x00000000c005e2ec       0x94 hw/fpu/sse.32
                0x00000000c005e2ec                SSE::SSE()
                0x00000000c005e2ec                SSE::SSE()
                0x00000000c005e314                SSE::open(int, int, void*)
                0x00000000c005e326                SSE::close(int, int, void*)
                0x00000000c005e338                SSE::available()
                0x00000000c005e350                SSE::save(void*)
                0x00000000c005e368                SSE::load(void*)
 .text          0x00000000c005e380       0x8e hw/fpu/x87.32
                0x00000000c005e380                x87::x87()
                0x00000000c005e380                x87::x87()
                0x00000000c005e3a8                x87::open(int, int, void*)
                0x00000000c005e3ba                x87::close(int, int, void*)
                0x00000000c005e3cc                x87::available()
                0x00000000c005e3de                x87::save(void*)
                0x00000000c005e3f6                x87::load(void*)
 .text          0x00000000c005e40e      0x5e8 hw/intctrl/apic.32
                0x00000000c005e40e                APIC::APIC()
                0x00000000c005e40e                APIC::APIC()
                0x00000000c005e4d2                APIC::io_wait()
                0x00000000c005e4d8                APIC::disable()
                0x00000000c005e4da                APIC::installIRQHandler(int, void (*)(regs*, void*), bool, void*)
                0x00000000c005e646                APIC::eoi(unsigned char)
                0x00000000c005e674                APIC::getBase()
                0x00000000c005e6b6                APIC::open(int, int, void*)
                0x00000000c005e770                APIC::close(int, int, void*)
                0x00000000c005e792                IOAPIC::IOAPIC()
                0x00000000c005e792                IOAPIC::IOAPIC()
                0x00000000c005e7ba                IOAPIC::handlesGSIWithNumber(unsigned int)
                0x00000000c005e7ec                IOAPIC::open(int, int, void*)
                0x00000000c005e8e2                IOAPIC::read(int)
                0x00000000c005e90a                IOAPIC::write(int, int)
                0x00000000c005e936                IOAPIC::redirect(unsigned char, unsigned long long, unsigned char)
                0x00000000c005e9f0                IOAPIC::close(int, int, void*)
 .text          0x00000000c005e9f6      0x3c6 hw/intctrl/pic.32
                0x00000000c005e9f6                PIC::PIC()
                0x00000000c005e9f6                PIC::PIC()
                0x00000000c005eabe                PIC::ioWait()
                0x00000000c005eac4                PIC::disable()
                0x00000000c005eaf2                PIC::getIRQReg(int)
                0x00000000c005eb5c                PIC::remap()
                0x00000000c005ecc8                PIC::eoi(unsigned char)
                0x00000000c005ed5a                PIC::open(int, int, void*)
                0x00000000c005ed9a                PIC::close(int, int, void*)
 .text          0x00000000c005edbc     0x1710 hw/keybrd/ps2key.32
                0x00000000c005edbc                PS2Keyboard::PS2Keyboard()
                0x00000000c005edbc                PS2Keyboard::PS2Keyboard()
                0x00000000c005ee52                PS2Keyboard::~PS2Keyboard()
                0x00000000c005ee52                PS2Keyboard::~PS2Keyboard()
                0x00000000c005ee74                PS2Keyboard::~PS2Keyboard()
                0x00000000c005ee9e                PS2Keyboard::setRepeatRate(int)
                0x00000000c005eea0                PS2Keyboard::setRepeatDelay(int)
                0x00000000c005eea2                PS2Keyboard::sendKey(unsigned short, bool)
                0x00000000c005ef08                PS2Keyboard::sendKey(KeyboardSpecialKeys, bool)
                0x00000000c005ef66                PS2Keyboard::updateKeyboardLEDs()
                0x00000000c005f000                ps2KeyboardHandler(regs*, void*)
                0x00000000c005f018                PS2Keyboard::handler()
                0x00000000c006045e                PS2Keyboard::open(int, int, void*)
                0x00000000c00604c6                PS2Keyboard::close(int, int, void*)
 .text          0x00000000c00604cc      0x23c hw/timer/apictimer.32
                0x00000000c00604cc                apicTimerHandler(regs*, void*)
                0x00000000c00604fa                APICTimer::APICTimer()
                0x00000000c00604fa                APICTimer::APICTimer()
                0x00000000c0060522                APICTimer::open(int, int, void*)
                0x00000000c0060616                APICTimer::write(int)
                0x00000000c0060702                APICTimer::close(int, int, void*)
 .text          0x00000000c0060708      0x18b hw/timer/pit.32
                0x00000000c0060708                pitHandler(regs*, void*)
                0x00000000c0060736                PIT::PIT()
                0x00000000c0060736                PIT::PIT()
                0x00000000c00607ae                PIT::open(int, int, void*)
                0x00000000c00607f8                PIT::write(int)
                0x00000000c0060864                PIT::close(int, int, void*)
 *fill*         0x00000000c0060893        0xd 
 .text          0x00000000c00608a0        0xa hw/fpu/x86/avx.32
                0x00000000c00608a0                avxDetect
                0x00000000c00608a6                avxSave
                0x00000000c00608a7                avxLoad
                0x00000000c00608a8                avxInit
                0x00000000c00608a9                avxClose
 *fill*         0x00000000c00608aa        0x6 
 .text          0x00000000c00608b0       0x38 hw/fpu/x86/sse.32
                0x00000000c00608b0                sseDetect
                0x00000000c00608cb                sseSave
                0x00000000c00608d1                sseLoad
                0x00000000c00608d7                sseInit
                0x00000000c00608e7                sseClose
 *fill*         0x00000000c00608e8        0x8 
 .text          0x00000000c00608f0       0x47 hw/fpu/x86/x87.32
                0x00000000c00608f6                x87Detect
                0x00000000c0060911                x87Save
                0x00000000c0060917                x87Load
                0x00000000c006091c                x87Init
                0x00000000c0060936                x87Close
 *fill*         0x00000000c0060937        0x1 
 .text          0x00000000c0060938       0x25 /cygdrive/d/Users/Alex/Desktop/Toolchain/Output/bin/../lib/gcc/i386-banana/8.1.0/crtend.o
 .text          0x00000000c006095d        0x0 crtn.32
 *fill*         0x00000000c006095d        0x3 
 .text          0x00000000c0060960      0x14b /cygdrive/d/Users/Alex/Desktop/Toolchain/Output/bin/../lib/gcc/i386-banana/8.1.0/libgcc.a(_divdi3.o)
                0x00000000c0060960                __divdi3
 *fill*         0x00000000c0060aab        0x1 
 .text          0x00000000c0060aac      0x17e /cygdrive/d/Users/Alex/Desktop/Toolchain/Output/bin/../lib/gcc/i386-banana/8.1.0/libgcc.a(_moddi3.o)
                0x00000000c0060aac                __moddi3
 *fill*         0x00000000c0060c2a        0x2 
 .text          0x00000000c0060c2c       0xff /cygdrive/d/Users/Alex/Desktop/Toolchain/Output/bin/../lib/gcc/i386-banana/8.1.0/libgcc.a(_udivdi3.o)
                0x00000000c0060c2c                __udivdi3
 *fill*         0x00000000c0060d2b        0x1 
 .text          0x00000000c0060d2c      0x11a /cygdrive/d/Users/Alex/Desktop/Toolchain/Output/bin/../lib/gcc/i386-banana/8.1.0/libgcc.a(_umoddi3.o)
                0x00000000c0060d2c                __umoddi3
 *fill*         0x00000000c0060e46        0xa 
 .text          0x00000000c0060e50       0x1e D:/Users/Alex/Desktop/Banana/kernel/libk/libm32.a(s_fabs.c.o)
                0x00000000c0060e50                fabs
 *fill*         0x00000000c0060e6e        0x2 
 .text          0x00000000c0060e70        0xc D:/Users/Alex/Desktop/Banana/kernel/libk/libm32.a(s_lrint.S.o)
                0x00000000c0060e70                lrint
 .text          0x00000000c0060e7c        0xc D:/Users/Alex/Desktop/Banana/kernel/libk/libm32.a(s_lrintf.S.o)
                0x00000000c0060e7c                lrintf
 *(.gnu.linkonce.t*)

.iplt           0x00000000c0060e88        0x0
 .iplt          0x00000000c0060e88        0x0 D:/Users/Alex/Desktop/Banana/kernel/boot.32

.init           0x00000000c0060e88        0xf
 .init          0x00000000c0060e88        0x3 crti.32
                0x00000000c0060e88                _init
 .init          0x00000000c0060e8b        0x5 /cygdrive/d/Users/Alex/Desktop/Toolchain/Output/bin/../lib/gcc/i386-banana/8.1.0/crtbegin.o
 .init          0x00000000c0060e90        0x5 /cygdrive/d/Users/Alex/Desktop/Toolchain/Output/bin/../lib/gcc/i386-banana/8.1.0/crtend.o
 .init          0x00000000c0060e95        0x2 crtn.32

.fini           0x00000000c0060e97        0xa
 .fini          0x00000000c0060e97        0x3 crti.32
                0x00000000c0060e97                _fini
 .fini          0x00000000c0060e9a        0x5 /cygdrive/d/Users/Alex/Desktop/Toolchain/Output/bin/../lib/gcc/i386-banana/8.1.0/crtbegin.o
 .fini          0x00000000c0060e9f        0x2 crtn.32

.text._ZN8ComputerD2Ev
                0x00000000c0060ea2       0x22
 .text._ZN8ComputerD2Ev
                0x00000000c0060ea2       0x22 core/computer.32
                0x00000000c0060ea2                Computer::~Computer()
                0x00000000c0060ea2                Computer::~Computer()

.text._ZN8ComputerD0Ev
                0x00000000c0060ec4       0x29
 .text._ZN8ComputerD0Ev
                0x00000000c0060ec4       0x29 core/computer.32
                0x00000000c0060ec4                Computer::~Computer()

.text._Z10idleCommonv
                0x00000000c0060eed       0x18
 .text._Z10idleCommonv
                0x00000000c0060eed       0x18 core/idle.32
                0x00000000c0060eed                idleCommon()

.text._ZN18ThreadControlBlockC2Ev
                0x00000000c0060f06       0x3c
 .text._ZN18ThreadControlBlockC2Ev
                0x00000000c0060f06       0x3c core/prcssthr.32
                0x00000000c0060f06                ThreadControlBlock::ThreadControlBlock()
                0x00000000c0060f06                ThreadControlBlock::ThreadControlBlock()

.text._ZN10LinkedListIV18ThreadControlBlockEC2Ev
                0x00000000c0060f42       0x53
 .text._ZN10LinkedListIV18ThreadControlBlockEC2Ev
                0x00000000c0060f42       0x53 core/prcssthr.32
                0x00000000c0060f42                LinkedList<ThreadControlBlock volatile>::LinkedList()
                0x00000000c0060f42                LinkedList<ThreadControlBlock volatile>::LinkedList()

.text._ZN10LinkedListIV18ThreadControlBlockE10addElementEPS1_
                0x00000000c0060f96       0xc2
 .text._ZN10LinkedListIV18ThreadControlBlockE10addElementEPS1_
                0x00000000c0060f96       0xc2 core/prcssthr.32
                0x00000000c0060f96                LinkedList<ThreadControlBlock volatile>::addElement(ThreadControlBlock volatile*)

.text._ZN10LinkedListIV18ThreadControlBlockE7isEmptyEv
                0x00000000c0061058       0x1e
 .text._ZN10LinkedListIV18ThreadControlBlockE7isEmptyEv
                0x00000000c0061058       0x1e core/prcssthr.32
                0x00000000c0061058                LinkedList<ThreadControlBlock volatile>::isEmpty()

.text._ZN10LinkedListIV18ThreadControlBlockE11removeFirstEv
                0x00000000c0061076       0xa2
 .text._ZN10LinkedListIV18ThreadControlBlockE11removeFirstEv
                0x00000000c0061076       0xa2 core/prcssthr.32
                0x00000000c0061076                LinkedList<ThreadControlBlock volatile>::removeFirst()

.text._ZN10LinkedListIV18ThreadControlBlockE15getFirstElementEv
                0x00000000c0061118        0xa
 .text._ZN10LinkedListIV18ThreadControlBlockE15getFirstElementEv
                0x00000000c0061118        0xa core/prcssthr.32
                0x00000000c0061118                LinkedList<ThreadControlBlock volatile>::getFirstElement()

.text._ZN10LinkedListIV18ThreadControlBlockE7getNextEPS1_
                0x00000000c0061122        0xb
 .text._ZN10LinkedListIV18ThreadControlBlockE7getNextEPS1_
                0x00000000c0061122        0xb core/prcssthr.32
                0x00000000c0061122                LinkedList<ThreadControlBlock volatile>::getNext(ThreadControlBlock volatile*)

.text._ZN10LinkedListIV18ThreadControlBlockED2Ev
                0x00000000c006112e        0x2
 .text._ZN10LinkedListIV18ThreadControlBlockED2Ev
                0x00000000c006112e        0x2 core/prcssthr.32
                0x00000000c006112e                LinkedList<ThreadControlBlock volatile>::~LinkedList()
                0x00000000c006112e                LinkedList<ThreadControlBlock volatile>::~LinkedList()

.text._ZN10LinkedListI8UnixFileEC2Ev
                0x00000000c0061130       0x53
 .text._ZN10LinkedListI8UnixFileEC2Ev
                0x00000000c0061130       0x53 core/unixfile.32
                0x00000000c0061130                LinkedList<UnixFile>::LinkedList()
                0x00000000c0061130                LinkedList<UnixFile>::LinkedList()

.text._ZN10LinkedListI8UnixFileE10addElementEPS0_
                0x00000000c0061184      0x117
 .text._ZN10LinkedListI8UnixFileE10addElementEPS0_
                0x00000000c0061184      0x117 core/unixfile.32
                0x00000000c0061184                LinkedList<UnixFile>::addElement(UnixFile*)

.text._ZN10LinkedListI8UnixFileE15getFirstElementEv
                0x00000000c006129c        0xa
 .text._ZN10LinkedListI8UnixFileE15getFirstElementEv
                0x00000000c006129c        0xa core/unixfile.32
                0x00000000c006129c                LinkedList<UnixFile>::getFirstElement()

.text._ZN10LinkedListI8UnixFileE11removeFirstEv
                0x00000000c00612a6       0x98
 .text._ZN10LinkedListI8UnixFileE11removeFirstEv
                0x00000000c00612a6       0x98 core/unixfile.32
                0x00000000c00612a6                LinkedList<UnixFile>::removeFirst()

.text._ZN10LinkedListI8UnixFileE7getNextEPS0_
                0x00000000c006133e        0xb
 .text._ZN10LinkedListI8UnixFileE7getNextEPS0_
                0x00000000c006133e        0xb core/unixfile.32
                0x00000000c006133e                LinkedList<UnixFile>::getNext(UnixFile*)

.text._ZN10LinkedListI8UnixFileED2Ev
                0x00000000c006134a        0x2
 .text._ZN10LinkedListI8UnixFileED2Ev
                0x00000000c006134a        0x2 core/unixfile.32
                0x00000000c006134a                LinkedList<UnixFile>::~LinkedList()
                0x00000000c006134a                LinkedList<UnixFile>::~LinkedList()

.text._ZN10LinkedListI6DeviceE10addElementEPS0_
                0x00000000c006134c       0xcb
 .text._ZN10LinkedListI6DeviceE10addElementEPS0_
                0x00000000c006134c       0xcb hal/device.32
                0x00000000c006134c                LinkedList<Device>::addElement(Device*)

.text._ZN10LinkedListI6DeviceEC2Ev
                0x00000000c0061418       0x53
 .text._ZN10LinkedListI6DeviceEC2Ev
                0x00000000c0061418       0x53 hal/device.32
                0x00000000c0061418                LinkedList<Device>::LinkedList()
                0x00000000c0061418                LinkedList<Device>::LinkedList()

.text._ZN16DriverlessDeviceD2Ev
                0x00000000c006146c       0x22
 .text._ZN16DriverlessDeviceD2Ev
                0x00000000c006146c       0x22 hal/device.32
                0x00000000c006146c                DriverlessDevice::~DriverlessDevice()
                0x00000000c006146c                DriverlessDevice::~DriverlessDevice()

.text._ZN16DriverlessDeviceD0Ev
                0x00000000c006148e       0x29
 .text._ZN16DriverlessDeviceD0Ev
                0x00000000c006148e       0x29 hal/device.32
                0x00000000c006148e                DriverlessDevice::~DriverlessDevice()

.text._ZN4ACPID2Ev
                0x00000000c00614b8       0x22
 .text._ZN4ACPID2Ev
                0x00000000c00614b8       0x22 hw/acpi.32
                0x00000000c00614b8                ACPI::~ACPI()
                0x00000000c00614b8                ACPI::~ACPI()

.text._ZN4ACPID0Ev
                0x00000000c00614da       0x29
 .text._ZN4ACPID0Ev
                0x00000000c00614da       0x29 hw/acpi.32
                0x00000000c00614da                ACPI::~ACPI()

.text._ZN3CPUD2Ev
                0x00000000c0061504       0x22
 .text._ZN3CPUD2Ev
                0x00000000c0061504       0x22 hw/cpu.32
                0x00000000c0061504                CPU::~CPU()
                0x00000000c0061504                CPU::~CPU()

.text._ZN3CPUD0Ev
                0x00000000c0061526       0x29
 .text._ZN3CPUD0Ev
                0x00000000c0061526       0x29 hw/cpu.32
                0x00000000c0061526                CPU::~CPU()

.text._ZN14SoundBlaster16D2Ev
                0x00000000c0061550       0x22
 .text._ZN14SoundBlaster16D2Ev
                0x00000000c0061550       0x22 hw/audio/sb16.32
                0x00000000c0061550                SoundBlaster16::~SoundBlaster16()
                0x00000000c0061550                SoundBlaster16::~SoundBlaster16()

.text._ZN14SoundBlaster16D0Ev
                0x00000000c0061572       0x29
 .text._ZN14SoundBlaster16D0Ev
                0x00000000c0061572       0x29 hw/audio/sb16.32
                0x00000000c0061572                SoundBlaster16::~SoundBlaster16()

.text._ZN3ISAD2Ev
                0x00000000c006159c       0x22
 .text._ZN3ISAD2Ev
                0x00000000c006159c       0x22 hw/bus/isa.32
                0x00000000c006159c                ISA::~ISA()
                0x00000000c006159c                ISA::~ISA()

.text._ZN3ISAD0Ev
                0x00000000c00615be       0x29
 .text._ZN3ISAD0Ev
                0x00000000c00615be       0x29 hw/bus/isa.32
                0x00000000c00615be                ISA::~ISA()

.text._ZN3PCID2Ev
                0x00000000c00615e8       0x22
 .text._ZN3PCID2Ev
                0x00000000c00615e8       0x22 hw/bus/pci.32
                0x00000000c00615e8                PCI::~PCI()
                0x00000000c00615e8                PCI::~PCI()

.text._ZN3PCID0Ev
                0x00000000c006160a       0x29
 .text._ZN3PCID0Ev
                0x00000000c006160a       0x29 hw/bus/pci.32
                0x00000000c006160a                PCI::~PCI()

.text._ZN3PS2D2Ev
                0x00000000c0061634       0x22
 .text._ZN3PS2D2Ev
                0x00000000c0061634       0x22 hw/bus/ps2.32
                0x00000000c0061634                PS2::~PS2()
                0x00000000c0061634                PS2::~PS2()

.text._ZN3PS2D0Ev
                0x00000000c0061656       0x29
 .text._ZN3PS2D0Ev
                0x00000000c0061656       0x29 hw/bus/ps2.32
                0x00000000c0061656                PS2::~PS2()

.text._ZN7PS2PortD2Ev
                0x00000000c0061680       0x22
 .text._ZN7PS2PortD2Ev
                0x00000000c0061680       0x22 hw/bus/ps2port.32
                0x00000000c0061680                PS2Port::~PS2Port()
                0x00000000c0061680                PS2Port::~PS2Port()

.text._ZN7PS2PortD0Ev
                0x00000000c00616a2       0x29
 .text._ZN7PS2PortD0Ev
                0x00000000c00616a2       0x29 hw/bus/ps2port.32
                0x00000000c00616a2                PS2Port::~PS2Port()

.text._ZN4BeepD2Ev
                0x00000000c00616cc       0x22
 .text._ZN4BeepD2Ev
                0x00000000c00616cc       0x22 hw/buzzer/pcspk.32
                0x00000000c00616cc                Beep::~Beep()
                0x00000000c00616cc                Beep::~Beep()

.text._ZN4BeepD0Ev
                0x00000000c00616ee       0x29
 .text._ZN4BeepD0Ev
                0x00000000c00616ee       0x29 hw/buzzer/pcspk.32
                0x00000000c00616ee                Beep::~Beep()

.text._ZN3IDED2Ev
                0x00000000c0061718       0x22
 .text._ZN3IDED2Ev
                0x00000000c0061718       0x22 hw/diskctrl/ide.32
                0x00000000c0061718                IDE::~IDE()
                0x00000000c0061718                IDE::~IDE()

.text._ZN3IDED0Ev
                0x00000000c006173a       0x29
 .text._ZN3IDED0Ev
                0x00000000c006173a       0x29 hw/diskctrl/ide.32
                0x00000000c006173a                IDE::~IDE()

.text._ZN3ATAD2Ev
                0x00000000c0061764       0x22
 .text._ZN3ATAD2Ev
                0x00000000c0061764       0x22 hw/diskphys/ata.32
                0x00000000c0061764                ATA::~ATA()
                0x00000000c0061764                ATA::~ATA()

.text._ZN3ATAD0Ev
                0x00000000c0061786       0x29
 .text._ZN3ATAD0Ev
                0x00000000c0061786       0x29 hw/diskphys/ata.32
                0x00000000c0061786                ATA::~ATA()

.text._ZN5ATAPID2Ev
                0x00000000c00617b0       0x22
 .text._ZN5ATAPID2Ev
                0x00000000c00617b0       0x22 hw/diskphys/atapi.32
                0x00000000c00617b0                ATAPI::~ATAPI()
                0x00000000c00617b0                ATAPI::~ATAPI()

.text._ZN5ATAPID0Ev
                0x00000000c00617d2       0x29
 .text._ZN5ATAPID0Ev
                0x00000000c00617d2       0x29 hw/diskphys/atapi.32
                0x00000000c00617d2                ATAPI::~ATAPI()

.text._ZN3DMAD2Ev
                0x00000000c00617fc       0x22
 .text._ZN3DMAD2Ev
                0x00000000c00617fc       0x22 hw/dma/isadma.32
                0x00000000c00617fc                DMA::~DMA()
                0x00000000c00617fc                DMA::~DMA()

.text._ZN3DMAD0Ev
                0x00000000c006181e       0x29
 .text._ZN3DMAD0Ev
                0x00000000c006181e       0x29 hw/dma/isadma.32
                0x00000000c006181e                DMA::~DMA()

.text._ZN3AVXD2Ev
                0x00000000c0061848       0x22
 .text._ZN3AVXD2Ev
                0x00000000c0061848       0x22 hw/fpu/avx.32
                0x00000000c0061848                AVX::~AVX()
                0x00000000c0061848                AVX::~AVX()

.text._ZN3AVXD0Ev
                0x00000000c006186a       0x29
 .text._ZN3AVXD0Ev
                0x00000000c006186a       0x29 hw/fpu/avx.32
                0x00000000c006186a                AVX::~AVX()

.text._ZN3MMXD2Ev
                0x00000000c0061894       0x22
 .text._ZN3MMXD2Ev
                0x00000000c0061894       0x22 hw/fpu/mmx.32
                0x00000000c0061894                MMX::~MMX()
                0x00000000c0061894                MMX::~MMX()

.text._ZN3MMXD0Ev
                0x00000000c00618b6       0x29
 .text._ZN3MMXD0Ev
                0x00000000c00618b6       0x29 hw/fpu/mmx.32
                0x00000000c00618b6                MMX::~MMX()

.text._ZN3SSED2Ev
                0x00000000c00618e0       0x22
 .text._ZN3SSED2Ev
                0x00000000c00618e0       0x22 hw/fpu/sse.32
                0x00000000c00618e0                SSE::~SSE()
                0x00000000c00618e0                SSE::~SSE()

.text._ZN3SSED0Ev
                0x00000000c0061902       0x29
 .text._ZN3SSED0Ev
                0x00000000c0061902       0x29 hw/fpu/sse.32
                0x00000000c0061902                SSE::~SSE()

.text._ZN3x87D2Ev
                0x00000000c006192c       0x22
 .text._ZN3x87D2Ev
                0x00000000c006192c       0x22 hw/fpu/x87.32
                0x00000000c006192c                x87::~x87()
                0x00000000c006192c                x87::~x87()

.text._ZN3x87D0Ev
                0x00000000c006194e       0x29
 .text._ZN3x87D0Ev
                0x00000000c006194e       0x29 hw/fpu/x87.32
                0x00000000c006194e                x87::~x87()

.text._ZN6IOAPICD2Ev
                0x00000000c0061978       0x22
 .text._ZN6IOAPICD2Ev
                0x00000000c0061978       0x22 hw/intctrl/apic.32
                0x00000000c0061978                IOAPIC::~IOAPIC()
                0x00000000c0061978                IOAPIC::~IOAPIC()

.text._ZN6IOAPICD0Ev
                0x00000000c006199a       0x29
 .text._ZN6IOAPICD0Ev
                0x00000000c006199a       0x29 hw/intctrl/apic.32
                0x00000000c006199a                IOAPIC::~IOAPIC()

.text._ZN4APICD2Ev
                0x00000000c00619c4       0x22
 .text._ZN4APICD2Ev
                0x00000000c00619c4       0x22 hw/intctrl/apic.32
                0x00000000c00619c4                APIC::~APIC()
                0x00000000c00619c4                APIC::~APIC()

.text._ZN4APICD0Ev
                0x00000000c00619e6       0x29
 .text._ZN4APICD0Ev
                0x00000000c00619e6       0x29 hw/intctrl/apic.32
                0x00000000c00619e6                APIC::~APIC()

.text._ZN3PICD2Ev
                0x00000000c0061a10       0x22
 .text._ZN3PICD2Ev
                0x00000000c0061a10       0x22 hw/intctrl/pic.32
                0x00000000c0061a10                PIC::~PIC()
                0x00000000c0061a10                PIC::~PIC()

.text._ZN3PICD0Ev
                0x00000000c0061a32       0x29
 .text._ZN3PICD0Ev
                0x00000000c0061a32       0x29 hw/intctrl/pic.32
                0x00000000c0061a32                PIC::~PIC()

.text._ZN9APICTimerD2Ev
                0x00000000c0061a5c       0x22
 .text._ZN9APICTimerD2Ev
                0x00000000c0061a5c       0x22 hw/timer/apictimer.32
                0x00000000c0061a5c                APICTimer::~APICTimer()
                0x00000000c0061a5c                APICTimer::~APICTimer()

.text._ZN9APICTimerD0Ev
                0x00000000c0061a7e       0x29
 .text._ZN9APICTimerD0Ev
                0x00000000c0061a7e       0x29 hw/timer/apictimer.32
                0x00000000c0061a7e                APICTimer::~APICTimer()

.text._ZN3PITD2Ev
                0x00000000c0061aa8       0x22
 .text._ZN3PITD2Ev
                0x00000000c0061aa8       0x22 hw/timer/pit.32
                0x00000000c0061aa8                PIT::~PIT()
                0x00000000c0061aa8                PIT::~PIT()

.text._ZN3PITD0Ev
                0x00000000c0061aca       0x29
 .text._ZN3PITD0Ev
                0x00000000c0061aca       0x29 hw/timer/pit.32
                0x00000000c0061aca                PIT::~PIT()

.rodata         0x00000000c0061af3    0x28689
                0x00000000c0061af3                start_ctors = .
 *(SORT_BY_NAME(.ctors*))
 *fill*         0x00000000c0061af3        0x1 
 .ctors         0x00000000c0061af4        0x4 /cygdrive/d/Users/Alex/Desktop/Toolchain/Output/bin/../lib/gcc/i386-banana/8.1.0/crtbegin.o
 .ctors         0x00000000c0061af8        0x4 core/prcssthr.32
 .ctors         0x00000000c0061afc        0x4 core/unixfile.32
 .ctors         0x00000000c0061b00        0x4 /cygdrive/d/Users/Alex/Desktop/Toolchain/Output/bin/../lib/gcc/i386-banana/8.1.0/crtend.o
                0x00000000c0061b04                end_ctors = .
                0x00000000c0061b04                start_dtors = .
 *(SORT_BY_NAME(.dtors*))
 .dtors         0x00000000c0061b04        0x4 /cygdrive/d/Users/Alex/Desktop/Toolchain/Output/bin/../lib/gcc/i386-banana/8.1.0/crtbegin.o
 .dtors         0x00000000c0061b08        0x4 /cygdrive/d/Users/Alex/Desktop/Toolchain/Output/bin/../lib/gcc/i386-banana/8.1.0/crtend.o
                0x00000000c0061b08                __DTOR_END__
                0x00000000c0061b0c                end_dtors = .
 *(.rodata*)
 .rodata        0x00000000c0061b0c       0x70 acpica/dsargs.32
 .rodata        0x00000000c0061b7c      0x108 acpica/dscontrol.32
 .rodata        0x00000000c0061c84        0x8 acpica/dsdebug.32
 .rodata        0x00000000c0061c8c       0xfb acpica/dsfield.32
 *fill*         0x00000000c0061d87        0x1 
 .rodata        0x00000000c0061d88       0x4a acpica/dsinit.32
 *fill*         0x00000000c0061dd2        0x2 
 .rodata        0x00000000c0061dd4       0xf6 acpica/dsmethod.32
 *fill*         0x00000000c0061eca        0x2 
 .rodata        0x00000000c0061ecc       0xca acpica/dsmthdat.32
 *fill*         0x00000000c0061f96        0x2 
 .rodata        0x00000000c0061f98      0x164 acpica/dsobject.32
 .rodata        0x00000000c00620fc      0x1cf acpica/dsopcode.32
 *fill*         0x00000000c00622cb        0x1 
 .rodata        0x00000000c00622cc      0x148 acpica/dspkginit.32
 .rodata        0x00000000c0062414       0x5a acpica/dsutils.32
 *fill*         0x00000000c006246e        0x2 
 .rodata        0x00000000c0062470      0x15c acpica/dswexec.32
 .rodata        0x00000000c00625cc       0xc4 acpica/dswload.32
 .rodata        0x00000000c0062690      0x168 acpica/dswload2.32
 .rodata        0x00000000c00627f8       0x38 acpica/dswscope.32
 .rodata        0x00000000c0062830      0x223 acpica/dswstate.32
 *fill*         0x00000000c0062a53        0x1 
 .rodata        0x00000000c0062a54       0xf2 acpica/evevent.32
 *fill*         0x00000000c0062b46        0x2 
 .rodata        0x00000000c0062b48       0xa6 acpica/evglock.32
 *fill*         0x00000000c0062bee        0x2 
 .rodata        0x00000000c0062bf0       0xcb acpica/evgpe.32
 *fill*         0x00000000c0062cbb        0x1 
 .rodata        0x00000000c0062cbc       0xaa acpica/evgpeblk.32
 *fill*         0x00000000c0062d66        0x2 
 .rodata        0x00000000c0062d68      0x107 acpica/evgpeinit.32
 *fill*         0x00000000c0062e6f        0x1 
 .rodata        0x00000000c0062e70       0x42 acpica/evgpeutil.32
 *fill*         0x00000000c0062eb2        0x2 
 .rodata        0x00000000c0062eb4        0xa acpica/evhandler.32
 *fill*         0x00000000c0062ebe        0x2 
 .rodata        0x00000000c0062ec0       0xc3 acpica/evmisc.32
 *fill*         0x00000000c0062f83        0x1 
 .rodata        0x00000000c0062f84      0x133 acpica/evregion.32
 *fill*         0x00000000c00630b7        0x1 
 .rodata        0x00000000c00630b8       0x55 acpica/evrgnini.32
 *fill*         0x00000000c006310d        0x3 
 .rodata        0x00000000c0063110        0x6 acpica/evsci.32
 *fill*         0x00000000c0063116        0x2 
 .rodata        0x00000000c0063118       0x77 acpica/evxface.32
 *fill*         0x00000000c006318f        0x1 
 .rodata        0x00000000c0063190       0x8e acpica/evxfevnt.32
 *fill*         0x00000000c006321e        0x2 
 .rodata        0x00000000c0063220       0x1b acpica/evxfgpe.32
 *fill*         0x00000000c006323b        0x1 
 .rodata        0x00000000c006323c        0x9 acpica/evxfregn.32
 *fill*         0x00000000c0063245        0x3 
 .rodata        0x00000000c0063248       0x2e acpica/exconcat.32
 *fill*         0x00000000c0063276        0x2 
 .rodata        0x00000000c0063278       0x75 acpica/exconfig.32
 *fill*         0x00000000c00632ed        0x3 
 .rodata        0x00000000c00632f0       0xe4 acpica/exconvrt.32
 .rodata        0x00000000c00633d4       0x36 acpica/excreate.32
 *fill*         0x00000000c006340a        0x2 
 .rodata        0x00000000c006340c      0x21c acpica/exdebug.32
 .rodata        0x00000000c0063628        0x7 acpica/exdump.32
 *fill*         0x00000000c006362f        0x1 
 .rodata        0x00000000c0063630       0x44 acpica/exfield.32
                0x00000000c0063638                AcpiProtocolLengths
 .rodata        0x00000000c0063674      0x1f2 acpica/exfldio.32
 *fill*         0x00000000c0063866        0x2 
 .rodata        0x00000000c0063868       0xef acpica/exmisc.32
 *fill*         0x00000000c0063957        0x1 
 .rodata        0x00000000c0063958      0x15e acpica/exmutex.32
 *fill*         0x00000000c0063ab6        0x2 
 .rodata        0x00000000c0063ab8       0x79 acpica/exnames.32
 *fill*         0x00000000c0063b31        0x3 
 .rodata        0x00000000c0063b34      0x21c acpica/exoparg1.32
 .rodata        0x00000000c0063d50      0x140 acpica/exoparg2.32
 .rodata        0x00000000c0063e90       0x36 acpica/exoparg3.32
 *fill*         0x00000000c0063ec6        0x2 
 .rodata        0x00000000c0063ec8       0x87 acpica/exoparg6.32
 *fill*         0x00000000c0063f4f        0x1 
 .rodata        0x00000000c0063f50       0x98 acpica/exprep.32
 .rodata        0x00000000c0063fe8       0x56 acpica/exregion.32
 *fill*         0x00000000c006403e        0x2 
 .rodata        0x00000000c0064040      0x168 acpica/exresnte.32
 .rodata        0x00000000c00641a8      0x1ac acpica/exresolv.32
 .rodata        0x00000000c0064354      0x2a8 acpica/exresop.32
 .rodata        0x00000000c00645fc       0xb9 acpica/exserial.32
 *fill*         0x00000000c00646b5        0x3 
 .rodata        0x00000000c00646b8      0x1f0 acpica/exstore.32
 .rodata        0x00000000c00648a8       0xf1 acpica/exstoren.32
 *fill*         0x00000000c0064999        0x3 
 .rodata        0x00000000c006499c        0x9 acpica/exstorob.32
 *fill*         0x00000000c00649a5        0x3 
 .rodata        0x00000000c00649a8       0x2d acpica/exsystem.32
 *fill*         0x00000000c00649d5        0x3 
 .rodata        0x00000000c00649d8        0x8 acpica/extrace.32
 .rodata        0x00000000c00649e0      0x125 acpica/exutils.32
 *fill*         0x00000000c0064b05        0x3 
 .rodata        0x00000000c0064b08       0xbf acpica/hwacpi.32
 *fill*         0x00000000c0064bc7        0x1 
 .rodata        0x00000000c0064bc8       0x33 acpica/hwesleep.32
 *fill*         0x00000000c0064bfb        0x1 
 .rodata        0x00000000c0064bfc       0x1d acpica/hwgpe.32
 *fill*         0x00000000c0064c19        0x3 
 .rodata        0x00000000c0064c1c        0xb acpica/hwpci.32
 *fill*         0x00000000c0064c27        0x1 
 .rodata        0x00000000c0064c28      0x108 acpica/hwregs.32
 .rodata        0x00000000c0064d30       0x18 acpica/hwsleep.32
 .rodata        0x00000000c0064d48        0x8 acpica/hwtimer.32
 *fill*         0x00000000c0064d50       0x10 
 .rodata        0x00000000c0064d60      0x187 acpica/hwvalid.32
 *fill*         0x00000000c0064ee7        0x1 
 .rodata        0x00000000c0064ee8       0x82 acpica/hwxface.32
 *fill*         0x00000000c0064f6a        0x2 
 .rodata        0x00000000c0064f6c       0x45 acpica/hwxfsleep.32
 *fill*         0x00000000c0064fb1        0x3 
 .rodata        0x00000000c0064fb4      0x126 acpica/nsaccess.32
 *fill*         0x00000000c00650da        0x2 
 .rodata        0x00000000c00650dc       0x26 acpica/nsalloc.32
 *fill*         0x00000000c0065102        0x2 
 .rodata        0x00000000c0065104      0x266 acpica/nsarguments.32
 *fill*         0x00000000c006536a        0x2 
 .rodata        0x00000000c006536c        0xa acpica/nsconvert.32
 *fill*         0x00000000c0065376        0x2 
 .rodata        0x00000000c0065378        0x7 acpica/nsdump.32
 *fill*         0x00000000c006537f        0x1 
 .rodata        0x00000000c0065380        0x9 acpica/nsdumpdv.32
 *fill*         0x00000000c0065389        0x3 
 .rodata        0x00000000c006538c      0x110 acpica/nseval.32
 .rodata        0x00000000c006549c       0xdd acpica/nsinit.32
 *fill*         0x00000000c0065579        0x3 
 .rodata        0x00000000c006557c        0x7 acpica/nsload.32
 *fill*         0x00000000c0065583        0x1 
 .rodata        0x00000000c0065584       0x63 acpica/nsnames.32
 *fill*         0x00000000c00655e7        0x1 
 .rodata        0x00000000c00655e8       0x6d acpica/nsobject.32
 *fill*         0x00000000c0065655        0x3 
 .rodata        0x00000000c0065658        0xd acpica/nsparse.32
 *fill*         0x00000000c0065665       0x1b 
 .rodata        0x00000000c0065680      0xa4c acpica/nspredef.32
                0x00000000c0065680                AcpiGbl_PredefinedMethods
 .rodata        0x00000000c00660cc      0x1b6 acpica/nsprepkg.32
 *fill*         0x00000000c0066282       0x1e 
 .rodata        0x00000000c00662a0       0xf2 acpica/nsrepair.32
 *fill*         0x00000000c0066392        0xe 
 .rodata        0x00000000c00663a0      0x1e3 acpica/nsrepair2.32
 *fill*         0x00000000c0066583        0x1 
 .rodata        0x00000000c0066584       0x3c acpica/nssearch.32
 .rodata        0x00000000c00665c0       0x5e acpica/nsutils.32
 *fill*         0x00000000c006661e        0x2 
 .rodata        0x00000000c0066620        0x7 acpica/nswalk.32
 *fill*         0x00000000c0066627        0x1 
 .rodata        0x00000000c0066628       0x8e acpica/nsxfeval.32
 *fill*         0x00000000c00666b6        0x2 
 .rodata        0x00000000c00666b8       0x1a acpica/nsxfname.32
 *fill*         0x00000000c00666d2        0x2 
 .rodata        0x00000000c00666d4        0x8 acpica/nsxfobj.32
 .rodata        0x00000000c00666dc      0x120 acpica/psargs.32
 .rodata        0x00000000c00667fc       0x9b acpica/psloop.32
 *fill*         0x00000000c0066897        0x1 
 .rodata        0x00000000c0066898       0x89 acpica/psobject.32
 *fill*         0x00000000c0066921       0x1f 
 .rodata        0x00000000c0066940      0x850 acpica/psopcode.32
                0x00000000c0066960                AcpiGbl_AmlOpInfo
 *fill*         0x00000000c0067190       0x10 
 .rodata        0x00000000c00671a0      0x1c9 acpica/psopinfo.32
                0x00000000c00671e0                AcpiGbl_ShortOpIndex
                0x00000000c00672e0                AcpiGbl_LongOpIndex
 *fill*         0x00000000c0067369        0x3 
 .rodata        0x00000000c006736c       0x3e acpica/psparse.32
 *fill*         0x00000000c00673aa        0x2 
 .rodata        0x00000000c00673ac        0x8 acpica/psscope.32
 .rodata        0x00000000c00673b4       0x23 acpica/pstree.32
 *fill*         0x00000000c00673d7        0x1 
 .rodata        0x00000000c00673d8        0x8 acpica/psutils.32
 .rodata        0x00000000c00673e0        0x7 acpica/pswalk.32
 *fill*         0x00000000c00673e7        0x1 
 .rodata        0x00000000c00673e8        0x8 acpica/psxface.32
 .rodata        0x00000000c00673f0       0x94 acpica/rsaddr.32
                0x00000000c00673f8                AcpiRsConvertAddress16
                0x00000000c006740c                AcpiRsConvertAddress32
                0x00000000c0067420                AcpiRsConvertAddress64
                0x00000000c0067434                AcpiRsConvertExtAddress64
 .rodata        0x00000000c0067484      0x238 acpica/rscalc.32
 .rodata        0x00000000c00676bc      0x12d acpica/rscreate.32
 *fill*         0x00000000c00677e9        0x3 
 .rodata        0x00000000c00677ec        0xb acpica/rsdumpinfo.32
 *fill*         0x00000000c00677f7        0x9 
 .rodata        0x00000000c0067800       0x6c acpica/rsinfo.32
                0x00000000c0067808                AcpiGbl_AmlResourceSizes
                0x00000000c0067840                AcpiGbl_ResourceStructSizes
                0x00000000c0067864                AcpiGbl_AmlResourceSerialBusSizes
                0x00000000c0067868                AcpiGbl_ResourceStructSerialBusSizes
 *fill*         0x00000000c006786c       0x14 
 .rodata        0x00000000c0067880       0xa8 acpica/rsio.32
                0x00000000c0067888                AcpiRsConvertIo
                0x00000000c006789c                AcpiRsConvertFixedIo
                0x00000000c00678ac                AcpiRsConvertGenericReg
                0x00000000c00678bc                AcpiRsConvertEndDpf
                0x00000000c00678c4                AcpiRsConvertEndTag
                0x00000000c00678cc                AcpiRsGetStartDpf
                0x00000000c0067900                AcpiRsSetStartDpf
 *fill*         0x00000000c0067928       0x18 
 .rodata        0x00000000c0067940       0xf0 acpica/rsirq.32
                0x00000000c0067960                AcpiRsGetIrq
                0x00000000c00679a0                AcpiRsSetIrq
                0x00000000c00679e0                AcpiRsConvertExtIrq
                0x00000000c0067a08                AcpiRsConvertDma
                0x00000000c0067a20                AcpiRsConvertFixedDma
 .rodata        0x00000000c0067a30      0x11e acpica/rslist.32
 *fill*         0x00000000c0067b4e        0x2 
 .rodata        0x00000000c0067b50       0x70 acpica/rsmemory.32
                0x00000000c0067b5c                AcpiRsConvertMemory24
                0x00000000c0067b6c                AcpiRsConvertMemory32
                0x00000000c0067b7c                AcpiRsConvertFixedMemory32
                0x00000000c0067b8c                AcpiRsGetVendorSmall
                0x00000000c0067b98                AcpiRsGetVendorLarge
                0x00000000c0067ba4                AcpiRsSetVendor
 .rodata        0x00000000c0067bc0      0x180 acpica/rsmisc.32
 .rodata        0x00000000c0067d40      0x2d8 acpica/rsserial.32
                0x00000000c0067d60                AcpiRsConvertGpio
                0x00000000c0067dc0                AcpiRsConvertPinFunction
                0x00000000c0067e00                AcpiRsConvertI2cSerialBus
                0x00000000c0067e60                AcpiRsConvertSpiSerialBus
                0x00000000c0067ec0                AcpiRsConvertUartSerialBus
                0x00000000c0067f20                AcpiRsConvertPinConfig
                0x00000000c0067f60                AcpiRsConvertPinGroup
                0x00000000c0067fa0                AcpiRsConvertPinGroupFunction
                0x00000000c0067fe0                AcpiRsConvertPinGroupConfig
 .rodata        0x00000000c0068018       0x41 acpica/rsutils.32
 *fill*         0x00000000c0068059        0x3 
 .rodata        0x00000000c006805c       0x1c acpica/rsxface.32
 .rodata        0x00000000c0068078       0xf8 acpica/tbdata.32
 .rodata        0x00000000c0068170      0x2f9 acpica/tbfadt.32
 *fill*         0x00000000c0068469        0x3 
 .rodata        0x00000000c006846c        0x7 acpica/tbfind.32
 *fill*         0x00000000c0068473        0x1 
 .rodata        0x00000000c0068474       0xbe acpica/tbinstal.32
 *fill*         0x00000000c0068532        0x2 
 .rodata        0x00000000c0068534       0xe1 acpica/tbprint.32
 *fill*         0x00000000c0068615        0x3 
 .rodata        0x00000000c0068618      0x177 acpica/tbutils.32
 *fill*         0x00000000c006878f        0x1 
 .rodata        0x00000000c0068790       0x41 acpica/tbxface.32
 *fill*         0x00000000c00687d1        0x3 
 .rodata        0x00000000c00687d4      0x127 acpica/tbxfload.32
 *fill*         0x00000000c00688fb        0x1 
 .rodata        0x00000000c00688fc       0x5d acpica/tbxfroot.32
 *fill*         0x00000000c0068959        0x3 
 .rodata        0x00000000c006895c       0x66 acpica/utaddress.32
 *fill*         0x00000000c00689c2        0x2 
 .rodata        0x00000000c00689c4       0x48 acpica/utalloc.32
 .rodata        0x00000000c0068a0c       0x60 acpica/utbuffer.32
 .rodata        0x00000000c0068a6c        0x8 acpica/utcache.32
 *fill*         0x00000000c0068a74        0xc 
 .rodata        0x00000000c0068a80      0x121 acpica/utclib.32
                0x00000000c0068aa0                AcpiGbl_Ctypes
 *fill*         0x00000000c0068ba1        0x3 
 .rodata        0x00000000c0068ba4      0x14b acpica/utcopy.32
 *fill*         0x00000000c0068cef        0x1 
 .rodata        0x00000000c0068cf0        0x8 acpica/utdebug.32
 .rodata        0x00000000c0068cf8      0x47d acpica/utdecode.32
                0x00000000c0068d04                AcpiGbl_NsProperties
 *fill*         0x00000000c0069175        0x3 
 .rodata        0x00000000c0069178      0x1ec acpica/utdelete.32
 .rodata        0x00000000c0069364      0x129 acpica/uterror.32
 *fill*         0x00000000c006948d        0x3 
 .rodata        0x00000000c0069490       0xa0 acpica/uteval.32
 *fill*         0x00000000c0069530       0x10 
 .rodata        0x00000000c0069540      0x930 acpica/utexcep.32
 *fill*         0x00000000c0069e70       0x10 
 .rodata        0x00000000c0069e80      0x158 acpica/utglobal.32
                0x00000000c0069edc                AcpiGbl_LowerHexDigits
                0x00000000c0069ef0                AcpiGbl_UpperHexDigits
                0x00000000c0069f60                AcpiGbl_PreDefinedNames
 .rodata        0x00000000c0069fd8       0x18 acpica/uthex.32
 .rodata        0x00000000c0069ff0       0x1a acpica/utids.32
 *fill*         0x00000000c006a00a        0x2 
 .rodata        0x00000000c006a00c       0x2d acpica/utinit.32
 *fill*         0x00000000c006a039        0x3 
 .rodata        0x00000000c006a03c        0x7 acpica/utlock.32
 *fill*         0x00000000c006a043        0x1 
 .rodata        0x00000000c006a044       0x16 acpica/utmath.32
 *fill*         0x00000000c006a05a        0x2 
 .rodata        0x00000000c006a05c       0x3f acpica/utmisc.32
 *fill*         0x00000000c006a09b        0x1 
 .rodata        0x00000000c006a09c       0x6a acpica/utmutex.32
 *fill*         0x00000000c006a106        0x2 
 .rodata        0x00000000c006a108        0xa acpica/utnonansi.32
 *fill*         0x00000000c006a112        0x2 
 .rodata        0x00000000c006a114      0x1b4 acpica/utobject.32
 .rodata        0x00000000c006a2c8      0x1ab acpica/utosi.32
 *fill*         0x00000000c006a473        0x1 
 .rodata        0x00000000c006a474       0xbc acpica/utownerid.32
 .rodata        0x00000000c006a530       0x3b acpica/utpredef.32
 *fill*         0x00000000c006a56b        0x1 
 .rodata        0x00000000c006a56c      0x160 acpica/utprint.32
 .rodata        0x00000000c006a6cc        0xc acpica/utresdecode.32
 *fill*         0x00000000c006a6d8        0x8 
 .rodata        0x00000000c006a6e0      0x154 acpica/utresrc.32
                0x00000000c006a700                AcpiGbl_ResourceAmlSizes
                0x00000000c006a724                AcpiGbl_ResourceAmlSerialBusSizes
 .rodata        0x00000000c006a834       0x2f acpica/utstate.32
 *fill*         0x00000000c006a863        0x1 
 .rodata        0x00000000c006a864      0x1e1 acpica/utstring.32
 *fill*         0x00000000c006aa45        0x3 
 .rodata        0x00000000c006aa48        0xb acpica/utstrsuppt.32
 *fill*         0x00000000c006aa53        0x1 
 .rodata        0x00000000c006aa54        0xc acpica/utstrtoul64.32
 .rodata        0x00000000c006aa60        0x7 acpica/utuuid.32
 *fill*         0x00000000c006aa67        0x1 
 .rodata        0x00000000c006aa68        0x8 acpica/utxface.32
 .rodata        0x00000000c006aa70       0x9e acpica/utxferror.32
 *fill*         0x00000000c006ab0e        0x2 
 .rodata        0x00000000c006ab10       0xd8 acpica/utxfinit.32
 .rodata        0x00000000c006abe8        0xa acpica/utxfmutex.32
 *fill*         0x00000000c006abf2        0x2 
 .rodata        0x00000000c006abf4       0x18 core/malloc.32
 *fill*         0x00000000c006ac0c       0x14 
 .rodata        0x00000000c006ac20      0x15e fs/fat/ff.32
 *fill*         0x00000000c006ad7e        0x2 
 .rodata        0x00000000c006ad80      0x3fc fs/fat/ffunicode.32
 *fill*         0x00000000c006b17c        0x4 
 .rodata        0x00000000c006b180      0x4f8 hal/libresample/samplerate.32
 .rodata        0x00000000c006b678       0x60 hal/libresample/src_linear.32
 *fill*         0x00000000c006b6d8        0x8 
 .rodata        0x00000000c006b6e0    0x186f0 hal/libresample/src_sinc.32
 .rodata        0x00000000c0083dd0       0x68 hal/libresample/src_zoh.32
 .rodata        0x00000000c0083e38      0x1ab acpica/osl.32
 *fill*         0x00000000c0083fe3        0x1 
 .rodata        0x00000000c0083fe4      0x152 core/computer.32
 *fill*         0x00000000c0084136        0x2 
 .rodata._ZTV8Computer
                0x00000000c0084138       0x2c core/computer.32
                0x00000000c0084138                vtable for Computer
 .rodata        0x00000000c0084164      0x1f3 core/elf.32
 *fill*         0x00000000c0084357        0x1 
 .rodata        0x00000000c0084358       0x9c core/gdt.32
 .rodata        0x00000000c00843f4       0x9c core/idle.32
 .rodata        0x00000000c0084490       0x9c core/idt.32
 .rodata        0x00000000c008452c      0x408 core/kconsole.32
 .rodata        0x00000000c0084934       0xd8 core/kheap.32
 .rodata        0x00000000c0084a0c       0xb8 core/main.32
 .rodata        0x00000000c0084ac4       0xea core/physmgr.32
 *fill*         0x00000000c0084bae        0x2 
 .rodata        0x00000000c0084bb0       0xd5 core/pipe.32
 *fill*         0x00000000c0084c85        0x3 
 .rodata._ZTV4Pipe
                0x00000000c0084c88       0x1c core/pipe.32
                0x00000000c0084c88                vtable for Pipe
 .rodata        0x00000000c0084ca4      0x43b core/prcssthr.32
 *fill*         0x00000000c00850df        0x1 
 .rodata        0x00000000c00850e0      0x147 core/syscalls.32
 *fill*         0x00000000c0085227        0x1 
 .rodata        0x00000000c0085228      0x13a core/terminal.32
 *fill*         0x00000000c0085362        0x2 
 .rodata._ZTV7VgaText
                0x00000000c0085364       0x1c core/terminal.32
                0x00000000c0085364                vtable for VgaText
 .rodata        0x00000000c0085380       0x9c core/tss.32
 .rodata        0x00000000c008541c      0x1ab core/unixfile.32
 *fill*         0x00000000c00855c7        0x1 
 .rodata._ZTV16ReservedFilename
                0x00000000c00855c8       0x1c core/unixfile.32
                0x00000000c00855c8                vtable for ReservedFilename
 .rodata._ZTV8UnixFile
                0x00000000c00855e4       0x1c core/unixfile.32
                0x00000000c00855e4                vtable for UnixFile
 .rodata        0x00000000c0085600      0x3ba core/virtmgr.32
 *fill*         0x00000000c00859ba        0x2 
 .rodata        0x00000000c00859bc       0xcf coreobjs/c++.32
 *fill*         0x00000000c0085a8b        0x1 
 .rodata        0x00000000c0085a8c       0x9c debugger/debug.32
 .rodata        0x00000000c0085b28       0x9e fs/vfs.32
 *fill*         0x00000000c0085bc6        0x2 
 .rodata._ZTV9Directory
                0x00000000c0085bc8       0x1c fs/vfs.32
                0x00000000c0085bc8                vtable for Directory
 .rodata._ZTV4File
                0x00000000c0085be4       0x1c fs/vfs.32
                0x00000000c0085be4                vtable for File
 .rodata._ZTV10Filesystem
                0x00000000c0085c00       0x64 fs/vfs.32
                0x00000000c0085c00                vtable for Filesystem
 .rodata        0x00000000c0085c64       0x9c hal/bus.32
 .rodata._ZTV3Bus
                0x00000000c0085d00       0x2c hal/bus.32
                0x00000000c0085d00                vtable for Bus
 .rodata        0x00000000c0085d2c       0x9c hal/buzzer.32
 .rodata._ZTV6Buzzer
                0x00000000c0085dc8       0x30 hal/buzzer.32
                0x00000000c0085dc8                vtable for Buzzer
 *fill*         0x00000000c0085df8        0x8 
 .rodata        0x00000000c0085e00      0x110 hal/clock.32
 .rodata._ZTV5Clock
                0x00000000c0085f10       0x3c hal/clock.32
                0x00000000c0085f10                vtable for Clock
 .rodata        0x00000000c0085f4c      0x138 hal/device.32
 .rodata._ZTV16DriverlessDevice
                0x00000000c0086084       0x2c hal/device.32
                0x00000000c0086084                vtable for DriverlessDevice
 .rodata._ZTV6Device
                0x00000000c00860b0       0x2c hal/device.32
                0x00000000c00860b0                vtable for Device
 .rodata        0x00000000c00860dc       0x9c hal/diskctrl.32
 .rodata._ZTV18HardDiskController
                0x00000000c0086178       0x2c hal/diskctrl.32
                0x00000000c0086178                vtable for HardDiskController
 .rodata        0x00000000c00861a4       0x9c hal/diskphys.32
 .rodata._ZTV12PhysicalDisk
                0x00000000c0086240       0x34 hal/diskphys.32
                0x00000000c0086240                vtable for PhysicalDisk
 .rodata        0x00000000c0086274       0xa4 hal/fpu.32
 .rodata._ZTV3FPU
                0x00000000c0086318       0x38 hal/fpu.32
                0x00000000c0086318                vtable for FPU
 .rodata        0x00000000c0086350      0x34a hal/intctrl.32
 *fill*         0x00000000c008669a        0x2 
 .rodata._ZTV19InterruptController
                0x00000000c008669c       0x48 hal/intctrl.32
                0x00000000c008669c                vtable for InterruptController
 .rodata        0x00000000c00866e4       0x9c hal/keybrd.32
 .rodata._ZTV8Keyboard
                0x00000000c0086780       0x34 hal/keybrd.32
                0x00000000c0086780                vtable for Keyboard
 .rodata        0x00000000c00867b4      0x118 hal/logidisk.32
 .rodata._ZTV11LogicalDisk
                0x00000000c00868cc       0x2c hal/logidisk.32
                0x00000000c00868cc                vtable for LogicalDisk
 .rodata        0x00000000c00868f8       0xa7 hal/partition.32
 *fill*         0x00000000c008699f        0x1 
 .rodata        0x00000000c00869a0      0x157 hal/timer.32
 *fill*         0x00000000c0086af7        0x1 
 .rodata._ZTV5Timer
                0x00000000c0086af8       0x30 hal/timer.32
                0x00000000c0086af8                vtable for Timer
 .rodata        0x00000000c0086b28       0x9c hal/vcache.32
 .rodata._ZTV6VCache
                0x00000000c0086bc4       0x10 hal/vcache.32
                0x00000000c0086bc4                vtable for VCache
 .rodata        0x00000000c0086bd4      0x580 hw/acpi.32
 .rodata._ZTV4ACPI
                0x00000000c0087154       0x2c hw/acpi.32
                0x00000000c0087154                vtable for ACPI
 .rodata        0x00000000c0087180      0x2c4 hw/cpu.32
 .rodata._ZTV3CPU
                0x00000000c0087444       0x2c hw/cpu.32
                0x00000000c0087444                vtable for CPU
 .rodata        0x00000000c0087470       0xe4 registry/registry.32
 .rodata        0x00000000c0087554       0x9c syscalls/sc_exit.32
 .rodata        0x00000000c00875f0       0x9c syscalls/sc_sbrk.32
 .rodata        0x00000000c008768c       0x9c syscalls/sc_yield.32
 .rodata        0x00000000c0087728      0x564 vm86/vm8086.32
 .rodata        0x00000000c0087c8c      0x120 fs/fat/vfslink.32
 .rodata._ZTV3FAT
                0x00000000c0087dac       0x64 fs/fat/vfslink.32
                0x00000000c0087dac                vtable for FAT
 .rodata        0x00000000c0087e10      0x100 fs/iso9660/vfslink.32
 .rodata._ZTV7ISO9660
                0x00000000c0087f10       0x64 fs/iso9660/vfslink.32
                0x00000000c0087f10                vtable for ISO9660
 *fill*         0x00000000c0087f74        0x4 
 .rodata        0x00000000c0087f78       0xc0 hal/sound/sndchannel.32
 .rodata        0x00000000c0088038       0xb8 hal/sound/sndhw.32
 .rodata._ZTV11SoundDevice
                0x00000000c00880f0       0x38 hal/sound/sndhw.32
                0x00000000c00880f0                vtable for SoundDevice
 .rodata        0x00000000c0088128      0x16b hw/audio/sb16.32
 *fill*         0x00000000c0088293        0x1 
 .rodata._ZTV14SoundBlaster16
                0x00000000c0088294       0x38 hw/audio/sb16.32
                0x00000000c0088294                vtable for SoundBlaster16
 *fill*         0x00000000c00882cc       0x14 
 .rodata        0x00000000c00882e0      0x188 hw/bus/isa.32
 .rodata._ZTV3ISA
                0x00000000c0088468       0x2c hw/bus/isa.32
                0x00000000c0088468                vtable for ISA
 .rodata        0x00000000c0088494      0x140 hw/bus/pci.32
 .rodata._ZTV3PCI
                0x00000000c00885d4       0x2c hw/bus/pci.32
                0x00000000c00885d4                vtable for PCI
 .rodata        0x00000000c0088600       0xac hw/bus/ps2.32
 .rodata._ZTV3PS2
                0x00000000c00886ac       0x2c hw/bus/ps2.32
                0x00000000c00886ac                vtable for PS2
 .rodata        0x00000000c00886d8       0xa6 hw/bus/ps2port.32
 *fill*         0x00000000c008877e        0x2 
 .rodata._ZTV7PS2Port
                0x00000000c0088780       0x2c hw/bus/ps2port.32
                0x00000000c0088780                vtable for PS2Port
 .rodata        0x00000000c00887ac       0xa7 hw/buzzer/pcspk.32
 *fill*         0x00000000c0088853        0x1 
 .rodata._ZTV4Beep
                0x00000000c0088854       0x30 hw/buzzer/pcspk.32
                0x00000000c0088854                vtable for Beep
 .rodata        0x00000000c0088884       0xc7 hw/clock/rtc.32
 *fill*         0x00000000c008894b        0x1 
 .rodata._ZTV3RTC
                0x00000000c008894c       0x3c hw/clock/rtc.32
                0x00000000c008894c                vtable for RTC
 .rodata        0x00000000c0088988      0x30d hw/diskctrl/ide.32
 *fill*         0x00000000c0088c95        0x3 
 .rodata._ZTV3IDE
                0x00000000c0088c98       0x2c hw/diskctrl/ide.32
                0x00000000c0088c98                vtable for IDE
 .rodata        0x00000000c0088cc4       0xbd hw/diskphys/ata.32
 *fill*         0x00000000c0088d81        0x3 
 .rodata._ZTV3ATA
                0x00000000c0088d84       0x34 hw/diskphys/ata.32
                0x00000000c0088d84                vtable for ATA
 .rodata        0x00000000c0088db8      0x108 hw/diskphys/atapi.32
 .rodata._ZTV5ATAPI
                0x00000000c0088ec0       0x34 hw/diskphys/atapi.32
                0x00000000c0088ec0                vtable for ATAPI
 .rodata        0x00000000c0088ef4      0x1a9 hw/dma/isadma.32
 *fill*         0x00000000c008909d        0x3 
 .rodata._ZTV3DMA
                0x00000000c00890a0       0x2c hw/dma/isadma.32
                0x00000000c00890a0                vtable for DMA
 .rodata        0x00000000c00890cc       0xa4 hw/fpu/avx.32
 .rodata._ZTV3AVX
                0x00000000c0089170       0x38 hw/fpu/avx.32
                0x00000000c0089170                vtable for AVX
 .rodata        0x00000000c00891a8       0xa4 hw/fpu/mmx.32
 .rodata._ZTV3MMX
                0x00000000c008924c       0x38 hw/fpu/mmx.32
                0x00000000c008924c                vtable for MMX
 .rodata        0x00000000c0089284       0xa4 hw/fpu/sse.32
 .rodata._ZTV3SSE
                0x00000000c0089328       0x38 hw/fpu/sse.32
                0x00000000c0089328                vtable for SSE
 .rodata        0x00000000c0089360       0xa4 hw/fpu/x87.32
 .rodata._ZTV3x87
                0x00000000c0089404       0x38 hw/fpu/x87.32
                0x00000000c0089404                vtable for x87
 .rodata        0x00000000c008943c      0x175 hw/intctrl/apic.32
 *fill*         0x00000000c00895b1        0x3 
 .rodata._ZTV6IOAPIC
                0x00000000c00895b4       0x2c hw/intctrl/apic.32
                0x00000000c00895b4                vtable for IOAPIC
 .rodata._ZTV4APIC
                0x00000000c00895e0       0x48 hw/intctrl/apic.32
                0x00000000c00895e0                vtable for APIC
 .rodata        0x00000000c0089628       0xbe hw/intctrl/pic.32
 *fill*         0x00000000c00896e6        0x2 
 .rodata._ZTV3PIC
                0x00000000c00896e8       0x48 hw/intctrl/pic.32
                0x00000000c00896e8                vtable for PIC
 *fill*         0x00000000c0089730       0x10 
 .rodata        0x00000000c0089740      0x844 hw/keybrd/ps2key.32
                0x00000000c00897e0                PS2Keyboard::internalMapperLower
                0x00000000c00898e0                PS2Keyboard::internalMapperUpper
                0x00000000c00899e0                PS2Keyboard::internalMapCapLower
                0x00000000c0089ae0                PS2Keyboard::internalMapCapUpper
                0x00000000c0089be0                PS2Keyboard::internalMapperLowerBad
 .rodata._ZTV11PS2Keyboard
                0x00000000c0089f84       0x34 hw/keybrd/ps2key.32
                0x00000000c0089f84                vtable for PS2Keyboard
 .rodata        0x00000000c0089fb8       0xa7 hw/timer/apictimer.32
 *fill*         0x00000000c008a05f        0x1 
 .rodata._ZTV9APICTimer
                0x00000000c008a060       0x30 hw/timer/apictimer.32
                0x00000000c008a060                vtable for APICTimer
 .rodata        0x00000000c008a090       0xb9 hw/timer/pit.32
 *fill*         0x00000000c008a149        0x3 
 .rodata._ZTV3PIT
                0x00000000c008a14c       0x30 hw/timer/pit.32
                0x00000000c008a14c                vtable for PIT
 *(.gnu.linkonce.r*)

.data           0x00000000c008a17c      0xb85
 *(.data)
 .data          0x00000000c008a17c        0x0 crti.32
 .data          0x00000000c008a17c        0x4 /cygdrive/d/Users/Alex/Desktop/Toolchain/Output/bin/../lib/gcc/i386-banana/8.1.0/crtbegin.o
                0x00000000c008a17c                __dso_handle
 .data          0x00000000c008a180        0x0 acpica/dsargs.32
 .data          0x00000000c008a180        0x0 acpica/dscontrol.32
 .data          0x00000000c008a180        0x0 acpica/dsdebug.32
 .data          0x00000000c008a180        0x0 acpica/dsfield.32
 .data          0x00000000c008a180        0x0 acpica/dsinit.32
 .data          0x00000000c008a180        0x0 acpica/dsmethod.32
 .data          0x00000000c008a180        0x0 acpica/dsmthdat.32
 .data          0x00000000c008a180        0x0 acpica/dsobject.32
 .data          0x00000000c008a180        0x0 acpica/dsopcode.32
 .data          0x00000000c008a180        0x0 acpica/dspkginit.32
 .data          0x00000000c008a180        0x0 acpica/dsutils.32
 .data          0x00000000c008a180       0x30 acpica/dswexec.32
 .data          0x00000000c008a1b0        0x0 acpica/dswload.32
 .data          0x00000000c008a1b0        0x0 acpica/dswload2.32
 .data          0x00000000c008a1b0        0x0 acpica/dswscope.32
 .data          0x00000000c008a1b0        0x0 acpica/dswstate.32
 .data          0x00000000c008a1b0        0x0 acpica/evevent.32
 .data          0x00000000c008a1b0        0x0 acpica/evglock.32
 .data          0x00000000c008a1b0        0x0 acpica/evgpe.32
 .data          0x00000000c008a1b0        0x0 acpica/evgpeblk.32
 .data          0x00000000c008a1b0        0x0 acpica/evgpeinit.32
 .data          0x00000000c008a1b0        0x0 acpica/evgpeutil.32
 .data          0x00000000c008a1b0        0x4 acpica/evhandler.32
                0x00000000c008a1b0                AcpiGbl_DefaultAddressSpaces
 .data          0x00000000c008a1b4        0x0 acpica/evmisc.32
 .data          0x00000000c008a1b4        0x0 acpica/evregion.32
 .data          0x00000000c008a1b4        0x0 acpica/evrgnini.32
 .data          0x00000000c008a1b4        0x0 acpica/evsci.32
 .data          0x00000000c008a1b4        0x0 acpica/evxface.32
 .data          0x00000000c008a1b4        0x0 acpica/evxfevnt.32
 .data          0x00000000c008a1b4        0x0 acpica/evxfgpe.32
 .data          0x00000000c008a1b4        0x0 acpica/evxfregn.32
 .data          0x00000000c008a1b4        0x0 acpica/exconcat.32
 .data          0x00000000c008a1b4        0x0 acpica/exconfig.32
 .data          0x00000000c008a1b4        0x0 acpica/exconvrt.32
 .data          0x00000000c008a1b4        0x0 acpica/excreate.32
 .data          0x00000000c008a1b4        0x0 acpica/exdebug.32
 .data          0x00000000c008a1b4        0x0 acpica/exdump.32
 .data          0x00000000c008a1b4        0x0 acpica/exfield.32
 .data          0x00000000c008a1b4        0x0 acpica/exfldio.32
 .data          0x00000000c008a1b4        0x0 acpica/exmisc.32
 .data          0x00000000c008a1b4        0x0 acpica/exmutex.32
 .data          0x00000000c008a1b4        0x0 acpica/exnames.32
 .data          0x00000000c008a1b4        0x0 acpica/exoparg1.32
 .data          0x00000000c008a1b4        0x0 acpica/exoparg2.32
 .data          0x00000000c008a1b4        0x0 acpica/exoparg3.32
 .data          0x00000000c008a1b4        0x0 acpica/exoparg6.32
 .data          0x00000000c008a1b4        0x0 acpica/exprep.32
 .data          0x00000000c008a1b4        0x0 acpica/exregion.32
 .data          0x00000000c008a1b4        0x0 acpica/exresnte.32
 .data          0x00000000c008a1b4        0x0 acpica/exresolv.32
 .data          0x00000000c008a1b4        0x0 acpica/exresop.32
 .data          0x00000000c008a1b4        0x0 acpica/exserial.32
 .data          0x00000000c008a1b4        0x0 acpica/exstore.32
 .data          0x00000000c008a1b4        0x0 acpica/exstoren.32
 .data          0x00000000c008a1b4        0x0 acpica/exstorob.32
 .data          0x00000000c008a1b4        0x0 acpica/exsystem.32
 .data          0x00000000c008a1b4        0x0 acpica/extrace.32
 .data          0x00000000c008a1b4        0x0 acpica/exutils.32
 .data          0x00000000c008a1b4        0x0 acpica/hwacpi.32
 .data          0x00000000c008a1b4        0x0 acpica/hwesleep.32
 .data          0x00000000c008a1b4        0x0 acpica/hwgpe.32
 .data          0x00000000c008a1b4        0x0 acpica/hwpci.32
 .data          0x00000000c008a1b4        0x0 acpica/hwregs.32
 .data          0x00000000c008a1b4        0x0 acpica/hwsleep.32
 .data          0x00000000c008a1b4        0x0 acpica/hwtimer.32
 .data          0x00000000c008a1b4        0x0 acpica/hwvalid.32
 .data          0x00000000c008a1b4        0x0 acpica/hwxface.32
 .data          0x00000000c008a1b4       0x18 acpica/hwxfsleep.32
 .data          0x00000000c008a1cc        0x0 acpica/nsaccess.32
 .data          0x00000000c008a1cc        0x0 acpica/nsalloc.32
 .data          0x00000000c008a1cc        0x0 acpica/nsarguments.32
 .data          0x00000000c008a1cc        0x0 acpica/nsconvert.32
 .data          0x00000000c008a1cc        0x0 acpica/nsdump.32
 .data          0x00000000c008a1cc        0x0 acpica/nsdumpdv.32
 .data          0x00000000c008a1cc        0x0 acpica/nseval.32
 .data          0x00000000c008a1cc        0x0 acpica/nsinit.32
 .data          0x00000000c008a1cc        0x0 acpica/nsload.32
 .data          0x00000000c008a1cc        0x0 acpica/nsnames.32
 .data          0x00000000c008a1cc        0x0 acpica/nsobject.32
 .data          0x00000000c008a1cc        0x0 acpica/nsparse.32
 .data          0x00000000c008a1cc        0x0 acpica/nspredef.32
 .data          0x00000000c008a1cc        0x0 acpica/nsprepkg.32
 .data          0x00000000c008a1cc        0x0 acpica/nsrepair.32
 .data          0x00000000c008a1cc        0x0 acpica/nsrepair2.32
 .data          0x00000000c008a1cc        0x0 acpica/nssearch.32
 .data          0x00000000c008a1cc        0x0 acpica/nsutils.32
 .data          0x00000000c008a1cc        0x0 acpica/nswalk.32
 .data          0x00000000c008a1cc        0x0 acpica/nsxfeval.32
 .data          0x00000000c008a1cc        0x0 acpica/nsxfname.32
 .data          0x00000000c008a1cc        0x0 acpica/nsxfobj.32
 .data          0x00000000c008a1cc        0x0 acpica/psargs.32
 .data          0x00000000c008a1cc        0x0 acpica/psloop.32
 .data          0x00000000c008a1cc        0x0 acpica/psobject.32
 .data          0x00000000c008a1cc        0x0 acpica/psopcode.32
 .data          0x00000000c008a1cc        0x0 acpica/psopinfo.32
 .data          0x00000000c008a1cc        0x0 acpica/psparse.32
 .data          0x00000000c008a1cc        0x0 acpica/psscope.32
 .data          0x00000000c008a1cc        0x0 acpica/pstree.32
 .data          0x00000000c008a1cc        0x0 acpica/psutils.32
 .data          0x00000000c008a1cc        0x0 acpica/pswalk.32
 .data          0x00000000c008a1cc        0x0 acpica/psxface.32
 .data          0x00000000c008a1cc        0x0 acpica/rsaddr.32
 .data          0x00000000c008a1cc        0x0 acpica/rscalc.32
 .data          0x00000000c008a1cc        0x0 acpica/rscreate.32
 .data          0x00000000c008a1cc        0x0 acpica/rsdump.32
 .data          0x00000000c008a1cc        0x0 acpica/rsdumpinfo.32
 *fill*         0x00000000c008a1cc       0x14 
 .data          0x00000000c008a1e0      0x11c acpica/rsinfo.32
                0x00000000c008a1e0                AcpiGbl_SetResourceDispatch
                0x00000000c008a260                AcpiGbl_GetResourceDispatch
                0x00000000c008a2ec                AcpiGbl_ConvertResourceSerialBusDispatch
 .data          0x00000000c008a2fc        0x0 acpica/rsio.32
 .data          0x00000000c008a2fc        0x0 acpica/rsirq.32
 .data          0x00000000c008a2fc        0x0 acpica/rslist.32
 .data          0x00000000c008a2fc        0x0 acpica/rsmemory.32
 .data          0x00000000c008a2fc        0x0 acpica/rsmisc.32
 .data          0x00000000c008a2fc        0x0 acpica/rsserial.32
 .data          0x00000000c008a2fc        0x0 acpica/rsutils.32
 .data          0x00000000c008a2fc        0x0 acpica/rsxface.32
 .data          0x00000000c008a2fc        0x0 acpica/tbdata.32
 *fill*         0x00000000c008a2fc        0x4 
 .data          0x00000000c008a300       0x80 acpica/tbfadt.32
 .data          0x00000000c008a380        0x0 acpica/tbfind.32
 .data          0x00000000c008a380        0x0 acpica/tbinstal.32
 .data          0x00000000c008a380        0x0 acpica/tbprint.32
 .data          0x00000000c008a380        0x0 acpica/tbutils.32
 .data          0x00000000c008a380        0x0 acpica/tbxface.32
 .data          0x00000000c008a380        0x0 acpica/tbxfload.32
 .data          0x00000000c008a380        0x0 acpica/tbxfroot.32
 .data          0x00000000c008a380        0x0 acpica/utaddress.32
 .data          0x00000000c008a380        0x0 acpica/utalloc.32
 .data          0x00000000c008a380        0x0 acpica/utascii.32
 .data          0x00000000c008a380        0x0 acpica/utbuffer.32
 .data          0x00000000c008a380        0x0 acpica/utcache.32
 .data          0x00000000c008a380        0x0 acpica/utclib.32
 .data          0x00000000c008a380        0x0 acpica/utcopy.32
 .data          0x00000000c008a380        0x0 acpica/utdebug.32
 .data          0x00000000c008a380      0x134 acpica/utdecode.32
                0x00000000c008a380                AcpiGbl_RegionTypes
 .data          0x00000000c008a4b4        0x0 acpica/utdelete.32
 .data          0x00000000c008a4b4        0x0 acpica/uterror.32
 .data          0x00000000c008a4b4        0x0 acpica/uteval.32
 .data          0x00000000c008a4b4        0x0 acpica/utexcep.32
 *fill*         0x00000000c008a4b4        0xc 
 .data          0x00000000c008a4c0       0xee acpica/utglobal.32
                0x00000000c008a4c0                AcpiGbl_AutoSerializeMethods
                0x00000000c008a4c1                AcpiGbl_CreateOsiMethod
                0x00000000c008a4c2                AcpiGbl_UseDefaultRegisterWidths
                0x00000000c008a4c3                AcpiGbl_EnableTableValidation
                0x00000000c008a4c4                AcpiGbl_Use32BitFacsAddresses
                0x00000000c008a4c5                AcpiGbl_RuntimeNamespaceOverride
                0x00000000c008a4c8                AcpiGbl_MaxLoopIterations
                0x00000000c008a4cc                AcpiGbl_TraceDbgLevel
                0x00000000c008a4d0                AcpiGbl_TraceDbgLayer
                0x00000000c008a4d4                AcpiDbgLevel
                0x00000000c008a4d8                AcpiDbgLayer
                0x00000000c008a4dc                AcpiGbl_DsdtIndex
                0x00000000c008a4e0                AcpiGbl_FacsIndex
                0x00000000c008a4e4                AcpiGbl_XFacsIndex
                0x00000000c008a4e8                AcpiGbl_FadtIndex
                0x00000000c008a4ec                AcpiGbl_Shutdown
                0x00000000c008a4ed                AcpiGbl_EarlyInitialization
                0x00000000c008a4ee                AcpiGbl_DbOutputFlags
                0x00000000c008a4f0                AcpiGbl_SleepStateNames
                0x00000000c008a508                AcpiGbl_LowestDstateNames
                0x00000000c008a51c                AcpiGbl_HighestDstateNames
                0x00000000c008a540                AcpiGbl_BitRegisterInfo
                0x00000000c008a590                AcpiGbl_FixedEventInfo
 .data          0x00000000c008a5ae        0x0 acpica/uthex.32
 .data          0x00000000c008a5ae        0x0 acpica/utids.32
 .data          0x00000000c008a5ae        0x0 acpica/utinit.32
 .data          0x00000000c008a5ae        0x0 acpica/utlock.32
 .data          0x00000000c008a5ae        0x0 acpica/utmath.32
 .data          0x00000000c008a5ae        0x0 acpica/utmisc.32
 .data          0x00000000c008a5ae        0x0 acpica/utmutex.32
 .data          0x00000000c008a5ae        0x0 acpica/utnonansi.32
 .data          0x00000000c008a5ae        0x0 acpica/utobject.32
 *fill*         0x00000000c008a5ae       0x12 
 .data          0x00000000c008a5c0      0x138 acpica/utosi.32
 .data          0x00000000c008a6f8        0x0 acpica/utownerid.32
 .data          0x00000000c008a6f8       0x14 acpica/utpredef.32
 .data          0x00000000c008a70c        0x0 acpica/utprint.32
 .data          0x00000000c008a70c        0x0 acpica/utresdecode.32
 .data          0x00000000c008a70c        0x0 acpica/utresrc.32
 .data          0x00000000c008a70c        0x0 acpica/utstate.32
 .data          0x00000000c008a70c        0x0 acpica/utstring.32
 .data          0x00000000c008a70c        0x0 acpica/utstrsuppt.32
 .data          0x00000000c008a70c        0x0 acpica/utstrtoul64.32
 .data          0x00000000c008a70c        0x0 acpica/uttrack.32
 .data          0x00000000c008a70c        0x0 acpica/utuuid.32
 .data          0x00000000c008a70c        0x0 acpica/utxface.32
 .data          0x00000000c008a70c        0x0 acpica/utxferror.32
 .data          0x00000000c008a70c        0x0 acpica/utxfinit.32
 .data          0x00000000c008a70c        0x0 acpica/utxfmutex.32
 .data          0x00000000c008a70c        0x0 core/malloc.32
 .data          0x00000000c008a70c        0x0 libk/string.32
 .data          0x00000000c008a70c        0x0 fs/fat/diskio.32
 .data          0x00000000c008a70c        0x0 fs/fat/ff.32
 .data          0x00000000c008a70c        0x0 fs/fat/ffsystem.32
 .data          0x00000000c008a70c        0x0 fs/fat/ffunicode.32
 .data          0x00000000c008a70c        0x0 hal/libresample/samplerate.32
 .data          0x00000000c008a70c        0x0 hal/libresample/src_linear.32
 .data          0x00000000c008a70c        0x0 hal/libresample/src_sinc.32
 .data          0x00000000c008a70c        0x0 hal/libresample/src_zoh.32
 .data          0x00000000c008a70c        0x0 acpica/osl.32
 .data          0x00000000c008a70c        0x0 core/computer.32
 .data          0x00000000c008a70c        0x0 core/elf.32
 .data          0x00000000c008a70c        0x0 core/gdt.32
 .data          0x00000000c008a70c        0x0 core/idle.32
 .data          0x00000000c008a70c        0x0 core/idt.32
 .data          0x00000000c008a70c        0x0 core/kconsole.32
 .data          0x00000000c008a70c        0x4 core/kheap.32
 .data          0x00000000c008a710        0x0 core/main.32
 .data          0x00000000c008a710        0x4 core/physmgr.32
                0x00000000c008a710                PhysMem::bitmap
 .data          0x00000000c008a714        0x0 core/pipe.32
 .data          0x00000000c008a714        0x4 core/prcssthr.32
                0x00000000c008a714                nextPID
 .data          0x00000000c008a718        0x0 core/syscalls.32
 *fill*         0x00000000c008a718        0x8 
 .data          0x00000000c008a720       0x41 core/terminal.32
                0x00000000c008a720                ansiToVGAMappings
                0x00000000c008a760                VgaText::hiddenOut
 .data          0x00000000c008a761        0x0 core/tss.32
 *fill*         0x00000000c008a761        0x3 
 .data          0x00000000c008a764        0x4 core/unixfile.32
                0x00000000c008a764                UnixFile::nextFd
 .data          0x00000000c008a768        0x8 core/virtmgr.32
                0x00000000c008a768                VirtMem::bitmap
                0x00000000c008a76c                VirtMem::pageAllocPtr
 .data          0x00000000c008a770        0x4 coreobjs/c++.32
                0x00000000c008a770                __stack_chk_guard
 .data          0x00000000c008a774        0x0 debugger/debug.32
 .data          0x00000000c008a774        0x0 fs/vfs.32
 .data          0x00000000c008a774        0x0 hal/bus.32
 .data          0x00000000c008a774        0x0 hal/buzzer.32
 .data          0x00000000c008a774        0x0 hal/clock.32
 .data          0x00000000c008a774        0x0 hal/device.32
 .data          0x00000000c008a774        0x0 hal/diskctrl.32
 .data          0x00000000c008a774        0x0 hal/diskphys.32
 .data          0x00000000c008a774        0x0 hal/fpu.32
 *fill*         0x00000000c008a774        0xc 
 .data          0x00000000c008a780      0x2a0 hal/intctrl.32
                0x00000000c008a780                exceptionNames
 .data          0x00000000c008aa20        0x0 hal/keybrd.32
 .data          0x00000000c008aa20        0x0 hal/logidisk.32
 .data          0x00000000c008aa20        0x0 hal/partition.32
 .data          0x00000000c008aa20        0x0 hal/timer.32
 .data          0x00000000c008aa20        0x0 hal/vcache.32
 .data          0x00000000c008aa20       0x10 hw/acpi.32
                0x00000000c008aa20                legacyIRQRemaps
 *fill*         0x00000000c008aa30       0x10 
 .data          0x00000000c008aa40      0x2c0 hw/cpu.32
                0x00000000c008aa40                lastCode
                0x00000000c008aa60                cpuNameList
 .data          0x00000000c008ad00        0x0 hw/ports.32
 .data          0x00000000c008ad00        0x0 registry/registry.32
 .data          0x00000000c008ad00        0x0 syscalls/sc_exit.32
 .data          0x00000000c008ad00        0x0 syscalls/sc_sbrk.32
 .data          0x00000000c008ad00        0x0 syscalls/sc_yield.32
 .data          0x00000000c008ad00        0x0 vm86/vm8086.32
 .data          0x00000000c008ad00        0x0 fs/fat/vfslink.32
 .data          0x00000000c008ad00        0x0 fs/iso9660/vfslink.32
 .data          0x00000000c008ad00        0x0 hal/sound/sndchannel.32
 .data          0x00000000c008ad00        0x0 hal/sound/sndhw.32
 .data          0x00000000c008ad00        0x1 hw/audio/sb16.32
 .data          0x00000000c008ad01        0x0 hw/bus/isa.32
 .data          0x00000000c008ad01        0x0 hw/bus/pci.32
 .data          0x00000000c008ad01        0x0 hw/bus/ps2.32
 .data          0x00000000c008ad01        0x0 hw/bus/ps2port.32
 .data          0x00000000c008ad01        0x0 hw/buzzer/pcspk.32
 .data          0x00000000c008ad01        0x0 hw/clock/rtc.32
 .data          0x00000000c008ad01        0x0 hw/diskctrl/ide.32
 .data          0x00000000c008ad01        0x0 hw/diskphys/ata.32
 .data          0x00000000c008ad01        0x0 hw/diskphys/atapi.32
 .data          0x00000000c008ad01        0x0 hw/dma/isadma.32
 .data          0x00000000c008ad01        0x0 hw/fpu/avx.32
 .data          0x00000000c008ad01        0x0 hw/fpu/mmx.32
 .data          0x00000000c008ad01        0x0 hw/fpu/sse.32
 .data          0x00000000c008ad01        0x0 hw/fpu/x87.32
 .data          0x00000000c008ad01        0x0 hw/intctrl/apic.32
 .data          0x00000000c008ad01        0x0 hw/intctrl/pic.32
 .data          0x00000000c008ad01        0x0 hw/keybrd/ps2key.32
 .data          0x00000000c008ad01        0x0 hw/timer/apictimer.32
 .data          0x00000000c008ad01        0x0 hw/timer/pit.32
 .data          0x00000000c008ad01        0x0 /cygdrive/d/Users/Alex/Desktop/Toolchain/Output/bin/../lib/gcc/i386-banana/8.1.0/crtend.o
 .data          0x00000000c008ad01        0x0 crtn.32
 .data          0x00000000c008ad01        0x0 /cygdrive/d/Users/Alex/Desktop/Toolchain/Output/bin/../lib/gcc/i386-banana/8.1.0/libgcc.a(_divdi3.o)
 .data          0x00000000c008ad01        0x0 /cygdrive/d/Users/Alex/Desktop/Toolchain/Output/bin/../lib/gcc/i386-banana/8.1.0/libgcc.a(_moddi3.o)
 .data          0x00000000c008ad01        0x0 /cygdrive/d/Users/Alex/Desktop/Toolchain/Output/bin/../lib/gcc/i386-banana/8.1.0/libgcc.a(_udivdi3.o)
 .data          0x00000000c008ad01        0x0 /cygdrive/d/Users/Alex/Desktop/Toolchain/Output/bin/../lib/gcc/i386-banana/8.1.0/libgcc.a(_umoddi3.o)
 .data          0x00000000c008ad01        0x0 D:/Users/Alex/Desktop/Banana/kernel/libk/libm32.a(s_fabs.c.o)
 .data          0x00000000c008ad01        0x0 D:/Users/Alex/Desktop/Banana/kernel/libk/libm32.a(s_lrint.S.o)
 .data          0x00000000c008ad01        0x0 D:/Users/Alex/Desktop/Banana/kernel/libk/libm32.a(s_lrintf.S.o)
 *(.gnu.linkonce.d*)

.got            0x00000000c008ad04        0x0
 .got           0x00000000c008ad04        0x0 D:/Users/Alex/Desktop/Banana/kernel/boot.32

.got.plt        0x00000000c008ad04        0x0
 .got.plt       0x00000000c008ad04        0x0 D:/Users/Alex/Desktop/Banana/kernel/boot.32

.igot.plt       0x00000000c008ad04        0x0
 .igot.plt      0x00000000c008ad04        0x0 D:/Users/Alex/Desktop/Banana/kernel/boot.32

.tm_clone_table
                0x00000000c008ad04        0x0
 .tm_clone_table
                0x00000000c008ad04        0x0 /cygdrive/d/Users/Alex/Desktop/Toolchain/Output/bin/../lib/gcc/i386-banana/8.1.0/crtbegin.o
 .tm_clone_table
                0x00000000c008ad04        0x0 /cygdrive/d/Users/Alex/Desktop/Toolchain/Output/bin/../lib/gcc/i386-banana/8.1.0/crtend.o

.eh_frame       0x00000000c008ad01     0xf317
 *(.eh_frame)
 *fill*         0x00000000c008ad01        0x3 
 .eh_frame      0x00000000c008ad04        0x0 /cygdrive/d/Users/Alex/Desktop/Toolchain/Output/bin/../lib/gcc/i386-banana/8.1.0/crtbegin.o
 .eh_frame      0x00000000c008ad04       0xdc acpica/dsargs.32
 .eh_frame      0x00000000c008ade0       0x70 acpica/dscontrol.32
                                         0x88 (size before relaxing)
 .eh_frame      0x00000000c008ae50       0x14 acpica/dsdebug.32
                                         0x2c (size before relaxing)
 .eh_frame      0x00000000c008ae64       0xcc acpica/dsfield.32
                                         0xe4 (size before relaxing)
 .eh_frame      0x00000000c008af30       0x40 acpica/dsinit.32
                                         0x58 (size before relaxing)
 .eh_frame      0x00000000c008af70      0x10c acpica/dsmethod.32
                                        0x124 (size before relaxing)
 .eh_frame      0x00000000c008b07c      0x110 acpica/dsmthdat.32
                                        0x128 (size before relaxing)
 .eh_frame      0x00000000c008b18c       0x90 acpica/dsobject.32
                                         0xa8 (size before relaxing)
 .eh_frame      0x00000000c008b21c       0xf8 acpica/dsopcode.32
                                        0x110 (size before relaxing)
 .eh_frame      0x00000000c008b314       0x60 acpica/dspkginit.32
                                         0x78 (size before relaxing)
 .eh_frame      0x00000000c008b374      0x134 acpica/dsutils.32
                                        0x14c (size before relaxing)
 .eh_frame      0x00000000c008b4a8       0x94 acpica/dswexec.32
                                         0xac (size before relaxing)
 .eh_frame      0x00000000c008b53c       0x64 acpica/dswload.32
                                         0x7c (size before relaxing)
 .eh_frame      0x00000000c008b5a0       0x44 acpica/dswload2.32
                                         0x5c (size before relaxing)
 .eh_frame      0x00000000c008b5e4       0x60 acpica/dswscope.32
                                         0x78 (size before relaxing)
 .eh_frame      0x00000000c008b644      0x1a0 acpica/dswstate.32
                                        0x1b8 (size before relaxing)
 .eh_frame      0x00000000c008b7e4       0xa0 acpica/evevent.32
                                         0xb8 (size before relaxing)
 .eh_frame      0x00000000c008b884       0xa0 acpica/evglock.32
                                         0xb8 (size before relaxing)
 .eh_frame      0x00000000c008b924      0x1a0 acpica/evgpe.32
                                        0x1b8 (size before relaxing)
 .eh_frame      0x00000000c008bac4       0xa4 acpica/evgpeblk.32
                                         0xbc (size before relaxing)
 .eh_frame      0x00000000c008bb68       0x70 acpica/evgpeinit.32
                                         0x88 (size before relaxing)
 .eh_frame      0x00000000c008bbd8       0xa0 acpica/evgpeutil.32
                                         0xb8 (size before relaxing)
 .eh_frame      0x00000000c008bc78       0xa0 acpica/evhandler.32
                                         0xb8 (size before relaxing)
 .eh_frame      0x00000000c008bd18       0x84 acpica/evmisc.32
                                         0x9c (size before relaxing)
 .eh_frame      0x00000000c008bd9c      0x104 acpica/evregion.32
                                        0x11c (size before relaxing)
 .eh_frame      0x00000000c008bea0       0xe8 acpica/evrgnini.32
                                        0x100 (size before relaxing)
 .eh_frame      0x00000000c008bf88       0xa0 acpica/evsci.32
                                         0xb8 (size before relaxing)
 .eh_frame      0x00000000c008c028      0x1c4 acpica/evxface.32
                                        0x1dc (size before relaxing)
 .eh_frame      0x00000000c008c1ec       0xc0 acpica/evxfevnt.32
                                         0xd8 (size before relaxing)
 .eh_frame      0x00000000c008c2ac      0x244 acpica/evxfgpe.32
                                        0x25c (size before relaxing)
 .eh_frame      0x00000000c008c4f0       0x40 acpica/evxfregn.32
                                         0x58 (size before relaxing)
 .eh_frame      0x00000000c008c530       0x64 acpica/exconcat.32
                                         0x7c (size before relaxing)
 .eh_frame      0x00000000c008c594       0xa4 acpica/exconfig.32
                                         0xbc (size before relaxing)
 .eh_frame      0x00000000c008c638       0xb0 acpica/exconvrt.32
                                         0xc8 (size before relaxing)
 .eh_frame      0x00000000c008c6e8       0xe0 acpica/excreate.32
                                         0xf8 (size before relaxing)
 .eh_frame      0x00000000c008c7c8       0x2c acpica/exdebug.32
                                         0x44 (size before relaxing)
 .eh_frame      0x00000000c008c7f4       0x6c acpica/exfield.32
                                         0x84 (size before relaxing)
 .eh_frame      0x00000000c008c860      0x130 acpica/exfldio.32
                                        0x148 (size before relaxing)
 .eh_frame      0x00000000c008c990       0xa0 acpica/exmisc.32
                                         0xb8 (size before relaxing)
 .eh_frame      0x00000000c008ca30       0xfc acpica/exmutex.32
                                        0x114 (size before relaxing)
 .eh_frame      0x00000000c008cb2c       0x60 acpica/exnames.32
                                         0x78 (size before relaxing)
 .eh_frame      0x00000000c008cb8c       0xbc acpica/exoparg1.32
                                         0xd4 (size before relaxing)
 .eh_frame      0x00000000c008cc48       0xb0 acpica/exoparg2.32
                                         0xc8 (size before relaxing)
 .eh_frame      0x00000000c008ccf8       0x44 acpica/exoparg3.32
                                         0x5c (size before relaxing)
 .eh_frame      0x00000000c008cd3c       0x50 acpica/exoparg6.32
                                         0x68 (size before relaxing)
 .eh_frame      0x00000000c008cd8c       0x64 acpica/exprep.32
                                         0x7c (size before relaxing)
 .eh_frame      0x00000000c008cdf0       0xd0 acpica/exregion.32
                                         0xe8 (size before relaxing)
 .eh_frame      0x00000000c008cec0       0x20 acpica/exresnte.32
                                         0x38 (size before relaxing)
 .eh_frame      0x00000000c008cee0       0x60 acpica/exresolv.32
                                         0x78 (size before relaxing)
 .eh_frame      0x00000000c008cf40       0x44 acpica/exresop.32
                                         0x5c (size before relaxing)
 .eh_frame      0x00000000c008cf84       0x80 acpica/exserial.32
                                         0x98 (size before relaxing)
 .eh_frame      0x00000000c008d004       0x84 acpica/exstore.32
                                         0x9c (size before relaxing)
 .eh_frame      0x00000000c008d088       0x44 acpica/exstoren.32
                                         0x5c (size before relaxing)
 .eh_frame      0x00000000c008d0cc       0x40 acpica/exstorob.32
                                         0x58 (size before relaxing)
 .eh_frame      0x00000000c008d10c       0xe0 acpica/exsystem.32
                                         0xf8 (size before relaxing)
 .eh_frame      0x00000000c008d1ec       0xc0 acpica/extrace.32
                                         0xd8 (size before relaxing)
 .eh_frame      0x00000000c008d2ac      0x160 acpica/exutils.32
                                        0x178 (size before relaxing)
 .eh_frame      0x00000000c008d40c       0x40 acpica/hwacpi.32
                                         0x58 (size before relaxing)
 .eh_frame      0x00000000c008d44c       0x90 acpica/hwesleep.32
                                         0xa8 (size before relaxing)
 .eh_frame      0x00000000c008d4dc      0x19c acpica/hwgpe.32
                                        0x1b4 (size before relaxing)
 .eh_frame      0x00000000c008d678       0xac acpica/hwpci.32
                                         0xc4 (size before relaxing)
 .eh_frame      0x00000000c008d724      0x1ac acpica/hwregs.32
                                        0x1c4 (size before relaxing)
 .eh_frame      0x00000000c008d8d0       0x60 acpica/hwsleep.32
                                         0x78 (size before relaxing)
 .eh_frame      0x00000000c008d930       0x70 acpica/hwtimer.32
                                         0x88 (size before relaxing)
 .eh_frame      0x00000000c008d9a0       0x70 acpica/hwvalid.32
                                         0x88 (size before relaxing)
 .eh_frame      0x00000000c008da10       0xd0 acpica/hwxface.32
                                         0xe8 (size before relaxing)
 .eh_frame      0x00000000c008dae0      0x100 acpica/hwxfsleep.32
                                        0x118 (size before relaxing)
 .eh_frame      0x00000000c008dbe0       0x44 acpica/nsaccess.32
                                         0x5c (size before relaxing)
 .eh_frame      0x00000000c008dc24       0xe0 acpica/nsalloc.32
                                         0xf8 (size before relaxing)
 .eh_frame      0x00000000c008dd04       0x64 acpica/nsarguments.32
                                         0x7c (size before relaxing)
 .eh_frame      0x00000000c008dd68       0xe0 acpica/nsconvert.32
                                         0xf8 (size before relaxing)
 .eh_frame      0x00000000c008de48       0x24 acpica/nseval.32
                                         0x3c (size before relaxing)
 .eh_frame      0x00000000c008de6c       0xc4 acpica/nsinit.32
                                         0xdc (size before relaxing)
 .eh_frame      0x00000000c008df30       0x24 acpica/nsload.32
                                         0x3c (size before relaxing)
 .eh_frame      0x00000000c008df54      0x100 acpica/nsnames.32
                                        0x118 (size before relaxing)
 .eh_frame      0x00000000c008e054       0xe0 acpica/nsobject.32
                                         0xf8 (size before relaxing)
 .eh_frame      0x00000000c008e134       0x60 acpica/nsparse.32
                                         0x78 (size before relaxing)
 .eh_frame      0x00000000c008e194       0x88 acpica/nspredef.32
                                         0xa0 (size before relaxing)
 .eh_frame      0x00000000c008e21c       0x88 acpica/nsprepkg.32
                                         0xa0 (size before relaxing)
 .eh_frame      0x00000000c008e2a4       0xa0 acpica/nsrepair.32
                                         0xb8 (size before relaxing)
 .eh_frame      0x00000000c008e344      0x1ac acpica/nsrepair2.32
                                        0x1c4 (size before relaxing)
 .eh_frame      0x00000000c008e4f0       0x60 acpica/nssearch.32
                                         0x78 (size before relaxing)
 .eh_frame      0x00000000c008e550      0x184 acpica/nsutils.32
                                        0x19c (size before relaxing)
 .eh_frame      0x00000000c008e6d4       0x60 acpica/nswalk.32
                                         0x78 (size before relaxing)
 .eh_frame      0x00000000c008e734      0x128 acpica/nsxfeval.32
                                        0x140 (size before relaxing)
 .eh_frame      0x00000000c008e85c       0xa0 acpica/nsxfname.32
                                         0xb8 (size before relaxing)
 .eh_frame      0x00000000c008e8fc       0x60 acpica/nsxfobj.32
                                         0x78 (size before relaxing)
 .eh_frame      0x00000000c008e95c       0xec acpica/psargs.32
                                        0x104 (size before relaxing)
 .eh_frame      0x00000000c008ea48       0x44 acpica/psloop.32
                                         0x5c (size before relaxing)
 .eh_frame      0x00000000c008ea8c       0xa0 acpica/psobject.32
                                         0xb8 (size before relaxing)
 .eh_frame      0x00000000c008eb2c       0x60 acpica/psopinfo.32
                                         0x78 (size before relaxing)
 .eh_frame      0x00000000c008eb8c       0xa0 acpica/psparse.32
                                         0xb8 (size before relaxing)
 .eh_frame      0x00000000c008ec2c       0xc0 acpica/psscope.32
                                         0xd8 (size before relaxing)
 .eh_frame      0x00000000c008ecec       0x60 acpica/pstree.32
                                         0x78 (size before relaxing)
 .eh_frame      0x00000000c008ed4c       0xe0 acpica/psutils.32
                                         0xf8 (size before relaxing)
 .eh_frame      0x00000000c008ee2c       0x20 acpica/pswalk.32
                                         0x38 (size before relaxing)
 .eh_frame      0x00000000c008ee4c       0x88 acpica/psxface.32
                                         0xa0 (size before relaxing)
 .eh_frame      0x00000000c008eed4       0x40 acpica/rsaddr.32
                                         0x58 (size before relaxing)
 .eh_frame      0x00000000c008ef14       0xc4 acpica/rscalc.32
                                         0xdc (size before relaxing)
 .eh_frame      0x00000000c008efd8       0x80 acpica/rscreate.32
                                         0x98 (size before relaxing)
 .eh_frame      0x00000000c008f058       0x40 acpica/rslist.32
                                         0x58 (size before relaxing)
 .eh_frame      0x00000000c008f098       0x44 acpica/rsmisc.32
                                         0x5c (size before relaxing)
 .eh_frame      0x00000000c008f0dc      0x1c4 acpica/rsutils.32
                                        0x1dc (size before relaxing)
 .eh_frame      0x00000000c008f2a0      0x170 acpica/rsxface.32
                                        0x188 (size before relaxing)
 .eh_frame      0x00000000c008f410      0x348 acpica/tbdata.32
                                        0x360 (size before relaxing)
 .eh_frame      0x00000000c008f758       0xfc acpica/tbfadt.32
                                        0x114 (size before relaxing)
 .eh_frame      0x00000000c008f854       0x24 acpica/tbfind.32
                                         0x3c (size before relaxing)
 .eh_frame      0x00000000c008f878       0xac acpica/tbinstal.32
                                         0xc4 (size before relaxing)
 .eh_frame      0x00000000c008f924       0xb0 acpica/tbprint.32
                                         0xc8 (size before relaxing)
 .eh_frame      0x00000000c008f9d4      0x10c acpica/tbutils.32
                                        0x124 (size before relaxing)
 .eh_frame      0x00000000c008fae0      0x13c acpica/tbxface.32
                                        0x154 (size before relaxing)
 .eh_frame      0x00000000c008fc1c       0xd4 acpica/tbxfload.32
                                         0xec (size before relaxing)
 .eh_frame      0x00000000c008fcf0       0x80 acpica/tbxfroot.32
                                         0x98 (size before relaxing)
 .eh_frame      0x00000000c008fd70       0x94 acpica/utaddress.32
                                         0xac (size before relaxing)
 .eh_frame      0x00000000c008fe04       0xa0 acpica/utalloc.32
                                         0xb8 (size before relaxing)
 .eh_frame      0x00000000c008fea4       0x60 acpica/utascii.32
                                         0x78 (size before relaxing)
 .eh_frame      0x00000000c008ff04       0x40 acpica/utbuffer.32
                                         0x58 (size before relaxing)
 .eh_frame      0x00000000c008ff44       0xa0 acpica/utcache.32
                                         0xb8 (size before relaxing)
 .eh_frame      0x00000000c008ffe4      0x248 acpica/utclib.32
                                        0x260 (size before relaxing)
 .eh_frame      0x00000000c009022c      0x164 acpica/utcopy.32
                                        0x17c (size before relaxing)
 .eh_frame      0x00000000c0090390      0x120 acpica/utdecode.32
                                        0x138 (size before relaxing)
 .eh_frame      0x00000000c00904b0       0xc0 acpica/utdelete.32
                                         0xd8 (size before relaxing)
 .eh_frame      0x00000000c0090570       0xa0 acpica/uterror.32
                                         0xb8 (size before relaxing)
 .eh_frame      0x00000000c0090610       0x84 acpica/uteval.32
                                         0x9c (size before relaxing)
 .eh_frame      0x00000000c0090694       0x40 acpica/utexcep.32
                                         0x58 (size before relaxing)
 .eh_frame      0x00000000c00906d4       0x6c acpica/uthex.32
                                         0x84 (size before relaxing)
 .eh_frame      0x00000000c0090740       0x80 acpica/utids.32
                                         0x98 (size before relaxing)
 .eh_frame      0x00000000c00907c0       0x80 acpica/utinit.32
                                         0x98 (size before relaxing)
 .eh_frame      0x00000000c0090840       0xc0 acpica/utlock.32
                                         0xd8 (size before relaxing)
 .eh_frame      0x00000000c0090900       0xb8 acpica/utmath.32
                                         0xd0 (size before relaxing)
 .eh_frame      0x00000000c00909b8       0xa0 acpica/utmisc.32
                                         0xb8 (size before relaxing)
 .eh_frame      0x00000000c0090a58       0xc8 acpica/utmutex.32
                                         0xe0 (size before relaxing)
 .eh_frame      0x00000000c0090b20       0x60 acpica/utnonansi.32
                                         0x78 (size before relaxing)
 .eh_frame      0x00000000c0090b80      0x184 acpica/utobject.32
                                        0x19c (size before relaxing)
 .eh_frame      0x00000000c0090d04       0xe0 acpica/utosi.32
                                         0xf8 (size before relaxing)
 .eh_frame      0x00000000c0090de4       0x44 acpica/utownerid.32
                                         0x5c (size before relaxing)
 .eh_frame      0x00000000c0090e28       0x60 acpica/utpredef.32
                                         0x78 (size before relaxing)
 .eh_frame      0x00000000c0090e88      0x130 acpica/utprint.32
                                        0x148 (size before relaxing)
 .eh_frame      0x00000000c0090fb8       0xe4 acpica/utresrc.32
                                         0xfc (size before relaxing)
 .eh_frame      0x00000000c009109c      0x108 acpica/utstate.32
                                        0x120 (size before relaxing)
 .eh_frame      0x00000000c00911a4       0x40 acpica/utstring.32
                                         0x58 (size before relaxing)
 .eh_frame      0x00000000c00911e4      0x16c acpica/utstrsuppt.32
                                        0x184 (size before relaxing)
 .eh_frame      0x00000000c0091350       0x60 acpica/utstrtoul64.32
                                         0x78 (size before relaxing)
 .eh_frame      0x00000000c00913b0      0x174 acpica/utxface.32
                                        0x18c (size before relaxing)
 .eh_frame      0x00000000c0091524       0xe0 acpica/utxferror.32
                                         0xf8 (size before relaxing)
 .eh_frame      0x00000000c0091604       0x60 acpica/utxfinit.32
                                         0x78 (size before relaxing)
 .eh_frame      0x00000000c0091664       0x60 acpica/utxfmutex.32
                                         0x78 (size before relaxing)
 .eh_frame      0x00000000c00916c4      0x2b8 core/malloc.32
                                        0x2d0 (size before relaxing)
 .eh_frame      0x00000000c009197c       0xa0 fs/fat/diskio.32
                                         0xb8 (size before relaxing)
 .eh_frame      0x00000000c0091a1c      0xbdc fs/fat/ff.32
                                        0xbf4 (size before relaxing)
 .eh_frame      0x00000000c00925f8       0x40 fs/fat/ffsystem.32
                                         0x58 (size before relaxing)
 .eh_frame      0x00000000c0092638       0x60 fs/fat/ffunicode.32
                                         0x78 (size before relaxing)
 .eh_frame      0x00000000c0092698      0x298 hal/libresample/samplerate.32
                                        0x2b0 (size before relaxing)
 .eh_frame      0x00000000c0092930       0xe4 hal/libresample/src_linear.32
                                         0xfc (size before relaxing)
 .eh_frame      0x00000000c0092a14      0x310 hal/libresample/src_sinc.32
                                        0x328 (size before relaxing)
 .eh_frame      0x00000000c0092d24       0xe4 hal/libresample/src_zoh.32
                                         0xfc (size before relaxing)
 .eh_frame      0x00000000c0092e08      0x6cc acpica/osl.32
                                        0x6e4 (size before relaxing)
 .eh_frame      0x00000000c00934d4      0x24c core/computer.32
                                        0x264 (size before relaxing)
 .eh_frame      0x00000000c0093720      0x124 core/elf.32
                                        0x13c (size before relaxing)
 .eh_frame      0x00000000c0093844       0xe8 core/gdt.32
                                        0x100 (size before relaxing)
 .eh_frame      0x00000000c009392c       0x40 core/idle.32
                                         0x58 (size before relaxing)
 .eh_frame      0x00000000c009396c       0xf8 core/idt.32
                                        0x110 (size before relaxing)
 .eh_frame      0x00000000c0093a64       0xe8 core/kconsole.32
                                        0x100 (size before relaxing)
 .eh_frame      0x00000000c0093b4c      0x188 core/kheap.32
                                        0x1a0 (size before relaxing)
 .eh_frame      0x00000000c0093cd4      0x134 core/main.32
                                        0x14c (size before relaxing)
 .eh_frame      0x00000000c0093e08      0x114 core/physmgr.32
                                        0x12c (size before relaxing)
 .eh_frame      0x00000000c0093f1c       0xcc core/pipe.32
                                         0xe4 (size before relaxing)
 .eh_frame      0x00000000c0093fe8      0x5f0 core/prcssthr.32
                                        0x608 (size before relaxing)
 .eh_frame      0x00000000c00945d8      0x57c core/syscalls.32
                                        0x594 (size before relaxing)
 .eh_frame      0x00000000c0094b54      0x674 core/terminal.32
                                        0x68c (size before relaxing)
 .eh_frame      0x00000000c00951c8       0x54 core/tss.32
                                         0x6c (size before relaxing)
 .eh_frame      0x00000000c009521c      0x254 core/unixfile.32
                                        0x26c (size before relaxing)
 .eh_frame      0x00000000c0095470      0x2b8 core/virtmgr.32
                                        0x2d0 (size before relaxing)
 .eh_frame      0x00000000c0095728      0x128 coreobjs/c++.32
                                        0x140 (size before relaxing)
 .eh_frame      0x00000000c0095850      0x4d4 fs/vfs.32
                                        0x4ec (size before relaxing)
 .eh_frame      0x00000000c0095d24       0x60 hal/bus.32
                                         0x78 (size before relaxing)
 .eh_frame      0x00000000c0095d84       0xc4 hal/buzzer.32
                                         0xdc (size before relaxing)
 .eh_frame      0x00000000c0095e48      0x150 hal/clock.32
                                        0x168 (size before relaxing)
 .eh_frame      0x00000000c0095f98      0x408 hal/device.32
                                        0x420 (size before relaxing)
 .eh_frame      0x00000000c00963a0       0x60 hal/diskctrl.32
                                         0x78 (size before relaxing)
 .eh_frame      0x00000000c0096400       0x84 hal/diskphys.32
                                         0x9c (size before relaxing)
 .eh_frame      0x00000000c0096484       0x84 hal/fpu.32
                                         0x9c (size before relaxing)
 .eh_frame      0x00000000c0096508      0x26c hal/intctrl.32
                                        0x284 (size before relaxing)
 .eh_frame      0x00000000c0096774       0xe0 hal/keybrd.32
                                         0xf8 (size before relaxing)
 .eh_frame      0x00000000c0096854      0x1c0 hal/logidisk.32
                                        0x1d8 (size before relaxing)
 .eh_frame      0x00000000c0096a14       0x50 hal/partition.32
                                         0x68 (size before relaxing)
 .eh_frame      0x00000000c0096a64       0xc8 hal/timer.32
                                        0x180 (size before relaxing)
 .eh_frame      0x00000000c0096b2c       0xa4 hal/vcache.32
                                         0xbc (size before relaxing)
 .eh_frame      0x00000000c0096bd0      0x338 hw/acpi.32
                                        0x350 (size before relaxing)
 .eh_frame      0x00000000c0096f08      0x488 hw/cpu.32
                                        0x4a0 (size before relaxing)
 .eh_frame      0x00000000c0097390      0x130 registry/registry.32
                                        0x148 (size before relaxing)
 .eh_frame      0x00000000c00974c0       0x20 syscalls/sc_exit.32
                                         0x38 (size before relaxing)
 .eh_frame      0x00000000c00974e0       0x20 syscalls/sc_sbrk.32
                                         0x38 (size before relaxing)
 .eh_frame      0x00000000c0097500       0x20 syscalls/sc_yield.32
                                         0x38 (size before relaxing)
 .eh_frame      0x00000000c0097520      0x200 vm86/vm8086.32
                                        0x218 (size before relaxing)
 .eh_frame      0x00000000c0097720      0x370 fs/fat/vfslink.32
                                        0x388 (size before relaxing)
 .eh_frame      0x00000000c0097a90      0x32c fs/iso9660/vfslink.32
                                        0x344 (size before relaxing)
 .eh_frame      0x00000000c0097dbc      0x1e4 hal/sound/sndchannel.32
                                        0x1fc (size before relaxing)
 .eh_frame      0x00000000c0097fa0      0x104 hal/sound/sndhw.32
                                        0x11c (size before relaxing)
 .eh_frame      0x00000000c00980a4      0x1d8 hw/audio/sb16.32
                                        0x1f0 (size before relaxing)
 .eh_frame      0x00000000c009827c      0x1c4 hw/bus/isa.32
                                        0x1dc (size before relaxing)
 .eh_frame      0x00000000c0098440      0x2ac hw/bus/pci.32
                                        0x2c4 (size before relaxing)
 .eh_frame      0x00000000c00986ec      0x10c hw/bus/ps2.32
                                        0x124 (size before relaxing)
 .eh_frame      0x00000000c00987f8       0xf8 hw/bus/ps2port.32
                                        0x110 (size before relaxing)
 .eh_frame      0x00000000c00988f0       0xa8 hw/buzzer/pcspk.32
                                         0xc0 (size before relaxing)
 .eh_frame      0x00000000c0098998      0x164 hw/clock/rtc.32
                                        0x17c (size before relaxing)
 .eh_frame      0x00000000c0098afc      0x250 hw/diskctrl/ide.32
                                        0x268 (size before relaxing)
 .eh_frame      0x00000000c0098d4c      0x184 hw/diskphys/ata.32
                                        0x19c (size before relaxing)
 .eh_frame      0x00000000c0098ed0      0x1b0 hw/diskphys/atapi.32
                                        0x1c8 (size before relaxing)
 .eh_frame      0x00000000c0099080      0x360 hw/dma/isadma.32
                                        0x378 (size before relaxing)
 .eh_frame      0x00000000c00993e0      0x100 hw/fpu/avx.32
                                        0x118 (size before relaxing)
 .eh_frame      0x00000000c00994e0       0xf4 hw/fpu/mmx.32
                                        0x10c (size before relaxing)
 .eh_frame      0x00000000c00995d4      0x100 hw/fpu/sse.32
                                        0x118 (size before relaxing)
 .eh_frame      0x00000000c00996d4      0x100 hw/fpu/x87.32
                                        0x118 (size before relaxing)
 .eh_frame      0x00000000c00997d4      0x264 hw/intctrl/apic.32
                                        0x27c (size before relaxing)
 .eh_frame      0x00000000c0099a38      0x134 hw/intctrl/pic.32
                                        0x14c (size before relaxing)
 .eh_frame      0x00000000c0099b6c      0x160 hw/keybrd/ps2key.32
                                        0x178 (size before relaxing)
 .eh_frame      0x00000000c0099ccc       0xe4 hw/timer/apictimer.32
                                         0xfc (size before relaxing)
 .eh_frame      0x00000000c0099db0       0xe0 hw/timer/pit.32
                                         0xf8 (size before relaxing)
 .eh_frame      0x00000000c0099e90        0x0 /cygdrive/d/Users/Alex/Desktop/Toolchain/Output/bin/../lib/gcc/i386-banana/8.1.0/crtend.o
                                          0x4 (size before relaxing)
 .eh_frame      0x00000000c0099e90       0x40 /cygdrive/d/Users/Alex/Desktop/Toolchain/Output/bin/../lib/gcc/i386-banana/8.1.0/libgcc.a(_divdi3.o)
                                         0x58 (size before relaxing)
 .eh_frame      0x00000000c0099ed0       0x40 /cygdrive/d/Users/Alex/Desktop/Toolchain/Output/bin/../lib/gcc/i386-banana/8.1.0/libgcc.a(_moddi3.o)
                                         0x58 (size before relaxing)
 .eh_frame      0x00000000c0099f10       0x6c /cygdrive/d/Users/Alex/Desktop/Toolchain/Output/bin/../lib/gcc/i386-banana/8.1.0/libgcc.a(_udivdi3.o)
                                         0x84 (size before relaxing)
 .eh_frame      0x00000000c0099f7c       0x84 /cygdrive/d/Users/Alex/Desktop/Toolchain/Output/bin/../lib/gcc/i386-banana/8.1.0/libgcc.a(_umoddi3.o)
                                         0x9c (size before relaxing)
 .eh_frame      0x00000000c009a000       0x18 D:/Users/Alex/Desktop/Banana/kernel/libk/libm32.a(s_fabs.c.o)
                                         0x30 (size before relaxing)

.rel.dyn        0x00000000c009a018        0x0
 .rel.got       0x00000000c009a018        0x0 D:/Users/Alex/Desktop/Banana/kernel/boot.32
 .rel.iplt      0x00000000c009a018        0x0 D:/Users/Alex/Desktop/Banana/kernel/boot.32
 .rel.text      0x00000000c009a018        0x0 D:/Users/Alex/Desktop/Banana/kernel/boot.32
 .rel.data      0x00000000c009a018        0x0 D:/Users/Alex/Desktop/Banana/kernel/boot.32
 .rel.rodata._ZTV8Computer
                0x00000000c009a018        0x0 D:/Users/Alex/Desktop/Banana/kernel/boot.32
 .rel.text._ZN8ComputerD2Ev
                0x00000000c009a018        0x0 D:/Users/Alex/Desktop/Banana/kernel/boot.32
 .rel.text._ZN8ComputerD0Ev
                0x00000000c009a018        0x0 D:/Users/Alex/Desktop/Banana/kernel/boot.32
 .rel.text._ZN10LinkedListI8UnixFileE10addElementEPS0_
                0x00000000c009a018        0x0 D:/Users/Alex/Desktop/Banana/kernel/boot.32
 .rel.rodata._ZTV16DriverlessDevice
                0x00000000c009a018        0x0 D:/Users/Alex/Desktop/Banana/kernel/boot.32
 .rel.text._ZN16DriverlessDeviceD2Ev
                0x00000000c009a018        0x0 D:/Users/Alex/Desktop/Banana/kernel/boot.32
 .rel.text._ZN16DriverlessDeviceD0Ev
                0x00000000c009a018        0x0 D:/Users/Alex/Desktop/Banana/kernel/boot.32
 .rel.rodata._ZTV4ACPI
                0x00000000c009a018        0x0 D:/Users/Alex/Desktop/Banana/kernel/boot.32
 .rel.text._ZN4ACPID2Ev
                0x00000000c009a018        0x0 D:/Users/Alex/Desktop/Banana/kernel/boot.32
 .rel.text._ZN4ACPID0Ev
                0x00000000c009a018        0x0 D:/Users/Alex/Desktop/Banana/kernel/boot.32
 .rel.rodata._ZTV3CPU
                0x00000000c009a018        0x0 D:/Users/Alex/Desktop/Banana/kernel/boot.32
 .rel.text._ZN3CPUD2Ev
                0x00000000c009a018        0x0 D:/Users/Alex/Desktop/Banana/kernel/boot.32
 .rel.text._ZN3CPUD0Ev
                0x00000000c009a018        0x0 D:/Users/Alex/Desktop/Banana/kernel/boot.32
 .rel.rodata._ZTV14SoundBlaster16
                0x00000000c009a018        0x0 D:/Users/Alex/Desktop/Banana/kernel/boot.32
 .rel.text._ZN14SoundBlaster16D2Ev
                0x00000000c009a018        0x0 D:/Users/Alex/Desktop/Banana/kernel/boot.32
 .rel.text._ZN14SoundBlaster16D0Ev
                0x00000000c009a018        0x0 D:/Users/Alex/Desktop/Banana/kernel/boot.32
 .rel.rodata._ZTV3ISA
                0x00000000c009a018        0x0 D:/Users/Alex/Desktop/Banana/kernel/boot.32
 .rel.text._ZN3ISAD2Ev
                0x00000000c009a018        0x0 D:/Users/Alex/Desktop/Banana/kernel/boot.32
 .rel.text._ZN3ISAD0Ev
                0x00000000c009a018        0x0 D:/Users/Alex/Desktop/Banana/kernel/boot.32
 .rel.rodata._ZTV3PCI
                0x00000000c009a018        0x0 D:/Users/Alex/Desktop/Banana/kernel/boot.32
 .rel.text._ZN3PCID2Ev
                0x00000000c009a018        0x0 D:/Users/Alex/Desktop/Banana/kernel/boot.32
 .rel.text._ZN3PCID0Ev
                0x00000000c009a018        0x0 D:/Users/Alex/Desktop/Banana/kernel/boot.32
 .rel.rodata._ZTV3PS2
                0x00000000c009a018        0x0 D:/Users/Alex/Desktop/Banana/kernel/boot.32
 .rel.text._ZN3PS2D2Ev
                0x00000000c009a018        0x0 D:/Users/Alex/Desktop/Banana/kernel/boot.32
 .rel.text._ZN3PS2D0Ev
                0x00000000c009a018        0x0 D:/Users/Alex/Desktop/Banana/kernel/boot.32
 .rel.rodata._ZTV7PS2Port
                0x00000000c009a018        0x0 D:/Users/Alex/Desktop/Banana/kernel/boot.32
 .rel.text._ZN7PS2PortD2Ev
                0x00000000c009a018        0x0 D:/Users/Alex/Desktop/Banana/kernel/boot.32
 .rel.text._ZN7PS2PortD0Ev
                0x00000000c009a018        0x0 D:/Users/Alex/Desktop/Banana/kernel/boot.32
 .rel.rodata._ZTV4Beep
                0x00000000c009a018        0x0 D:/Users/Alex/Desktop/Banana/kernel/boot.32
 .rel.text._ZN4BeepD2Ev
                0x00000000c009a018        0x0 D:/Users/Alex/Desktop/Banana/kernel/boot.32
 .rel.text._ZN4BeepD0Ev
                0x00000000c009a018        0x0 D:/Users/Alex/Desktop/Banana/kernel/boot.32
 .rel.rodata._ZTV3IDE
                0x00000000c009a018        0x0 D:/Users/Alex/Desktop/Banana/kernel/boot.32
 .rel.text._ZN3IDED2Ev
                0x00000000c009a018        0x0 D:/Users/Alex/Desktop/Banana/kernel/boot.32
 .rel.text._ZN3IDED0Ev
                0x00000000c009a018        0x0 D:/Users/Alex/Desktop/Banana/kernel/boot.32
 .rel.rodata._ZTV3ATA
                0x00000000c009a018        0x0 D:/Users/Alex/Desktop/Banana/kernel/boot.32
 .rel.text._ZN3ATAD2Ev
                0x00000000c009a018        0x0 D:/Users/Alex/Desktop/Banana/kernel/boot.32
 .rel.text._ZN3ATAD0Ev
                0x00000000c009a018        0x0 D:/Users/Alex/Desktop/Banana/kernel/boot.32
 .rel.rodata._ZTV5ATAPI
                0x00000000c009a018        0x0 D:/Users/Alex/Desktop/Banana/kernel/boot.32
 .rel.text._ZN5ATAPID2Ev
                0x00000000c009a018        0x0 D:/Users/Alex/Desktop/Banana/kernel/boot.32
 .rel.text._ZN5ATAPID0Ev
                0x00000000c009a018        0x0 D:/Users/Alex/Desktop/Banana/kernel/boot.32
 .rel.rodata._ZTV3DMA
                0x00000000c009a018        0x0 D:/Users/Alex/Desktop/Banana/kernel/boot.32
 .rel.text._ZN3DMAD2Ev
                0x00000000c009a018        0x0 D:/Users/Alex/Desktop/Banana/kernel/boot.32
 .rel.text._ZN3DMAD0Ev
                0x00000000c009a018        0x0 D:/Users/Alex/Desktop/Banana/kernel/boot.32
 .rel.rodata._ZTV3AVX
                0x00000000c009a018        0x0 D:/Users/Alex/Desktop/Banana/kernel/boot.32
 .rel.text._ZN3AVXD2Ev
                0x00000000c009a018        0x0 D:/Users/Alex/Desktop/Banana/kernel/boot.32
 .rel.text._ZN3AVXD0Ev
                0x00000000c009a018        0x0 D:/Users/Alex/Desktop/Banana/kernel/boot.32
 .rel.rodata._ZTV3MMX
                0x00000000c009a018        0x0 D:/Users/Alex/Desktop/Banana/kernel/boot.32
 .rel.text._ZN3MMXD2Ev
                0x00000000c009a018        0x0 D:/Users/Alex/Desktop/Banana/kernel/boot.32
 .rel.text._ZN3MMXD0Ev
                0x00000000c009a018        0x0 D:/Users/Alex/Desktop/Banana/kernel/boot.32
 .rel.rodata._ZTV3SSE
                0x00000000c009a018        0x0 D:/Users/Alex/Desktop/Banana/kernel/boot.32
 .rel.text._ZN3SSED2Ev
                0x00000000c009a018        0x0 D:/Users/Alex/Desktop/Banana/kernel/boot.32
 .rel.text._ZN3SSED0Ev
                0x00000000c009a018        0x0 D:/Users/Alex/Desktop/Banana/kernel/boot.32
 .rel.rodata._ZTV3x87
                0x00000000c009a018        0x0 D:/Users/Alex/Desktop/Banana/kernel/boot.32
 .rel.text._ZN3x87D2Ev
                0x00000000c009a018        0x0 D:/Users/Alex/Desktop/Banana/kernel/boot.32
 .rel.text._ZN3x87D0Ev
                0x00000000c009a018        0x0 D:/Users/Alex/Desktop/Banana/kernel/boot.32
 .rel.rodata._ZTV6IOAPIC
                0x00000000c009a018        0x0 D:/Users/Alex/Desktop/Banana/kernel/boot.32
 .rel.text._ZN6IOAPICD2Ev
                0x00000000c009a018        0x0 D:/Users/Alex/Desktop/Banana/kernel/boot.32
 .rel.text._ZN6IOAPICD0Ev
                0x00000000c009a018        0x0 D:/Users/Alex/Desktop/Banana/kernel/boot.32
 .rel.rodata._ZTV4APIC
                0x00000000c009a018        0x0 D:/Users/Alex/Desktop/Banana/kernel/boot.32
 .rel.text._ZN4APICD2Ev
                0x00000000c009a018        0x0 D:/Users/Alex/Desktop/Banana/kernel/boot.32
 .rel.text._ZN4APICD0Ev
                0x00000000c009a018        0x0 D:/Users/Alex/Desktop/Banana/kernel/boot.32
 .rel.rodata._ZTV3PIC
                0x00000000c009a018        0x0 D:/Users/Alex/Desktop/Banana/kernel/boot.32
 .rel.text._ZN3PICD2Ev
                0x00000000c009a018        0x0 D:/Users/Alex/Desktop/Banana/kernel/boot.32
 .rel.text._ZN3PICD0Ev
                0x00000000c009a018        0x0 D:/Users/Alex/Desktop/Banana/kernel/boot.32
 .rel.rodata._ZTV9APICTimer
                0x00000000c009a018        0x0 D:/Users/Alex/Desktop/Banana/kernel/boot.32
 .rel.text._ZN9APICTimerD2Ev
                0x00000000c009a018        0x0 D:/Users/Alex/Desktop/Banana/kernel/boot.32
 .rel.text._ZN9APICTimerD0Ev
                0x00000000c009a018        0x0 D:/Users/Alex/Desktop/Banana/kernel/boot.32
 .rel.rodata._ZTV3PIT
                0x00000000c009a018        0x0 D:/Users/Alex/Desktop/Banana/kernel/boot.32
 .rel.text._ZN3PITD2Ev
                0x00000000c009a018        0x0 D:/Users/Alex/Desktop/Banana/kernel/boot.32
 .rel.text._ZN3PITD0Ev
                0x00000000c009a018        0x0 D:/Users/Alex/Desktop/Banana/kernel/boot.32

.bss            0x00000000c009a018    0x139f0
                0x00000000c009a018                sbss = .
 *(COMMON)
 *fill*         0x00000000c009a018        0x8 
 COMMON         0x00000000c009a020      0x5a4 acpica/utglobal.32
                0x00000000c009a020                AcpiGbl_StateCache
                0x00000000c009a040                AcpiGbl_OwnerIdMask
                0x00000000c009a240                AcpiGbl_StepToNextCall
                0x00000000c009a244                AcpiGbl_RootTableList
                0x00000000c009a254                AcpiGbl_FadtGpeDevice
                0x00000000c009a258                AcpiGbl_GpeXruptListHead
                0x00000000c009a25c                AcpiGbl_GlobalLockHandle
                0x00000000c009a260                AcpiGbl_RootNodeStruct
                0x00000000c009a27c                AcpiGbl_FACS
                0x00000000c009a280                AcpiGbl_AllGpesInitialized
                0x00000000c009a284                AcpiGbl_GlobalLockMutex
                0x00000000c009a288                AcpiGbl_IntegerByteWidth
                0x00000000c009a28a                AcpiGbl_Pm1EnableRegisterSave
                0x00000000c009a28c                AcpiGbl_NsLookupCount
                0x00000000c009a290                AcpiCurrentGpeCount
                0x00000000c009a294                AcpiGbl_IntegerBitWidth
                0x00000000c009a298                AcpiGbl_NamespaceCache
                0x00000000c009a29c                AcpiGbl_TableHandler
                0x00000000c009a2a0                AcpiGbl_HardwareLock
                0x00000000c009a2c0                AcpiGbl_FixedEventHandlers
                0x00000000c009a2e8                AcpiSciCount
                0x00000000c009a2ec                AcpiGbl_DSDT
                0x00000000c009a2f0                AcpiGbl_GlobalNotify
                0x00000000c009a300                AcpiGbl_GlobalLockSemaphore
                0x00000000c009a304                AcpiGbl_SystemAwakeAndRunning
                0x00000000c009a308                AcpiGbl_InterfaceHandler
                0x00000000c009a30c                AcpiGbl_EventsInitialized
                0x00000000c009a310                AcpiGbl_SupportedInterfaces
                0x00000000c009a314                AcpiGbl_GpeLock
                0x00000000c009a318                AcpiGbl_SleepTypeB
                0x00000000c009a31c                AcpiGbl_InitHandler
                0x00000000c009a320                AcpiGbl_GlobalLockAcquired
                0x00000000c009a324                AcpiGbl_XPm1bEnable
                0x00000000c009a340                AcpiGbl_OriginalDsdtHeader
                0x00000000c009a364                AcpiGbl_ReferenceCountLock
                0x00000000c009a368                AcpiGpeCount
                0x00000000c009a36c                AcpiGbl_TableHandlerContext
                0x00000000c009a370                AcpiGbl_XPm1aStatus
                0x00000000c009a37c                AcpiGbl_OriginalMode
                0x00000000c009a380                AcpiGbl_CmSingleStep
                0x00000000c009a384                AcpiGbl_GlobalEventHandlerContext
                0x00000000c009a388                AcpiGbl_PsFindCount
                0x00000000c009a38c                AcpiFixedEventCount
                0x00000000c009a3a0                AcpiGbl_AcpiHardwarePresent
                0x00000000c009a3c0                AcpiGbl_MutexInfo
                0x00000000c009a420                AcpiGbl_RootNode
                0x00000000c009a424                AcpiGbl_AddressRangeList
                0x00000000c009a440                AcpiGbl_FADT
                0x00000000c009a554                AcpiGbl_IntegerNybbleWidth
                0x00000000c009a558                AcpiGbl_XPm1aEnable
                0x00000000c009a564                AcpiGbl_OperandCache
                0x00000000c009a568                AcpiGbl_SciHandlerList
                0x00000000c009a56c                AcpiGbl_OriginalDbgLayer
                0x00000000c009a570                AcpiGbl_PsNodeExtCache
                0x00000000c009a574                AcpiGbl_GlobalLockPendingLock
                0x00000000c009a578                AcpiGbl_DebuggerConfiguration
                0x00000000c009a57c                AcpiGbl_OriginalDbgLevel
                0x00000000c009a580                AcpiGbl_GlobalLockPending
                0x00000000c009a584                AcpiGbl_PsNodeCache
                0x00000000c009a588                AcpiGbl_SleepTypeA
                0x00000000c009a58c                AcpiGbl_GpeFadtBlocks
                0x00000000c009a594                AcpiMethodCount
                0x00000000c009a598                AcpiGbl_ExceptionHandler
                0x00000000c009a59c                AcpiGbl_NamespaceRwLock
                0x00000000c009a5a8                AcpiGbl_GlobalEventHandler
                0x00000000c009a5ac                AcpiGbl_CurrentWalkList
                0x00000000c009a5b0                AcpiGbl_OsiMutex
                0x00000000c009a5b4                AcpiGbl_GlobalLockPresent
                0x00000000c009a5b5                AcpiGbl_NextOwnerIdOffset
                0x00000000c009a5b6                AcpiGbl_LastOwnerIdIndex
                0x00000000c009a5b8                AcpiGbl_XPm1bStatus
 *(.bss)
 .bss           0x00000000c009a5c4        0x0 crti.32
 .bss           0x00000000c009a5c4       0x20 /cygdrive/d/Users/Alex/Desktop/Toolchain/Output/bin/../lib/gcc/i386-banana/8.1.0/crtbegin.o
 .bss           0x00000000c009a5e4        0x0 acpica/dsargs.32
 .bss           0x00000000c009a5e4        0x0 acpica/dscontrol.32
 .bss           0x00000000c009a5e4        0x0 acpica/dsdebug.32
 .bss           0x00000000c009a5e4        0x0 acpica/dsfield.32
 .bss           0x00000000c009a5e4        0x0 acpica/dsinit.32
 .bss           0x00000000c009a5e4        0x0 acpica/dsmethod.32
 .bss           0x00000000c009a5e4        0x0 acpica/dsmthdat.32
 .bss           0x00000000c009a5e4        0x0 acpica/dsobject.32
 .bss           0x00000000c009a5e4        0x0 acpica/dsopcode.32
 .bss           0x00000000c009a5e4        0x0 acpica/dspkginit.32
 .bss           0x00000000c009a5e4        0x0 acpica/dsutils.32
 .bss           0x00000000c009a5e4        0x0 acpica/dswexec.32
 .bss           0x00000000c009a5e4        0x0 acpica/dswload.32
 .bss           0x00000000c009a5e4        0x0 acpica/dswload2.32
 .bss           0x00000000c009a5e4        0x0 acpica/dswscope.32
 .bss           0x00000000c009a5e4        0x0 acpica/dswstate.32
 .bss           0x00000000c009a5e4        0x0 acpica/evevent.32
 .bss           0x00000000c009a5e4        0x0 acpica/evglock.32
 .bss           0x00000000c009a5e4        0x0 acpica/evgpe.32
 .bss           0x00000000c009a5e4        0x0 acpica/evgpeblk.32
 .bss           0x00000000c009a5e4        0x0 acpica/evgpeinit.32
 .bss           0x00000000c009a5e4        0x0 acpica/evgpeutil.32
 .bss           0x00000000c009a5e4        0x0 acpica/evhandler.32
 .bss           0x00000000c009a5e4        0x0 acpica/evmisc.32
 .bss           0x00000000c009a5e4        0x0 acpica/evregion.32
 .bss           0x00000000c009a5e4        0x0 acpica/evrgnini.32
 .bss           0x00000000c009a5e4        0x0 acpica/evsci.32
 .bss           0x00000000c009a5e4        0x0 acpica/evxface.32
 .bss           0x00000000c009a5e4        0x0 acpica/evxfevnt.32
 .bss           0x00000000c009a5e4        0x0 acpica/evxfgpe.32
 .bss           0x00000000c009a5e4        0x0 acpica/evxfregn.32
 .bss           0x00000000c009a5e4        0x0 acpica/exconcat.32
 .bss           0x00000000c009a5e4        0x0 acpica/exconfig.32
 .bss           0x00000000c009a5e4        0x0 acpica/exconvrt.32
 .bss           0x00000000c009a5e4        0x0 acpica/excreate.32
 .bss           0x00000000c009a5e4        0x0 acpica/exdebug.32
 .bss           0x00000000c009a5e4        0x0 acpica/exdump.32
 .bss           0x00000000c009a5e4        0x0 acpica/exfield.32
 .bss           0x00000000c009a5e4        0x0 acpica/exfldio.32
 .bss           0x00000000c009a5e4        0x0 acpica/exmisc.32
 .bss           0x00000000c009a5e4        0x0 acpica/exmutex.32
 .bss           0x00000000c009a5e4        0x0 acpica/exnames.32
 .bss           0x00000000c009a5e4        0x0 acpica/exoparg1.32
 .bss           0x00000000c009a5e4        0x0 acpica/exoparg2.32
 .bss           0x00000000c009a5e4        0x0 acpica/exoparg3.32
 .bss           0x00000000c009a5e4        0x0 acpica/exoparg6.32
 .bss           0x00000000c009a5e4        0x0 acpica/exprep.32
 .bss           0x00000000c009a5e4        0x0 acpica/exregion.32
 .bss           0x00000000c009a5e4        0x0 acpica/exresnte.32
 .bss           0x00000000c009a5e4        0x0 acpica/exresolv.32
 .bss           0x00000000c009a5e4        0x0 acpica/exresop.32
 .bss           0x00000000c009a5e4        0x0 acpica/exserial.32
 .bss           0x00000000c009a5e4        0x0 acpica/exstore.32
 .bss           0x00000000c009a5e4        0x0 acpica/exstoren.32
 .bss           0x00000000c009a5e4        0x0 acpica/exstorob.32
 .bss           0x00000000c009a5e4        0x0 acpica/exsystem.32
 .bss           0x00000000c009a5e4        0x4 acpica/extrace.32
 .bss           0x00000000c009a5e8        0x0 acpica/exutils.32
 .bss           0x00000000c009a5e8        0x0 acpica/hwacpi.32
 .bss           0x00000000c009a5e8        0x0 acpica/hwesleep.32
 .bss           0x00000000c009a5e8        0x0 acpica/hwgpe.32
 .bss           0x00000000c009a5e8        0x0 acpica/hwpci.32
 .bss           0x00000000c009a5e8        0x0 acpica/hwregs.32
 .bss           0x00000000c009a5e8        0x0 acpica/hwsleep.32
 .bss           0x00000000c009a5e8        0x0 acpica/hwtimer.32
 .bss           0x00000000c009a5e8        0x0 acpica/hwvalid.32
 .bss           0x00000000c009a5e8        0x0 acpica/hwxface.32
 .bss           0x00000000c009a5e8        0x0 acpica/hwxfsleep.32
 .bss           0x00000000c009a5e8        0x0 acpica/nsaccess.32
 .bss           0x00000000c009a5e8        0x0 acpica/nsalloc.32
 .bss           0x00000000c009a5e8        0x0 acpica/nsarguments.32
 .bss           0x00000000c009a5e8        0x0 acpica/nsconvert.32
 .bss           0x00000000c009a5e8        0x0 acpica/nsdump.32
 .bss           0x00000000c009a5e8        0x0 acpica/nsdumpdv.32
 .bss           0x00000000c009a5e8        0x0 acpica/nseval.32
 .bss           0x00000000c009a5e8        0x0 acpica/nsinit.32
 .bss           0x00000000c009a5e8        0x0 acpica/nsload.32
 .bss           0x00000000c009a5e8        0x0 acpica/nsnames.32
 .bss           0x00000000c009a5e8        0x0 acpica/nsobject.32
 .bss           0x00000000c009a5e8        0x0 acpica/nsparse.32
 .bss           0x00000000c009a5e8        0x0 acpica/nspredef.32
 .bss           0x00000000c009a5e8        0x0 acpica/nsprepkg.32
 .bss           0x00000000c009a5e8        0x0 acpica/nsrepair.32
 .bss           0x00000000c009a5e8        0x0 acpica/nsrepair2.32
 .bss           0x00000000c009a5e8        0x0 acpica/nssearch.32
 .bss           0x00000000c009a5e8        0x0 acpica/nsutils.32
 .bss           0x00000000c009a5e8        0x0 acpica/nswalk.32
 .bss           0x00000000c009a5e8        0x0 acpica/nsxfeval.32
 .bss           0x00000000c009a5e8        0x0 acpica/nsxfname.32
 .bss           0x00000000c009a5e8        0x0 acpica/nsxfobj.32
 .bss           0x00000000c009a5e8        0x0 acpica/psargs.32
 .bss           0x00000000c009a5e8        0x0 acpica/psloop.32
 .bss           0x00000000c009a5e8        0x0 acpica/psobject.32
 .bss           0x00000000c009a5e8        0x0 acpica/psopcode.32
 .bss           0x00000000c009a5e8        0x0 acpica/psopinfo.32
 .bss           0x00000000c009a5e8        0x0 acpica/psparse.32
 .bss           0x00000000c009a5e8        0x0 acpica/psscope.32
 .bss           0x00000000c009a5e8        0x0 acpica/pstree.32
 .bss           0x00000000c009a5e8        0x0 acpica/psutils.32
 .bss           0x00000000c009a5e8        0x0 acpica/pswalk.32
 .bss           0x00000000c009a5e8        0x0 acpica/psxface.32
 .bss           0x00000000c009a5e8        0x0 acpica/rsaddr.32
 .bss           0x00000000c009a5e8        0x0 acpica/rscalc.32
 .bss           0x00000000c009a5e8        0x0 acpica/rscreate.32
 .bss           0x00000000c009a5e8        0x0 acpica/rsdump.32
 .bss           0x00000000c009a5e8        0x0 acpica/rsdumpinfo.32
 .bss           0x00000000c009a5e8        0x0 acpica/rsinfo.32
 .bss           0x00000000c009a5e8        0x0 acpica/rsio.32
 .bss           0x00000000c009a5e8        0x0 acpica/rsirq.32
 .bss           0x00000000c009a5e8        0x0 acpica/rslist.32
 .bss           0x00000000c009a5e8        0x0 acpica/rsmemory.32
 .bss           0x00000000c009a5e8        0x0 acpica/rsmisc.32
 .bss           0x00000000c009a5e8        0x0 acpica/rsserial.32
 .bss           0x00000000c009a5e8        0x0 acpica/rsutils.32
 .bss           0x00000000c009a5e8        0x0 acpica/rsxface.32
 .bss           0x00000000c009a5e8        0x0 acpica/tbdata.32
 .bss           0x00000000c009a5e8        0x0 acpica/tbfadt.32
 .bss           0x00000000c009a5e8        0x0 acpica/tbfind.32
 .bss           0x00000000c009a5e8        0x0 acpica/tbinstal.32
 .bss           0x00000000c009a5e8        0x0 acpica/tbprint.32
 .bss           0x00000000c009a5e8        0x0 acpica/tbutils.32
 .bss           0x00000000c009a5e8        0x0 acpica/tbxface.32
 .bss           0x00000000c009a5e8        0x0 acpica/tbxfload.32
 .bss           0x00000000c009a5e8        0x0 acpica/tbxfroot.32
 .bss           0x00000000c009a5e8        0x0 acpica/utaddress.32
 .bss           0x00000000c009a5e8        0x0 acpica/utalloc.32
 .bss           0x00000000c009a5e8        0x0 acpica/utascii.32
 .bss           0x00000000c009a5e8        0x0 acpica/utbuffer.32
 .bss           0x00000000c009a5e8        0x0 acpica/utcache.32
 .bss           0x00000000c009a5e8        0x4 acpica/utclib.32
 .bss           0x00000000c009a5ec        0x0 acpica/utcopy.32
 .bss           0x00000000c009a5ec        0x0 acpica/utdebug.32
 .bss           0x00000000c009a5ec        0x0 acpica/utdecode.32
 .bss           0x00000000c009a5ec        0x0 acpica/utdelete.32
 .bss           0x00000000c009a5ec        0x0 acpica/uterror.32
 .bss           0x00000000c009a5ec        0x0 acpica/uteval.32
 .bss           0x00000000c009a5ec        0x0 acpica/utexcep.32
 .bss           0x00000000c009a5ec       0x2c acpica/utglobal.32
                0x00000000c009a5ec                AcpiGbl_EnableInterpreterSlack
                0x00000000c009a5ed                AcpiGbl_EnableAmlDebugObject
                0x00000000c009a5ee                AcpiGbl_CopyDsdtLocally
                0x00000000c009a5ef                AcpiGbl_DoNotUseXsdt
                0x00000000c009a5f0                AcpiGbl_Use32BitFadtAddresses
                0x00000000c009a5f1                AcpiGbl_TruncateIoAddresses
                0x00000000c009a5f2                AcpiGbl_DisableAutoRepair
                0x00000000c009a5f3                AcpiGbl_DisableSsdtTableInstall
                0x00000000c009a5f4                AcpiGbl_OsiData
                0x00000000c009a5f5                AcpiGbl_ReducedHardware
                0x00000000c009a5f6                AcpiGbl_IgnorePackageResolutionErrors
                0x00000000c009a5f8                AcpiGbl_TraceFlags
                0x00000000c009a5fc                AcpiGbl_TraceMethodName
                0x00000000c009a600                AcpiGbl_DisplayDebugTimer
                0x00000000c009a604                AcpiGbl_StartupFlags
                0x00000000c009a608                AcpiGbl_NamespaceInitialized
                0x00000000c009a60c                AcpiGbl_CurrentScope
                0x00000000c009a610                AcpiGbl_CaptureComments
                0x00000000c009a614                AcpiGbl_LastListHead
 .bss           0x00000000c009a618        0x0 acpica/uthex.32
 .bss           0x00000000c009a618        0x0 acpica/utids.32
 .bss           0x00000000c009a618        0x0 acpica/utinit.32
 .bss           0x00000000c009a618        0x0 acpica/utlock.32
 .bss           0x00000000c009a618        0x0 acpica/utmath.32
 .bss           0x00000000c009a618        0x0 acpica/utmisc.32
 .bss           0x00000000c009a618        0x0 acpica/utmutex.32
 .bss           0x00000000c009a618        0x0 acpica/utnonansi.32
 .bss           0x00000000c009a618        0x0 acpica/utobject.32
 .bss           0x00000000c009a618        0x0 acpica/utosi.32
 .bss           0x00000000c009a618        0x0 acpica/utownerid.32
 .bss           0x00000000c009a618        0x0 acpica/utpredef.32
 .bss           0x00000000c009a618        0x0 acpica/utprint.32
 .bss           0x00000000c009a618        0x0 acpica/utresdecode.32
 .bss           0x00000000c009a618        0x0 acpica/utresrc.32
 .bss           0x00000000c009a618        0x0 acpica/utstate.32
 .bss           0x00000000c009a618        0x0 acpica/utstring.32
 .bss           0x00000000c009a618        0x0 acpica/utstrsuppt.32
 .bss           0x00000000c009a618        0x0 acpica/utstrtoul64.32
 .bss           0x00000000c009a618        0x0 acpica/uttrack.32
 .bss           0x00000000c009a618        0x0 acpica/utuuid.32
 .bss           0x00000000c009a618        0x0 acpica/utxface.32
 .bss           0x00000000c009a618        0x0 acpica/utxferror.32
 .bss           0x00000000c009a618        0x0 acpica/utxfinit.32
 .bss           0x00000000c009a618        0x0 acpica/utxfmutex.32
 *fill*         0x00000000c009a618        0x8 
 .bss           0x00000000c009a620      0x378 core/malloc.32
 .bss           0x00000000c009a998        0x0 libk/string.32
 .bss           0x00000000c009a998        0x0 fs/fat/diskio.32
 *fill*         0x00000000c009a998        0x8 
 .bss           0x00000000c009a9a0       0x6a fs/fat/ff.32
 .bss           0x00000000c009aa0a        0x0 fs/fat/ffsystem.32
 .bss           0x00000000c009aa0a        0x0 fs/fat/ffunicode.32
 .bss           0x00000000c009aa0a        0x0 hal/libresample/samplerate.32
 .bss           0x00000000c009aa0a        0x0 hal/libresample/src_linear.32
 .bss           0x00000000c009aa0a        0x0 hal/libresample/src_sinc.32
 .bss           0x00000000c009aa0a        0x0 hal/libresample/src_zoh.32
 .bss           0x00000000c009aa0a        0x0 acpica/osl.32
 *fill*         0x00000000c009aa0a        0x2 
 .bss           0x00000000c009aa0c        0x8 core/computer.32
                0x00000000c009aa0c                schedulingOn
                0x00000000c009aa0d                preemptionOn
                0x00000000c009aa10                computer
 *fill*         0x00000000c009aa14        0xc 
 .bss           0x00000000c009aa20      0x1a0 core/elf.32
                0x00000000c009aa20                nextDLLSymbolIndex
                0x00000000c009aa40                kernelSymbolTable
                0x00000000c009aac0                kernelStringTable
                0x00000000c009ab40                kernelSymbols
 .bss           0x00000000c009abc0        0x6 core/gdt.32
                0x00000000c009abc0                gdtDescr
 .bss           0x00000000c009abc6        0x0 core/idle.32
 *fill*         0x00000000c009abc6        0x2 
 .bss           0x00000000c009abc8        0x6 core/idt.32
                0x00000000c009abc8                idtDescr
 .bss           0x00000000c009abce        0x1 core/kconsole.32
                0x00000000c009abce                kernelInPanic
 .bss           0x00000000c009abcf        0x0 core/kheap.32
 *fill*         0x00000000c009abcf        0x1 
 .bss           0x00000000c009abd0        0x4 core/main.32
                0x00000000c009abd0                sysBootSettings
 *fill*         0x00000000c009abd4        0xc 
 .bss           0x00000000c009abe0       0x44 core/physmgr.32
                0x00000000c009abe0                PhysMem::dmaUsage
                0x00000000c009ac10                PhysMem::usablePages
                0x00000000c009ac14                PhysMem::usedPages
                0x00000000c009ac18                PhysMem::oldPercent
                0x00000000c009ac1c                PhysMem::highestMem
                0x00000000c009ac20                PhysMem::currentPagePointer
 .bss           0x00000000c009ac24        0x0 core/pipe.32
 *fill*         0x00000000c009ac24        0x4 
 .bss           0x00000000c009ac28       0x68 core/prcssthr.32
                0x00000000c009ac28                kernelProcess
                0x00000000c009ac2c                taskList
                0x00000000c009ac38                sleepingTaskList
                0x00000000c009ac44                terminatedTaskList
                0x00000000c009ac50                irqDisableCounter
                0x00000000c009ac54                postponeTaskSwitchesCounter
                0x00000000c009ac58                taskSwitchesPostponedFlag
                0x00000000c009ac5c                schedulerLock
                0x00000000c009ac60                lockStuffLock
                0x00000000c009ac64                retValSchedLock
                0x00000000c009ac68                retValLockStuff
                0x00000000c009ac6c                xxxx
                0x00000000c009ac70                weNeedTheCleanerToNotBlock
                0x00000000c009ac74                cleanerThread
 *fill*         0x00000000c009ac90       0x10 
 .bss           0x00000000c009aca0      0x200 core/syscalls.32
                0x00000000c009aca0                systemCallHandlers
 .bss           0x00000000c009aea0       0x40 core/terminal.32
                0x00000000c009aea0                VgaText::graphicMode
                0x00000000c009aea4                activeTerminal
                0x00000000c009aea8                terminalCycle
                0x00000000c009aec0                textModeImplementation
 .bss           0x00000000c009aee0        0x0 core/tss.32
 .bss           0x00000000c009aee0        0xd core/unixfile.32
                0x00000000c009aee0                unixFileLinkedList
                0x00000000c009aeec                initialFilesAdded
 *fill*         0x00000000c009aeed        0x3 
 .bss           0x00000000c009aef0        0x4 core/virtmgr.32
                0x00000000c009aef0                firstVAS
 .bss           0x00000000c009aef4        0x0 coreobjs/c++.32
 .bss           0x00000000c009aef4        0x0 debugger/debug.32
 .bss           0x00000000c009aef4        0x4 fs/vfs.32
                0x00000000c009aef4                installedFilesystems
 .bss           0x00000000c009aef8        0x0 hal/bus.32
 .bss           0x00000000c009aef8        0x4 hal/buzzer.32
                0x00000000c009aef8                systemBuzzer
 .bss           0x00000000c009aefc        0x6 hal/clock.32
                0x00000000c009aefc                timezoneHourOffset
                0x00000000c009af00                timezoneHalfHourOffset
                0x00000000c009af01                dstOn
 .bss           0x00000000c009af02        0x0 hal/device.32
 .bss           0x00000000c009af02        0x0 hal/diskctrl.32
 .bss           0x00000000c009af02        0x0 hal/diskphys.32
 .bss           0x00000000c009af02        0x0 hal/fpu.32
 *fill*         0x00000000c009af02        0x2 
 .bss           0x00000000c009af04       0x1c hal/intctrl.32
                0x00000000c009af04                gpFaultIntercept
                0x00000000c009af08                pf0
                0x00000000c009af0c                pf1
                0x00000000c009af10                pf2
                0x00000000c009af14                pf3
                0x00000000c009af18                pf4
                0x00000000c009af1c                pf5
 .bss           0x00000000c009af20      0x410 hal/keybrd.32
                0x00000000c009af20                keystates
                0x00000000c009b320                keyboardSetupYet
                0x00000000c009b324                keyboardWaitingTaskList
 *fill*         0x00000000c009b330       0x10 
 .bss           0x00000000c009b340       0x70 hal/logidisk.32
                0x00000000c009b340                disks
                0x00000000c009b3a8                diskAssignments
 .bss           0x00000000c009b3b0        0x0 hal/partition.32
 .bss           0x00000000c009b3b0        0x8 hal/timer.32
                0x00000000c009b3b0                nanoSinceBoot
 .bss           0x00000000c009b3b8        0x0 hal/vcache.32
 *fill*         0x00000000c009b3b8        0x8 
 .bss           0x00000000c009b3c0      0x4d0 hw/acpi.32
                0x00000000c009b3c0                processorID
                0x00000000c009b3e0                matchingAPICID
                0x00000000c009b400                processorDiscoveryNumber
                0x00000000c009b420                ioapicGSIBase
                0x00000000c009b4a0                ioapicAddresses
                0x00000000c009b520                ioapicFoundInMADT
                0x00000000c009b540                ioapicDiscoveryNumber
                0x00000000c009b544                RSDPpointer
                0x00000000c009b548                RSDTpointer
                0x00000000c009b54c                MADTpointer
                0x00000000c009b550                usingXSDT
                0x00000000c009b560                acpiTables
                0x00000000c009b760                nextACPITable
                0x00000000c009b780                currentACPIWalkPath
                0x00000000c009b880                wait
                0x00000000c009b884                systemShutdownFunction
                0x00000000c009b888                systemResetFunction
                0x00000000c009b88c                systemSleepFunction
 .bss           0x00000000c009b890       0x10 hw/cpu.32
                0x00000000c009b890                lastA
                0x00000000c009b894                lastB
                0x00000000c009b898                lastC
                0x00000000c009b89c                lastD
 .bss           0x00000000c009b8a0        0x0 hw/ports.32
 .bss           0x00000000c009b8a0        0x0 registry/registry.32
 .bss           0x00000000c009b8a0        0x0 syscalls/sc_exit.32
 .bss           0x00000000c009b8a0        0x0 syscalls/sc_sbrk.32
 .bss           0x00000000c009b8a0        0x0 syscalls/sc_yield.32
 .bss           0x00000000c009b8a0        0x1 vm86/vm8086.32
 *fill*         0x00000000c009b8a1       0x1f 
 .bss           0x00000000c009b8c0       0xcc fs/fat/vfslink.32
                0x00000000c009b8c0                fatToVFSRemaps
                0x00000000c009b920                FAT::vfsToFatRemaps
                0x00000000c009b988                FAT::fats
 .bss           0x00000000c009b98c        0x0 fs/iso9660/vfslink.32
 .bss           0x00000000c009b98c        0x0 hal/sound/sndchannel.32
 .bss           0x00000000c009b98c        0x0 hal/sound/sndhw.32
 *fill*         0x00000000c009b98c       0x14 
 .bss           0x00000000c009b9a0    0x12000 hw/audio/sb16.32
                0x00000000c009b9a0                buf
                0x00000000c009c9a0                buf2
                0x00000000c009d9a0                tempBuffer
                0x00000000c00a59a0                outputBuffer
 .bss           0x00000000c00ad9a0        0x5 hw/bus/isa.32
                0x00000000c00ad9a0                isaDMAController
 .bss           0x00000000c00ad9a5        0x0 hw/bus/pci.32
 .bss           0x00000000c00ad9a5        0x0 hw/bus/ps2.32
 .bss           0x00000000c00ad9a5        0x0 hw/bus/ps2port.32
 .bss           0x00000000c00ad9a5        0x0 hw/buzzer/pcspk.32
 *fill*         0x00000000c00ad9a5        0x1 
 .bss           0x00000000c00ad9a6        0x2 hw/clock/rtc.32
 .bss           0x00000000c00ad9a8        0x0 hw/diskctrl/ide.32
 .bss           0x00000000c00ad9a8        0x8 hw/diskphys/ata.32
                0x00000000c00ad9a8                ataSectorsRead
                0x00000000c00ad9ac                ataSectorsWritten
 .bss           0x00000000c00ad9b0        0x0 hw/diskphys/atapi.32
 .bss           0x00000000c00ad9b0        0x0 hw/dma/isadma.32
 .bss           0x00000000c00ad9b0        0x0 hw/fpu/avx.32
 .bss           0x00000000c00ad9b0        0x0 hw/fpu/mmx.32
 .bss           0x00000000c00ad9b0        0x0 hw/fpu/sse.32
 .bss           0x00000000c00ad9b0        0x0 hw/fpu/x87.32
 *fill*         0x00000000c00ad9b0       0x10 
 .bss           0x00000000c00ad9c0       0x44 hw/intctrl/apic.32
                0x00000000c00ad9c0                IOAPICsSetupYet
                0x00000000c00ad9e0                ioapics
                0x00000000c00ada00                noOfIOAPICs
 .bss           0x00000000c00ada04        0x0 hw/intctrl/pic.32
 .bss           0x00000000c00ada04        0x0 hw/keybrd/ps2key.32
 .bss           0x00000000c00ada04        0x0 hw/timer/apictimer.32
 .bss           0x00000000c00ada04        0x4 hw/timer/pit.32
                0x00000000c00ada04                pitFreq
 .bss           0x00000000c00ada08        0x0 /cygdrive/d/Users/Alex/Desktop/Toolchain/Output/bin/../lib/gcc/i386-banana/8.1.0/crtend.o
 .bss           0x00000000c00ada08        0x0 crtn.32
 .bss           0x00000000c00ada08        0x0 /cygdrive/d/Users/Alex/Desktop/Toolchain/Output/bin/../lib/gcc/i386-banana/8.1.0/libgcc.a(_divdi3.o)
 .bss           0x00000000c00ada08        0x0 /cygdrive/d/Users/Alex/Desktop/Toolchain/Output/bin/../lib/gcc/i386-banana/8.1.0/libgcc.a(_moddi3.o)
 .bss           0x00000000c00ada08        0x0 /cygdrive/d/Users/Alex/Desktop/Toolchain/Output/bin/../lib/gcc/i386-banana/8.1.0/libgcc.a(_udivdi3.o)
 .bss           0x00000000c00ada08        0x0 /cygdrive/d/Users/Alex/Desktop/Toolchain/Output/bin/../lib/gcc/i386-banana/8.1.0/libgcc.a(_umoddi3.o)
 .bss           0x00000000c00ada08        0x0 D:/Users/Alex/Desktop/Banana/kernel/libk/libm32.a(s_fabs.c.o)
 .bss           0x00000000c00ada08        0x0 D:/Users/Alex/Desktop/Banana/kernel/libk/libm32.a(s_lrint.S.o)
 .bss           0x00000000c00ada08        0x0 D:/Users/Alex/Desktop/Banana/kernel/libk/libm32.a(s_lrintf.S.o)
 *(.bootstrap_stack)
 *(.gnu.linkonce.b*)
                0x00000000c00ada08                ebss = .

/DISCARD/
 *(.comment)
                0x00000000c00c13f8                . = (. + SIZEOF (.bss))
OUTPUT(D:/Users/Alex/Desktop/Banana/kernel/KERNEL32.EXE elf32-i386)

.debug_info     0x0000000000000000     0x351f
 .debug_info    0x0000000000000000      0xd63 /cygdrive/d/Users/Alex/Desktop/Toolchain/Output/bin/../lib/gcc/i386-banana/8.1.0/libgcc.a(_divdi3.o)
 .debug_info    0x0000000000000d63      0xd63 /cygdrive/d/Users/Alex/Desktop/Toolchain/Output/bin/../lib/gcc/i386-banana/8.1.0/libgcc.a(_moddi3.o)
 .debug_info    0x0000000000001ac6      0xd25 /cygdrive/d/Users/Alex/Desktop/Toolchain/Output/bin/../lib/gcc/i386-banana/8.1.0/libgcc.a(_udivdi3.o)
 .debug_info    0x00000000000027eb      0xd34 /cygdrive/d/Users/Alex/Desktop/Toolchain/Output/bin/../lib/gcc/i386-banana/8.1.0/libgcc.a(_umoddi3.o)

.debug_abbrev   0x0000000000000000      0x930
 .debug_abbrev  0x0000000000000000      0x255 /cygdrive/d/Users/Alex/Desktop/Toolchain/Output/bin/../lib/gcc/i386-banana/8.1.0/libgcc.a(_divdi3.o)
 .debug_abbrev  0x0000000000000255      0x255 /cygdrive/d/Users/Alex/Desktop/Toolchain/Output/bin/../lib/gcc/i386-banana/8.1.0/libgcc.a(_moddi3.o)
 .debug_abbrev  0x00000000000004aa      0x23a /cygdrive/d/Users/Alex/Desktop/Toolchain/Output/bin/../lib/gcc/i386-banana/8.1.0/libgcc.a(_udivdi3.o)
 .debug_abbrev  0x00000000000006e4      0x24c /cygdrive/d/Users/Alex/Desktop/Toolchain/Output/bin/../lib/gcc/i386-banana/8.1.0/libgcc.a(_umoddi3.o)

.debug_loc      0x0000000000000000     0x174d
 .debug_loc     0x0000000000000000      0x3b0 /cygdrive/d/Users/Alex/Desktop/Toolchain/Output/bin/../lib/gcc/i386-banana/8.1.0/libgcc.a(_divdi3.o)
 .debug_loc     0x00000000000003b0      0x48d /cygdrive/d/Users/Alex/Desktop/Toolchain/Output/bin/../lib/gcc/i386-banana/8.1.0/libgcc.a(_moddi3.o)
 .debug_loc     0x000000000000083d      0x79c /cygdrive/d/Users/Alex/Desktop/Toolchain/Output/bin/../lib/gcc/i386-banana/8.1.0/libgcc.a(_udivdi3.o)
 .debug_loc     0x0000000000000fd9      0x774 /cygdrive/d/Users/Alex/Desktop/Toolchain/Output/bin/../lib/gcc/i386-banana/8.1.0/libgcc.a(_umoddi3.o)

.debug_aranges  0x0000000000000000       0x80
 .debug_aranges
                0x0000000000000000       0x20 /cygdrive/d/Users/Alex/Desktop/Toolchain/Output/bin/../lib/gcc/i386-banana/8.1.0/libgcc.a(_divdi3.o)
 .debug_aranges
                0x0000000000000020       0x20 /cygdrive/d/Users/Alex/Desktop/Toolchain/Output/bin/../lib/gcc/i386-banana/8.1.0/libgcc.a(_moddi3.o)
 .debug_aranges
                0x0000000000000040       0x20 /cygdrive/d/Users/Alex/Desktop/Toolchain/Output/bin/../lib/gcc/i386-banana/8.1.0/libgcc.a(_udivdi3.o)
 .debug_aranges
                0x0000000000000060       0x20 /cygdrive/d/Users/Alex/Desktop/Toolchain/Output/bin/../lib/gcc/i386-banana/8.1.0/libgcc.a(_umoddi3.o)

.debug_ranges   0x0000000000000000       0x98
 .debug_ranges  0x0000000000000000       0x20 /cygdrive/d/Users/Alex/Desktop/Toolchain/Output/bin/../lib/gcc/i386-banana/8.1.0/libgcc.a(_divdi3.o)
 .debug_ranges  0x0000000000000020       0x20 /cygdrive/d/Users/Alex/Desktop/Toolchain/Output/bin/../lib/gcc/i386-banana/8.1.0/libgcc.a(_moddi3.o)
 .debug_ranges  0x0000000000000040       0x28 /cygdrive/d/Users/Alex/Desktop/Toolchain/Output/bin/../lib/gcc/i386-banana/8.1.0/libgcc.a(_udivdi3.o)
 .debug_ranges  0x0000000000000068       0x30 /cygdrive/d/Users/Alex/Desktop/Toolchain/Output/bin/../lib/gcc/i386-banana/8.1.0/libgcc.a(_umoddi3.o)

.debug_line     0x0000000000000000      0xbf2
 .debug_line    0x0000000000000000      0x2f9 /cygdrive/d/Users/Alex/Desktop/Toolchain/Output/bin/../lib/gcc/i386-banana/8.1.0/libgcc.a(_divdi3.o)
 .debug_line    0x00000000000002f9      0x333 /cygdrive/d/Users/Alex/Desktop/Toolchain/Output/bin/../lib/gcc/i386-banana/8.1.0/libgcc.a(_moddi3.o)
 .debug_line    0x000000000000062c      0x2c5 /cygdrive/d/Users/Alex/Desktop/Toolchain/Output/bin/../lib/gcc/i386-banana/8.1.0/libgcc.a(_udivdi3.o)
 .debug_line    0x00000000000008f1      0x301 /cygdrive/d/Users/Alex/Desktop/Toolchain/Output/bin/../lib/gcc/i386-banana/8.1.0/libgcc.a(_umoddi3.o)

.debug_str      0x0000000000000000      0xb97
 .debug_str     0x0000000000000000      0xb7a /cygdrive/d/Users/Alex/Desktop/Toolchain/Output/bin/../lib/gcc/i386-banana/8.1.0/libgcc.a(_divdi3.o)
                                        0xc28 (size before relaxing)
 .debug_str     0x0000000000000b7a        0x9 /cygdrive/d/Users/Alex/Desktop/Toolchain/Output/bin/../lib/gcc/i386-banana/8.1.0/libgcc.a(_moddi3.o)
                                        0xc28 (size before relaxing)
 .debug_str     0x0000000000000b83        0xa /cygdrive/d/Users/Alex/Desktop/Toolchain/Output/bin/../lib/gcc/i386-banana/8.1.0/libgcc.a(_udivdi3.o)
                                        0xc29 (size before relaxing)
 .debug_str     0x0000000000000b8d        0xa /cygdrive/d/Users/Alex/Desktop/Toolchain/Output/bin/../lib/gcc/i386-banana/8.1.0/libgcc.a(_umoddi3.o)
                                        0xc29 (size before relaxing)

.note.GNU-stack
                0x0000000000000000        0x0
 .note.GNU-stack
                0x0000000000000000        0x0 D:/Users/Alex/Desktop/Banana/kernel/libk/libm32.a(s_lrint.S.o)
 .note.GNU-stack
                0x0000000000000000        0x0 D:/Users/Alex/Desktop/Banana/kernel/libk/libm32.a(s_lrintf.S.o)
