Archive member included to satisfy reference by file (symbol)

/cygdrive/d/Users/Alex/Desktop/Toolchain/Output/bin/../lib/gcc/i386-banana/8.1.0/libkgcc.a(_divdi3.o)
                              krnl/resolve.32 (__divdi3)
/cygdrive/d/Users/Alex/Desktop/Toolchain/Output/bin/../lib/gcc/i386-banana/8.1.0/libkgcc.a(_moddi3.o)
                              krnl/resolve.32 (__moddi3)
/cygdrive/d/Users/Alex/Desktop/Toolchain/Output/bin/../lib/gcc/i386-banana/8.1.0/libkgcc.a(_udivdi3.o)
                              hal/clock.32 (__udivdi3)
/cygdrive/d/Users/Alex/Desktop/Toolchain/Output/bin/../lib/gcc/i386-banana/8.1.0/libkgcc.a(_umoddi3.o)
                              core/pipe.32 (__umoddi3)

Allocating common symbols
Common symbol       size              file

dcache              0x40              fs/iso9660/iso9660.32
cdDriveLetter       0x1               fs/iso9660/iso9660.32
icache              0x40              fs/iso9660/iso9660.32

Discarded input sections

 .comment       0x0000000000000000       0x12 /cygdrive/d/Users/Alex/Desktop/Toolchain/Output/bin/../lib/gcc/i386-banana/8.1.0/crtbegin.o
 .comment       0x0000000000000000       0x12 acpica/utclib.32
 .comment       0x0000000000000000       0x12 core/malloc.32
 .comment       0x0000000000000000       0x12 libk/ctype.32
 .comment       0x0000000000000000       0x12 libk/string.32
 .comment       0x0000000000000000       0x12 fs/fat/diskio.32
 .comment       0x0000000000000000       0x12 fs/fat/ff.32
 .comment       0x0000000000000000       0x12 fs/fat/ffsystem.32
 .comment       0x0000000000000000       0x12 fs/fat/ffunicode.32
 .comment       0x0000000000000000       0x12 fs/iso9660/iso9660.32
 .group         0x0000000000000000       0x14 core/computer.32
 .group         0x0000000000000000        0xc core/computer.32
 .comment       0x0000000000000000       0x12 core/computer.32
 .comment       0x0000000000000000       0x12 core/gdt.32
 .group         0x0000000000000000        0xc core/idle.32
 .comment       0x0000000000000000       0x12 core/idle.32
 .comment       0x0000000000000000       0x12 core/idt.32
 .comment       0x0000000000000000       0x12 core/kheap.32
 .comment       0x0000000000000000       0x12 core/main.32
 .comment       0x0000000000000000       0x12 core/physmgr.32
 .group         0x0000000000000000        0xc core/pipe.32
 .comment       0x0000000000000000       0x12 core/pipe.32
 .group         0x0000000000000000        0xc core/terminal.32
 .comment       0x0000000000000000       0x12 core/terminal.32
 .comment       0x0000000000000000       0x12 core/tss.32
 .group         0x0000000000000000        0x8 core/unixfile.32
 .group         0x0000000000000000        0x8 core/unixfile.32
 .group         0x0000000000000000        0xc core/unixfile.32
 .group         0x0000000000000000        0x8 core/unixfile.32
 .group         0x0000000000000000        0xc core/unixfile.32
 .group         0x0000000000000000        0x8 core/unixfile.32
 .group         0x0000000000000000        0xc core/unixfile.32
 .group         0x0000000000000000        0xc core/unixfile.32
 .comment       0x0000000000000000       0x12 core/unixfile.32
 .comment       0x0000000000000000       0x12 core/virtmgr.32
 .comment       0x0000000000000000       0x12 coreobjs/c++.32
 .comment       0x0000000000000000       0x12 dbg/kconsole.32
 .group         0x0000000000000000        0xc fs/vfs.32
 .group         0x0000000000000000        0xc fs/vfs.32
 .group         0x0000000000000000        0xc fs/vfs.32
 .comment       0x0000000000000000       0x12 fs/vfs.32
 .group         0x0000000000000000        0xc hal/bus.32
 .comment       0x0000000000000000       0x12 hal/bus.32
 .comment       0x0000000000000000       0x12 hal/buzzer.32
 .group         0x0000000000000000        0xc hal/clock.32
 .comment       0x0000000000000000       0x12 hal/clock.32
 .group         0x0000000000000000       0x14 hal/device.32
 .group         0x0000000000000000        0xc hal/device.32
 .group         0x0000000000000000        0x8 hal/device.32
 .group         0x0000000000000000        0xc hal/device.32
 .group         0x0000000000000000        0xc hal/device.32
 .comment       0x0000000000000000       0x12 hal/device.32
 .group         0x0000000000000000        0xc hal/diskctrl.32
 .comment       0x0000000000000000       0x12 hal/diskctrl.32
 .group         0x0000000000000000        0xc hal/diskphys.32
 .comment       0x0000000000000000       0x12 hal/diskphys.32
 .comment       0x0000000000000000       0x12 hal/fpu.32
 .comment       0x0000000000000000       0x12 hal/intctrl.32
 .group         0x0000000000000000        0xc hal/keybrd.32
 .comment       0x0000000000000000       0x12 hal/keybrd.32
 .group         0x0000000000000000        0xc hal/logidisk.32
 .comment       0x0000000000000000       0x12 hal/logidisk.32
 .group         0x0000000000000000        0xc hal/mouse.32
 .comment       0x0000000000000000       0x12 hal/mouse.32
 .comment       0x0000000000000000       0x12 hal/partition.32
 .group         0x0000000000000000        0xc hal/serial.32
 .comment       0x0000000000000000       0x12 hal/serial.32
 .group         0x0000000000000000        0x8 hal/timer.32
 .group         0x0000000000000000        0x8 hal/timer.32
 .group         0x0000000000000000        0xc hal/timer.32
 .group         0x0000000000000000        0xc hal/timer.32
 .group         0x0000000000000000        0xc hal/timer.32
 .comment       0x0000000000000000       0x12 hal/timer.32
 .group         0x0000000000000000        0xc hal/vcache.32
 .comment       0x0000000000000000       0x12 hal/vcache.32
 .group         0x0000000000000000        0xc hal/video.32
 .comment       0x0000000000000000       0x12 hal/video.32
 .group         0x0000000000000000       0x14 hw/acpi.32
 .group         0x0000000000000000        0x8 hw/acpi.32
 .group         0x0000000000000000        0x8 hw/acpi.32
 .group         0x0000000000000000        0x8 hw/acpi.32
 .group         0x0000000000000000        0xc hw/acpi.32
 .group         0x0000000000000000        0xc hw/acpi.32
 .comment       0x0000000000000000       0x12 hw/acpi.32
 .group         0x0000000000000000       0x14 hw/cpu.32
 .group         0x0000000000000000        0xc hw/cpu.32
 .comment       0x0000000000000000       0x12 hw/cpu.32
 .comment       0x0000000000000000       0x12 krnl/bootmsg.32
 .comment       0x0000000000000000       0x12 krnl/env.32
 .comment       0x0000000000000000       0x12 krnl/inlines.32
 .comment       0x0000000000000000       0x12 krnl/panic.32
 .comment       0x0000000000000000       0x12 krnl/powctrl.32
 .comment       0x0000000000000000       0x12 krnl/resolve.32
 .comment       0x0000000000000000       0x12 krnl/syscalls.32
 .comment       0x0000000000000000       0x12 reg/registry.32
 .comment       0x0000000000000000       0x12 sys/eject.32
 .comment       0x0000000000000000       0x12 sys/exit.32
 .comment       0x0000000000000000       0x12 sys/getcwd.32
 .comment       0x0000000000000000       0x12 sys/getpid.32
 .comment       0x0000000000000000       0x12 sys/getramdata.32
 .comment       0x0000000000000000       0x12 sys/getvgaptr.32
 .comment       0x0000000000000000       0x12 sys/loaddll.32
 .comment       0x0000000000000000       0x12 sys/read.32
 .comment       0x0000000000000000       0x12 sys/sbrk.32
 .comment       0x0000000000000000       0x12 sys/setcwd.32
 .comment       0x0000000000000000       0x12 sys/settime.32
 .comment       0x0000000000000000       0x12 sys/timezone.32
 .comment       0x0000000000000000       0x12 sys/write.32
 .comment       0x0000000000000000       0x12 sys/wsbe.32
 .comment       0x0000000000000000       0x12 sys/yield.32
 .comment       0x0000000000000000       0x12 thr/elf.32
 .group         0x0000000000000000        0x8 thr/prcssthr.32
 .group         0x0000000000000000        0x8 thr/prcssthr.32
 .group         0x0000000000000000        0x8 thr/prcssthr.32
 .group         0x0000000000000000        0xc thr/prcssthr.32
 .group         0x0000000000000000        0x8 thr/prcssthr.32
 .group         0x0000000000000000        0xc thr/prcssthr.32
 .group         0x0000000000000000        0x8 thr/prcssthr.32
 .group         0x0000000000000000        0x8 thr/prcssthr.32
 .text._ZN10LinkedListIV18ThreadControlBlockE10addElementEPS1_
                0x0000000000000000       0xda thr/prcssthr.32
 .text._ZN10LinkedListIV18ThreadControlBlockE7isEmptyEv
                0x0000000000000000       0x1c thr/prcssthr.32
 .text._ZN10LinkedListIV18ThreadControlBlockE11removeFirstEv
                0x0000000000000000       0xb8 thr/prcssthr.32
 .text._ZN10LinkedListIV18ThreadControlBlockE15getFirstElementEv
                0x0000000000000000        0x7 thr/prcssthr.32
 .comment       0x0000000000000000       0x12 thr/prcssthr.32
 .comment       0x0000000000000000       0x12 vm86/vm8086.32
 .comment       0x0000000000000000       0x12 arch/i386/hal.32
 .comment       0x0000000000000000       0x12 arch/i386/pic.32
 .group         0x0000000000000000        0xc arch/i386/rtc.32
 .comment       0x0000000000000000       0x12 arch/i386/rtc.32
 .comment       0x0000000000000000       0x12 arch/i386/vga.32
 .group         0x0000000000000000        0xc fs/fat/vfslink.32
 .comment       0x0000000000000000       0x12 fs/fat/vfslink.32
 .comment       0x0000000000000000       0x12 fs/iso9660/helper.32
 .group         0x0000000000000000        0xc fs/iso9660/vfslink.32
 .comment       0x0000000000000000       0x12 fs/iso9660/vfslink.32
 .group         0x0000000000000000        0xc hal/sound/sndcard.32
 .comment       0x0000000000000000       0x12 hal/sound/sndcard.32
 .comment       0x0000000000000000       0x12 hal/sound/sndport.32
 .comment       0x0000000000000000       0x12 hw/bus/isa.32
 .group         0x0000000000000000       0x14 hw/bus/pci.32
 .group         0x0000000000000000        0xc hw/bus/pci.32
 .comment       0x0000000000000000       0x12 hw/bus/pci.32
 .group         0x0000000000000000       0x14 hw/diskctrl/ide.32
 .group         0x0000000000000000        0xc hw/diskctrl/ide.32
 .comment       0x0000000000000000       0x12 hw/diskctrl/ide.32
 .group         0x0000000000000000       0x14 hw/diskctrl/satabus.32
 .group         0x0000000000000000        0xc hw/diskctrl/satabus.32
 .comment       0x0000000000000000       0x12 hw/diskctrl/satabus.32
 .group         0x0000000000000000       0x14 hw/diskphys/ata.32
 .group         0x0000000000000000        0xc hw/diskphys/ata.32
 .comment       0x0000000000000000       0x12 hw/diskphys/ata.32
 .group         0x0000000000000000       0x14 hw/diskphys/atapi.32
 .group         0x0000000000000000        0xc hw/diskphys/atapi.32
 .comment       0x0000000000000000       0x12 hw/diskphys/atapi.32
 .group         0x0000000000000000       0x14 hw/diskphys/sata.32
 .group         0x0000000000000000        0xc hw/diskphys/sata.32
 .comment       0x0000000000000000       0x12 hw/diskphys/sata.32
 .group         0x0000000000000000       0x14 hw/diskphys/satapi.32
 .group         0x0000000000000000        0xc hw/diskphys/satapi.32
 .comment       0x0000000000000000       0x12 hw/diskphys/satapi.32
 .group         0x0000000000000000       0x14 hw/intctrl/apic.32
 .group         0x0000000000000000        0xc hw/intctrl/apic.32
 .comment       0x0000000000000000       0x12 hw/intctrl/apic.32
 .group         0x0000000000000000       0x14 hw/timer/apictimer.32
 .group         0x0000000000000000        0xc hw/timer/apictimer.32
 .comment       0x0000000000000000       0x12 hw/timer/apictimer.32
 .group         0x0000000000000000       0x14 hw/timer/pit.32
 .group         0x0000000000000000        0xc hw/timer/pit.32
 .comment       0x0000000000000000       0x12 hw/timer/pit.32
 .comment       0x0000000000000000       0x12 /cygdrive/d/Users/Alex/Desktop/Toolchain/Output/bin/../lib/gcc/i386-banana/8.1.0/crtend.o
 .comment       0x0000000000000000       0x12 /cygdrive/d/Users/Alex/Desktop/Toolchain/Output/bin/../lib/gcc/i386-banana/8.1.0/libkgcc.a(_divdi3.o)
 .comment       0x0000000000000000       0x12 /cygdrive/d/Users/Alex/Desktop/Toolchain/Output/bin/../lib/gcc/i386-banana/8.1.0/libkgcc.a(_moddi3.o)
 .comment       0x0000000000000000       0x12 /cygdrive/d/Users/Alex/Desktop/Toolchain/Output/bin/../lib/gcc/i386-banana/8.1.0/libkgcc.a(_udivdi3.o)
 .comment       0x0000000000000000       0x12 /cygdrive/d/Users/Alex/Desktop/Toolchain/Output/bin/../lib/gcc/i386-banana/8.1.0/libkgcc.a(_umoddi3.o)

Memory Configuration

Name             Origin             Length             Attributes
*default*        0x0000000000000000 0xffffffffffffffff

Linker script and memory map

LOAD D:/Users/Alex/Desktop/Banana/kernel/boot.32
LOAD crti.32
LOAD /cygdrive/d/Users/Alex/Desktop/Toolchain/Output/bin/../lib/gcc/i386-banana/8.1.0/crtbegin.o
LOAD D:/Users/Alex/Desktop/Banana/kernel/morenasm.32
LOAD acpica/utclib.32
LOAD core/malloc.32
LOAD libk/ctype.32
LOAD libk/string.32
LOAD fs/fat/diskio.32
LOAD fs/fat/ff.32
LOAD fs/fat/ffsystem.32
LOAD fs/fat/ffunicode.32
LOAD fs/iso9660/iso9660.32
LOAD core/computer.32
LOAD core/gdt.32
LOAD core/idle.32
LOAD core/idt.32
LOAD core/kheap.32
LOAD core/main.32
LOAD core/physmgr.32
LOAD core/pipe.32
LOAD core/terminal.32
LOAD core/tss.32
LOAD core/unixfile.32
LOAD core/virtmgr.32
LOAD coreobjs/c++.32
LOAD dbg/kconsole.32
LOAD fs/vfs.32
LOAD hal/bus.32
LOAD hal/buzzer.32
LOAD hal/clock.32
LOAD hal/device.32
LOAD hal/diskctrl.32
LOAD hal/diskphys.32
LOAD hal/fpu.32
LOAD hal/intctrl.32
LOAD hal/keybrd.32
LOAD hal/logidisk.32
LOAD hal/mouse.32
LOAD hal/partition.32
LOAD hal/serial.32
LOAD hal/timer.32
LOAD hal/vcache.32
LOAD hal/video.32
LOAD hw/acpi.32
LOAD hw/cpu.32
LOAD krnl/bootmsg.32
LOAD krnl/env.32
LOAD krnl/inlines.32
LOAD krnl/panic.32
LOAD krnl/powctrl.32
LOAD krnl/resolve.32
LOAD krnl/syscalls.32
LOAD reg/registry.32
LOAD sys/eject.32
LOAD sys/exit.32
LOAD sys/getcwd.32
LOAD sys/getpid.32
LOAD sys/getramdata.32
LOAD sys/getvgaptr.32
LOAD sys/loaddll.32
LOAD sys/read.32
LOAD sys/sbrk.32
LOAD sys/setcwd.32
LOAD sys/settime.32
LOAD sys/timezone.32
LOAD sys/write.32
LOAD sys/wsbe.32
LOAD sys/yield.32
LOAD thr/elf.32
LOAD thr/prcssthr.32
LOAD vm86/vm8086.32
LOAD arch/i386/hal.32
LOAD arch/i386/pic.32
LOAD arch/i386/rtc.32
LOAD arch/i386/vga.32
LOAD fs/fat/vfslink.32
LOAD fs/iso9660/helper.32
LOAD fs/iso9660/vfslink.32
LOAD hal/sound/sndcard.32
LOAD hal/sound/sndport.32
LOAD hw/bus/isa.32
LOAD hw/bus/pci.32
LOAD hw/diskctrl/ide.32
LOAD hw/diskctrl/satabus.32
LOAD hw/diskphys/ata.32
LOAD hw/diskphys/atapi.32
LOAD hw/diskphys/sata.32
LOAD hw/diskphys/satapi.32
LOAD hw/intctrl/apic.32
LOAD hw/timer/apictimer.32
LOAD hw/timer/pit.32
LOAD arch/i386/avx.32
LOAD arch/i386/interrupt.32
LOAD arch/i386/rdrand.32
LOAD arch/i386/sse.32
LOAD arch/i386/x87.32
LOAD /cygdrive/d/Users/Alex/Desktop/Toolchain/Output/bin/../lib/gcc/i386-banana/8.1.0/crtend.o
LOAD crtn.32
LOAD /cygdrive/d/Users/Alex/Desktop/Toolchain/Output/bin/../lib/gcc/i386-banana/8.1.0/libkgcc.a
LOAD D:/Users/Alex/Desktop/Banana/kernel/libsoftfp.a
LOAD D:/Users/Alex/Desktop/Banana/kernel/libk/libm32.a
                0x00000000c0000000                . = 0xc0000000

.text           0x00000000c0000000    0x1be6a
 *(.text)
 .text          0x00000000c0000000       0x20 D:/Users/Alex/Desktop/Banana/kernel/boot.32
 .text          0x00000000c0000020        0x0 crti.32
 .text          0x00000000c0000020      0x101 /cygdrive/d/Users/Alex/Desktop/Toolchain/Output/bin/../lib/gcc/i386-banana/8.1.0/crtbegin.o
 *fill*         0x00000000c0000121        0xf 
 .text          0x00000000c0000130      0x252 D:/Users/Alex/Desktop/Banana/kernel/morenasm.32
                0x00000000c0000130                manualPCIProbe
                0x00000000c000017b                prepareTramp
                0x00000000c0000194                doTPAUSE
                0x00000000c000019e                hasLegacyFPU
                0x00000000c00001c3                is486
                0x00000000c00001f9                detectCPUID
                0x00000000c000020f                goToVM86
                0x00000000c000023f                goToUsermode
                0x00000000c0000269                switchToThreadASMFirstTime
                0x00000000c0000277                switchToThreadASM
                0x00000000c00002ff                asmQuickAcquireLock
                0x00000000c000031d                asmQuickReleaseLock
                0x00000000c0000329                asmAcquireLock
                0x00000000c000034a                asmReleaseLock
                0x00000000c000035d                loadGDT
                0x00000000c000037d                memcpy
 *fill*         0x00000000c0000382        0xe 
 .text          0x00000000c0000390      0x79e acpica/utclib.32
                0x00000000c0000390                memcmp
                0x00000000c00003e0                memmove
                0x00000000c00004d0                memset
                0x00000000c0000540                strlen
                0x00000000c0000570                strpbrk
                0x00000000c00005b0                strtok
                0x00000000c0000600                strcpy
                0x00000000c0000630                strncpy
                0x00000000c00006e0                strcmp
                0x00000000c0000730                strchr
                0x00000000c0000760                strncmp
                0x00000000c00007c0                strcat
                0x00000000c00007f0                strncat
                0x00000000c0000850                strstr
                0x00000000c00008b0                toupper
                0x00000000c00008d0                tolower
                0x00000000c00008f0                simple_strtoul
 .text          0x00000000c0000b2e      0xfad core/malloc.32
                0x00000000c0000c99                dlfree
                0x00000000c0000ff4                dlmalloc
                0x00000000c0001531                dlrealloc
                0x00000000c00016d4                dlmemalign
                0x00000000c00017f7                dlcalloc
                0x00000000c0001891                dlcfree
                0x00000000c0001896                dlindependent_calloc
                0x00000000c00018bb                dlindependent_comalloc
                0x00000000c00018d2                dlvalloc
                0x00000000c00018fd                dlpvalloc
                0x00000000c0001933                dlmalloc_trim
                0x00000000c0001940                dlmalloc_usable_size
                0x00000000c0001971                dlmallinfo
                0x00000000c0001a40                dlmalloc_stats
                0x00000000c0001a51                dlmallopt
 *fill*         0x00000000c0001adb        0x1 
 .text          0x00000000c0001adc      0x1f2 libk/ctype.32
                0x00000000c0001adc                isblank
                0x00000000c0001afc                iscntrl
                0x00000000c0001b1c                isdigit
                0x00000000c0001b38                islower
                0x00000000c0001b54                isspace
                0x00000000c0001b7c                isupper
                0x00000000c0001b98                isalpha
                0x00000000c0001bc8                isalnum
                0x00000000c0001bf8                ispunct
                0x00000000c0001c38                isgraph
                0x00000000c0001c68                isprint
                0x00000000c0001c90                isxdigit
 .text          0x00000000c0001cce        0x0 libk/string.32
 .text          0x00000000c0001cce       0x51 fs/fat/diskio.32
                0x00000000c0001cce                disk_status
                0x00000000c0001cd1                disk_initialize
                0x00000000c0001cd4                disk_read
                0x00000000c0001cea                disk_write
                0x00000000c0001d00                disk_ioctl
 .text          0x00000000c0001d1f     0x3d4b fs/fat/ff.32
                0x00000000c0003abb                f_mount
                0x00000000c0003b1d                f_open
                0x00000000c0003de8                f_read
                0x00000000c0003fe7                f_write
                0x00000000c000421b                f_sync
                0x00000000c00042d0                f_close
                0x00000000c00042ff                f_lseek
                0x00000000c00044a6                f_opendir
                0x00000000c0004571                f_closedir
                0x00000000c0004593                f_readdir
                0x00000000c0004625                f_stat
                0x00000000c00046a4                f_getfree
                0x00000000c00047a6                f_truncate
                0x00000000c000488a                f_unlink
                0x00000000c00049ac                f_mkdir
                0x00000000c0004b47                f_rename
                0x00000000c0004cfd                f_chmod
                0x00000000c0004da6                f_utime
                0x00000000c0004e54                f_getlabel
                0x00000000c0004fa5                f_setlabel
                0x00000000c0005135                f_expand
                0x00000000c0005295                f_mkfs
 *fill*         0x00000000c0005a6a        0x2 
 .text          0x00000000c0005a6c       0x2f fs/fat/ffsystem.32
                0x00000000c0005a6c                ff_memalloc
                0x00000000c0005a84                ff_memfree
 *fill*         0x00000000c0005a9b        0x1 
 .text          0x00000000c0005a9c      0x2a8 fs/fat/ffunicode.32
                0x00000000c0005a9c                ff_uni2oem
                0x00000000c0005b3c                ff_oem2uni
                0x00000000c0005bb4                ff_wtoupper
 .text          0x00000000c0005d44      0xcbc fs/iso9660/iso9660.32
                0x00000000c0005f63                isoReadDiscSector
                0x00000000c0005ffe                strnicmp
                0x00000000c00062b1                stricmp
                0x00000000c00062fd                iso_open
                0x00000000c0006387                iso_close
                0x00000000c00063a5                iso_read
                0x00000000c00064bb                iso_seek
                0x00000000c000653f                iso_tell
                0x00000000c0006570                iso_total
                0x00000000c000659b                fn_postprocess
                0x00000000c00065c1                iso_readdir
                0x00000000c00067b2                iso_reset
                0x00000000c00067bf                init_percd
                0x00000000c00068ff                iso_ioctl
                0x00000000c0006907                fs_iso9660_init
                0x00000000c0006990                fs_iso9660_shutdown
 .text          0x00000000c0006a00      0x685 core/computer.32
                0x00000000c0006a00                Computer::close(int, int, void*)
                0x00000000c0006a45                Krnl::firstTask()
                0x00000000c0006b78                Computer::Computer()
                0x00000000c0006b78                Computer::Computer()
                0x00000000c0006c2a                Computer::setBootMessage(char const*)
                0x00000000c0006c2c                Computer::detectFeatures()
                0x00000000c0006e36                Computer::displayFeatures()
                0x00000000c0006e38                Computer::rdmsr(unsigned int)
                0x00000000c0006e64                Computer::wrmsr(unsigned int, unsigned long long)
                0x00000000c0006e9c                Computer::shutdown()
                0x00000000c0006eb4                Computer::restart()
                0x00000000c0006ecc                Computer::sleep()
                0x00000000c0006ee0                Computer::nmiEnabled()
                0x00000000c0006eec                Computer::readCMOS(unsigned char)
                0x00000000c0006f06                Computer::enableNMI(bool)
                0x00000000c0006f1e                Computer::open(int, int, void*)
                0x00000000c0006ff2                Computer::disableNMI()
                0x00000000c0007002                Computer::writeCMOS(unsigned char, unsigned char)
                0x00000000c0007020                Computer::handleNMI()
 *fill*         0x00000000c0007085        0x1 
 .text          0x00000000c0007086      0x1cf core/gdt.32
                0x00000000c0007086                GDTEntry::setBase(unsigned int)
                0x00000000c00070a2                GDTEntry::setLimit(unsigned int)
                0x00000000c00070c0                GDT::GDT()
                0x00000000c00070c0                GDT::GDT()
                0x00000000c00070d6                GDT::addEntry(GDTEntry)
                0x00000000c00070f8                GDT::getNumberOfEntries()
                0x00000000c0007100                GDT::flush()
                0x00000000c0007122                GDT::setup()
 .text          0x00000000c0007255       0x1d core/idle.32
                0x00000000c0007255                idleFunction(void*)
 *fill*         0x00000000c0007272        0x2 
 .text          0x00000000c0007274      0x464 core/idt.32
                0x00000000c0007274                IDTEntry::IDTEntry(bool)
                0x00000000c0007274                IDTEntry::IDTEntry(bool)
                0x00000000c00072e6                IDTEntry::setOffset(unsigned int)
                0x00000000c00072fc                IDT::IDT()
                0x00000000c00072fc                IDT::IDT()
                0x00000000c00072fe                IDT::getPointerToInvalidOpcodeEntryForF00F()
                0x00000000c0007306                IDT::addEntry(IDTEntry, int)
                0x00000000c0007320                IDT::addEntry(int, void (*)(), bool)
                0x00000000c0007358                IDT::flush()
                0x00000000c0007372                IDT::setup()
 .text          0x00000000c00076d8      0x183 core/kheap.32
                0x00000000c00076d8                sbrk
                0x00000000c000776d                mmap
                0x00000000c0007783                munmap
                0x00000000c0007799                liballoc_lock()
                0x00000000c00077a6                liballoc_unlock()
                0x00000000c00077ba                liballoc_alloc(int)
                0x00000000c00077d2                liballoc_free(void*, int)
                0x00000000c00077ed                realloc
                0x00000000c0007801                malloc
                0x00000000c0007811                free
                0x00000000c0007821                rfree
                0x00000000c0007831                calloc
 .text          0x00000000c000785b       0xc3 core/main.32
                0x00000000c000785b                KeEntryPoint
 .text          0x00000000c000791e      0x5dc core/physmgr.32
                0x00000000c000791e                Phys::allocateDMA(unsigned long)
                0x00000000c00079f5                Phys::freeDMA(unsigned long, unsigned long)
                0x00000000c0007a28                Phys::setPageState(unsigned long, bool)
                0x00000000c0007a5a                Phys::getPageState(unsigned long)
                0x00000000c0007a7b                Phys::freePage(unsigned long)
                0x00000000c0007add                Phys::allocatePage()
                0x00000000c0007b9b                Phys::allocateContiguousPages(int)
                0x00000000c0007bf7                Phys::allowSegmentToBeUsed(unsigned long, unsigned long)
                0x00000000c0007c2f                Phys::physicalMemorySetup(unsigned int)
 .text          0x00000000c0007efa      0x273 core/pipe.32
                0x00000000c0007efa                Pipe::isAtty()
                0x00000000c0007efe                Pipe::~Pipe()
                0x00000000c0007efe                Pipe::~Pipe()
                0x00000000c0007f22                Pipe::~Pipe()
                0x00000000c0007f4a                Pipe::write(unsigned long long, void*, int*)
                0x00000000c000800a                Pipe::read(unsigned long long, void*, int*)
                0x00000000c0008106                Pipe::Pipe(int)
                0x00000000c0008106                Pipe::Pipe(int)
 *fill*         0x00000000c000816d        0x1 
 .text          0x00000000c000816e      0xa1e core/terminal.32
                0x00000000c000816e                VgaText::isAtty()
                0x00000000c0008172                VgaText::~VgaText()
                0x00000000c0008172                VgaText::~VgaText()
                0x00000000c0008196                VgaText::~VgaText()
                0x00000000c00081c0                VgaText::read(unsigned long long, void*, int*)
                0x00000000c00081e0                setTerminalScrollLock(bool)
                0x00000000c00081e1                doTerminalCycle()
                0x00000000c00081e2                addToTerminalCycle(VgaText*)
                0x00000000c00081e3                scrollTerminalScrollLock(int)
                0x00000000c00081e4                VgaText::updateTitle()
                0x00000000c00081e6                VgaText::load()
                0x00000000c00081e8                VgaText::updateCursor()
                0x00000000c00081fe                VgaText::doANSI_SGR(int)
                0x00000000c0008272                VgaText::setDefaultBgColour(VgaColour)
                0x00000000c0008282                VgaText::setDefaultFgColour(VgaColour)
                0x00000000c0008292                VgaText::setDefaultColours(VgaColour, VgaColour)
                0x00000000c00082b2                VgaText::setTitleTextColour(VgaColour)
                0x00000000c00082be                VgaText::setTitleColour(VgaColour)
                0x00000000c00082ca                VgaText::setTitle(char*)
                0x00000000c00082cc                VgaText::combineColours(unsigned char, unsigned char)
                0x00000000c00082de                VgaText::scrollScreen()
                0x00000000c0008376                VgaText::combineCharAndColour(char, unsigned char)
                0x00000000c0008388                VgaText::writeCharacter(char, VgaColour, VgaColour, int, int)
                0x00000000c0008418                VgaText::getCursorX()
                0x00000000c0008420                VgaText::getCursorY()
                0x00000000c0008428                VgaText::setCursor(int, int)
                0x00000000c000843f                setActiveTerminal(VgaText*)
                0x00000000c000848a                VgaText::clearScreen()
                0x00000000c00084d8                VgaText::setCursorX(int)
                0x00000000c00084f0                VgaText::setCursorY(int)
                0x00000000c0008508                VgaText::incrementCursor(bool)
                0x00000000c000855c                VgaText::decrementCursor(bool)
                0x00000000c000857e                VgaText::putchar(char, VgaColour, VgaColour)
                0x00000000c000864c                VgaText::putchar(char)
                0x00000000c0008738                VgaText::putx(unsigned int)
                0x00000000c000877e                VgaText::puts(char const*)
                0x00000000c00087a4                VgaText::write(unsigned long long, void*, int*)
                0x00000000c00087f0                VgaText::puts(char const*, VgaColour, VgaColour)
                0x00000000c0008942                VgaText::VgaText(char const*)
                0x00000000c0008942                VgaText::VgaText(char const*)
                0x00000000c0008a8e                VgaText::receiveKey(unsigned char)
                0x00000000c0008b66                VgaText::doUpdate()
                0x00000000c0008b67                newTerminal(char*)
 .text          0x00000000c0008b8c      0x1a1 core/tss.32
                0x00000000c0008b8c                TSS::TSS()
                0x00000000c0008b8c                TSS::TSS()
                0x00000000c0008b9c                TSS::setESP(unsigned long)
                0x00000000c0008bb0                TSS::flush()
                0x00000000c0008bd0                TSS::setup(unsigned long, unsigned long)
 *fill*         0x00000000c0008d2d        0x1 
 .text          0x00000000c0008d2e      0x4c2 core/unixfile.32
                0x00000000c0008d2e                ReservedFilename::read(unsigned long long, void*, int*)
                0x00000000c0008d84                ReservedFilename::isAtty()
                0x00000000c0008da0                ReservedFilename::write(unsigned long long, void*, int*)
                0x00000000c0008dfe                UnixFile::getFileDescriptor()
                0x00000000c0008e06                UnixFile::UnixFile(int)
                0x00000000c0008e06                UnixFile::UnixFile(int)
                0x00000000c0008fb6                ReservedFilename::ReservedFilename(int)
                0x00000000c0008fb6                ReservedFilename::ReservedFilename(int)
                0x00000000c0008fe8                UnixFile::~UnixFile()
                0x00000000c0008fe8                UnixFile::~UnixFile()
                0x00000000c0009080                UnixFile::~UnixFile()
                0x00000000c00090a8                ReservedFilename::~ReservedFilename()
                0x00000000c00090a8                ReservedFilename::~ReservedFilename()
                0x00000000c00090cc                ReservedFilename::~ReservedFilename()
                0x00000000c00090f3                getFromFileDescriptor(int)
 .text          0x00000000c00091f0     0x1166 core/virtmgr.32
                0x00000000c00091f0                Virt::setPageState(unsigned long, Virt::VirtPageState)
                0x00000000c0009225                Virt::getPageState(unsigned long)
                0x00000000c0009249                Virt::allocateKernelVirtualPages(int)
                0x00000000c000935a                Virt::freeSwapfilePage(unsigned long)
                0x00000000c0009378                Virt::swapIDToSector(unsigned long)
                0x00000000c000938a                Virt::allocateSwapfilePage()
                0x00000000c0009408                Virt::virtualMemorySetup()
                0x00000000c0009453                Virt::setupPageSwapping(int)
                0x00000000c00094c4                VAS::VAS()
                0x00000000c00094c4                VAS::VAS()
                0x00000000c0009500                VAS::VAS(VAS*)
                0x00000000c0009500                VAS::VAS(VAS*)
                0x00000000c000952e                VAS::getForeignPageTableEntry(bool, unsigned long)
                0x00000000c000955a                VAS::getPageTableEntry(unsigned long)
                0x00000000c0009579                Virt::freeKernelVirtualPages(unsigned long)
                0x00000000c000969e                VAS::freeAllocatedPages(unsigned long)
                0x00000000c00096c2                VAS::virtualToPhysical(unsigned long)
                0x00000000c00096dc                VAS::reflagRange(unsigned long, int, int, int)
                0x00000000c000971c                VAS::setToWriteCombining(unsigned long, int)
                0x00000000c0009750                VAS::mapOtherVASIn(bool, VAS*)
                0x00000000c000977a                VAS::~VAS()
                0x00000000c000977a                VAS::~VAS()
                0x00000000c00098de                VAS::mapPage(unsigned long, unsigned long, int)
                0x00000000c00099e2                VAS::allocatePages(int, int)
                0x00000000c0009bba                VAS::setCPUSpecific(unsigned long)
                0x00000000c0009bd8                VAS::mapRange(unsigned long, unsigned long, int, int)
                0x00000000c0009c9e                VAS::mapForeignPage(bool, VAS*, unsigned long, unsigned long, int)
                0x00000000c0009d8c                VAS::VAS(bool)
                0x00000000c0009d8c                VAS::VAS(bool)
                0x00000000c000a00c                VAS::evict(unsigned long)
                0x00000000c000a0ce                VAS::tryLoadBackOffDisk(unsigned long)
                0x00000000c000a1bc                VAS::scanForEviction()
                0x00000000c000a29c                mapVASFirstTime
 .text          0x00000000c000a356       0x5f coreobjs/c++.32
                0x00000000c000a356                __cxa_atexit
                0x00000000c000a359                __cxa_finalize
                0x00000000c000a35a                __stack_chk_fail
                0x00000000c000a390                __cxa_pure_virtual
                0x00000000c000a3a1                operator new[](unsigned long)
                0x00000000c000a3a6                operator delete(void*, unsigned long)
                0x00000000c000a3ab                operator delete[](void*)
                0x00000000c000a3b0                operator delete[](void*, unsigned long)
 .text          0x00000000c000a3b5      0x21c dbg/kconsole.32
                0x00000000c000a3b5                Dbg::stringifyxWithBase(unsigned int, char*, int)
                0x00000000c000a420                Dbg::logc(char)
                0x00000000c000a440                Dbg::logs(char*)
                0x00000000c000a45d                Dbg::logWriteInt(unsigned int)
                0x00000000c000a47b                Dbg::logWriteIntBase(unsigned int, int)
                0x00000000c000a49c                Dbg::kprintf(char const*, ...)
 *fill*         0x00000000c000a5d1        0x1 
 .text          0x00000000c000a5d2      0xc5c fs/vfs.32
                0x00000000c000a5d2                File::read(unsigned long long, void*, int*)
                0x00000000c000a62a                File::write(unsigned long long, void*, int*)
                0x00000000c000a682                Directory::read(unsigned long long, void*, int*)
                0x00000000c000a6da                Directory::write(unsigned long long, void*, int*)
                0x00000000c000a708                File::isAtty()
                0x00000000c000a70c                Directory::isAtty()
                0x00000000c000a710                Filesystem::getlabel(LogicalDisk*, int, char*, unsigned int*)
                0x00000000c000a716                Filesystem::setlabel(LogicalDisk*, int, char*)
                0x00000000c000a71c                Filesystem::allocateSwapfile(char const*, int)
                0x00000000c000a722                File::~File()
                0x00000000c000a722                File::~File()
                0x00000000c000a746                File::~File()
                0x00000000c000a770                Directory::~Directory()
                0x00000000c000a770                Directory::~Directory()
                0x00000000c000a794                Directory::~Directory()
                0x00000000c000a7be                Filesystem::Filesystem()
                0x00000000c000a7be                Filesystem::Filesystem()
                0x00000000c000a7e2                Filesystem::~Filesystem()
                0x00000000c000a7e2                Filesystem::~Filesystem()
                0x00000000c000a7f0                Filesystem::~Filesystem()
                0x00000000c000a814                Fs::getcwd(Process*, char*, int)
                0x00000000c000a83e                Fs::initVFS()
                0x00000000c000a868                Fs::standardiseFiles(char*, char const*, char const*)
                0x00000000c000aa12                File::File(char const*, Process*)
                0x00000000c000aa12                File::File(char const*, Process*)
                0x00000000c000aad2                File::open(FileOpenMode)
                0x00000000c000ab30                File::close()
                0x00000000c000ab90                File::seek(unsigned long long)
                0x00000000c000abe6                File::tell(unsigned long long*)
                0x00000000c000ac36                File::rewind()
                0x00000000c000ac4a                File::unlink()
                0x00000000c000ac96                File::rename(char const*)
                0x00000000c000ace4                File::chfatattr(unsigned char, unsigned char)
                0x00000000c000ad40                File::exists()
                0x00000000c000ad7e                File::stat(unsigned long long*, bool*)
                0x00000000c000addf                Fs::setcwd(Process*, char*)
                0x00000000c000af3c                Directory::Directory(char const*, Process*)
                0x00000000c000af3c                Directory::Directory(char const*, Process*)
                0x00000000c000affc                Directory::open()
                0x00000000c000b058                Directory::close()
                0x00000000c000b0b8                Directory::unlink()
                0x00000000c000b104                Directory::rename(char const*)
                0x00000000c000b152                Directory::exists()
                0x00000000c000b190                Directory::read(dirent*)
                0x00000000c000b1dc                Directory::create()
                0x00000000c000b228                Filesystem::chfatattr(char const*, unsigned char, unsigned char)
 *fill*         0x00000000c000b22e        0x2 
 .text          0x00000000c000b230       0x86 hal/bus.32
                0x00000000c000b230                Bus::Bus(char const*)
                0x00000000c000b230                Bus::Bus(char const*)
                0x00000000c000b268                Bus::~Bus()
                0x00000000c000b268                Bus::~Bus()
                0x00000000c000b28c                Bus::~Bus()
 .text          0x00000000c000b2b6       0x96 hal/buzzer.32
                0x00000000c000b2b6                beepThread(void*)
                0x00000000c000b2f3                Krnl::beep(int, int, bool)
 .text          0x00000000c000b34c      0x46d hal/clock.32
                0x00000000c000b34c                User::loadClockSettings(int)
                0x00000000c000b39e                Clock::Clock(char const*)
                0x00000000c000b39e                Clock::Clock(char const*)
                0x00000000c000b3d4                Clock::~Clock()
                0x00000000c000b3d4                Clock::~Clock()
                0x00000000c000b3f8                Clock::~Clock()
                0x00000000c000b422                Clock::timeInSecondsLocal()
                0x00000000c000b46a                Clock::setTimeInSecondsLocal(unsigned long long)
                0x00000000c000b4c3                datetimeToSeconds(datetime_t)
                0x00000000c000b5f0                Clock::setTimeInDatetimeLocal(datetime_t)
                0x00000000c000b650                secondsToDatetime(unsigned long long)
                0x00000000c000b794                Clock::timeInDatetimeLocal()
 *fill*         0x00000000c000b7b9        0x1 
 .text          0x00000000c000b7ba      0x464 hal/device.32
                0x00000000c000b7ba                Device::hibernate()
                0x00000000c000b7bc                Device::wake()
                0x00000000c000b7be                Device::detect()
                0x00000000c000b7c0                Device::disableLegacy()
                0x00000000c000b7c2                Device::powerSaving(PowerSavingLevel)
                0x00000000c000b7c4                DriverlessDevice::close(int, int, void*)
                0x00000000c000b7c8                DriverlessDevice::detect()
                0x00000000c000b7ca                DriverlessDevice::open(int, int, void*)
                0x00000000c000b7de                Device::~Device()
                0x00000000c000b7de                Device::~Device()
                0x00000000c000b7ec                Device::~Device()
                0x00000000c000b814                Device::findAndLoadDriver()
                0x00000000c000b822                Device::preOpenPCI(PCIDeviceInfo)
                0x00000000c000b848                Device::preOpenACPI(void*, char*, char*)
                0x00000000c000b888                Device::addIRQHandler(int, void (*)(regs*, void*), bool, void*)
                0x00000000c000b8b2                Device::getParent()
                0x00000000c000b8be                Device::removeIRQHandler(int, void (*)(regs*, void*), bool)
                0x00000000c000b8dc                Device::addChild(Device*)
                0x00000000c000b920                Device::removeAllChildren()
                0x00000000c000b966                Device::hibernateAll()
                0x00000000c000b996                Device::wakeAll()
                0x00000000c000b9c6                Device::detectAll()
                0x00000000c000b9f6                Device::disableLegacyAll()
                0x00000000c000b9f8                Device::loadDriversForAll()
                0x00000000c000b9fa                Device::closeAll()
                0x00000000c000ba30                Device::powerSavingAll(PowerSavingLevel)
                0x00000000c000ba66                Device::setName(char const*)
                0x00000000c000ba74                Device::Device(char const*)
                0x00000000c000ba74                Device::Device(char const*)
                0x00000000c000bb70                Device::getName()
                0x00000000c000bb7a                DriverlessDevice::DriverlessDevice(char const*)
                0x00000000c000bb7a                DriverlessDevice::DriverlessDevice(char const*)
                0x00000000c000bbb0                Device::addToLinkedList(LinkedList<Device>&, DeviceType)
                0x00000000c000bbf4                getDevicesOfType(DeviceType)
 *fill*         0x00000000c000bc1e        0x2 
 .text          0x00000000c000bc20       0x86 hal/diskctrl.32
                0x00000000c000bc20                HardDiskController::HardDiskController(char const*)
                0x00000000c000bc20                HardDiskController::HardDiskController(char const*)
                0x00000000c000bc58                HardDiskController::~HardDiskController()
                0x00000000c000bc58                HardDiskController::~HardDiskController()
                0x00000000c000bc7c                HardDiskController::~HardDiskController()
 .text          0x00000000c000bca6       0xe2 hal/diskphys.32
                0x00000000c000bca6                PhysicalDisk::eject()
                0x00000000c000bcaa                PhysicalDisk::PhysicalDisk(char const*, int)
                0x00000000c000bcaa                PhysicalDisk::PhysicalDisk(char const*, int)
                0x00000000c000bd12                PhysicalDisk::startCache()
                0x00000000c000bd3a                PhysicalDisk::~PhysicalDisk()
                0x00000000c000bd3a                PhysicalDisk::~PhysicalDisk()
                0x00000000c000bd5e                PhysicalDisk::~PhysicalDisk()
 .text          0x00000000c000bd88        0x0 hal/fpu.32
 .text          0x00000000c000bd88      0x35d hal/intctrl.32
                0x00000000c000bd88                int_handler
                0x00000000c000be10                installISRHandler(int, void (*)(regs*, void*), void*)
                0x00000000c000be58                installIRQHandler(int, void (*)(regs*, void*), bool, void*)
                0x00000000c000bf90                uninstallISRHandler(int, void (*)(regs*, void*))
                0x00000000c000bfc4                uninstallIRQHandler(int, void (*)(regs*, void*), bool)
                0x00000000c000c043                setupINTS()
                0x00000000c000c0a0                convertLegacyIRQNumber(int)
 *fill*         0x00000000c000c0e5        0x1 
 .text          0x00000000c000c0e6      0x78c hal/keybrd.32
                0x00000000c000c0e6                startGUI(void*)
                0x00000000c000c152                startGUIVESA(void*)
                0x00000000c000c1be                sendKeyToTerminal(unsigned char)
                0x00000000c000c281                sendKeyboardToken(KeyboardToken)
                0x00000000c000c6c1                clearInternalKeybuffer(VgaText*)
                0x00000000c000c6f6                readKeyboard(VgaText*, char*, unsigned long)
                0x00000000c000c7e8                Keyboard::Keyboard(char const*)
                0x00000000c000c7e8                Keyboard::Keyboard(char const*)
                0x00000000c000c824                Keyboard::~Keyboard()
                0x00000000c000c824                Keyboard::~Keyboard()
                0x00000000c000c848                Keyboard::~Keyboard()
 .text          0x00000000c000c872      0x3ea hal/logidisk.32
                0x00000000c000c872                LogicalDisk::close(int, int, void*)
                0x00000000c000c876                LogicalDisk::~LogicalDisk()
                0x00000000c000c876                LogicalDisk::~LogicalDisk()
                0x00000000c000c89a                LogicalDisk::~LogicalDisk()
                0x00000000c000c8c4                LogicalDisk::open(int, int, void*)
                0x00000000c000c8d8                LogicalDisk::absoluteToRelative(unsigned long long)
                0x00000000c000c910                LogicalDisk::relativeToAbsolute(unsigned long long)
                0x00000000c000c956                LogicalDisk::LogicalDisk(char const*, PhysicalDisk*, unsigned long long, unsigned long long)
                0x00000000c000c956                LogicalDisk::LogicalDisk(char const*, PhysicalDisk*, unsigned long long, unsigned long long)
                0x00000000c000ca0c                LogicalDisk::assignDriveLetter()
                0x00000000c000cac2                LogicalDisk::mount()
                0x00000000c000cb0a                LogicalDisk::unmount()
                0x00000000c000cb1a                LogicalDisk::eject()
                0x00000000c000cb2e                LogicalDisk::unassignDriveLetter()
                0x00000000c000cb84                LogicalDisk::read(unsigned long long, int, void*)
                0x00000000c000cbf0                LogicalDisk::write(unsigned long long, int, void*)
 .text          0x00000000c000cc5c       0x86 hal/mouse.32
                0x00000000c000cc5c                Mouse::Mouse(char const*)
                0x00000000c000cc5c                Mouse::Mouse(char const*)
                0x00000000c000cc94                Mouse::~Mouse()
                0x00000000c000cc94                Mouse::~Mouse()
                0x00000000c000ccb8                Mouse::~Mouse()
 .text          0x00000000c000cce2      0x339 hal/partition.32
                0x00000000c000cce2                makePartition(PhysicalDisk*, unsigned long long, unsigned long long)
                0x00000000c000cd8a                createPartitionsForDisk(PhysicalDisk*)
 *fill*         0x00000000c000d01b        0x1 
 .text          0x00000000c000d01c       0x86 hal/serial.32
                0x00000000c000d01c                Serial::Serial(char const*)
                0x00000000c000d01c                Serial::Serial(char const*)
                0x00000000c000d054                Serial::~Serial()
                0x00000000c000d054                Serial::~Serial()
                0x00000000c000d078                Serial::~Serial()
 *fill*         0x00000000c000d0a2        0x2 
 .text          0x00000000c000d0a4      0x234 hal/timer.32
                0x00000000c000d0a4                Timer::Timer(char const*)
                0x00000000c000d0a4                Timer::Timer(char const*)
                0x00000000c000d0dc                Timer::~Timer()
                0x00000000c000d0dc                Timer::~Timer()
                0x00000000c000d100                Timer::~Timer()
                0x00000000c000d12a                Timer::read()
                0x00000000c000d135                setupTimer(int)
                0x00000000c000d170                timerHandler(unsigned int)
 .text          0x00000000c000d2d8      0x3ee hal/vcache.32
                0x00000000c000d2d8                VCache::VCache(PhysicalDisk*)
                0x00000000c000d2d8                VCache::VCache(PhysicalDisk*)
                0x00000000c000d440                VCache::invalidateReadBuffer()
                0x00000000c000d450                VCache::writeWriteBuffer()
                0x00000000c000d49c                VCache::~VCache()
                0x00000000c000d49c                VCache::~VCache()
                0x00000000c000d4f0                VCache::~VCache()
                0x00000000c000d518                VCache::write(unsigned long long, int, void*)
                0x00000000c000d62e                VCache::read(unsigned long long, int, void*)
 .text          0x00000000c000d6c6      0x4b3 hal/video.32
                0x00000000c000d6c6                Video::putrect(int, int, int, int, unsigned int)
                0x00000000c000d712                Video::bitblit(int, int, int, int, int, int, int, unsigned int*)
                0x00000000c000d782                Video::blit(unsigned int*, int, int, int, int)
                0x00000000c000d800                Video::clearScreen(unsigned int)
                0x00000000c000d834                Video::putpixel(int, int, unsigned int)
                0x00000000c000d842                Video::Video(char const*)
                0x00000000c000d842                Video::Video(char const*)
                0x00000000c000d878                Video::~Video()
                0x00000000c000d878                Video::~Video()
                0x00000000c000d89c                Video::~Video()
                0x00000000c000d8c6                Video::isMonochrome()
                0x00000000c000d8d2                Video::getWidth()
                0x00000000c000d8de                Video::getHeight()
                0x00000000c000d8ea                Video::drawCursor(int, int, unsigned char*, int)
                0x00000000c000d9a6                Video::tgaParse(unsigned char*, int, int*, int*)
                0x00000000c000db0e                Video::putTGA(int, int, unsigned char*, int)
 *fill*         0x00000000c000db79        0x3 
 .text          0x00000000c000db7c     0x1307 hw/acpi.32
                0x00000000c000db7c                ACPI::close(int, int, void*)
                0x00000000c000dc34                findRSDP()
                0x00000000c000dcc4                loadACPITables(unsigned char*)
                0x00000000c000df28                findRSDT(unsigned char*)
                0x00000000c000e078                findDataTable(unsigned char*, char*)
                0x00000000c000e0f0                scanMADT()
                0x00000000c000e5c4                ACPI::ACPI()
                0x00000000c000e5c4                ACPI::ACPI()
                0x00000000c000e618                ACPI::getPCIIRQAssignment(unsigned char, unsigned short, unsigned char)
                0x00000000c000e700                ACPI::registerPCIIRQAssignment(void*, unsigned short, unsigned char, unsigned char)
                0x00000000c000e7c8                ACPI::setScreenBrightnessLevel(void*, int)
                0x00000000c000e7d0                ACPI::detectPCI()
                0x00000000c000e9d8                ACPI::writeSimpleBootFlag(SimpleBootFlagTable*)
                0x00000000c000ea2c                ACPI::sleep()
                0x00000000c000ea48                ACPI::open(int, int, void*)
 *fill*         0x00000000c000ee83        0x1 
 .text          0x00000000c000ee84      0xb95 hw/cpu.32
                0x00000000c000ee84                CPU::close(int, int, void*)
                0x00000000c000ee88                CPU::AMD_K6_write_msr(unsigned int, unsigned int, unsigned int, CPU::REGS*)
                0x00000000c000eea4                CPU::AMD_K6_read_msr(unsigned int, CPU::REGS*)
                0x00000000c000eebc                CPU::AMD_K6_writeback(int, int, int)
                0x00000000c000ef30                CPU::cpuid(int, unsigned long*, unsigned long*, unsigned long*, unsigned long*)
                0x00000000c000efb4                CPU::cpuidCheckEDX(unsigned int)
                0x00000000c000efe2                CPU::cpuidCheckECX(unsigned int)
                0x00000000c000f010                CPU::cpuidCheckExtendedEBX(unsigned int)
                0x00000000c000f03e                CPU::cpuidCheckExtendedECX(unsigned int)
                0x00000000c000f06c                CPU::CPU()
                0x00000000c000f06c                CPU::CPU()
                0x00000000c000f0fa                CPU::displayFeatures()
                0x00000000c000f0fc                CPU::detectFeatures()
                0x00000000c000f7c0                CPU::setupSMEP()
                0x00000000c000f7cc                CPU::setupUMIP()
                0x00000000c000f7d6                CPU::setupTSC()
                0x00000000c000f7e0                CPU::setupLargePages()
                0x00000000c000f7ea                CPU::setupPAT()
                0x00000000c000f826                CPU::setupMTRR()
                0x00000000c000f828                CPU::setupGlobalPages()
                0x00000000c000f832                CPU::allowUsermodeDataAccess()
                0x00000000c000f844                CPU::prohibitUsermodeDataAccess()
                0x00000000c000f856                CPU::setupSMAP()
                0x00000000c000f864                CPU::setupFeatures()
                0x00000000c000f930                CPU::open(int, int, void*)
 .text          0x00000000c000fa19       0xd1 krnl/bootmsg.32
                0x00000000c000fa19                KeDisplaySplashScreen()
                0x00000000c000fa87                KeSetBootMessage(char const*)
 .text          0x00000000c000faea      0x581 krnl/env.32
                0x00000000c000faea                EnvVarContainer::getEnv(char const*)
                0x00000000c000fb28                EnvVarContainer::setEnv(char const*, char const*)
                0x00000000c000fbea                EnvVarContainer::deleteEnv(char const*)
                0x00000000c000fbec                EnvVarContainer::loadFrom(char const*, char const*)
                0x00000000c000fdd2                EnvVarContainer::__loadSystem()
                0x00000000c000fdec                EnvVarContainer::__loadUser()
                0x00000000c000fdee                EnvVarContainer::EnvVarContainer(Process*)
                0x00000000c000fdee                EnvVarContainer::EnvVarContainer(Process*)
                0x00000000c000fe10                EnvVarContainer::~EnvVarContainer()
                0x00000000c000fe10                EnvVarContainer::~EnvVarContainer()
                0x00000000c000fe40                Krnl::getEnv(Process*, char const*)
                0x00000000c000fea5                Krnl::setEnvSystem(char const*, char const*)
                0x00000000c000febf                Krnl::setEnvUser(char const*, char const*)
                0x00000000c000fede                Krnl::setEnvProcess(Process*, char const*, char const*)
                0x00000000c000fef1                Krnl::deleteEnvSystem(char const*)
                0x00000000c000fef2                Krnl::deleteEnvUser(char const*)
                0x00000000c000fef3                Krnl::deleteEnvProcess(Process*, char const*)
                0x00000000c000fef4                Krnl::newProcessEnv(Process*)
                0x00000000c000ff16                Krnl::copyProcessEnv(Process*, Process*)
                0x00000000c000ff62                Krnl::loadSystemEnv()
                0x00000000c000ff90                Krnl::loadUserEnv()
                0x00000000c000ffb6                Krnl::flushEnv()
                0x00000000c000ffb7                Krnl::getProcessTotalEnvCount(Process*)
                0x00000000c000ffd7                Krnl::getProcessEnvPair(Process*, int)
 .text          0x00000000c001006b       0x94 krnl/inlines.32
                0x00000000c001006b                CPU::current()
                0x00000000c0010077                operator new(unsigned long)
                0x00000000c001007c                operator delete(void*)
                0x00000000c0010081                disableIRQs()
                0x00000000c0010083                enableIRQs()
                0x00000000c0010085                lockScheduler()
                0x00000000c001008d                unlockScheduler()
                0x00000000c001009c                lockStuff()
                0x00000000c00100aa                unlockStuff()
                0x00000000c00100e4                Virt::getAKernelVAS()
                0x00000000c00100ea                __not_memcpy
 .text          0x00000000c00100ff        0xc krnl/panic.32
                0x00000000c00100ff                KePanic(char const*)
 .text          0x00000000c001010b      0x142 krnl/powctrl.32
                0x00000000c001010b                Krnl::powerThread(void*)
                0x00000000c0010139                Krnl::changePowerSettings(Krnl::PowerSettings)
                0x00000000c001014f                Krnl::userIOReceived()
                0x00000000c001015a                Krnl::handlePowerButton()
                0x00000000c001018f                Krnl::handleSleepButton()
                0x00000000c00101c4                Krnl::setupPowerManager()
 *fill*         0x00000000c001024d        0x3 
 .text          0x00000000c0010250      0x190 krnl/resolve.32
                0x00000000c0010250                KeResolveCompatibilitySymbol(char*)
 .text          0x00000000c00103e0      0xc41 krnl/syscalls.32
                0x00000000c00103e0                SysSeekDir(regs*)
                0x00000000c00103e5                SysTellDir(regs*)
                0x00000000c00103ea                SysVerify(regs*)
                0x00000000c00103f4                SysGetArgc(regs*)
                0x00000000c0010404                SysTTYName(regs*)
                0x00000000c001040c                SysFormatDisk(regs*)
                0x00000000c0010479                SysSetDiskVolumeLabel(regs*)
                0x00000000c00104c3                SysGetDiskVolumeLabel(regs*)
                0x00000000c0010518                SysShutdown(regs*)
                0x00000000c0010576                SysRealpath(regs*)
                0x00000000c00105b9                SysReadDir(regs*)
                0x00000000c0010639                SysIsATTY(regs*)
                0x00000000c0010695                SysSeek(regs*)
                0x00000000c00106ee                SysTell(regs*)
                0x00000000c001075d                SysSize(regs*)
                0x00000000c00107d2                SysSizeFromFilename(regs*)
                0x00000000c0010885                SysClose(regs*)
                0x00000000c00108e5                SysOpenDir(regs*)
                0x00000000c001095c                SysCloseDir(regs*)
                0x00000000c00109b0                SysMakeDir(regs*)
                0x00000000c0010a22                SysWait(regs*)
                0x00000000c0010a3f                SysNotImpl(regs*)
                0x00000000c0010a5a                SysPanic(regs*)
                0x00000000c0010a75                SysRmdir(regs*)
                0x00000000c0010adc                SysUnlink(regs*)
                0x00000000c0010b43                SysGetArgv(regs*)
                0x00000000c0010b90                SysUSleep(regs*)
                0x00000000c0010bb9                SysSpawn(regs*)
                0x00000000c0010c22                SysGetEnv(regs*)
                0x00000000c0010cd1                SysSetFatAttrib(regs*)
                0x00000000c0010d48                SysPipe(regs*)
                0x00000000c0010d8d                SysGetUnixTime(regs*)
                0x00000000c0010da1                string_ends_with(char const*, char const*)
                0x00000000c0010deb                SysOpen(regs*)
                0x00000000c0010fdf                KeSystemCall(regs*, void*)
 .text          0x00000000c0011021      0x50e reg/registry.32
                0x00000000c0011021                Reg::findLineFromLoadedData(char*, char*, char*)
                0x00000000c0011179                Reg::getLineFromRegistry(char*, char*, char*, char*)
                0x00000000c00112ce                Reg::getLine(char*, char*, char*)
                0x00000000c0011305                Reg::readInt(char*, char*, int*)
                0x00000000c00113f0                Reg::readString(char*, char*, char*, int)
                0x00000000c0011471                Reg::readBool(char*, char*, bool*)
                0x00000000c0011496                Reg::readBoolWithDefault(char*, char*, bool)
                0x00000000c00114c2                Reg::readIntWithDefault(char*, char*, int)
                0x00000000c00114ee                Reg::readStringWithDefault(char*, char*, char*, int, char*)
 .text          0x00000000c001152f       0x36 sys/eject.32
                0x00000000c001152f                SysEject(regs*)
 .text          0x00000000c0011565       0x18 sys/exit.32
                0x00000000c0011565                SysExit(regs*)
 .text          0x00000000c001157d       0x1f sys/getcwd.32
                0x00000000c001157d                SysGetCwd(regs*)
 .text          0x00000000c001159c        0xc sys/getpid.32
                0x00000000c001159c                SysGetPID(regs*)
 .text          0x00000000c00115a8       0x1a sys/getramdata.32
                0x00000000c00115a8                SysGetRAMData(regs*)
 .text          0x00000000c00115c2       0x82 sys/getvgaptr.32
                0x00000000c00115c2                SysGetVGAPtr(regs*)
 .text          0x00000000c0011644       0xa8 sys/loaddll.32
                0x00000000c0011644                SysLoadDLL(regs*)
 .text          0x00000000c00116ec       0x68 sys/read.32
                0x00000000c00116ec                SysRead(regs*)
 .text          0x00000000c0011754       0x55 sys/sbrk.32
                0x00000000c0011754                SysSbrk(regs*)
 .text          0x00000000c00117a9       0x1c sys/setcwd.32
                0x00000000c00117a9                SysSetCwd(regs*)
 .text          0x00000000c00117c5       0x95 sys/settime.32
                0x00000000c00117c5                SysSetTime(regs*)
 .text          0x00000000c001185a       0x4a sys/timezone.32
                0x00000000c001185a                SysTimezone(regs*)
 .text          0x00000000c00118a4       0x68 sys/write.32
                0x00000000c00118a4                SysWrite(regs*)
 .text          0x00000000c001190c       0x62 sys/wsbe.32
                0x00000000c001190c                SysWsbe(regs*)
 .text          0x00000000c001196e       0x25 sys/yield.32
                0x00000000c001196e                SysYield(regs*)
 .text          0x00000000c0011993     0x11e5 thr/elf.32
                0x00000000c0011993                Thr::allocateMemoryForTask(Process*, File*, unsigned long, unsigned long, unsigned long)
                0x00000000c0011c1f                Thr::loadProgramIntoMemory(Process*, char const*)
                0x00000000c0011e35                Thr::runtimeReferenceHelper()
                0x00000000c0011e48                Thr::getAddressOfKernelSymbol(char const*)
                0x00000000c0011e97                Thr::loadKernelSymbolTable(char const*)
                0x00000000c0012155                Thr::loadDriverIntoMemory(char const*, unsigned long, bool)
                0x00000000c001288b                Thr::getDriverBaseFromAddress(unsigned long)
                0x00000000c00128bd                Thr::getDriverNameFromAddress(unsigned long)
                0x00000000c00128f4                Thr::getDriverOffsetFromAddress(unsigned long)
                0x00000000c001290e                Thr::loadDLL(char const*, bool)
                0x00000000c0012b3f                Thr::executeDLL(unsigned long, void*)
 .text          0x00000000c0012b78     0x12c5 thr/prcssthr.32
                0x00000000c0012b78                userModeEntryPoint(void*)
                0x00000000c0012ba0                changeTSS
                0x00000000c0012bd0                switchToThread(ThreadControlBlock*)
                0x00000000c0012c84                Process::addArgs(char**)
                0x00000000c0012ce4                Process::Process(char const*, Process*, char**)
                0x00000000c0012ce4                Process::Process(char const*, Process*, char**)
                0x00000000c0012ed4                Process::Process(bool, char const*, Process*, char**)
                0x00000000c0012ed4                Process::Process(bool, char const*, Process*, char**)
                0x00000000c0013090                taskStartupFunction
                0x00000000c001309c                Semaphore::Semaphore(int)
                0x00000000c001309c                Semaphore::Semaphore(int)
                0x00000000c00130cc                Mutex::Mutex()
                0x00000000c00130cc                Mutex::Mutex()
                0x00000000c00130e0                Process::createThread(void (*)(void*), void*, int)
                0x00000000c00131d8                Process::createUserThread()
                0x00000000c00131f8                setupMultitasking(void (*)())
                0x00000000c0013300                schedule()
                0x00000000c0013390                Semaphore::tryAcquire()
                0x00000000c001345c                Semaphore::assertLocked(char const*)
                0x00000000c00134d4                blockTaskWithSchedulerLockAlreadyHeld(TaskState)
                0x00000000c00134fc                blockTask(TaskState)
                0x00000000c001352c                waitTask(int, int*, int)
                0x00000000c0013570                milliTenthSleepUntil(unsigned int)
                0x00000000c0013600                milliTenthSleep(unsigned int)
                0x00000000c0013610                sleep(unsigned int)
                0x00000000c001362c                Semaphore::acquire()
                0x00000000c00136e8                taskReturned
                0x00000000c0013724                Thr::processFromPID(int)
                0x00000000c00137c4                unblockTask(ThreadControlBlock*)
                0x00000000c0013868                cleanupTerminatedTask(ThreadControlBlock*)
                0x00000000c0013b34                cleanerTaskFunction(void*)
                0x00000000c0013c24                terminateTask(int)
                0x00000000c0013cf0                Thr::terminateFromIRQ(int)
                0x00000000c0013d00                Semaphore::release()
 .text          0x00000000c0013e3d      0xb93 vm86/vm8086.32
                0x00000000c0013e3d                Vm::inbv(unsigned short)
                0x00000000c0013e50                Vm::outbv(unsigned short, unsigned char)
                0x00000000c0013e86                Vm::realToLinear(unsigned short, unsigned short)
                0x00000000c0013e96                Vm::getSegment(unsigned int)
                0x00000000c0013e9e                Vm::getOffset(unsigned int)
                0x00000000c0013ea3                Vm::mainloop2()
                0x00000000c0013edd                Vm::mainVm8086Loop(void*)
                0x00000000c0013eed                Vm::mainloop3(unsigned long)
                0x00000000c0013f13                Vm::initialise8086()
                0x00000000c0013f56                Vm::finish8086()
                0x00000000c0013fb7                Vm::getOutput8086(unsigned char*)
                0x00000000c0013fdc                Vm::start8086FromBuffer(unsigned char*, int, unsigned short, unsigned short, unsigned short, unsigned short)
                0x00000000c0014095                Vm::start8086(char const*, unsigned short, unsigned short, unsigned short, unsigned short)
                0x00000000c00141fd                Vm::doISR(regs*, int, unsigned char*, unsigned short, unsigned short)
                0x00000000c0014287                Vm::readByteFromReal(unsigned short, unsigned short)
                0x00000000c0014298                Vm::readWordFromReal(unsigned short, unsigned short)
                0x00000000c00142aa                Vm::readDwordFromReal(unsigned short, unsigned short)
                0x00000000c00142bb                Vm::writeByteFromReal(unsigned short, unsigned short, unsigned char)
                0x00000000c00142d0                Vm::writeWordFromReal(unsigned short, unsigned short, unsigned short)
                0x00000000c00142e6                Vm::writeDwordFromReal(unsigned short, unsigned short, unsigned int)
                0x00000000c00142fb                Vm::faultHandler(regs*)
 .text          0x00000000c00149d0      0xa53 arch/i386/hal.32
                0x00000000c00149d0                noCopro(unsigned long)
                0x00000000c00149d1                nmiHandler(regs*, void*)
                0x00000000c00149ea                doubleFault(regs*, void*)
                0x00000000c0014a03                displayDebugInfo(regs*)
                0x00000000c0014d24                HalSystemIdle()
                0x00000000c0014d9a                displayProgramFault(char const*)
                0x00000000c0014de6                gpFault(regs*, void*)
                0x00000000c0014e4b                pgFault(regs*, void*)
                0x00000000c0014ed1                otherISRHandler(regs*, void*)
                0x00000000c0014f05                opcodeFault(regs*, void*)
                0x00000000c0014f85                i386SaveCoprocessor(void*)
                0x00000000c0014f99                i386LoadCoprocessor(void*)
                0x00000000c0014fad                x87EmulHandler(regs*, void*)
                0x00000000c001504a                HalInitialiseCoprocessor()
                0x00000000c00150f8                HalPanic(char const*)
                0x00000000c00151f1                HalQueryPerformanceCounter()
                0x00000000c001520c                HalInitialise()
                0x00000000c00153b2                HalMakeBeep(int)
                0x00000000c00153ec                HalGetRand()
                0x00000000c00153ef                HalEndOfInterrupt(int)
                0x00000000c0015420                HalRestart()
                0x00000000c0015421                HalShutdown()
                0x00000000c0015422                HalSleep()
 *fill*         0x00000000c0015423        0x1 
 .text          0x00000000c0015424      0x2f4 arch/i386/pic.32
                0x00000000c0015424                picIoWait()
                0x00000000c001542c                picDisable()
                0x00000000c0015460                picGetIRQReg(int)
                0x00000000c00154e4                picOpen()
                0x00000000c0015674                picEOI(int)
 .text          0x00000000c0015718      0x64d arch/i386/rtc.32
                0x00000000c0015718                RTC::open(int, int, void*)
                0x00000000c001571c                RTC::close(int, int, void*)
                0x00000000c0015720                RTC::timeInSecondsUTC()
                0x00000000c0015732                RTC::timeInDatetimeUTC()
                0x00000000c0015758                RTC::setTimeInSecondsUTC(unsigned long long)
                0x00000000c0015796                RTC::~RTC()
                0x00000000c0015796                RTC::~RTC()
                0x00000000c00157ba                RTC::~RTC()
                0x00000000c00157e4                RTC::get_update_in_progress_flag()
                0x00000000c00157fc                RTC::completeRTCRefresh()
                0x00000000c0015ab4                RTC::setTimeInDatetimeUTC(datetime_t)
                0x00000000c0015c67                rtcIRQHandler(regs*, void*)
                0x00000000c0015cac                RTC::RTC()
                0x00000000c0015cac                RTC::RTC()
 *fill*         0x00000000c0015d65        0x3 
 .text          0x00000000c0015d68      0x203 arch/i386/vga.32
                0x00000000c0015d68                HalConsoleScroll(int, int)
                0x00000000c0015e70                HalConsoleWriteCharacter(char, int, int, int, int)
                0x00000000c0015edc                HalConsoleCursorUpdate(int, int)
 *fill*         0x00000000c0015f6b        0x1 
 .text          0x00000000c0015f6c     0x13e7 fs/fat/vfslink.32
                0x00000000c0015f6c                FAT::getName()
                0x00000000c0015f74                FAT::tell(void*, unsigned long long*)
                0x00000000c0015fb0                FAT::stat(void*, unsigned long long*)
                0x00000000c0015fec                FAT::~FAT()
                0x00000000c0015fec                FAT::~FAT()
                0x00000000c0016010                FAT::~FAT()
                0x00000000c0016038                FAT::getlabel(LogicalDisk*, int, char*, unsigned int*)
                0x00000000c00160dc                FAT::setlabel(LogicalDisk*, int, char*)
                0x00000000c00161a0                FAT::format(LogicalDisk*, int, char const*, int)
                0x00000000c0016374                FAT::tryMount(LogicalDisk*, int)
                0x00000000c001658c                FAT::allocateSwapfile(char const*, int)
                0x00000000c001674c                FAT::readDir(void*, unsigned long, void*, int*)
                0x00000000c00168b8                FAT::read(void*, unsigned long, void*, int*)
                0x00000000c0016918                FAT::write(void*, unsigned long, void*, int*)
                0x00000000c0016978                FAT::close(void*)
                0x00000000c00169cc                FAT::closeDir(void*)
                0x00000000c0016a20                FAT::seek(void*, unsigned long long)
                0x00000000c0016a78                fatWrapperReadDisk
                0x00000000c0016abc                fatWrapperWriteDisk
                0x00000000c0016b00                fatWrapperIoctl
                0x00000000c0016c1c                FAT::FAT()
                0x00000000c0016c1c                FAT::FAT()
                0x00000000c0016c70                FAT::fixFilepath(char*)
                0x00000000c0016cac                FAT::open(char const*, void**, FileOpenMode)
                0x00000000c0016de4                FAT::openDir(char const*, void**)
                0x00000000c0016e94                FAT::stat(char const*, unsigned long long*, bool*)
                0x00000000c0016f8c                FAT::unlink(char const*)
                0x00000000c001700c                FAT::chfatattr(char const*, unsigned char, unsigned char)
                0x00000000c0017198                FAT::rename(char const*, char const*)
                0x00000000c0017264                FAT::mkdir(char const*)
                0x00000000c00172e4                FAT::exists(char const*)
 *fill*         0x00000000c0017353        0x1 
 .text          0x00000000c0017354       0xc6 fs/iso9660/helper.32
                0x00000000c0017354                isoReadDiscSectorHelper
                0x00000000c00173b0                iso_kprintf
                0x00000000c00173d0                iso_kprintfd
 .text          0x00000000c001741a      0x58c fs/iso9660/vfslink.32
                0x00000000c001741a                ISO9660::format(LogicalDisk*, int, char const*, int)
                0x00000000c0017420                ISO9660::getName()
                0x00000000c0017426                ISO9660::closeDir(void*)
                0x00000000c0017430                ISO9660::chfatattr(char const*, unsigned char, unsigned char)
                0x00000000c0017436                ISO9660::unlink(char const*)
                0x00000000c001743c                ISO9660::write(void*, unsigned long, void*, int*)
                0x00000000c0017442                ISO9660::rename(char const*, char const*)
                0x00000000c0017448                ISO9660::mkdir(char const*)
                0x00000000c001744e                ISO9660::~ISO9660()
                0x00000000c001744e                ISO9660::~ISO9660()
                0x00000000c0017472                ISO9660::~ISO9660()
                0x00000000c001749a                ISO9660::exists(char const*)
                0x00000000c00174ae                ISO9660::open(char const*, void**, FileOpenMode)
                0x00000000c001753a                ISO9660::openDir(char const*, void**)
                0x00000000c00175ba                ISO9660::read(void*, unsigned long, void*, int*)
                0x00000000c00175fa                ISO9660::seek(void*, unsigned long long)
                0x00000000c0017632                ISO9660::tell(void*, unsigned long long*)
                0x00000000c0017668                ISO9660::stat(void*, unsigned long long*)
                0x00000000c00176a2                ISO9660::stat(char const*, unsigned long long*, bool*)
                0x00000000c001778e                ISO9660::close(void*)
                0x00000000c00177b4                ISO9660::readDir(void*, unsigned long, void*, int*)
                0x00000000c0017881                readSectorFromCDROM(unsigned int, unsigned char*, char)
                0x00000000c001790c                ISO9660::tryMount(LogicalDisk*, int)
                0x00000000c001797e                ISO9660::ISO9660()
                0x00000000c001797e                ISO9660::ISO9660()
 .text          0x00000000c00179a6      0x26c hal/sound/sndcard.32
                0x00000000c00179a6                SoundCard::beginPlayback()
                0x00000000c00179b4                SoundCard::stopPlayback()
                0x00000000c00179c2                SoundCard::SoundCard(char const*)
                0x00000000c00179c2                SoundCard::SoundCard(char const*)
                0x00000000c0017a60                SoundCard::~SoundCard()
                0x00000000c0017a60                SoundCard::~SoundCard()
                0x00000000c0017a84                SoundCard::~SoundCard()
                0x00000000c0017aae                SoundCard::configureRates(int, int, int)
                0x00000000c0017ade                SoundCard::getSamples16(int, short*)
                0x00000000c0017b3a                SoundCard::getSamples32(int, int*)
                0x00000000c0017bc0                SoundCard::addChannel(SoundPort*)
                0x00000000c0017bfe                SoundCard::removeChannel(int)
 *fill*         0x00000000c0017c12        0x2 
 .text          0x00000000c0017c14      0x377 hal/sound/sndport.32
                0x00000000c0017c14                SoundPort::SoundPort(int, int, int, int)
                0x00000000c0017c14                SoundPort::SoundPort(int, int, int, int)
                0x00000000c0017ca0                SoundPort::~SoundPort()
                0x00000000c0017ca0                SoundPort::~SoundPort()
                0x00000000c0017cd4                SoundPort::unpause()
                0x00000000c0017ce0                SoundPort::pause()
                0x00000000c0017cec                SoundPort::getBufferUsed()
                0x00000000c0017cf4                SoundPort::getBufferSize()
                0x00000000c0017cfc                SoundPort::buffer16(short*, int)
                0x00000000c0017d88                SoundPort::buffer32(int*, int)
                0x00000000c0017e10                SoundPort::unbufferAndAdd16(int, short*, SoundCard*)
                0x00000000c0017ed4                SoundPort::unbufferAndAdd32(int, int*, SoundCard*)
 .text          0x00000000c0017f8b        0x0 hw/bus/isa.32
 *fill*         0x00000000c0017f8b        0x1 
 .text          0x00000000c0017f8c      0xb49 hw/bus/pci.32
                0x00000000c0017f8c                PCI::open(int, int, void*)
                0x00000000c0017faa                PCI::close(int, int, void*)
                0x00000000c0017fae                PCI::PCI()
                0x00000000c0017fae                PCI::PCI()
                0x00000000c0018048                PCI::readBAR8(unsigned int, int)
                0x00000000c0018064                PCI::readBAR16(unsigned int, int)
                0x00000000c0018082                PCI::readBAR32(unsigned int, int)
                0x00000000c001809e                PCI::writeBAR8(unsigned int, unsigned char, int)
                0x00000000c00180be                PCI::writeBAR16(unsigned int, unsigned short, int)
                0x00000000c00180e0                PCI::writeBAR32(unsigned int, unsigned int, int)
                0x00000000c0018100                PCI::legacyMechanism(unsigned char, unsigned char, unsigned char, unsigned char)
                0x00000000c001816e                PCI::pciReadWord(unsigned char, unsigned char, unsigned char, unsigned char)
                0x00000000c0018216                PCI::getVendorID(unsigned char, unsigned char, unsigned char)
                0x00000000c001823a                PCI::getHeaderType(unsigned char, unsigned char, unsigned char)
                0x00000000c0018262                PCI::getClassCode(unsigned char, unsigned char, unsigned char)
                0x00000000c00182ac                PCI::getProgIF(unsigned char, unsigned char, unsigned char)
                0x00000000c00182d4                PCI::getRevisionID(unsigned char, unsigned char, unsigned char)
                0x00000000c00182f8                PCI::getInterruptNumber(unsigned char, unsigned char, unsigned char)
                0x00000000c001831c                PCI::getSecondaryBus(unsigned char, unsigned char, unsigned char)
                0x00000000c0018344                PCI::getBARAddress(unsigned char, unsigned char, unsigned char, unsigned char)
                0x00000000c00183a8                PCI::pciWriteWord(unsigned char, unsigned char, unsigned char, unsigned char, unsigned short)
                0x00000000c0018490                PCI::pciDetailsToFilepath(PCIDeviceInfo, char*)
                0x00000000c001870a                PCI::checkBus(unsigned char)
                0x00000000c0018730                PCI::foundDevice(PCIDeviceInfo)
                0x00000000c00188a2                PCI::getDeviceData(unsigned char, unsigned char, unsigned char)
                0x00000000c0018a16                PCI::checkDevice(unsigned char, unsigned char)
                0x00000000c0018a82                PCI::detect()
 *fill*         0x00000000c0018ad5        0x1 
 .text          0x00000000c0018ad6      0xb5a hw/diskctrl/ide.32
                0x00000000c0018ad6                IDE::close(int, int, void*)
                0x00000000c0018ada                IDE::IDE()
                0x00000000c0018ada                IDE::IDE()
                0x00000000c0018b0e                IDE::prepareInterrupt(unsigned char)
                0x00000000c0018b20                selectDrive(unsigned char, unsigned char)
                0x00000000c0018b22                IDE::getBase(unsigned char)
                0x00000000c0018b34                IDE::write(unsigned char, unsigned char, unsigned char)
                0x00000000c0018bf4                IDE::read(unsigned char, unsigned char)
                0x00000000c0018ca2                IDE::waitInterrupt(unsigned char)
                0x00000000c0018d0a                ideChannel0IRQHandler(regs*, void*)
                0x00000000c0018d26                ideChannel1IRQHandler(regs*, void*)
                0x00000000c0018d42                IDE::enableIRQs(unsigned char, bool)
                0x00000000c0018d88                IDE::open(int, int, void*)
                0x00000000c0019196                IDE::readBuffer(unsigned char, unsigned char, unsigned int, unsigned int)
                0x00000000c0019262                IDE::detect()
                0x00000000c0019522                IDE::printError(unsigned char, unsigned char, unsigned char)
                0x00000000c00195d2                IDE::polling(unsigned char, unsigned int)
 .text          0x00000000c0019630      0x32a hw/diskctrl/satabus.32
                0x00000000c0019630                SATABus::close(int, int, void*)
                0x00000000c0019634                SATABus::detect()
                0x00000000c0019636                SATABus::SATABus()
                0x00000000c0019636                SATABus::SATABus()
                0x00000000c00196bc                SATABus::findCmdslot(SATABus::tagHBA_PORT volatile*)
                0x00000000c00196ee                SATABus::checkType(SATABus::tagHBA_PORT volatile*)
                0x00000000c0019736                SATABus::startCmd(SATABus::tagHBA_PORT volatile*)
                0x00000000c0019756                SATABus::stopCmd(SATABus::tagHBA_PORT volatile*)
                0x00000000c0019780                SATABus::portRebase(SATABus::tagHBA_PORT volatile*, int)
                0x00000000c0019890                SATABus::probePort(SATABus::tagHBA_MEM volatile*)
                0x00000000c001993a                SATABus::open(int, int, void*)
 .text          0x00000000c001995a      0x5f4 hw/diskphys/ata.32
                0x00000000c001995a                ATA::close(int, int, void*)
                0x00000000c001997e                ATA::powerSaving(PowerSavingLevel)
                0x00000000c0019980                ATA::ATA()
                0x00000000c0019980                ATA::ATA()
                0x00000000c00199ae                ATA::flush(bool)
                0x00000000c00199f8                ATA::readyForCommand()
                0x00000000c0019a44                ATA::access(unsigned long long, int, void*, bool)
                0x00000000c0019dc0                ATA::read(unsigned long long, int, void*)
                0x00000000c0019e0c                ATA::write(unsigned long long, int, void*)
                0x00000000c0019e58                ATA::detectCHS()
                0x00000000c0019e82                ATA::open(int, int, void*)
 .text          0x00000000c0019f4e      0x60e hw/diskphys/atapi.32
                0x00000000c0019f4e                ATAPI::write(unsigned long long, int, void*)
                0x00000000c0019f54                ATAPI::close(int, int, void*)
                0x00000000c0019f78                ATAPI::ATAPI()
                0x00000000c0019f78                ATAPI::ATAPI()
                0x00000000c0019fa6                ATAPI::readyForCommand()
                0x00000000c0019ff8                ATAPI::sendPacket(unsigned char*, int, bool, unsigned short*, int)
                0x00000000c001a2b8                ATAPI::diskRemoved()
                0x00000000c001a2f2                ATAPI::eject()
                0x00000000c001a33a                ATAPI::diskInserted()
                0x00000000c001a346                ATAPI::detectMedia()
                0x00000000c001a402                ATAPI::open(int, int, void*)
                0x00000000c001a4e2                ATAPI::read(unsigned long long, int, void*)
 .text          0x00000000c001a55c      0x402 hw/diskphys/sata.32
                0x00000000c001a55c                SATA::close(int, int, void*)
                0x00000000c001a580                SATA::powerSaving(PowerSavingLevel)
                0x00000000c001a582                SATA::open(int, int, void*)
                0x00000000c001a62c                SATA::SATA()
                0x00000000c001a62c                SATA::SATA()
                0x00000000c001a65a                SATA::access(unsigned long long, int, void*, bool)
                0x00000000c001a8a6                SATA::read(unsigned long long, int, void*)
                0x00000000c001a8f2                SATA::write(unsigned long long, int, void*)
 .text          0x00000000c001a95e      0x5f5 hw/diskphys/satapi.32
                0x00000000c001a95e                SATAPI::write(unsigned long long, int, void*)
                0x00000000c001a964                SATAPI::close(int, int, void*)
                0x00000000c001a988                SATAPI::SATAPI()
                0x00000000c001a988                SATAPI::SATAPI()
                0x00000000c001a9b6                SATAPI::diskRemoved()
                0x00000000c001a9b8                SATAPI::diskInserted()
                0x00000000c001a9d4                SATAPI::sendPacket(unsigned char*, int, unsigned long long, unsigned short*, int)
                0x00000000c001acb0                SATAPI::eject()
                0x00000000c001acec                SATAPI::detectMedia()
                0x00000000c001ad12                SATAPI::open(int, int, void*)
                0x00000000c001ae12                SATAPI::read(unsigned long long, int, void*)
 *fill*         0x00000000c001af53        0x1 
 .text          0x00000000c001af54      0x455 hw/intctrl/apic.32
                0x00000000c001af54                IOAPIC::close(int, int, void*)
                0x00000000c001af5a                apicGetBase()
                0x00000000c001af9c                IOAPIC::IOAPIC()
                0x00000000c001af9c                IOAPIC::IOAPIC()
                0x00000000c001afc4                apicOpen()
                0x00000000c001b12a                IOAPIC::handlesGSIWithNumber(unsigned int)
                0x00000000c001b15c                IOAPIC::read(int)
                0x00000000c001b184                IOAPIC::open(int, int, void*)
                0x00000000c001b278                IOAPIC::write(int, int)
                0x00000000c001b2a4                IOAPIC::redirect(unsigned char, unsigned long long, unsigned char, bool, bool)
 *fill*         0x00000000c001b3a9        0x3 
 .text          0x00000000c001b3ac       0xf0 hw/timer/apictimer.32
                0x00000000c001b3ac                APICTimer::close(int, int, void*)
                0x00000000c001b3b4                apicTimerHandler(regs*, void*)
                0x00000000c001b3dc                APICTimer::open(int, int, void*)
                0x00000000c001b44c                APICTimer::write(int)
                0x00000000c001b474                APICTimer::APICTimer()
                0x00000000c001b474                APICTimer::APICTimer()
 .text          0x00000000c001b49c      0x1aa hw/timer/pit.32
                0x00000000c001b49c                PIT::write(int)
                0x00000000c001b520                pitHandler(regs*, void*)
                0x00000000c001b544                PIT::open(int, int, void*)
                0x00000000c001b594                PIT::close(int, int, void*)
                0x00000000c001b5c4                PIT::PIT()
                0x00000000c001b5c4                PIT::PIT()
 *fill*         0x00000000c001b646        0xa 
 .text          0x00000000c001b650       0x83 arch/i386/avx.32
                0x00000000c001b650                avxDetect
                0x00000000c001b67a                avxSave
                0x00000000c001b68b                avxLoad
                0x00000000c001b69c                avxInit
                0x00000000c001b6be                avxClose
                0x00000000c001b6bf                wouldSheSayYes
 *fill*         0x00000000c001b6d3        0xd 
 .text          0x00000000c001b6e0      0x1d6 arch/i386/interrupt.32
                0x00000000c001b6e0                isr0
                0x00000000c001b6f0                isr1
                0x00000000c001b6fa                isr2
                0x00000000c001b704                isr3
                0x00000000c001b70e                isr4
                0x00000000c001b718                isr5
                0x00000000c001b722                isr6
                0x00000000c001b72c                isr7
                0x00000000c001b736                isr8
                0x00000000c001b73e                isr9
                0x00000000c001b748                isr10
                0x00000000c001b750                isr11
                0x00000000c001b758                isr12
                0x00000000c001b760                isr13
                0x00000000c001b768                isr14
                0x00000000c001b770                isr15
                0x00000000c001b77a                isr16
                0x00000000c001b784                isr17
                0x00000000c001b78e                isr18
                0x00000000c001b798                irq3
                0x00000000c001b7a2                irq4
                0x00000000c001b7ac                irq5
                0x00000000c001b7b6                irq6
                0x00000000c001b7c0                irq7
                0x00000000c001b7ca                irq8
                0x00000000c001b7d4                irq9
                0x00000000c001b7de                irq10
                0x00000000c001b7e8                irq11
                0x00000000c001b7f2                irq12
                0x00000000c001b7fc                irq13
                0x00000000c001b806                irq14
                0x00000000c001b810                irq15
                0x00000000c001b81a                irq1
                0x00000000c001b821                irq2
                0x00000000c001b828                isr96
                0x00000000c001b82f                irq0
                0x00000000c001b834                int_common_stub
                0x00000000c001b834                syscall_common_stub
                0x00000000c001b866                irq16
                0x00000000c001b870                irq17
                0x00000000c001b87a                irq18
                0x00000000c001b884                irq19
                0x00000000c001b88e                irq20
                0x00000000c001b898                irq21
                0x00000000c001b8a2                irq22
                0x00000000c001b8ac                irq23
 *fill*         0x00000000c001b8b6        0xa 
 .text          0x00000000c001b8c0       0x10 arch/i386/rdrand.32
                0x00000000c001b8c0                i386GetRDRAND
 .text          0x00000000c001b8d0       0x39 arch/i386/sse.32
                0x00000000c001b8d0                absolutelyNoChanceInHell
                0x00000000c001b8d0                sseDetect
                0x00000000c001b8e8                sseSave
                0x00000000c001b8f0                sseLoad
                0x00000000c001b8f8                sseInit
                0x00000000c001b908                sseClose
 *fill*         0x00000000c001b909        0x7 
 .text          0x00000000c001b910       0x49 arch/i386/x87.32
                0x00000000c001b916                x87Detect
                0x00000000c001b931                x87Save
                0x00000000c001b938                x87Load
                0x00000000c001b93f                x87Init
                0x00000000c001b958                x87Close
 *fill*         0x00000000c001b959        0x3 
 .text          0x00000000c001b95c       0x25 /cygdrive/d/Users/Alex/Desktop/Toolchain/Output/bin/../lib/gcc/i386-banana/8.1.0/crtend.o
 .text          0x00000000c001b981        0x0 crtn.32
 *fill*         0x00000000c001b981        0x3 
 .text          0x00000000c001b984      0x14b /cygdrive/d/Users/Alex/Desktop/Toolchain/Output/bin/../lib/gcc/i386-banana/8.1.0/libkgcc.a(_divdi3.o)
                0x00000000c001b984                __divdi3
 *fill*         0x00000000c001bacf        0x1 
 .text          0x00000000c001bad0      0x17e /cygdrive/d/Users/Alex/Desktop/Toolchain/Output/bin/../lib/gcc/i386-banana/8.1.0/libkgcc.a(_moddi3.o)
                0x00000000c001bad0                __moddi3
 *fill*         0x00000000c001bc4e        0x2 
 .text          0x00000000c001bc50       0xff /cygdrive/d/Users/Alex/Desktop/Toolchain/Output/bin/../lib/gcc/i386-banana/8.1.0/libkgcc.a(_udivdi3.o)
                0x00000000c001bc50                __udivdi3
 *fill*         0x00000000c001bd4f        0x1 
 .text          0x00000000c001bd50      0x11a /cygdrive/d/Users/Alex/Desktop/Toolchain/Output/bin/../lib/gcc/i386-banana/8.1.0/libkgcc.a(_umoddi3.o)
                0x00000000c001bd50                __umoddi3
 *(.gnu.linkonce.t*)

.iplt           0x00000000c001be70        0x0
 .iplt          0x00000000c001be70        0x0 D:/Users/Alex/Desktop/Banana/kernel/boot.32

.init           0x00000000c001be6a        0xf
 .init          0x00000000c001be6a        0x3 crti.32
                0x00000000c001be6a                _init
 .init          0x00000000c001be6d        0x5 /cygdrive/d/Users/Alex/Desktop/Toolchain/Output/bin/../lib/gcc/i386-banana/8.1.0/crtbegin.o
 .init          0x00000000c001be72        0x5 /cygdrive/d/Users/Alex/Desktop/Toolchain/Output/bin/../lib/gcc/i386-banana/8.1.0/crtend.o
 .init          0x00000000c001be77        0x2 crtn.32

.fini           0x00000000c001be79        0xa
 .fini          0x00000000c001be79        0x3 crti.32
                0x00000000c001be79                _fini
 .fini          0x00000000c001be7c        0x5 /cygdrive/d/Users/Alex/Desktop/Toolchain/Output/bin/../lib/gcc/i386-banana/8.1.0/crtbegin.o
 .fini          0x00000000c001be81        0x2 crtn.32

.text._ZN8ComputerD2Ev
                0x00000000c001be84       0x23
 .text._ZN8ComputerD2Ev
                0x00000000c001be84       0x23 core/computer.32
                0x00000000c001be84                Computer::~Computer()
                0x00000000c001be84                Computer::~Computer()

.text._ZN8ComputerD0Ev
                0x00000000c001bea8       0x2a
 .text._ZN8ComputerD0Ev
                0x00000000c001bea8       0x2a core/computer.32
                0x00000000c001bea8                Computer::~Computer()

.text._Z10idleCommonv
                0x00000000c001bed2       0x21
 .text._Z10idleCommonv
                0x00000000c001bed2       0x21 core/idle.32
                0x00000000c001bed2                idleCommon()

.text._ZN10LinkedListI8UnixFileED2Ev
                0x00000000c001bef4        0x2
 .text._ZN10LinkedListI8UnixFileED2Ev
                0x00000000c001bef4        0x2 core/unixfile.32
                0x00000000c001bef4                LinkedList<UnixFile>::~LinkedList()
                0x00000000c001bef4                LinkedList<UnixFile>::~LinkedList()

.text._ZN10LinkedListI8UnixFileEC2Ev
                0x00000000c001bef6       0x42
 .text._ZN10LinkedListI8UnixFileEC2Ev
                0x00000000c001bef6       0x42 core/unixfile.32
                0x00000000c001bef6                LinkedList<UnixFile>::LinkedList()
                0x00000000c001bef6                LinkedList<UnixFile>::LinkedList()

.text._ZN10LinkedListI8UnixFileE10addElementEPS0_
                0x00000000c001bf38       0xd3
 .text._ZN10LinkedListI8UnixFileE10addElementEPS0_
                0x00000000c001bf38       0xd3 core/unixfile.32
                0x00000000c001bf38                LinkedList<UnixFile>::addElement(UnixFile*)

.text._ZN10LinkedListI8UnixFileE15getFirstElementEv
                0x00000000c001c00c        0x7
 .text._ZN10LinkedListI8UnixFileE15getFirstElementEv
                0x00000000c001c00c        0x7 core/unixfile.32
                0x00000000c001c00c                LinkedList<UnixFile>::getFirstElement()

.text._ZN10LinkedListI8UnixFileE11removeFirstEv
                0x00000000c001c014       0xa1
 .text._ZN10LinkedListI8UnixFileE11removeFirstEv
                0x00000000c001c014       0xa1 core/unixfile.32
                0x00000000c001c014                LinkedList<UnixFile>::removeFirst()

.text._ZN10LinkedListI8UnixFileE7getNextEPS0_
                0x00000000c001c0b6        0x8
 .text._ZN10LinkedListI8UnixFileE7getNextEPS0_
                0x00000000c001c0b6        0x8 core/unixfile.32
                0x00000000c001c0b6                LinkedList<UnixFile>::getNext(UnixFile*)

.text._ZN16DriverlessDeviceD2Ev
                0x00000000c001c0be       0x1a
 .text._ZN16DriverlessDeviceD2Ev
                0x00000000c001c0be       0x1a hal/device.32
                0x00000000c001c0be                DriverlessDevice::~DriverlessDevice()
                0x00000000c001c0be                DriverlessDevice::~DriverlessDevice()

.text._ZN16DriverlessDeviceD0Ev
                0x00000000c001c0d8       0x2a
 .text._ZN16DriverlessDeviceD0Ev
                0x00000000c001c0d8       0x2a hal/device.32
                0x00000000c001c0d8                DriverlessDevice::~DriverlessDevice()

.text._ZN10LinkedListI6DeviceE10addElementEPS0_
                0x00000000c001c102       0xdc
 .text._ZN10LinkedListI6DeviceE10addElementEPS0_
                0x00000000c001c102       0xdc hal/device.32
                0x00000000c001c102                LinkedList<Device>::addElement(Device*)

.text._ZN10LinkedListI6DeviceEC2Ev
                0x00000000c001c1de       0x42
 .text._ZN10LinkedListI6DeviceEC2Ev
                0x00000000c001c1de       0x42 hal/device.32
                0x00000000c001c1de                LinkedList<Device>::LinkedList()
                0x00000000c001c1de                LinkedList<Device>::LinkedList()

.text._ZN10LinkedListIV18ThreadControlBlockE7isEmptyEv
                0x00000000c001c220       0x1c
 .text._ZN10LinkedListIV18ThreadControlBlockE7isEmptyEv
                0x00000000c001c220       0x1c hal/timer.32
                0x00000000c001c220                LinkedList<ThreadControlBlock volatile>::isEmpty()

.text._ZN10LinkedListIV18ThreadControlBlockE15getFirstElementEv
                0x00000000c001c23c        0x7
 .text._ZN10LinkedListIV18ThreadControlBlockE15getFirstElementEv
                0x00000000c001c23c        0x7 hal/timer.32
                0x00000000c001c23c                LinkedList<ThreadControlBlock volatile>::getFirstElement()

.text._ZN10LinkedListIV18ThreadControlBlockE11removeFirstEv
                0x00000000c001c244       0xb8
 .text._ZN10LinkedListIV18ThreadControlBlockE11removeFirstEv
                0x00000000c001c244       0xb8 hal/timer.32
                0x00000000c001c244                LinkedList<ThreadControlBlock volatile>::removeFirst()

.text._ZN10LinkedListIV18ThreadControlBlockE10addElementEPS1_
                0x00000000c001c2fc       0xda
 .text._ZN10LinkedListIV18ThreadControlBlockE10addElementEPS1_
                0x00000000c001c2fc       0xda hal/timer.32
                0x00000000c001c2fc                LinkedList<ThreadControlBlock volatile>::addElement(ThreadControlBlock volatile*)

.text._ZN4ACPID2Ev
                0x00000000c001c3d8       0x23
 .text._ZN4ACPID2Ev
                0x00000000c001c3d8       0x23 hw/acpi.32
                0x00000000c001c3d8                ACPI::~ACPI()
                0x00000000c001c3d8                ACPI::~ACPI()

.text._ZN4ACPID0Ev
                0x00000000c001c3fc       0x2a
 .text._ZN4ACPID0Ev
                0x00000000c001c3fc       0x2a hw/acpi.32
                0x00000000c001c3fc                ACPI::~ACPI()

.text._ZN10LinkedListI6DeviceED2Ev
                0x00000000c001c428        0x2
 .text._ZN10LinkedListI6DeviceED2Ev
                0x00000000c001c428        0x2 hw/acpi.32
                0x00000000c001c428                LinkedList<Device>::~LinkedList()
                0x00000000c001c428                LinkedList<Device>::~LinkedList()

.text._ZN10LinkedListI6DeviceE7isEmptyEv
                0x00000000c001c42c       0x1c
 .text._ZN10LinkedListI6DeviceE7isEmptyEv
                0x00000000c001c42c       0x1c hw/acpi.32
                0x00000000c001c42c                LinkedList<Device>::isEmpty()

.text._ZN10LinkedListI6DeviceE15getFirstElementEv
                0x00000000c001c448        0x7
 .text._ZN10LinkedListI6DeviceE15getFirstElementEv
                0x00000000c001c448        0x7 hw/acpi.32
                0x00000000c001c448                LinkedList<Device>::getFirstElement()

.text._ZN10LinkedListI6DeviceE11removeFirstEv
                0x00000000c001c450       0xb8
 .text._ZN10LinkedListI6DeviceE11removeFirstEv
                0x00000000c001c450       0xb8 hw/acpi.32
                0x00000000c001c450                LinkedList<Device>::removeFirst()

.text._ZN3CPUD2Ev
                0x00000000c001c508       0x23
 .text._ZN3CPUD2Ev
                0x00000000c001c508       0x23 hw/cpu.32
                0x00000000c001c508                CPU::~CPU()
                0x00000000c001c508                CPU::~CPU()

.text._ZN3CPUD0Ev
                0x00000000c001c52c       0x2a
 .text._ZN3CPUD0Ev
                0x00000000c001c52c       0x2a hw/cpu.32
                0x00000000c001c52c                CPU::~CPU()

.text._ZN10LinkedListIV18ThreadControlBlockED2Ev
                0x00000000c001c558        0x2
 .text._ZN10LinkedListIV18ThreadControlBlockED2Ev
                0x00000000c001c558        0x2 thr/prcssthr.32
                0x00000000c001c558                LinkedList<ThreadControlBlock volatile>::~LinkedList()
                0x00000000c001c558                LinkedList<ThreadControlBlock volatile>::~LinkedList()

.text._ZN18ThreadControlBlockC2Ev
                0x00000000c001c55c       0x49
 .text._ZN18ThreadControlBlockC2Ev
                0x00000000c001c55c       0x49 thr/prcssthr.32
                0x00000000c001c55c                ThreadControlBlock::ThreadControlBlock()
                0x00000000c001c55c                ThreadControlBlock::ThreadControlBlock()

.text._ZN10LinkedListIV18ThreadControlBlockEC2Ev
                0x00000000c001c5a8       0x42
 .text._ZN10LinkedListIV18ThreadControlBlockEC2Ev
                0x00000000c001c5a8       0x42 thr/prcssthr.32
                0x00000000c001c5a8                LinkedList<ThreadControlBlock volatile>::LinkedList()
                0x00000000c001c5a8                LinkedList<ThreadControlBlock volatile>::LinkedList()

.text._ZN10LinkedListIV18ThreadControlBlockE7getNextEPS1_
                0x00000000c001c5ec        0x8
 .text._ZN10LinkedListIV18ThreadControlBlockE7getNextEPS1_
                0x00000000c001c5ec        0x8 thr/prcssthr.32
                0x00000000c001c5ec                LinkedList<ThreadControlBlock volatile>::getNext(ThreadControlBlock volatile*)

.text._ZN3PCID2Ev
                0x00000000c001c5f4       0x23
 .text._ZN3PCID2Ev
                0x00000000c001c5f4       0x23 hw/bus/pci.32
                0x00000000c001c5f4                PCI::~PCI()
                0x00000000c001c5f4                PCI::~PCI()

.text._ZN3PCID0Ev
                0x00000000c001c618       0x2a
 .text._ZN3PCID0Ev
                0x00000000c001c618       0x2a hw/bus/pci.32
                0x00000000c001c618                PCI::~PCI()

.text._ZN3IDED2Ev
                0x00000000c001c642       0x23
 .text._ZN3IDED2Ev
                0x00000000c001c642       0x23 hw/diskctrl/ide.32
                0x00000000c001c642                IDE::~IDE()
                0x00000000c001c642                IDE::~IDE()

.text._ZN3IDED0Ev
                0x00000000c001c666       0x2a
 .text._ZN3IDED0Ev
                0x00000000c001c666       0x2a hw/diskctrl/ide.32
                0x00000000c001c666                IDE::~IDE()

.text._ZN7SATABusD2Ev
                0x00000000c001c690       0x23
 .text._ZN7SATABusD2Ev
                0x00000000c001c690       0x23 hw/diskctrl/satabus.32
                0x00000000c001c690                SATABus::~SATABus()
                0x00000000c001c690                SATABus::~SATABus()

.text._ZN7SATABusD0Ev
                0x00000000c001c6b4       0x2a
 .text._ZN7SATABusD0Ev
                0x00000000c001c6b4       0x2a hw/diskctrl/satabus.32
                0x00000000c001c6b4                SATABus::~SATABus()

.text._ZN3ATAD2Ev
                0x00000000c001c6de       0x23
 .text._ZN3ATAD2Ev
                0x00000000c001c6de       0x23 hw/diskphys/ata.32
                0x00000000c001c6de                ATA::~ATA()
                0x00000000c001c6de                ATA::~ATA()

.text._ZN3ATAD0Ev
                0x00000000c001c702       0x2a
 .text._ZN3ATAD0Ev
                0x00000000c001c702       0x2a hw/diskphys/ata.32
                0x00000000c001c702                ATA::~ATA()

.text._ZN5ATAPID2Ev
                0x00000000c001c72c       0x23
 .text._ZN5ATAPID2Ev
                0x00000000c001c72c       0x23 hw/diskphys/atapi.32
                0x00000000c001c72c                ATAPI::~ATAPI()
                0x00000000c001c72c                ATAPI::~ATAPI()

.text._ZN5ATAPID0Ev
                0x00000000c001c750       0x2a
 .text._ZN5ATAPID0Ev
                0x00000000c001c750       0x2a hw/diskphys/atapi.32
                0x00000000c001c750                ATAPI::~ATAPI()

.text._ZN4SATAD2Ev
                0x00000000c001c77a       0x23
 .text._ZN4SATAD2Ev
                0x00000000c001c77a       0x23 hw/diskphys/sata.32
                0x00000000c001c77a                SATA::~SATA()
                0x00000000c001c77a                SATA::~SATA()

.text._ZN4SATAD0Ev
                0x00000000c001c79e       0x2a
 .text._ZN4SATAD0Ev
                0x00000000c001c79e       0x2a hw/diskphys/sata.32
                0x00000000c001c79e                SATA::~SATA()

.text._ZN6SATAPID2Ev
                0x00000000c001c7c8       0x23
 .text._ZN6SATAPID2Ev
                0x00000000c001c7c8       0x23 hw/diskphys/satapi.32
                0x00000000c001c7c8                SATAPI::~SATAPI()
                0x00000000c001c7c8                SATAPI::~SATAPI()

.text._ZN6SATAPID0Ev
                0x00000000c001c7ec       0x2a
 .text._ZN6SATAPID0Ev
                0x00000000c001c7ec       0x2a hw/diskphys/satapi.32
                0x00000000c001c7ec                SATAPI::~SATAPI()

.text._ZN6IOAPICD2Ev
                0x00000000c001c816       0x23
 .text._ZN6IOAPICD2Ev
                0x00000000c001c816       0x23 hw/intctrl/apic.32
                0x00000000c001c816                IOAPIC::~IOAPIC()
                0x00000000c001c816                IOAPIC::~IOAPIC()

.text._ZN6IOAPICD0Ev
                0x00000000c001c83a       0x2a
 .text._ZN6IOAPICD0Ev
                0x00000000c001c83a       0x2a hw/intctrl/apic.32
                0x00000000c001c83a                IOAPIC::~IOAPIC()

.text._ZN9APICTimerD2Ev
                0x00000000c001c864       0x23
 .text._ZN9APICTimerD2Ev
                0x00000000c001c864       0x23 hw/timer/apictimer.32
                0x00000000c001c864                APICTimer::~APICTimer()
                0x00000000c001c864                APICTimer::~APICTimer()

.text._ZN9APICTimerD0Ev
                0x00000000c001c888       0x2a
 .text._ZN9APICTimerD0Ev
                0x00000000c001c888       0x2a hw/timer/apictimer.32
                0x00000000c001c888                APICTimer::~APICTimer()

.text._ZN3PITD2Ev
                0x00000000c001c8b4       0x23
 .text._ZN3PITD2Ev
                0x00000000c001c8b4       0x23 hw/timer/pit.32
                0x00000000c001c8b4                PIT::~PIT()
                0x00000000c001c8b4                PIT::~PIT()

.text._ZN3PITD0Ev
                0x00000000c001c8d8       0x2a
 .text._ZN3PITD0Ev
                0x00000000c001c8d8       0x2a hw/timer/pit.32
                0x00000000c001c8d8                PIT::~PIT()

.rodata         0x00000000c001c902     0x28e6
                0x00000000c001c902                start_ctors = .
 *(SORT_BY_NAME(.ctors*))
 *fill*         0x00000000c001c902        0x2 
 .ctors         0x00000000c001c904        0x4 /cygdrive/d/Users/Alex/Desktop/Toolchain/Output/bin/../lib/gcc/i386-banana/8.1.0/crtbegin.o
 .ctors         0x00000000c001c908        0x4 core/unixfile.32
 .ctors         0x00000000c001c90c        0x4 thr/prcssthr.32
 .ctors         0x00000000c001c910        0x4 /cygdrive/d/Users/Alex/Desktop/Toolchain/Output/bin/../lib/gcc/i386-banana/8.1.0/crtend.o
                0x00000000c001c914                end_ctors = .
                0x00000000c001c914                start_dtors = .
 *(SORT_BY_NAME(.dtors*))
 .dtors         0x00000000c001c914        0x4 /cygdrive/d/Users/Alex/Desktop/Toolchain/Output/bin/../lib/gcc/i386-banana/8.1.0/crtbegin.o
 .dtors         0x00000000c001c918        0x4 /cygdrive/d/Users/Alex/Desktop/Toolchain/Output/bin/../lib/gcc/i386-banana/8.1.0/crtend.o
                0x00000000c001c918                __DTOR_END__
                0x00000000c001c91c                end_dtors = .
 *(.rodata*)
 *fill*         0x00000000c001c91c        0x4 
 .rodata        0x00000000c001c920      0x101 acpica/utclib.32
                0x00000000c001c920                AcpiGbl_Ctypes
 *fill*         0x00000000c001ca21        0x3 
 .rodata        0x00000000c001ca24       0x18 core/malloc.32
 .rodata.str1.1
                0x00000000c001ca3c       0x4a fs/fat/ff.32
                                         0x4e (size before relaxing)
 *fill*         0x00000000c001ca86       0x1a 
 .rodata        0x00000000c001caa0       0xed fs/fat/ff.32
 *fill*         0x00000000c001cb8d       0x13 
 .rodata        0x00000000c001cba0      0x400 fs/fat/ffunicode.32
 .rodata.str1.1
                0x00000000c001cfa0       0x59 fs/iso9660/iso9660.32
 .rodata.str1.1
                0x00000000c001cff9      0x115 core/computer.32
 *fill*         0x00000000c001d10e        0x2 
 .rodata.str1.4
                0x00000000c001d110       0x68 core/computer.32
 .rodata._ZTV8Computer
                0x00000000c001d178       0x2c core/computer.32
                0x00000000c001d178                vtable for Computer
 .rodata.str1.4
                0x00000000c001d1a4       0x30 core/kheap.32
 .rodata.str1.1
                0x00000000c001d1d4        0xc core/kheap.32
 .rodata.str1.1
                0x00000000c001d1e0       0x17 core/main.32
 *fill*         0x00000000c001d1f7        0x1 
 .rodata.str1.4
                0x00000000c001d1f8       0xa5 core/physmgr.32
 .rodata.str1.1
                0x00000000c001d29d       0x58 core/physmgr.32
 .rodata.str1.1
                0x00000000c001d2f5       0x39 core/pipe.32
 *fill*         0x00000000c001d32e        0x2 
 .rodata._ZTV4Pipe
                0x00000000c001d330       0x1c core/pipe.32
                0x00000000c001d330                vtable for Pipe
 .rodata.str1.1
                0x00000000c001d34c       0x69 core/terminal.32
 *fill*         0x00000000c001d3b5        0x3 
 .rodata._ZTV7VgaText
                0x00000000c001d3b8       0x1c core/terminal.32
                0x00000000c001d3b8                vtable for VgaText
 .rodata._ZN10LinkedListI8UnixFileE10addElementEPS0_.str1.4
                0x00000000c001d3d4       0x22 core/unixfile.32
 .rodata._ZN10LinkedListI8UnixFileE10addElementEPS0_.str1.1
                0x00000000c001d3f6       0x15 core/unixfile.32
 *fill*         0x00000000c001d40b        0x1 
 .rodata._ZN10LinkedListI8UnixFileE11removeFirstEv.str1.4
                0x00000000c001d40c       0x4b core/unixfile.32
 .rodata._ZN10LinkedListI8UnixFileE11removeFirstEv.str1.1
                0x00000000c001d457        0x8 core/unixfile.32
 *fill*         0x00000000c001d45f        0x1 
 .rodata.str1.4
                0x00000000c001d460       0x20 core/unixfile.32
 .rodata._ZTV8UnixFile
                0x00000000c001d480       0x1c core/unixfile.32
                0x00000000c001d480                vtable for UnixFile
 .rodata._ZTV16ReservedFilename
                0x00000000c001d49c       0x1c core/unixfile.32
                0x00000000c001d49c                vtable for ReservedFilename
 .rodata.str1.4
                0x00000000c001d4b8      0x167 core/virtmgr.32
 .rodata.str1.1
                0x00000000c001d61f      0x107 core/virtmgr.32
 .rodata.str1.1
                0x00000000c001d726       0x33 coreobjs/c++.32
 .rodata.str1.1
                0x00000000c001d759       0x11 dbg/kconsole.32
 *fill*         0x00000000c001d759        0x3 
 .rodata        0x00000000c001d75c      0x150 dbg/kconsole.32
 .rodata.str1.1
                0x00000000c001d8ac       0x33 fs/vfs.32
                                          0x2 (size before relaxing)
 .rodata._ZTV10Filesystem
                0x00000000c001d8ac       0x68 fs/vfs.32
                0x00000000c001d8ac                vtable for Filesystem
 .rodata._ZTV4File
                0x00000000c001d914       0x1c fs/vfs.32
                0x00000000c001d914                vtable for File
 .rodata._ZTV9Directory
                0x00000000c001d930       0x1c fs/vfs.32
                0x00000000c001d930                vtable for Directory
 .rodata._ZTV3Bus
                0x00000000c001d94c       0x2c hal/bus.32
                0x00000000c001d94c                vtable for Bus
 .rodata.str1.1
                0x00000000c001d978       0x1e hal/clock.32
 *fill*         0x00000000c001d996        0x2 
 .rodata._ZTV5Clock
                0x00000000c001d998       0x3c hal/clock.32
                0x00000000c001d998                vtable for Clock
 *fill*         0x00000000c001d9d4        0xc 
 .rodata        0x00000000c001d9e0       0x30 hal/clock.32
 .rodata.str1.1
                0x00000000c001da10       0x58 hal/device.32
 .rodata._ZN10LinkedListI6DeviceE10addElementEPS0_.str1.4
                0x00000000c001da68       0x22 hal/device.32
 .rodata._ZN10LinkedListI6DeviceE10addElementEPS0_.str1.1
                0x00000000c001da68       0x15 hal/device.32
 .rodata._ZTV6Device
                0x00000000c001da68       0x2c hal/device.32
                0x00000000c001da68                vtable for Device
 .rodata._ZTV16DriverlessDevice
                0x00000000c001da94       0x2c hal/device.32
                0x00000000c001da94                vtable for DriverlessDevice
 .rodata._ZTV18HardDiskController
                0x00000000c001dac0       0x2c hal/diskctrl.32
                0x00000000c001dac0                vtable for HardDiskController
 .rodata._ZTV12PhysicalDisk
                0x00000000c001daec       0x38 hal/diskphys.32
                0x00000000c001daec                vtable for PhysicalDisk
 .rodata.str1.1
                0x00000000c001db24       0x3e hal/intctrl.32
 *fill*         0x00000000c001db62        0x2 
 .rodata.str1.4
                0x00000000c001db64       0x5d hal/intctrl.32
 .rodata        0x00000000c001dbc1       0x53 hal/keybrd.32
 .rodata._ZTV8Keyboard
                0x00000000c001dc14       0x34 hal/keybrd.32
                0x00000000c001dc14                vtable for Keyboard
 .rodata.str1.1
                0x00000000c001dc48       0x44 hal/logidisk.32
 .rodata._ZTV11LogicalDisk
                0x00000000c001dc8c       0x2c hal/logidisk.32
                0x00000000c001dc8c                vtable for LogicalDisk
 .rodata._ZTV5Mouse
                0x00000000c001dcb8       0x2c hal/mouse.32
                0x00000000c001dcb8                vtable for Mouse
 .rodata.str1.1
                0x00000000c001dce4        0xb hal/partition.32
 *fill*         0x00000000c001dcef        0x1 
 .rodata._ZTV6Serial
                0x00000000c001dcf0       0x44 hal/serial.32
                0x00000000c001dcf0                vtable for Serial
 .rodata._ZN10LinkedListIV18ThreadControlBlockE11removeFirstEv.str1.4
                0x00000000c001dd34       0x4b hal/timer.32
 .rodata._ZN10LinkedListIV18ThreadControlBlockE11removeFirstEv.str1.1
                0x00000000c001dd34        0x8 hal/timer.32
 .rodata._ZN10LinkedListIV18ThreadControlBlockE10addElementEPS1_.str1.4
                0x00000000c001dd34       0x22 hal/timer.32
 .rodata._ZN10LinkedListIV18ThreadControlBlockE10addElementEPS1_.str1.1
                0x00000000c001dd34       0x15 hal/timer.32
 .rodata._ZTV5Timer
                0x00000000c001dd34       0x30 hal/timer.32
                0x00000000c001dd34                vtable for Timer
 .rodata._ZTV6VCache
                0x00000000c001dd64       0x10 hal/vcache.32
                0x00000000c001dd64                vtable for VCache
 .rodata.str1.1
                0x00000000c001dd74       0x68 hal/video.32
 .rodata._ZTV5Video
                0x00000000c001dddc       0x48 hal/video.32
                0x00000000c001dddc                vtable for Video
 .rodata.str1.4
                0x00000000c001de24       0x9b hw/acpi.32
 .rodata.str1.1
                0x00000000c001debf      0x13c hw/acpi.32
                                        0x156 (size before relaxing)
 .rodata._ZN10LinkedListI6DeviceE11removeFirstEv.str1.4
                0x00000000c001dffb       0x4b hw/acpi.32
 .rodata._ZN10LinkedListI6DeviceE11removeFirstEv.str1.1
                0x00000000c001dffb        0x8 hw/acpi.32
 *fill*         0x00000000c001dffb        0x1 
 .rodata._ZTV4ACPI
                0x00000000c001dffc       0x2c hw/acpi.32
                0x00000000c001dffc                vtable for ACPI
 .rodata.str1.1
                0x00000000c001e028      0x16d hw/cpu.32
                                        0x171 (size before relaxing)
 *fill*         0x00000000c001e195        0x3 
 .rodata._ZTV3CPU
                0x00000000c001e198       0x2c hw/cpu.32
                0x00000000c001e198                vtable for CPU
 .rodata.str1.1
                0x00000000c001e1c4       0x3c krnl/env.32
 .rodata.str1.1
                0x00000000c001e200       0x91 krnl/resolve.32
 .rodata.str1.1
                0x00000000c001e291       0x48 krnl/syscalls.32
                                         0x50 (size before relaxing)
 .rodata.str1.1
                0x00000000c001e2d9       0x45 reg/registry.32
                                         0x47 (size before relaxing)
 .rodata.str1.1
                0x00000000c001e31e        0xa sys/getvgaptr.32
 .rodata.str1.1
                0x00000000c001e328       0x54 sys/timezone.32
 .rodata.str1.1
                0x00000000c001e37c       0x2c sys/wsbe.32
 .rodata.str1.1
                0x00000000c001e3a8      0x1cc thr/elf.32
                                        0x1db (size before relaxing)
 .rodata.str1.1
                0x00000000c001e574       0x57 thr/prcssthr.32
 *fill*         0x00000000c001e5cb        0x1 
 .rodata.str1.4
                0x00000000c001e5cc      0x10c thr/prcssthr.32
 .rodata._ZN10LinkedListIV18ThreadControlBlockE10addElementEPS1_.str1.4
                0x00000000c001e6d8       0x22 thr/prcssthr.32
 .rodata._ZN10LinkedListIV18ThreadControlBlockE10addElementEPS1_.str1.1
                0x00000000c001e6d8       0x15 thr/prcssthr.32
 .rodata._ZN10LinkedListIV18ThreadControlBlockE11removeFirstEv.str1.4
                0x00000000c001e6d8       0x4b thr/prcssthr.32
 .rodata._ZN10LinkedListIV18ThreadControlBlockE11removeFirstEv.str1.1
                0x00000000c001e6d8        0x8 thr/prcssthr.32
 .rodata.str1.1
                0x00000000c001e6d8       0xa0 vm86/vm8086.32
 .rodata        0x00000000c001e778       0x30 vm86/vm8086.32
 .rodata.str1.1
                0x00000000c001e7a8      0x182 arch/i386/hal.32
                                        0x191 (size before relaxing)
 *fill*         0x00000000c001e92a        0x2 
 .rodata.str1.4
                0x00000000c001e92c       0x73 arch/i386/hal.32
 .rodata.str1.1
                0x00000000c001e99f       0x15 arch/i386/rtc.32
 .rodata._ZTV3RTC
                0x00000000c001e9b4       0x3c arch/i386/rtc.32
                0x00000000c001e9b4                vtable for RTC
 .rodata.str1.1
                0x00000000c001e9f0       0x41 fs/fat/vfslink.32
                                         0x4b (size before relaxing)
 *fill*         0x00000000c001ea31        0x3 
 .rodata._ZTV3FAT
                0x00000000c001ea34       0x68 fs/fat/vfslink.32
                0x00000000c001ea34                vtable for FAT
 .rodata.str1.1
                0x00000000c001ea9c        0x3 fs/iso9660/helper.32
                                          0x5 (size before relaxing)
 .rodata.str1.1
                0x00000000c001ea9f       0x76 fs/iso9660/vfslink.32
 *fill*         0x00000000c001eb15        0x3 
 .rodata._ZTV7ISO9660
                0x00000000c001eb18       0x68 fs/iso9660/vfslink.32
                0x00000000c001eb18                vtable for ISO9660
 .rodata.str1.1
                0x00000000c001eb80       0x44 hal/sound/sndcard.32
 .rodata._ZTV9SoundCard
                0x00000000c001ebc4       0x34 hal/sound/sndcard.32
                0x00000000c001ebc4                vtable for SoundCard
 .rodata.str1.4
                0x00000000c001ebf8       0x3f hal/sound/sndport.32
 .rodata.str1.1
                0x00000000c001ec37       0x38 hal/sound/sndport.32
 .rodata.str1.1
                0x00000000c001ec6f       0xa1 hw/bus/pci.32
 .rodata._ZTV3PCI
                0x00000000c001ed10       0x2c hw/bus/pci.32
                0x00000000c001ed10                vtable for PCI
 .rodata.str1.1
                0x00000000c001ed3c       0x87 hw/diskctrl/ide.32
 *fill*         0x00000000c001edc3        0x1 
 .rodata._ZTV3IDE
                0x00000000c001edc4       0x2c hw/diskctrl/ide.32
                0x00000000c001edc4                vtable for IDE
 .rodata.str1.4
                0x00000000c001edf0       0x24 hw/diskctrl/satabus.32
                                         0x23 (size before relaxing)
 .rodata._ZTV7SATABus
                0x00000000c001ee14       0x2c hw/diskctrl/satabus.32
                0x00000000c001ee14                vtable for SATABus
 .rodata.str1.1
                0x00000000c001ee40       0x12 hw/diskphys/ata.32
                                         0x21 (size before relaxing)
 *fill*         0x00000000c001ee52        0x2 
 .rodata._ZTV3ATA
                0x00000000c001ee54       0x38 hw/diskphys/ata.32
                0x00000000c001ee54                vtable for ATA
 .rodata.str1.1
                0x00000000c001ee8c        0xd hw/diskphys/atapi.32
                                         0x25 (size before relaxing)
 *fill*         0x00000000c001ee99        0x3 
 .rodata._ZTV5ATAPI
                0x00000000c001ee9c       0x38 hw/diskphys/atapi.32
                0x00000000c001ee9c                vtable for ATAPI
 .rodata.str1.1
                0x00000000c001eed4       0x7c hw/diskphys/sata.32
 .rodata._ZTV4SATA
                0x00000000c001ef50       0x38 hw/diskphys/sata.32
                0x00000000c001ef50                vtable for SATA
 .rodata.str1.1
                0x00000000c001ef88      0x158 hw/diskphys/satapi.32
                                        0x165 (size before relaxing)
 .rodata._ZTV6SATAPI
                0x00000000c001f0e0       0x38 hw/diskphys/satapi.32
                0x00000000c001f0e0                vtable for SATAPI
 .rodata        0x00000000c001f118        0x8 hw/intctrl/apic.32
 .rodata._ZTV6IOAPIC
                0x00000000c001f120       0x2c hw/intctrl/apic.32
                0x00000000c001f120                vtable for IOAPIC
 .rodata.str1.1
                0x00000000c001f14c       0x1b hw/timer/apictimer.32
 *fill*         0x00000000c001f167        0x1 
 .rodata._ZTV9APICTimer
                0x00000000c001f168       0x30 hw/timer/apictimer.32
                0x00000000c001f168                vtable for APICTimer
 .rodata.str1.1
                0x00000000c001f198       0x1d hw/timer/pit.32
 *fill*         0x00000000c001f1b5        0x3 
 .rodata._ZTV3PIT
                0x00000000c001f1b8       0x30 hw/timer/pit.32
                0x00000000c001f1b8                vtable for PIT
 *(.gnu.linkonce.r*)

.data           0x00000000c001f1e8      0x341
 *(.data)
 .data          0x00000000c001f1e8        0x0 crti.32
 .data          0x00000000c001f1e8        0x4 /cygdrive/d/Users/Alex/Desktop/Toolchain/Output/bin/../lib/gcc/i386-banana/8.1.0/crtbegin.o
                0x00000000c001f1e8                __dso_handle
 .data          0x00000000c001f1ec        0x0 acpica/utclib.32
 .data          0x00000000c001f1ec        0x0 core/malloc.32
 .data          0x00000000c001f1ec        0x0 libk/ctype.32
 .data          0x00000000c001f1ec        0x0 libk/string.32
 .data          0x00000000c001f1ec        0x0 fs/fat/diskio.32
 .data          0x00000000c001f1ec        0x0 fs/fat/ff.32
 .data          0x00000000c001f1ec        0x0 fs/fat/ffsystem.32
 .data          0x00000000c001f1ec        0x0 fs/fat/ffunicode.32
 .data          0x00000000c001f1ec        0x0 fs/iso9660/iso9660.32
 .data          0x00000000c001f1ec        0x0 core/computer.32
 .data          0x00000000c001f1ec        0x0 core/gdt.32
 .data          0x00000000c001f1ec        0x0 core/idle.32
 .data          0x00000000c001f1ec        0x0 core/idt.32
 .data          0x00000000c001f1ec        0x4 core/kheap.32
 .data          0x00000000c001f1f0        0x0 core/main.32
 .data          0x00000000c001f1f0        0x4 core/physmgr.32
                0x00000000c001f1f0                Phys::bitmap
 .data          0x00000000c001f1f4        0x0 core/pipe.32
 *fill*         0x00000000c001f1f4        0xc 
 .data          0x00000000c001f200       0x60 core/terminal.32
                0x00000000c001f200                VgaText::hiddenOut
                0x00000000c001f220                ansiToVGAMappings
 .data          0x00000000c001f260        0x0 core/tss.32
 .data          0x00000000c001f260        0x4 core/unixfile.32
                0x00000000c001f260                UnixFile::nextFd
 .data          0x00000000c001f264       0x15 core/virtmgr.32
                0x00000000c001f264                Virt::pageAllocPtr
                0x00000000c001f268                Virt::bitmap
                0x00000000c001f26c                Virt::swapfileSectorsPerPage
                0x00000000c001f270                Virt::swapfileLength
                0x00000000c001f274                Virt::swapfileSector
                0x00000000c001f278                Virt::swapfileDrive
 *fill*         0x00000000c001f279        0x3 
 .data          0x00000000c001f27c        0x4 coreobjs/c++.32
                0x00000000c001f27c                __stack_chk_guard
 .data          0x00000000c001f280        0x0 dbg/kconsole.32
 .data          0x00000000c001f280        0x0 fs/vfs.32
 .data          0x00000000c001f280        0x0 hal/bus.32
 .data          0x00000000c001f280        0x0 hal/buzzer.32
 .data          0x00000000c001f280        0x0 hal/clock.32
 .data          0x00000000c001f280        0x0 hal/device.32
 .data          0x00000000c001f280        0x0 hal/diskctrl.32
 .data          0x00000000c001f280        0x0 hal/diskphys.32
 .data          0x00000000c001f280        0x0 hal/fpu.32
 .data          0x00000000c001f280        0x0 hal/intctrl.32
 .data          0x00000000c001f280        0x0 hal/keybrd.32
 .data          0x00000000c001f280        0x0 hal/logidisk.32
 .data          0x00000000c001f280        0x0 hal/mouse.32
 .data          0x00000000c001f280        0x0 hal/partition.32
 .data          0x00000000c001f280        0x0 hal/serial.32
 .data          0x00000000c001f280        0x0 hal/timer.32
 .data          0x00000000c001f280        0x0 hal/vcache.32
 .data          0x00000000c001f280        0x0 hal/video.32
 .data          0x00000000c001f280       0x10 hw/acpi.32
                0x00000000c001f280                legacyIRQRemaps
 .data          0x00000000c001f290        0x4 hw/cpu.32
                0x00000000c001f290                lastCode
 *fill*         0x00000000c001f294        0xc 
 .data          0x00000000c001f2a0      0x142 krnl/bootmsg.32
                0x00000000c001f2a0                KiSplashScreen
 *fill*         0x00000000c001f3e2       0x1e 
 .data          0x00000000c001f400       0x4d krnl/env.32
                0x00000000c001f400                defaultSysEnv
 .data          0x00000000c001f44d        0x0 krnl/inlines.32
 .data          0x00000000c001f44d        0x0 krnl/panic.32
 .data          0x00000000c001f44d        0x0 krnl/powctrl.32
 .data          0x00000000c001f44d        0x0 krnl/resolve.32
 *fill*         0x00000000c001f44d       0x13 
 .data          0x00000000c001f460       0xc4 krnl/syscalls.32
                0x00000000c001f460                systemCallHandlers
 .data          0x00000000c001f524        0x0 reg/registry.32
 .data          0x00000000c001f524        0x0 sys/eject.32
 .data          0x00000000c001f524        0x0 sys/exit.32
 .data          0x00000000c001f524        0x0 sys/getcwd.32
 .data          0x00000000c001f524        0x0 sys/getpid.32
 .data          0x00000000c001f524        0x0 sys/getramdata.32
 .data          0x00000000c001f524        0x0 sys/getvgaptr.32
 .data          0x00000000c001f524        0x0 sys/loaddll.32
 .data          0x00000000c001f524        0x0 sys/read.32
 .data          0x00000000c001f524        0x0 sys/sbrk.32
 .data          0x00000000c001f524        0x0 sys/setcwd.32
 .data          0x00000000c001f524        0x0 sys/settime.32
 .data          0x00000000c001f524        0x0 sys/timezone.32
 .data          0x00000000c001f524        0x0 sys/write.32
 .data          0x00000000c001f524        0x0 sys/wsbe.32
 .data          0x00000000c001f524        0x0 sys/yield.32
 .data          0x00000000c001f524        0x0 thr/elf.32
 .data          0x00000000c001f524        0x4 thr/prcssthr.32
                0x00000000c001f524                Thr::nextPID
 .data          0x00000000c001f528        0x0 vm86/vm8086.32
 .data          0x00000000c001f528        0x0 arch/i386/hal.32
 .data          0x00000000c001f528        0x0 arch/i386/pic.32
 .data          0x00000000c001f528        0x0 arch/i386/rtc.32
 .data          0x00000000c001f528        0x0 arch/i386/vga.32
 .data          0x00000000c001f528        0x0 fs/fat/vfslink.32
 .data          0x00000000c001f528        0x0 fs/iso9660/helper.32
 .data          0x00000000c001f528        0x1 fs/iso9660/vfslink.32
                0x00000000c001f528                recentDriveletter
 .data          0x00000000c001f529        0x0 hal/sound/sndcard.32
 .data          0x00000000c001f529        0x0 hal/sound/sndport.32
 .data          0x00000000c001f529        0x0 hw/bus/isa.32
 .data          0x00000000c001f529        0x0 hw/bus/pci.32
 .data          0x00000000c001f529        0x0 hw/diskctrl/ide.32
 .data          0x00000000c001f529        0x0 hw/diskctrl/satabus.32
 .data          0x00000000c001f529        0x0 hw/diskphys/ata.32
 .data          0x00000000c001f529        0x0 hw/diskphys/atapi.32
 .data          0x00000000c001f529        0x0 hw/diskphys/sata.32
 .data          0x00000000c001f529        0x0 hw/diskphys/satapi.32
 .data          0x00000000c001f529        0x0 hw/intctrl/apic.32
 .data          0x00000000c001f529        0x0 hw/timer/apictimer.32
 .data          0x00000000c001f529        0x0 hw/timer/pit.32
 .data          0x00000000c001f529        0x0 /cygdrive/d/Users/Alex/Desktop/Toolchain/Output/bin/../lib/gcc/i386-banana/8.1.0/crtend.o
 .data          0x00000000c001f529        0x0 crtn.32
 .data          0x00000000c001f529        0x0 /cygdrive/d/Users/Alex/Desktop/Toolchain/Output/bin/../lib/gcc/i386-banana/8.1.0/libkgcc.a(_divdi3.o)
 .data          0x00000000c001f529        0x0 /cygdrive/d/Users/Alex/Desktop/Toolchain/Output/bin/../lib/gcc/i386-banana/8.1.0/libkgcc.a(_moddi3.o)
 .data          0x00000000c001f529        0x0 /cygdrive/d/Users/Alex/Desktop/Toolchain/Output/bin/../lib/gcc/i386-banana/8.1.0/libkgcc.a(_udivdi3.o)
 .data          0x00000000c001f529        0x0 /cygdrive/d/Users/Alex/Desktop/Toolchain/Output/bin/../lib/gcc/i386-banana/8.1.0/libkgcc.a(_umoddi3.o)
 *(.gnu.linkonce.d*)

.got            0x00000000c001f52c        0x0
 .got           0x00000000c001f52c        0x0 D:/Users/Alex/Desktop/Banana/kernel/boot.32

.got.plt        0x00000000c001f52c        0x0
 .got.plt       0x00000000c001f52c        0x0 D:/Users/Alex/Desktop/Banana/kernel/boot.32

.igot.plt       0x00000000c001f52c        0x0
 .igot.plt      0x00000000c001f52c        0x0 D:/Users/Alex/Desktop/Banana/kernel/boot.32

.tm_clone_table
                0x00000000c001f52c        0x0
 .tm_clone_table
                0x00000000c001f52c        0x0 /cygdrive/d/Users/Alex/Desktop/Toolchain/Output/bin/../lib/gcc/i386-banana/8.1.0/crtbegin.o
 .tm_clone_table
                0x00000000c001f52c        0x0 /cygdrive/d/Users/Alex/Desktop/Toolchain/Output/bin/../lib/gcc/i386-banana/8.1.0/crtend.o

.eh_frame       0x00000000c001f529      0x18b
 *(.eh_frame)
 *fill*         0x00000000c001f529        0x3 
 .eh_frame      0x00000000c001f52c        0x0 /cygdrive/d/Users/Alex/Desktop/Toolchain/Output/bin/../lib/gcc/i386-banana/8.1.0/crtbegin.o
 .eh_frame      0x00000000c001f52c        0x0 /cygdrive/d/Users/Alex/Desktop/Toolchain/Output/bin/../lib/gcc/i386-banana/8.1.0/crtend.o
                                          0x4 (size before relaxing)
 .eh_frame      0x00000000c001f52c       0x58 /cygdrive/d/Users/Alex/Desktop/Toolchain/Output/bin/../lib/gcc/i386-banana/8.1.0/libkgcc.a(_divdi3.o)
 .eh_frame      0x00000000c001f584       0x40 /cygdrive/d/Users/Alex/Desktop/Toolchain/Output/bin/../lib/gcc/i386-banana/8.1.0/libkgcc.a(_moddi3.o)
                                         0x58 (size before relaxing)
 .eh_frame      0x00000000c001f5c4       0x6c /cygdrive/d/Users/Alex/Desktop/Toolchain/Output/bin/../lib/gcc/i386-banana/8.1.0/libkgcc.a(_udivdi3.o)
                                         0x84 (size before relaxing)
 .eh_frame      0x00000000c001f630       0x84 /cygdrive/d/Users/Alex/Desktop/Toolchain/Output/bin/../lib/gcc/i386-banana/8.1.0/libkgcc.a(_umoddi3.o)
                                         0x9c (size before relaxing)

.rel.dyn        0x00000000c001f6b4        0x0
 .rel.got       0x00000000c001f6b4        0x0 D:/Users/Alex/Desktop/Banana/kernel/boot.32
 .rel.iplt      0x00000000c001f6b4        0x0 D:/Users/Alex/Desktop/Banana/kernel/boot.32
 .rel.text      0x00000000c001f6b4        0x0 D:/Users/Alex/Desktop/Banana/kernel/boot.32
 .rel.text._ZN8ComputerD2Ev
                0x00000000c001f6b4        0x0 D:/Users/Alex/Desktop/Banana/kernel/boot.32
 .rel.text._ZN8ComputerD0Ev
                0x00000000c001f6b4        0x0 D:/Users/Alex/Desktop/Banana/kernel/boot.32
 .rel.rodata._ZTV8Computer
                0x00000000c001f6b4        0x0 D:/Users/Alex/Desktop/Banana/kernel/boot.32
 .rel.text._ZN16DriverlessDeviceD2Ev
                0x00000000c001f6b4        0x0 D:/Users/Alex/Desktop/Banana/kernel/boot.32
 .rel.text._ZN16DriverlessDeviceD0Ev
                0x00000000c001f6b4        0x0 D:/Users/Alex/Desktop/Banana/kernel/boot.32
 .rel.rodata._ZTV16DriverlessDevice
                0x00000000c001f6b4        0x0 D:/Users/Alex/Desktop/Banana/kernel/boot.32
 .rel.text._ZN4ACPID2Ev
                0x00000000c001f6b4        0x0 D:/Users/Alex/Desktop/Banana/kernel/boot.32
 .rel.text._ZN4ACPID0Ev
                0x00000000c001f6b4        0x0 D:/Users/Alex/Desktop/Banana/kernel/boot.32
 .rel.rodata._ZTV4ACPI
                0x00000000c001f6b4        0x0 D:/Users/Alex/Desktop/Banana/kernel/boot.32
 .rel.text._ZN3CPUD2Ev
                0x00000000c001f6b4        0x0 D:/Users/Alex/Desktop/Banana/kernel/boot.32
 .rel.text._ZN3CPUD0Ev
                0x00000000c001f6b4        0x0 D:/Users/Alex/Desktop/Banana/kernel/boot.32
 .rel.rodata._ZTV3CPU
                0x00000000c001f6b4        0x0 D:/Users/Alex/Desktop/Banana/kernel/boot.32
 .rel.text._ZN3PCID2Ev
                0x00000000c001f6b4        0x0 D:/Users/Alex/Desktop/Banana/kernel/boot.32
 .rel.text._ZN3PCID0Ev
                0x00000000c001f6b4        0x0 D:/Users/Alex/Desktop/Banana/kernel/boot.32
 .rel.rodata._ZTV3PCI
                0x00000000c001f6b4        0x0 D:/Users/Alex/Desktop/Banana/kernel/boot.32
 .rel.text._ZN3IDED2Ev
                0x00000000c001f6b4        0x0 D:/Users/Alex/Desktop/Banana/kernel/boot.32
 .rel.text._ZN3IDED0Ev
                0x00000000c001f6b4        0x0 D:/Users/Alex/Desktop/Banana/kernel/boot.32
 .rel.rodata._ZTV3IDE
                0x00000000c001f6b4        0x0 D:/Users/Alex/Desktop/Banana/kernel/boot.32
 .rel.text._ZN7SATABusD2Ev
                0x00000000c001f6b4        0x0 D:/Users/Alex/Desktop/Banana/kernel/boot.32
 .rel.text._ZN7SATABusD0Ev
                0x00000000c001f6b4        0x0 D:/Users/Alex/Desktop/Banana/kernel/boot.32
 .rel.rodata._ZTV7SATABus
                0x00000000c001f6b4        0x0 D:/Users/Alex/Desktop/Banana/kernel/boot.32
 .rel.text._ZN3ATAD2Ev
                0x00000000c001f6b4        0x0 D:/Users/Alex/Desktop/Banana/kernel/boot.32
 .rel.text._ZN3ATAD0Ev
                0x00000000c001f6b4        0x0 D:/Users/Alex/Desktop/Banana/kernel/boot.32
 .rel.rodata._ZTV3ATA
                0x00000000c001f6b4        0x0 D:/Users/Alex/Desktop/Banana/kernel/boot.32
 .rel.text._ZN5ATAPID2Ev
                0x00000000c001f6b4        0x0 D:/Users/Alex/Desktop/Banana/kernel/boot.32
 .rel.text._ZN5ATAPID0Ev
                0x00000000c001f6b4        0x0 D:/Users/Alex/Desktop/Banana/kernel/boot.32
 .rel.rodata._ZTV5ATAPI
                0x00000000c001f6b4        0x0 D:/Users/Alex/Desktop/Banana/kernel/boot.32
 .rel.text._ZN4SATAD2Ev
                0x00000000c001f6b4        0x0 D:/Users/Alex/Desktop/Banana/kernel/boot.32
 .rel.text._ZN4SATAD0Ev
                0x00000000c001f6b4        0x0 D:/Users/Alex/Desktop/Banana/kernel/boot.32
 .rel.rodata._ZTV4SATA
                0x00000000c001f6b4        0x0 D:/Users/Alex/Desktop/Banana/kernel/boot.32
 .rel.text._ZN6SATAPID2Ev
                0x00000000c001f6b4        0x0 D:/Users/Alex/Desktop/Banana/kernel/boot.32
 .rel.text._ZN6SATAPID0Ev
                0x00000000c001f6b4        0x0 D:/Users/Alex/Desktop/Banana/kernel/boot.32
 .rel.rodata._ZTV6SATAPI
                0x00000000c001f6b4        0x0 D:/Users/Alex/Desktop/Banana/kernel/boot.32
 .rel.text._ZN6IOAPICD2Ev
                0x00000000c001f6b4        0x0 D:/Users/Alex/Desktop/Banana/kernel/boot.32
 .rel.text._ZN6IOAPICD0Ev
                0x00000000c001f6b4        0x0 D:/Users/Alex/Desktop/Banana/kernel/boot.32
 .rel.rodata._ZTV6IOAPIC
                0x00000000c001f6b4        0x0 D:/Users/Alex/Desktop/Banana/kernel/boot.32
 .rel.text._ZN9APICTimerD2Ev
                0x00000000c001f6b4        0x0 D:/Users/Alex/Desktop/Banana/kernel/boot.32
 .rel.text._ZN9APICTimerD0Ev
                0x00000000c001f6b4        0x0 D:/Users/Alex/Desktop/Banana/kernel/boot.32
 .rel.rodata._ZTV9APICTimer
                0x00000000c001f6b4        0x0 D:/Users/Alex/Desktop/Banana/kernel/boot.32
 .rel.text._ZN3PITD2Ev
                0x00000000c001f6b4        0x0 D:/Users/Alex/Desktop/Banana/kernel/boot.32
 .rel.text._ZN3PITD0Ev
                0x00000000c001f6b4        0x0 D:/Users/Alex/Desktop/Banana/kernel/boot.32
 .rel.rodata._ZTV3PIT
                0x00000000c001f6b4        0x0 D:/Users/Alex/Desktop/Banana/kernel/boot.32

.bss            0x00000000c001f6b4     0x4b94
                0x00000000c001f6b4                sbss = .
 *(COMMON)
 *fill*         0x00000000c001f6b4        0xc 
 COMMON         0x00000000c001f6c0       0xa0 fs/iso9660/iso9660.32
                0x00000000c001f6c0                dcache
                0x00000000c001f700                cdDriveLetter
                0x00000000c001f720                icache
 *(.bss)
 .bss           0x00000000c001f760        0x0 crti.32
 .bss           0x00000000c001f760       0x20 /cygdrive/d/Users/Alex/Desktop/Toolchain/Output/bin/../lib/gcc/i386-banana/8.1.0/crtbegin.o
 .bss           0x00000000c001f780        0x4 acpica/utclib.32
 *fill*         0x00000000c001f784       0x1c 
 .bss           0x00000000c001f7a0      0x378 core/malloc.32
 .bss           0x00000000c001fb18        0x0 libk/ctype.32
 .bss           0x00000000c001fb18        0x0 libk/string.32
 .bss           0x00000000c001fb18        0x0 fs/fat/diskio.32
 *fill*         0x00000000c001fb18        0x8 
 .bss           0x00000000c001fb20       0x88 fs/fat/ff.32
 .bss           0x00000000c001fba8        0x0 fs/fat/ffsystem.32
 .bss           0x00000000c001fba8        0x0 fs/fat/ffunicode.32
 *fill*         0x00000000c001fba8       0x18 
 .bss           0x00000000c001fbc0      0x998 fs/iso9660/iso9660.32
 .bss           0x00000000c0020558        0x6 core/computer.32
                0x00000000c0020558                Krnl::computer
                0x00000000c002055c                KeIsPreemptionOn
                0x00000000c002055d                KeIsSchedulingOn
 *fill*         0x00000000c002055e        0x2 
 .bss           0x00000000c0020560        0x6 core/gdt.32
                0x00000000c0020560                gdtDescr
 .bss           0x00000000c0020566        0x0 core/idle.32
 *fill*         0x00000000c0020566        0x2 
 .bss           0x00000000c0020568        0x6 core/idt.32
                0x00000000c0020568                idtDescr
 .bss           0x00000000c002056e        0x0 core/kheap.32
 *fill*         0x00000000c002056e        0x2 
 .bss           0x00000000c0020570        0x4 core/main.32
                0x00000000c0020570                sysBootSettings
 .bss           0x00000000c0020574       0x29 core/physmgr.32
                0x00000000c0020574                Phys::forbidEvictions
                0x00000000c0020578                Phys::currentPagePointer
                0x00000000c002057c                Phys::highestMem
                0x00000000c0020580                Phys::oldPercent
                0x00000000c0020584                Phys::usedPages
                0x00000000c0020588                Phys::usablePages
                0x00000000c002058c                Phys::dmaUsage
 .bss           0x00000000c002059d        0x0 core/pipe.32
 *fill*         0x00000000c002059d        0x3 
 .bss           0x00000000c00205a0        0x9 core/terminal.32
                0x00000000c00205a0                terminalCycle
                0x00000000c00205a4                activeTerminal
                0x00000000c00205a8                VgaText::graphicMode
 *fill*         0x00000000c00205a9        0x1 
 .bss           0x00000000c00205aa        0x2 core/tss.32
                0x00000000c00205aa                doubleFaultSelector
 *fill*         0x00000000c00205ac       0x14 
 .bss           0x00000000c00205c0       0x84 core/unixfile.32
                0x00000000c00205c0                sfileLpt
                0x00000000c0020600                sfileCom
                0x00000000c0020624                sfileNul
                0x00000000c0020628                sfilePnt
                0x00000000c002062c                sfileAux
                0x00000000c0020630                sfileCon
                0x00000000c0020634                initialFilesAdded
                0x00000000c0020638                unixFileLinkedList
 .bss           0x00000000c0020644       0x10 core/virtmgr.32
                0x00000000c0020644                twswaps
                0x00000000c0020648                swapBalance
                0x00000000c002064c                Virt::swapfileBitmap
                0x00000000c0020650                firstVAS
 .bss           0x00000000c0020654        0x0 coreobjs/c++.32
 .bss           0x00000000c0020654        0x0 dbg/kconsole.32
 .bss           0x00000000c0020654        0x4 fs/vfs.32
                0x00000000c0020654                installedFilesystems
 .bss           0x00000000c0020658        0x0 hal/bus.32
 .bss           0x00000000c0020658        0x0 hal/buzzer.32
 .bss           0x00000000c0020658        0x8 hal/clock.32
                0x00000000c0020658                User::dstOn
                0x00000000c0020659                User::timezoneHalfHourOffset
                0x00000000c002065c                User::timezoneHourOffset
 .bss           0x00000000c0020660        0x0 hal/device.32
 .bss           0x00000000c0020660        0x0 hal/diskctrl.32
 .bss           0x00000000c0020660        0x0 hal/diskphys.32
 .bss           0x00000000c0020660        0x0 hal/fpu.32
 .bss           0x00000000c0020660     0x2000 hal/intctrl.32
                0x00000000c0020660                INT_contexts
                0x00000000c0021660                INT_handlers
 .bss           0x00000000c0022660      0x429 hal/keybrd.32
                0x00000000c0022660                keyboardWaitingTaskList
                0x00000000c0022664                keyboardSetupYet
                0x00000000c0022668                guiKeyboardHandler
                0x00000000c0022680                keystates
 *fill*         0x00000000c0022a89       0x17 
 .bss           0x00000000c0022aa0       0x88 hal/logidisk.32
                0x00000000c0022aa0                diskAssignments
                0x00000000c0022ac0                disks
 .bss           0x00000000c0022b28        0x4 hal/mouse.32
                0x00000000c0022b28                guiMouseHandler
 .bss           0x00000000c0022b2c        0x0 hal/partition.32
 .bss           0x00000000c0022b2c        0x0 hal/serial.32
 .bss           0x00000000c0022b2c        0x4 hal/timer.32
                0x00000000c0022b2c                milliTenthsSinceBoot
 .bss           0x00000000c0022b30        0x0 hal/vcache.32
 .bss           0x00000000c0022b30        0x4 hal/video.32
                0x00000000c0022b30                screen
 *fill*         0x00000000c0022b34        0xc 
 .bss           0x00000000c0022b40      0x480 hw/acpi.32
                0x00000000c0022b40                systemSleepFunction
                0x00000000c0022b44                systemResetFunction
                0x00000000c0022b48                systemShutdownFunction
                0x00000000c0022b4c                nextACPITable
                0x00000000c0022b60                acpiTables
                0x00000000c0022d60                usingXSDT
                0x00000000c0022d64                MADTpointer
                0x00000000c0022d68                RSDTpointer
                0x00000000c0022d6c                RSDPpointer
                0x00000000c0022d70                nextAPICNMI
                0x00000000c0022d80                apicNMIInfo
                0x00000000c0022e00                legacyIRQFlags
                0x00000000c0022e20                ioapicDiscoveryNumber
                0x00000000c0022e40                ioapicFoundInMADT
                0x00000000c0022e60                ioapicAddresses
                0x00000000c0022ee0                ioapicGSIBase
                0x00000000c0022f60                processorDiscoveryNumber
                0x00000000c0022f80                matchingAPICID
                0x00000000c0022fa0                processorID
 .bss           0x00000000c0022fc0       0x10 hw/cpu.32
                0x00000000c0022fc0                lastD
                0x00000000c0022fc4                lastC
                0x00000000c0022fc8                lastB
                0x00000000c0022fcc                lastA
 .bss           0x00000000c0022fd0        0x0 krnl/bootmsg.32
 .bss           0x00000000c0022fd0        0x8 krnl/env.32
                0x00000000c0022fd0                Krnl::userEnv
                0x00000000c0022fd4                Krnl::systemEnv
 .bss           0x00000000c0022fd8        0x0 krnl/inlines.32
 .bss           0x00000000c0022fd8        0x1 krnl/panic.32
                0x00000000c0022fd8                KeIsKernelInPanic
 *fill*         0x00000000c0022fd9        0x7 
 .bss           0x00000000c0022fe0       0x48 krnl/powctrl.32
                0x00000000c0022fe0                Krnl::powCtrlOnBattery
                0x00000000c0023000                Krnl::currentPowerSettings
                0x00000000c0023024                Krnl::secondsSinceLastUserIO
 .bss           0x00000000c0023028        0x0 krnl/resolve.32
 .bss           0x00000000c0023028        0x0 krnl/syscalls.32
 .bss           0x00000000c0023028        0x0 reg/registry.32
 .bss           0x00000000c0023028        0x0 sys/eject.32
 .bss           0x00000000c0023028        0x0 sys/exit.32
 .bss           0x00000000c0023028        0x0 sys/getcwd.32
 .bss           0x00000000c0023028        0x0 sys/getpid.32
 .bss           0x00000000c0023028        0x0 sys/getramdata.32
 .bss           0x00000000c0023028        0x0 sys/getvgaptr.32
 .bss           0x00000000c0023028        0x0 sys/loaddll.32
 .bss           0x00000000c0023028        0x0 sys/read.32
 .bss           0x00000000c0023028        0x0 sys/sbrk.32
 .bss           0x00000000c0023028        0x0 sys/setcwd.32
 .bss           0x00000000c0023028        0x0 sys/settime.32
 .bss           0x00000000c0023028        0x0 sys/timezone.32
 .bss           0x00000000c0023028        0x0 sys/write.32
 .bss           0x00000000c0023028        0x0 sys/wsbe.32
 .bss           0x00000000c0023028        0x0 sys/yield.32
 *fill*         0x00000000c0023028       0x18 
 .bss           0x00000000c0023040      0x7a4 thr/elf.32
                0x00000000c0023040                Thr::driverLookupNext
                0x00000000c0023060                Thr::driverLookupLen
                0x00000000c0023260                Thr::driverLookupAddr
                0x00000000c0023460                Thr::driverNameLookup
                0x00000000c0023660                Thr::kernelSymbols
                0x00000000c00236e0                Thr::kernelStringTable
                0x00000000c0023760                Thr::kernelSymbolTable
                0x00000000c00237e0                Thr::nextDLLSymbolIndex
 *fill*         0x00000000c00237e4        0x4 
 .bss           0x00000000c00237e8       0x68 thr/prcssthr.32
                0x00000000c00237e8                cleanerThread
                0x00000000c00237ec                weNeedTheCleanerToNotBlock
                0x00000000c00237f0                retValLockStuff
                0x00000000c00237f4                retValSchedLock
                0x00000000c00237f8                lockStuffLock
                0x00000000c00237fc                schedulerLock
                0x00000000c0023800                taskSwitchesPostponedFlag
                0x00000000c0023804                postponeTaskSwitchesCounter
                0x00000000c0023808                irqDisableCounter
                0x00000000c002380c                terminatedTaskList
                0x00000000c0023818                sleepingTaskList
                0x00000000c0023824                taskList
                0x00000000c0023830                kernelProcess
 *fill*         0x00000000c0023850       0x10 
 .bss           0x00000000c0023860       0x40 vm86/vm8086.32
                0x00000000c0023860                Vm::vmRetV
                0x00000000c0023864                Vm::vmDone
                0x00000000c0023865                Vm::vmReady
                0x00000000c0023868                Vm::vm86Thread
                0x00000000c002386c                Vm::vmToHostCommsPtr
                0x00000000c0023880                Vm::vmToHostComms
 .bss           0x00000000c00238a0       0x14 arch/i386/hal.32
                0x00000000c00238a0                apic
                0x00000000c00238a4                fpuOwner
                0x00000000c00238a8                coproLoadFunc
                0x00000000c00238ac                coproSaveFunc
                0x00000000c00238b0                gpFaultIntercept
 .bss           0x00000000c00238b4        0x0 arch/i386/pic.32
 .bss           0x00000000c00238b4        0x2 arch/i386/rtc.32
 .bss           0x00000000c00238b6        0x0 arch/i386/vga.32
 *fill*         0x00000000c00238b6        0xa 
 .bss           0x00000000c00238c0       0xf0 fs/fat/vfslink.32
                0x00000000c00238c0                FAT::fats
                0x00000000c00238e0                FAT::vfsToFatRemaps
                0x00000000c0023960                fatToVFSRemaps
 .bss           0x00000000c00239b0        0x0 fs/iso9660/helper.32
 *fill*         0x00000000c00239b0       0x10 
 .bss           0x00000000c00239c0      0x820 fs/iso9660/vfslink.32
                0x00000000c00239c0                iso9660Owner
                0x00000000c00239c4                recentSector
                0x00000000c00239e0                recentBuffer
 .bss           0x00000000c00241e0        0x0 hal/sound/sndcard.32
 .bss           0x00000000c00241e0        0x0 hal/sound/sndport.32
 .bss           0x00000000c00241e0        0x0 hw/bus/isa.32
 .bss           0x00000000c00241e0        0xd hw/bus/pci.32
                0x00000000c00241e0                thePCI
 .bss           0x00000000c00241ed        0x0 hw/diskctrl/ide.32
 .bss           0x00000000c00241ed        0x0 hw/diskctrl/satabus.32
 *fill*         0x00000000c00241ed        0x3 
 .bss           0x00000000c00241f0        0x8 hw/diskphys/ata.32
                0x00000000c00241f0                ataSectorsWritten
                0x00000000c00241f4                ataSectorsRead
 .bss           0x00000000c00241f8        0x0 hw/diskphys/atapi.32
 .bss           0x00000000c00241f8        0x0 hw/diskphys/sata.32
 .bss           0x00000000c00241f8        0x0 hw/diskphys/satapi.32
 *fill*         0x00000000c00241f8        0x8 
 .bss           0x00000000c0024200       0x41 hw/intctrl/apic.32
                0x00000000c0024200                noOfIOAPICs
                0x00000000c0024220                ioapics
                0x00000000c0024240                IOAPICsSetupYet
 .bss           0x00000000c0024241        0x0 hw/timer/apictimer.32
 *fill*         0x00000000c0024241        0x3 
 .bss           0x00000000c0024244        0x4 hw/timer/pit.32
                0x00000000c0024244                pitFreq
 .bss           0x00000000c0024248        0x0 /cygdrive/d/Users/Alex/Desktop/Toolchain/Output/bin/../lib/gcc/i386-banana/8.1.0/crtend.o
 .bss           0x00000000c0024248        0x0 crtn.32
 .bss           0x00000000c0024248        0x0 /cygdrive/d/Users/Alex/Desktop/Toolchain/Output/bin/../lib/gcc/i386-banana/8.1.0/libkgcc.a(_divdi3.o)
 .bss           0x00000000c0024248        0x0 /cygdrive/d/Users/Alex/Desktop/Toolchain/Output/bin/../lib/gcc/i386-banana/8.1.0/libkgcc.a(_moddi3.o)
 .bss           0x00000000c0024248        0x0 /cygdrive/d/Users/Alex/Desktop/Toolchain/Output/bin/../lib/gcc/i386-banana/8.1.0/libkgcc.a(_udivdi3.o)
 .bss           0x00000000c0024248        0x0 /cygdrive/d/Users/Alex/Desktop/Toolchain/Output/bin/../lib/gcc/i386-banana/8.1.0/libkgcc.a(_umoddi3.o)
 *(.bootstrap_stack)
 *(.gnu.linkonce.b*)
                0x00000000c0024248                ebss = .

/DISCARD/
 *(.comment)
                0x00000000c0028ddc                . = (. + SIZEOF (.bss))
OUTPUT(D:/Users/Alex/Desktop/Banana/kernel/KERNEL32.EXE elf32-i386)

.debug_info     0x0000000000000000     0x351f
 .debug_info    0x0000000000000000      0xd63 /cygdrive/d/Users/Alex/Desktop/Toolchain/Output/bin/../lib/gcc/i386-banana/8.1.0/libkgcc.a(_divdi3.o)
 .debug_info    0x0000000000000d63      0xd63 /cygdrive/d/Users/Alex/Desktop/Toolchain/Output/bin/../lib/gcc/i386-banana/8.1.0/libkgcc.a(_moddi3.o)
 .debug_info    0x0000000000001ac6      0xd25 /cygdrive/d/Users/Alex/Desktop/Toolchain/Output/bin/../lib/gcc/i386-banana/8.1.0/libkgcc.a(_udivdi3.o)
 .debug_info    0x00000000000027eb      0xd34 /cygdrive/d/Users/Alex/Desktop/Toolchain/Output/bin/../lib/gcc/i386-banana/8.1.0/libkgcc.a(_umoddi3.o)

.debug_abbrev   0x0000000000000000      0x930
 .debug_abbrev  0x0000000000000000      0x255 /cygdrive/d/Users/Alex/Desktop/Toolchain/Output/bin/../lib/gcc/i386-banana/8.1.0/libkgcc.a(_divdi3.o)
 .debug_abbrev  0x0000000000000255      0x255 /cygdrive/d/Users/Alex/Desktop/Toolchain/Output/bin/../lib/gcc/i386-banana/8.1.0/libkgcc.a(_moddi3.o)
 .debug_abbrev  0x00000000000004aa      0x23a /cygdrive/d/Users/Alex/Desktop/Toolchain/Output/bin/../lib/gcc/i386-banana/8.1.0/libkgcc.a(_udivdi3.o)
 .debug_abbrev  0x00000000000006e4      0x24c /cygdrive/d/Users/Alex/Desktop/Toolchain/Output/bin/../lib/gcc/i386-banana/8.1.0/libkgcc.a(_umoddi3.o)

.debug_loc      0x0000000000000000     0x174d
 .debug_loc     0x0000000000000000      0x3b0 /cygdrive/d/Users/Alex/Desktop/Toolchain/Output/bin/../lib/gcc/i386-banana/8.1.0/libkgcc.a(_divdi3.o)
 .debug_loc     0x00000000000003b0      0x48d /cygdrive/d/Users/Alex/Desktop/Toolchain/Output/bin/../lib/gcc/i386-banana/8.1.0/libkgcc.a(_moddi3.o)
 .debug_loc     0x000000000000083d      0x79c /cygdrive/d/Users/Alex/Desktop/Toolchain/Output/bin/../lib/gcc/i386-banana/8.1.0/libkgcc.a(_udivdi3.o)
 .debug_loc     0x0000000000000fd9      0x774 /cygdrive/d/Users/Alex/Desktop/Toolchain/Output/bin/../lib/gcc/i386-banana/8.1.0/libkgcc.a(_umoddi3.o)

.debug_aranges  0x0000000000000000       0x80
 .debug_aranges
                0x0000000000000000       0x20 /cygdrive/d/Users/Alex/Desktop/Toolchain/Output/bin/../lib/gcc/i386-banana/8.1.0/libkgcc.a(_divdi3.o)
 .debug_aranges
                0x0000000000000020       0x20 /cygdrive/d/Users/Alex/Desktop/Toolchain/Output/bin/../lib/gcc/i386-banana/8.1.0/libkgcc.a(_moddi3.o)
 .debug_aranges
                0x0000000000000040       0x20 /cygdrive/d/Users/Alex/Desktop/Toolchain/Output/bin/../lib/gcc/i386-banana/8.1.0/libkgcc.a(_udivdi3.o)
 .debug_aranges
                0x0000000000000060       0x20 /cygdrive/d/Users/Alex/Desktop/Toolchain/Output/bin/../lib/gcc/i386-banana/8.1.0/libkgcc.a(_umoddi3.o)

.debug_ranges   0x0000000000000000       0x98
 .debug_ranges  0x0000000000000000       0x20 /cygdrive/d/Users/Alex/Desktop/Toolchain/Output/bin/../lib/gcc/i386-banana/8.1.0/libkgcc.a(_divdi3.o)
 .debug_ranges  0x0000000000000020       0x20 /cygdrive/d/Users/Alex/Desktop/Toolchain/Output/bin/../lib/gcc/i386-banana/8.1.0/libkgcc.a(_moddi3.o)
 .debug_ranges  0x0000000000000040       0x28 /cygdrive/d/Users/Alex/Desktop/Toolchain/Output/bin/../lib/gcc/i386-banana/8.1.0/libkgcc.a(_udivdi3.o)
 .debug_ranges  0x0000000000000068       0x30 /cygdrive/d/Users/Alex/Desktop/Toolchain/Output/bin/../lib/gcc/i386-banana/8.1.0/libkgcc.a(_umoddi3.o)

.debug_line     0x0000000000000000      0xbf2
 .debug_line    0x0000000000000000      0x2f9 /cygdrive/d/Users/Alex/Desktop/Toolchain/Output/bin/../lib/gcc/i386-banana/8.1.0/libkgcc.a(_divdi3.o)
 .debug_line    0x00000000000002f9      0x333 /cygdrive/d/Users/Alex/Desktop/Toolchain/Output/bin/../lib/gcc/i386-banana/8.1.0/libkgcc.a(_moddi3.o)
 .debug_line    0x000000000000062c      0x2c5 /cygdrive/d/Users/Alex/Desktop/Toolchain/Output/bin/../lib/gcc/i386-banana/8.1.0/libkgcc.a(_udivdi3.o)
 .debug_line    0x00000000000008f1      0x301 /cygdrive/d/Users/Alex/Desktop/Toolchain/Output/bin/../lib/gcc/i386-banana/8.1.0/libkgcc.a(_umoddi3.o)

.debug_str      0x0000000000000000      0xb97
 .debug_str     0x0000000000000000      0xb7a /cygdrive/d/Users/Alex/Desktop/Toolchain/Output/bin/../lib/gcc/i386-banana/8.1.0/libkgcc.a(_divdi3.o)
                                        0xc28 (size before relaxing)
 .debug_str     0x0000000000000b7a        0x9 /cygdrive/d/Users/Alex/Desktop/Toolchain/Output/bin/../lib/gcc/i386-banana/8.1.0/libkgcc.a(_moddi3.o)
                                        0xc28 (size before relaxing)
 .debug_str     0x0000000000000b83        0xa /cygdrive/d/Users/Alex/Desktop/Toolchain/Output/bin/../lib/gcc/i386-banana/8.1.0/libkgcc.a(_udivdi3.o)
                                        0xc29 (size before relaxing)
 .debug_str     0x0000000000000b8d        0xa /cygdrive/d/Users/Alex/Desktop/Toolchain/Output/bin/../lib/gcc/i386-banana/8.1.0/libkgcc.a(_umoddi3.o)
                                        0xc29 (size before relaxing)
