Archive member included to satisfy reference by file (symbol)

/cygdrive/d/Users/Alex/Desktop/Toolchain/Output/bin/../lib/gcc/i386-banana/8.1.0/libkgcc.a(_divdi3.o)
                              fs/fat/ff.32 (__divdi3)
/cygdrive/d/Users/Alex/Desktop/Toolchain/Output/bin/../lib/gcc/i386-banana/8.1.0/libkgcc.a(_moddi3.o)
                              compat/resolve.32 (__moddi3)
/cygdrive/d/Users/Alex/Desktop/Toolchain/Output/bin/../lib/gcc/i386-banana/8.1.0/libkgcc.a(_udivdi3.o)
                              fs/fat/ff.32 (__udivdi3)
/cygdrive/d/Users/Alex/Desktop/Toolchain/Output/bin/../lib/gcc/i386-banana/8.1.0/libkgcc.a(_umoddi3.o)
                              compat/resolve.32 (__umoddi3)
D:/Users/Alex/Desktop/Banana/kernel/libsoftfp.a(sfieeelib.o)
                              hal/sound/sndhw.32 (__addsf3)
D:/Users/Alex/Desktop/Banana/kernel/libsoftfp.a(dfieeelib.o)
                              hal/libresample/src_linear.32 (__adddf3)
D:/Users/Alex/Desktop/Banana/kernel/libsoftfp.a(sfdfcvt.o)
                              hal/libresample/samplerate.32 (__truncdfsf2)
D:/Users/Alex/Desktop/Banana/kernel/libk/libm32.a(s_fabs.c.o)
                              hal/libresample/samplerate.32 (fabs)
D:/Users/Alex/Desktop/Banana/kernel/libk/libm32.a(s_lrint.S.o)
                              hal/libresample/samplerate.32 (lrint)
D:/Users/Alex/Desktop/Banana/kernel/libk/libm32.a(s_lrintf.S.o)
                              hal/sound/sndhw.32 (lrintf)

Discarded input sections

 .comment       0x0000000000000000       0x12 /cygdrive/d/Users/Alex/Desktop/Toolchain/Output/bin/../lib/gcc/i386-banana/8.1.0/crtbegin.o
 .comment       0x0000000000000000       0x12 acpica/utclib.32
 .comment       0x0000000000000000       0x12 core/malloc.32
 .comment       0x0000000000000000       0x12 libk/string.32
 .comment       0x0000000000000000       0x12 fs/fat/diskio.32
 .comment       0x0000000000000000       0x12 fs/fat/ff.32
 .comment       0x0000000000000000       0x12 fs/fat/ffsystem.32
 .comment       0x0000000000000000       0x12 fs/fat/ffunicode.32
 .comment       0x0000000000000000       0x12 hal/libresample/samplerate.32
 .comment       0x0000000000000000       0x12 hal/libresample/src_linear.32
 .comment       0x0000000000000000       0x12 hal/libresample/src_sinc.32
 .comment       0x0000000000000000       0x12 hal/libresample/src_zoh.32
 .comment       0x0000000000000000       0x12 compat/inlines.32
 .comment       0x0000000000000000       0x12 compat/resolve.32
 .group         0x0000000000000000        0xc core/computer.32
 .group         0x0000000000000000       0x14 core/computer.32
 .comment       0x0000000000000000       0x12 core/computer.32
 .comment       0x0000000000000000       0x12 core/gdt.32
 .group         0x0000000000000000        0xc core/idle.32
 .comment       0x0000000000000000       0x12 core/idle.32
 .comment       0x0000000000000000       0x12 core/idt.32
 .comment       0x0000000000000000       0x12 core/kheap.32
 .comment       0x0000000000000000       0x12 core/main.32
 .comment       0x0000000000000000       0x12 core/physmgr.32
 .group         0x0000000000000000        0xc core/pipe.32
 .comment       0x0000000000000000       0x12 core/pipe.32
 .group         0x0000000000000000        0xc core/terminal.32
 .comment       0x0000000000000000       0x12 core/terminal.32
 .comment       0x0000000000000000       0x12 core/tss.32
 .group         0x0000000000000000        0xc core/unixfile.32
 .group         0x0000000000000000        0xc core/unixfile.32
 .group         0x0000000000000000        0x8 core/unixfile.32
 .group         0x0000000000000000        0xc core/unixfile.32
 .group         0x0000000000000000        0x8 core/unixfile.32
 .group         0x0000000000000000        0xc core/unixfile.32
 .group         0x0000000000000000        0xc core/unixfile.32
 .group         0x0000000000000000        0x8 core/unixfile.32
 .comment       0x0000000000000000       0x12 core/unixfile.32
 .comment       0x0000000000000000       0x12 core/virtmgr.32
 .comment       0x0000000000000000       0x12 coreobjs/c++.32
 .comment       0x0000000000000000       0x12 dbg/kconsole.32
 .group         0x0000000000000000        0xc fs/vfs.32
 .group         0x0000000000000000        0xc fs/vfs.32
 .group         0x0000000000000000        0xc fs/vfs.32
 .comment       0x0000000000000000       0x12 fs/vfs.32
 .group         0x0000000000000000        0xc hal/bus.32
 .comment       0x0000000000000000       0x12 hal/bus.32
 .group         0x0000000000000000        0xc hal/buzzer.32
 .comment       0x0000000000000000       0x12 hal/buzzer.32
 .group         0x0000000000000000        0xc hal/clock.32
 .comment       0x0000000000000000       0x12 hal/clock.32
 .group         0x0000000000000000        0xc hal/device.32
 .group         0x0000000000000000        0xc hal/device.32
 .group         0x0000000000000000        0xc hal/device.32
 .group         0x0000000000000000       0x14 hal/device.32
 .group         0x0000000000000000        0xc hal/device.32
 .comment       0x0000000000000000       0x12 hal/device.32
 .group         0x0000000000000000        0xc hal/diskctrl.32
 .comment       0x0000000000000000       0x12 hal/diskctrl.32
 .group         0x0000000000000000        0xc hal/diskphys.32
 .comment       0x0000000000000000       0x12 hal/diskphys.32
 .group         0x0000000000000000        0xc hal/fpu.32
 .comment       0x0000000000000000       0x12 hal/fpu.32
 .group         0x0000000000000000        0xc hal/intctrl.32
 .comment       0x0000000000000000       0x12 hal/intctrl.32
 .group         0x0000000000000000        0xc hal/keybrd.32
 .comment       0x0000000000000000       0x12 hal/keybrd.32
 .group         0x0000000000000000        0xc hal/logidisk.32
 .comment       0x0000000000000000       0x12 hal/logidisk.32
 .group         0x0000000000000000        0xc hal/mouse.32
 .comment       0x0000000000000000       0x12 hal/mouse.32
 .comment       0x0000000000000000       0x12 hal/partition.32
 .group         0x0000000000000000        0xc hal/serial.32
 .comment       0x0000000000000000       0x12 hal/serial.32
 .group         0x0000000000000000        0x8 hal/timer.32
 .group         0x0000000000000000        0x8 hal/timer.32
 .group         0x0000000000000000        0xc hal/timer.32
 .group         0x0000000000000000        0xc hal/timer.32
 .group         0x0000000000000000        0xc hal/timer.32
 .comment       0x0000000000000000       0x12 hal/timer.32
 .group         0x0000000000000000        0xc hal/vcache.32
 .comment       0x0000000000000000       0x12 hal/vcache.32
 .group         0x0000000000000000        0xc hal/video.32
 .comment       0x0000000000000000       0x12 hal/video.32
 .group         0x0000000000000000        0xc hw/acpi.32
 .group         0x0000000000000000       0x14 hw/acpi.32
 .comment       0x0000000000000000       0x12 hw/acpi.32
 .group         0x0000000000000000        0xc hw/cpu.32
 .group         0x0000000000000000       0x14 hw/cpu.32
 .comment       0x0000000000000000       0x12 hw/cpu.32
 .comment       0x0000000000000000       0x12 hw/ports.32
 .comment       0x0000000000000000       0x12 krnl/env.32
 .comment       0x0000000000000000       0x12 krnl/panic.32
 .comment       0x0000000000000000       0x12 net/ethernet.32
 .comment       0x0000000000000000       0x12 reg/registry.32
 .comment       0x0000000000000000       0x12 sys/sc_eject.32
 .comment       0x0000000000000000       0x12 sys/sc_exit.32
 .comment       0x0000000000000000       0x12 sys/sc_getcwd.32
 .comment       0x0000000000000000       0x12 sys/sc_getpid.32
 .comment       0x0000000000000000       0x12 sys/sc_loaddll.32
 .comment       0x0000000000000000       0x12 sys/sc_read.32
 .comment       0x0000000000000000       0x12 sys/sc_sbrk.32
 .comment       0x0000000000000000       0x12 sys/sc_setcwd.32
 .comment       0x0000000000000000       0x12 sys/sc_settime.32
 .comment       0x0000000000000000       0x12 sys/sc_timezone.32
 .comment       0x0000000000000000       0x12 sys/sc_write.32
 .comment       0x0000000000000000       0x12 sys/sc_yield.32
 .comment       0x0000000000000000       0x12 sys/syscalls.32
 .comment       0x0000000000000000       0x12 thr/elf.32
 .group         0x0000000000000000        0x8 thr/prcssthr.32
 .group         0x0000000000000000        0xc thr/prcssthr.32
 .group         0x0000000000000000        0xc thr/prcssthr.32
 .group         0x0000000000000000        0x8 thr/prcssthr.32
 .group         0x0000000000000000        0xc thr/prcssthr.32
 .group         0x0000000000000000        0x8 thr/prcssthr.32
 .group         0x0000000000000000        0x8 thr/prcssthr.32
 .group         0x0000000000000000        0x8 thr/prcssthr.32
 .text._ZN10LinkedListIV18ThreadControlBlockE10addElementEPS1_
                0x0000000000000000       0xd3 thr/prcssthr.32
 .text._ZN10LinkedListIV18ThreadControlBlockE7isEmptyEv
                0x0000000000000000       0x1c thr/prcssthr.32
 .text._ZN10LinkedListIV18ThreadControlBlockE11removeFirstEv
                0x0000000000000000       0xae thr/prcssthr.32
 .text._ZN10LinkedListIV18ThreadControlBlockE15getFirstElementEv
                0x0000000000000000        0x7 thr/prcssthr.32
 .comment       0x0000000000000000       0x12 thr/prcssthr.32
 .comment       0x0000000000000000       0x12 vm86/vm8086.32
 .group         0x0000000000000000        0x8 vm86/x87em.32
 .comment       0x0000000000000000       0x12 vm86/x87em.32
 .group         0x0000000000000000        0xc fs/fat/vfslink.32
 .comment       0x0000000000000000       0x12 fs/fat/vfslink.32
 .group         0x0000000000000000        0xc fs/iso9660/vfslink.32
 .comment       0x0000000000000000       0x12 fs/iso9660/vfslink.32
 .comment       0x0000000000000000       0x12 hal/sound/sndchannel.32
 .group         0x0000000000000000        0xc hal/sound/sndhw.32
 .comment       0x0000000000000000       0x12 hal/sound/sndhw.32
 .comment       0x0000000000000000       0x12 hw/bus/isa.32
 .group         0x0000000000000000        0xc hw/bus/pci.32
 .group         0x0000000000000000       0x14 hw/bus/pci.32
 .comment       0x0000000000000000       0x12 hw/bus/pci.32
 .group         0x0000000000000000        0xc hw/diskctrl/ide.32
 .group         0x0000000000000000       0x14 hw/diskctrl/ide.32
 .comment       0x0000000000000000       0x12 hw/diskctrl/ide.32
 .group         0x0000000000000000        0xc hw/diskctrl/satabus.32
 .group         0x0000000000000000       0x14 hw/diskctrl/satabus.32
 .comment       0x0000000000000000       0x12 hw/diskctrl/satabus.32
 .group         0x0000000000000000        0xc hw/diskphys/ata.32
 .group         0x0000000000000000       0x14 hw/diskphys/ata.32
 .comment       0x0000000000000000       0x12 hw/diskphys/ata.32
 .group         0x0000000000000000        0xc hw/diskphys/atapi.32
 .group         0x0000000000000000       0x14 hw/diskphys/atapi.32
 .comment       0x0000000000000000       0x12 hw/diskphys/atapi.32
 .group         0x0000000000000000        0xc hw/diskphys/sata.32
 .group         0x0000000000000000       0x14 hw/diskphys/sata.32
 .comment       0x0000000000000000       0x12 hw/diskphys/sata.32
 .group         0x0000000000000000        0xc hw/diskphys/satapi.32
 .group         0x0000000000000000       0x14 hw/diskphys/satapi.32
 .comment       0x0000000000000000       0x12 hw/diskphys/satapi.32
 .group         0x0000000000000000        0xc hw/fpu/avx.32
 .group         0x0000000000000000       0x14 hw/fpu/avx.32
 .comment       0x0000000000000000       0x12 hw/fpu/avx.32
 .group         0x0000000000000000        0xc hw/fpu/mmx.32
 .group         0x0000000000000000       0x14 hw/fpu/mmx.32
 .comment       0x0000000000000000       0x12 hw/fpu/mmx.32
 .group         0x0000000000000000        0xc hw/fpu/sse.32
 .group         0x0000000000000000       0x14 hw/fpu/sse.32
 .comment       0x0000000000000000       0x12 hw/fpu/sse.32
 .group         0x0000000000000000        0xc hw/fpu/x87.32
 .group         0x0000000000000000       0x14 hw/fpu/x87.32
 .comment       0x0000000000000000       0x12 hw/fpu/x87.32
 .group         0x0000000000000000        0xc hw/intctrl/apic.32
 .group         0x0000000000000000       0x14 hw/intctrl/apic.32
 .group         0x0000000000000000        0xc hw/intctrl/apic.32
 .group         0x0000000000000000       0x14 hw/intctrl/apic.32
 .comment       0x0000000000000000       0x12 hw/intctrl/apic.32
 .group         0x0000000000000000        0xc hw/intctrl/pic.32
 .group         0x0000000000000000       0x14 hw/intctrl/pic.32
 .comment       0x0000000000000000       0x12 hw/intctrl/pic.32
 .group         0x0000000000000000        0xc hw/timer/apictimer.32
 .group         0x0000000000000000       0x14 hw/timer/apictimer.32
 .comment       0x0000000000000000       0x12 hw/timer/apictimer.32
 .group         0x0000000000000000        0xc hw/timer/pit.32
 .group         0x0000000000000000       0x14 hw/timer/pit.32
 .comment       0x0000000000000000       0x12 hw/timer/pit.32
 .comment       0x0000000000000000       0x12 /cygdrive/d/Users/Alex/Desktop/Toolchain/Output/bin/../lib/gcc/i386-banana/8.1.0/crtend.o
 .comment       0x0000000000000000       0x12 /cygdrive/d/Users/Alex/Desktop/Toolchain/Output/bin/../lib/gcc/i386-banana/8.1.0/libkgcc.a(_divdi3.o)
 .comment       0x0000000000000000       0x12 /cygdrive/d/Users/Alex/Desktop/Toolchain/Output/bin/../lib/gcc/i386-banana/8.1.0/libkgcc.a(_moddi3.o)
 .comment       0x0000000000000000       0x12 /cygdrive/d/Users/Alex/Desktop/Toolchain/Output/bin/../lib/gcc/i386-banana/8.1.0/libkgcc.a(_udivdi3.o)
 .comment       0x0000000000000000       0x12 /cygdrive/d/Users/Alex/Desktop/Toolchain/Output/bin/../lib/gcc/i386-banana/8.1.0/libkgcc.a(_umoddi3.o)
 .comment       0x0000000000000000       0x12 D:/Users/Alex/Desktop/Banana/kernel/libsoftfp.a(sfieeelib.o)
 .comment       0x0000000000000000       0x12 D:/Users/Alex/Desktop/Banana/kernel/libsoftfp.a(dfieeelib.o)
 .comment       0x0000000000000000       0x12 D:/Users/Alex/Desktop/Banana/kernel/libsoftfp.a(sfdfcvt.o)
 .comment       0x0000000000000000       0x12 D:/Users/Alex/Desktop/Banana/kernel/libk/libm32.a(s_fabs.c.o)

Memory Configuration

Name             Origin             Length             Attributes
*default*        0x0000000000000000 0xffffffffffffffff

Linker script and memory map

LOAD D:/Users/Alex/Desktop/Banana/kernel/boot.32
LOAD crti.32
LOAD /cygdrive/d/Users/Alex/Desktop/Toolchain/Output/bin/../lib/gcc/i386-banana/8.1.0/crtbegin.o
LOAD D:/Users/Alex/Desktop/Banana/kernel/morenasm.32
LOAD acpica/utclib.32
LOAD core/malloc.32
LOAD libk/string.32
LOAD fs/fat/diskio.32
LOAD fs/fat/ff.32
LOAD fs/fat/ffsystem.32
LOAD fs/fat/ffunicode.32
LOAD hal/libresample/samplerate.32
LOAD hal/libresample/src_linear.32
LOAD hal/libresample/src_sinc.32
LOAD hal/libresample/src_zoh.32
LOAD compat/inlines.32
LOAD compat/resolve.32
LOAD core/computer.32
LOAD core/gdt.32
LOAD core/idle.32
LOAD core/idt.32
LOAD core/kheap.32
LOAD core/main.32
LOAD core/physmgr.32
LOAD core/pipe.32
LOAD core/terminal.32
LOAD core/tss.32
LOAD core/unixfile.32
LOAD core/virtmgr.32
LOAD coreobjs/c++.32
LOAD dbg/kconsole.32
LOAD fs/vfs.32
LOAD hal/bus.32
LOAD hal/buzzer.32
LOAD hal/clock.32
LOAD hal/device.32
LOAD hal/diskctrl.32
LOAD hal/diskphys.32
LOAD hal/fpu.32
LOAD hal/intctrl.32
LOAD hal/keybrd.32
LOAD hal/logidisk.32
LOAD hal/mouse.32
LOAD hal/partition.32
LOAD hal/serial.32
LOAD hal/timer.32
LOAD hal/vcache.32
LOAD hal/video.32
LOAD hw/acpi.32
LOAD hw/cpu.32
LOAD hw/ports.32
LOAD krnl/env.32
LOAD krnl/panic.32
LOAD net/ethernet.32
LOAD reg/registry.32
LOAD sys/sc_eject.32
LOAD sys/sc_exit.32
LOAD sys/sc_getcwd.32
LOAD sys/sc_getpid.32
LOAD sys/sc_loaddll.32
LOAD sys/sc_read.32
LOAD sys/sc_sbrk.32
LOAD sys/sc_setcwd.32
LOAD sys/sc_settime.32
LOAD sys/sc_timezone.32
LOAD sys/sc_write.32
LOAD sys/sc_yield.32
LOAD sys/syscalls.32
LOAD thr/elf.32
LOAD thr/prcssthr.32
LOAD vm86/vm8086.32
LOAD vm86/x87em.32
LOAD fs/fat/vfslink.32
LOAD fs/iso9660/vfslink.32
LOAD hal/sound/sndchannel.32
LOAD hal/sound/sndhw.32
LOAD hw/bus/isa.32
LOAD hw/bus/pci.32
LOAD hw/diskctrl/ide.32
LOAD hw/diskctrl/satabus.32
LOAD hw/diskphys/ata.32
LOAD hw/diskphys/atapi.32
LOAD hw/diskphys/sata.32
LOAD hw/diskphys/satapi.32
LOAD hw/fpu/avx.32
LOAD hw/fpu/mmx.32
LOAD hw/fpu/sse.32
LOAD hw/fpu/x87.32
LOAD hw/intctrl/apic.32
LOAD hw/intctrl/pic.32
LOAD hw/timer/apictimer.32
LOAD hw/timer/pit.32
LOAD hw/fpu/x86/avx.32
LOAD hw/fpu/x86/sse.32
LOAD hw/fpu/x86/x87.32
LOAD /cygdrive/d/Users/Alex/Desktop/Toolchain/Output/bin/../lib/gcc/i386-banana/8.1.0/crtend.o
LOAD crtn.32
LOAD /cygdrive/d/Users/Alex/Desktop/Toolchain/Output/bin/../lib/gcc/i386-banana/8.1.0/libkgcc.a
LOAD D:/Users/Alex/Desktop/Banana/kernel/libsoftfp.a
LOAD D:/Users/Alex/Desktop/Banana/kernel/libk/libm32.a
                0x00000000c0000000                . = 0xc0000000

.text           0x00000000c0000000    0x28778
 *(.text)
 .text          0x00000000c0000000       0x41 D:/Users/Alex/Desktop/Banana/kernel/boot.32
                0x00000000c0000020                callGlobalConstructors
 .text          0x00000000c0000041        0x0 crti.32
 *fill*         0x00000000c0000041        0x3 
 .text          0x00000000c0000044      0x101 /cygdrive/d/Users/Alex/Desktop/Toolchain/Output/bin/../lib/gcc/i386-banana/8.1.0/crtbegin.o
 *fill*         0x00000000c0000145        0xb 
 .text          0x00000000c0000150      0x4ed D:/Users/Alex/Desktop/Banana/kernel/morenasm.32
                0x00000000c0000150                manualPCIProbe
                0x00000000c000019b                prepareTramp
                0x00000000c00001b4                voodooXADD
                0x00000000c000027f                doTPAUSE
                0x00000000c0000289                hasLegacyFPU
                0x00000000c00002ae                is486
                0x00000000c00002e4                detectCPUID
                0x00000000c00002fa                goToVM86
                0x00000000c000032a                goToUsermode
                0x00000000c0000354                switchToThreadASMFirstTime
                0x00000000c0000362                switchToThreadASM
                0x00000000c00003ea                asmQuickAcquireLock
                0x00000000c0000408                asmQuickReleaseLock
                0x00000000c0000414                asmAcquireLock
                0x00000000c0000435                asmReleaseLock
                0x00000000c0000448                loadGDT
                0x00000000c0000468                isr0
                0x00000000c0000478                isr1
                0x00000000c0000482                isr2
                0x00000000c000048c                isr3
                0x00000000c0000496                isr4
                0x00000000c00004a0                isr5
                0x00000000c00004aa                isr6
                0x00000000c00004b4                isr7
                0x00000000c00004be                isr8
                0x00000000c00004c6                isr9
                0x00000000c00004d0                isr10
                0x00000000c00004d8                isr11
                0x00000000c00004e0                isr12
                0x00000000c00004e8                isr13
                0x00000000c00004f0                isr14
                0x00000000c00004f8                isr15
                0x00000000c0000502                isr16
                0x00000000c000050c                isr17
                0x00000000c0000516                isr18
                0x00000000c0000520                irq3
                0x00000000c000052a                irq4
                0x00000000c0000534                irq5
                0x00000000c000053e                irq6
                0x00000000c0000548                irq7
                0x00000000c0000552                irq8
                0x00000000c000055c                irq9
                0x00000000c0000566                irq10
                0x00000000c0000570                irq11
                0x00000000c000057a                irq12
                0x00000000c0000584                irq13
                0x00000000c000058e                irq14
                0x00000000c0000598                irq15
                0x00000000c00005a2                irq1
                0x00000000c00005a9                irq2
                0x00000000c00005b0                isr96
                0x00000000c00005b7                irq0
                0x00000000c00005bc                int_common_stub
                0x00000000c00005bc                syscall_common_stub
                0x00000000c00005ed                irq16
                0x00000000c00005f7                irq17
                0x00000000c0000601                irq18
                0x00000000c000060b                irq19
                0x00000000c0000615                irq20
                0x00000000c000061f                irq21
                0x00000000c0000629                irq22
                0x00000000c0000633                irq23
 .text          0x00000000c000063d      0x40f acpica/utclib.32
                0x00000000c000063d                memcmp
                0x00000000c0000668                memmove
                0x00000000c00006a0                memcpy
                0x00000000c00006c4                memset
                0x00000000c00006e1                strlen
                0x00000000c00006f1                strpbrk
                0x00000000c0000714                strtok
                0x00000000c0000763                strcpy
                0x00000000c0000783                strncpy
                0x00000000c00007b4                strcmp
                0x00000000c00007d5                strchr
                0x00000000c00007eb                strncmp
                0x00000000c000081a                strcat
                0x00000000c0000841                strncat
                0x00000000c000087b                strstr
                0x00000000c00008b8                simple_strtoul
                0x00000000c0000a24                toupper
                0x00000000c0000a38                tolower
 .text          0x00000000c0000a4c     0x1078 core/malloc.32
                0x00000000c0000dd3                dlmalloc
                0x00000000c0001175                dlfree
                0x00000000c000135c                dlrealloc
                0x00000000c0001511                dlmemalign
                0x00000000c0001634                dlcalloc
                0x00000000c00016ce                dlcfree
                0x00000000c00016d3                dlindependent_calloc
                0x00000000c00016f6                dlindependent_comalloc
                0x00000000c00018b6                dlvalloc
                0x00000000c00018e2                dlpvalloc
                0x00000000c0001919                dlmalloc_trim
                0x00000000c0001927                dlmalloc_usable_size
                0x00000000c0001958                dlmallinfo
                0x00000000c0001a28                dlmalloc_stats
                0x00000000c0001a39                dlmallopt
 .text          0x00000000c0001ac4        0x0 libk/string.32
 .text          0x00000000c0001ac4       0x51 fs/fat/diskio.32
                0x00000000c0001ac4                disk_status
                0x00000000c0001ac7                disk_initialize
                0x00000000c0001aca                disk_read
                0x00000000c0001ae0                disk_write
                0x00000000c0001af6                disk_ioctl
 .text          0x00000000c0001b15     0x708e fs/fat/ff.32
                0x00000000c0004c30                f_mount
                0x00000000c0004c9a                f_open
                0x00000000c0005158                f_read
                0x00000000c00053f5                f_write
                0x00000000c00056c7                f_sync
                0x00000000c00058df                f_close
                0x00000000c0005913                f_lseek
                0x00000000c0005deb                f_opendir
                0x00000000c0005f02                f_closedir
                0x00000000c0005f27                f_readdir
                0x00000000c0005fd5                f_stat
                0x00000000c0006076                f_getfree
                0x00000000c000626d                f_truncate
                0x00000000c0006370                f_unlink
                0x00000000c000651d                f_mkdir
                0x00000000c0006795                f_rename
                0x00000000c0006ab8                f_chmod
                0x00000000c0006bb3                f_utime
                0x00000000c0006cae                f_getlabel
                0x00000000c0006ecc                f_setlabel
                0x00000000c0007167                f_forward
                0x00000000c0007981                f_mkfs
 .text          0x00000000c0008ba3       0x2d fs/fat/ffsystem.32
                0x00000000c0008ba3                ff_memalloc
                0x00000000c0008bb9                ff_memfree
 .text          0x00000000c0008bd0      0x253 fs/fat/ffunicode.32
                0x00000000c0008bd0                ff_uni2oem
                0x00000000c0008c60                ff_oem2uni
                0x00000000c0008ccc                ff_wtoupper
 .text          0x00000000c0008e23      0x905 hal/libresample/samplerate.32
                0x00000000c0008e23                src_new
                0x00000000c0008eb7                src_callback_new
                0x00000000c0008f19                src_delete
                0x00000000c0008f55                src_process
                0x00000000c000910b                src_callback_read
                0x00000000c0009288                src_set_ratio
                0x00000000c00092f2                src_get_channels
                0x00000000c0009314                src_reset
                0x00000000c0009360                src_get_name
                0x00000000c0009397                src_get_description
                0x00000000c00093ce                src_get_version
                0x00000000c00093d4                src_is_valid_ratio
                0x00000000c0009428                src_error
                0x00000000c0009436                src_strerror
                0x00000000c0009449                src_simple
                0x00000000c000949c                src_short_to_float_array
                0x00000000c0009501                src_float_to_short_array
                0x00000000c00095c0                src_int_to_float_array
                0x00000000c0009623                src_float_to_int_array
 .text          0x00000000c0009728      0x8cb hal/libresample/src_linear.32
                0x00000000c0009f1c                linear_get_name
                0x00000000c0009f2b                linear_get_description
                0x00000000c0009f3a                linear_set_converter
 .text          0x00000000c0009ff3     0x447c hal/libresample/src_sinc.32
                0x00000000c000a05c                sinc_get_name
                0x00000000c000a06f                sinc_get_description
                0x00000000c000a082                sinc_set_converter
 .text          0x00000000c000e46f      0x77c hal/libresample/src_zoh.32
                0x00000000c000eb14                zoh_get_name
                0x00000000c000eb23                zoh_get_description
                0x00000000c000eb32                zoh_set_converter
 .text          0x00000000c000ebeb       0x23 compat/inlines.32
                0x00000000c000ebeb                CPU::current()
                0x00000000c000ebf8                operator new(unsigned long)
 .text          0x00000000c000ec0e      0x111 compat/resolve.32
                0x00000000c000ec0e                Krnl::resolveCompatibilitySymbol(char*)
 *fill*         0x00000000c000ed1f        0x1 
 .text          0x00000000c000ed20      0xa19 core/computer.32
                0x00000000c000ed20                Computer::Computer()
                0x00000000c000ed20                Computer::Computer()
                0x00000000c000ee7c                Computer::setBootMessage(char const*)
                0x00000000c000ee7e                Computer::open(int, int, void*)
                0x00000000c000ef54                Computer::detectFeatures()
                0x00000000c000f15e                Computer::displayFeatures()
                0x00000000c000f4a4                Computer::rdmsr(unsigned int)
                0x00000000c000f4d0                Computer::wrmsr(unsigned int, unsigned long long)
                0x00000000c000f508                Computer::close(int, int, void*)
                0x00000000c000f54c                Computer::nmiEnabled()
                0x00000000c000f558                Computer::enableNMI(bool)
                0x00000000c000f574                Computer::disableNMI()
                0x00000000c000f586                Krnl::firstTask()
                0x00000000c000f670                Computer::readCMOS(unsigned char)
                0x00000000c000f68a                Computer::writeCMOS(unsigned char, unsigned char)
                0x00000000c000f6a8                Computer::handleNMI()
                0x00000000c000f70e                Computer::setDiskActivityLight(int, bool)
 *fill*         0x00000000c000f739        0x1 
 .text          0x00000000c000f73a      0x1b7 core/gdt.32
                0x00000000c000f73a                GDTEntry::setBase(unsigned int)
                0x00000000c000f756                GDTEntry::setLimit(unsigned int)
                0x00000000c000f774                GDT::GDT()
                0x00000000c000f774                GDT::GDT()
                0x00000000c000f78a                GDT::addEntry(GDTEntry)
                0x00000000c000f7c6                GDT::getNumberOfEntries()
                0x00000000c000f7ce                GDT::flush()
                0x00000000c000f7f0                GDT::setup()
 .text          0x00000000c000f8f1       0x62 core/idle.32
                0x00000000c000f8f1                idleFunction(void*)
 *fill*         0x00000000c000f953        0x1 
 .text          0x00000000c000f954      0x45f core/idt.32
                0x00000000c000f954                IDTEntry::IDTEntry(bool)
                0x00000000c000f954                IDTEntry::IDTEntry(bool)
                0x00000000c000f9c2                IDTEntry::setOffset(unsigned int)
                0x00000000c000f9d6                IDT::IDT()
                0x00000000c000f9d6                IDT::IDT()
                0x00000000c000f9d8                IDT::getPointerToInvalidOpcodeEntryForF00F()
                0x00000000c000f9e0                IDT::addEntry(IDTEntry, int)
                0x00000000c000f9fa                IDT::addEntry(int, void (*)(), bool)
                0x00000000c000fa32                IDT::flush()
                0x00000000c000fa4c                IDT::setup()
 .text          0x00000000c000fdb3      0x203 core/kheap.32
                0x00000000c000fdb3                sbrk
                0x00000000c000fec1                mmap
                0x00000000c000fed7                munmap
                0x00000000c000feed                liballoc_lock()
                0x00000000c000fefe                liballoc_unlock()
                0x00000000c000ff0f                liballoc_alloc(int)
                0x00000000c000ff2a                liballoc_free(void*, int)
                0x00000000c000ff48                realloc
                0x00000000c000ff5c                malloc
                0x00000000c000ff6c                free
                0x00000000c000ff7c                rfree
                0x00000000c000ff8c                calloc
 .text          0x00000000c000ffb6      0x480 core/main.32
                0x00000000c000ffb6                hwTextMode_loadInData(VgaText*)
                0x00000000c0010001                hwTextMode_loadInTitle(VgaText*, char*)
                0x00000000c001007f                hwTextMode_scrollScreen(VgaText*)
                0x00000000c001012c                hwTextMode_writeCharacter(VgaText*, char, VgaColour, VgaColour, int, int)
                0x00000000c00101ae                hwTextMode_showCursor(VgaText*, bool)
                0x00000000c001020c                hwTextMode_update(VgaText*)
                0x00000000c001020d                hwTextMode_updateCursor(VgaText*)
                0x00000000c001025e                hwTextMode_disableBlink(VgaText*, bool)
                0x00000000c00102a4                setupTextMode()
                0x00000000c0010314                kernel_main
 .text          0x00000000c0010436      0x54d core/physmgr.32
                0x00000000c0010436                Phys::allocateDMA(unsigned long)
                0x00000000c00104d9                Phys::freeDMA(unsigned long, unsigned long)
                0x00000000c0010521                Phys::setPageState(unsigned long, bool)
                0x00000000c0010553                Phys::getPageState(unsigned long)
                0x00000000c001056f                Phys::freePage(unsigned long)
                0x00000000c00105f9                Phys::allocatePage()
                0x00000000c00106c1                Phys::allocateContiguousPages(int)
                0x00000000c001071b                Phys::allowSegmentToBeUsed(unsigned long, unsigned long)
                0x00000000c0010753                Phys::physicalMemorySetup(unsigned int)
 *fill*         0x00000000c0010983        0x1 
 .text          0x00000000c0010984      0x273 core/pipe.32
                0x00000000c0010984                Pipe::Pipe(int)
                0x00000000c0010984                Pipe::Pipe(int)
                0x00000000c00109ec                Pipe::~Pipe()
                0x00000000c00109ec                Pipe::~Pipe()
                0x00000000c0010a10                Pipe::~Pipe()
                0x00000000c0010a38                Pipe::isAtty()
                0x00000000c0010a3c                Pipe::read(unsigned long long, void*, int*)
                0x00000000c0010b30                Pipe::write(unsigned long long, void*, int*)
 *fill*         0x00000000c0010bf7        0x1 
 .text          0x00000000c0010bf8      0xf86 core/terminal.32
                0x00000000c0010bf8                setTerminalScrollLock(bool)
                0x00000000c0010bf9                doTerminalCycle()
                0x00000000c0010c16                addToTerminalCycle(VgaText*)
                0x00000000c0010c43                setActiveTerminal(VgaText*)
                0x00000000c0010cf2                installVgaTextImplementation()
                0x00000000c0010d07                scrollTerminalScrollLock(int)
                0x00000000c0010d08                VgaText::updateTitle()
                0x00000000c0010d4e                VgaText::load()
                0x00000000c0010da2                VgaText::scrollScreen()
                0x00000000c0010e42                VgaText::writeCharacter(char, VgaColour, VgaColour, int, int)
                0x00000000c0010ea2                VgaText::puts(char const*, VgaColour, VgaColour)
                0x00000000c0011064                VgaText::updateCursor()
                0x00000000c001107e                VgaText::showCursor(bool)
                0x00000000c001108e                VgaText::disableBlink(bool)
                0x00000000c00110c8                VgaText::putchar(char, VgaColour, VgaColour)
                0x00000000c00111c4                VgaText::doANSI_SGR(int)
                0x00000000c0011250                VgaText::putchar(char)
                0x00000000c001136a                VgaText::puts(char const*)
                0x00000000c0011390                VgaText::clearScreen()
                0x00000000c00113f4                VgaText::setDefaultBgColour(VgaColour)
                0x00000000c001140a                VgaText::setDefaultFgColour(VgaColour)
                0x00000000c0011420                VgaText::setDefaultColours(VgaColour, VgaColour)
                0x00000000c0011440                VgaText::setTitleTextColour(VgaColour)
                0x00000000c0011454                VgaText::setTitleColour(VgaColour)
                0x00000000c0011468                VgaText::setTitle(char*)
                0x00000000c001148e                VgaText::combineColours(unsigned char, unsigned char)
                0x00000000c00114a0                VgaText::combineCharAndColour(char, unsigned char)
                0x00000000c00114b2                VgaText::getCursorX()
                0x00000000c00114be                VgaText::getCursorY()
                0x00000000c00114ca                VgaText::setCursor(int, int)
                0x00000000c00114e8                VgaText::setCursorX(int)
                0x00000000c0011504                VgaText::setCursorY(int)
                0x00000000c0011520                VgaText::incrementCursor(bool)
                0x00000000c0011588                VgaText::updateRAMUsageDisplay(int)
                0x00000000c00115ec                VgaText::putx(unsigned int)
                0x00000000c0011632                VgaText::updateDiskUsage()
                0x00000000c001179c                VgaText::decrementCursor(bool)
                0x00000000c00117c4                VgaText::isShowingCursor()
                0x00000000c00117d0                VgaText::isBlinkDisabled()
                0x00000000c00117de                VgaText::setCursorHeight(int)
                0x00000000c00117fc                VgaText::getCursorHeight()
                0x00000000c0011808                VgaText::~VgaText()
                0x00000000c0011808                VgaText::~VgaText()
                0x00000000c001182c                VgaText::~VgaText()
                0x00000000c0011856                VgaText::VgaText(char const*)
                0x00000000c0011856                VgaText::VgaText(char const*)
                0x00000000c00119e8                VgaText::receiveKey(unsigned char)
                0x00000000c0011ad0                VgaText::read(unsigned long long, void*, int*)
                0x00000000c0011af0                VgaText::doUpdate()
                0x00000000c0011b02                VgaText::write(unsigned long long, void*, int*)
                0x00000000c0011b56                VgaText::isAtty()
                0x00000000c0011b59                newTerminal(char*)
 .text          0x00000000c0011b7e      0x1b3 core/tss.32
                0x00000000c0011b7e                TSS::TSS()
                0x00000000c0011b7e                TSS::TSS()
                0x00000000c0011b8c                TSS::setESP(unsigned long)
                0x00000000c0011b9e                TSS::flush()
                0x00000000c0011bbe                TSS::setup(unsigned long, unsigned long)
 *fill*         0x00000000c0011d31        0x1 
 .text          0x00000000c0011d32      0x4c4 core/unixfile.32
                0x00000000c0011d32                UnixFile::UnixFile(int)
                0x00000000c0011d32                UnixFile::UnixFile(int)
                0x00000000c0011ee2                UnixFile::~UnixFile()
                0x00000000c0011ee2                UnixFile::~UnixFile()
                0x00000000c0011f7a                UnixFile::~UnixFile()
                0x00000000c0011fa2                UnixFile::getFileDescriptor()
                0x00000000c0011faa                getFromFileDescriptor(int)
                0x00000000c001204c                ReservedFilename::ReservedFilename(int)
                0x00000000c001204c                ReservedFilename::ReservedFilename(int)
                0x00000000c001207e                ReservedFilename::~ReservedFilename()
                0x00000000c001207e                ReservedFilename::~ReservedFilename()
                0x00000000c00120a2                ReservedFilename::~ReservedFilename()
                0x00000000c00120ca                ReservedFilename::read(unsigned long long, void*, int*)
                0x00000000c0012120                ReservedFilename::isAtty()
                0x00000000c001213c                ReservedFilename::write(unsigned long long, void*, int*)
 .text          0x00000000c00121f6      0xeea core/virtmgr.32
                0x00000000c00121f6                Virt::setPageState(unsigned long, Virt::VirtPageState)
                0x00000000c001222b                Virt::getPageState(unsigned long)
                0x00000000c001224f                Virt::allocateKernelVirtualPages(int)
                0x00000000c0012360                Virt::freeKernelVirtualPages(unsigned long)
                0x00000000c0012483                Virt::virtualMemorySetup()
                0x00000000c0012502                Virt::getAKernelVAS()
                0x00000000c0012508                Virt::setupPageSwapping(int)
                0x00000000c0012638                VAS::allocatePages(int, int)
                0x00000000c0012810                VAS::virtualToPhysical(unsigned long)
                0x00000000c001282c                VAS::freeAllocatedPages(unsigned long)
                0x00000000c0012850                VAS::VAS()
                0x00000000c0012850                VAS::VAS()
                0x00000000c0012880                VAS::~VAS()
                0x00000000c0012880                VAS::~VAS()
                0x00000000c00129ec                VAS::setCPUSpecific(unsigned long)
                0x00000000c0012a08                VAS::VAS(VAS*)
                0x00000000c0012a08                VAS::VAS(VAS*)
                0x00000000c0012a2c                VAS::VAS(bool)
                0x00000000c0012a2c                VAS::VAS(bool)
                0x00000000c0012c88                VAS::mapRange(unsigned long, unsigned long, int, int)
                0x00000000c0012d4e                VAS::getForeignPageTableEntry(bool, unsigned long)
                0x00000000c0012d7a                VAS::getPageTableEntry(unsigned long)
                0x00000000c0012d9a                VAS::reflagRange(unsigned long, int, int, int)
                0x00000000c0012dda                VAS::setToWriteCombining(unsigned long, int)
                0x00000000c0012e0c                VAS::mapOtherVASIn(bool, VAS*)
                0x00000000c0012e36                VAS::mapForeignPage(bool, VAS*, unsigned long, unsigned long, int)
                0x00000000c0012f24                VAS::mapPage(unsigned long, unsigned long, int)
                0x00000000c0013024                mapVASFirstTime
 .text          0x00000000c00130e0       0x95 coreobjs/c++.32
                0x00000000c00130e0                __cxa_atexit
                0x00000000c00130e3                __cxa_finalize
                0x00000000c00130e4                __stack_chk_fail
                0x00000000c0013150                __cxa_pure_virtual
                0x00000000c0013161                operator new[](unsigned long)
                0x00000000c0013166                operator delete(void*, unsigned long)
                0x00000000c001316b                operator delete[](void*)
                0x00000000c0013170                operator delete[](void*, unsigned long)
 .text          0x00000000c0013175      0x1ef dbg/kconsole.32
                0x00000000c0013175                Dbg::stringifyxWithBase(unsigned int, char*, int)
                0x00000000c00131d6                Dbg::logc(char)
                0x00000000c00131ed                Dbg::logs(char*)
                0x00000000c001320a                Dbg::logWriteInt(unsigned int)
                0x00000000c0013227                Dbg::logWriteIntBase(unsigned int, int)
                0x00000000c0013246                Dbg::kprintf(char const*, ...)
 .text          0x00000000c0013364      0xb7c fs/vfs.32
                0x00000000c0013364                Filesystem::Filesystem()
                0x00000000c0013364                Filesystem::Filesystem()
                0x00000000c0013388                Filesystem::~Filesystem()
                0x00000000c0013388                Filesystem::~Filesystem()
                0x00000000c0013396                Filesystem::~Filesystem()
                0x00000000c00133ba                Fs::getcwd(Process*, char*, int)
                0x00000000c00133e4                Fs::setcwd(Process*, char*)
                0x00000000c001351f                Fs::initVFS()
                0x00000000c0013549                Fs::standardiseFiles(char*, char const*, char const*)
                0x00000000c00136f2                File::File(char const*, Process*)
                0x00000000c00136f2                File::File(char const*, Process*)
                0x00000000c0013756                File::~File()
                0x00000000c0013756                File::~File()
                0x00000000c001377a                File::~File()
                0x00000000c00137a4                File::open(FileOpenMode)
                0x00000000c0013802                File::read(unsigned long long, void*, int*)
                0x00000000c001385a                File::write(unsigned long long, void*, int*)
                0x00000000c00138b2                File::close()
                0x00000000c0013912                File::seek(unsigned long long)
                0x00000000c0013968                File::tell(unsigned long long*)
                0x00000000c00139b8                File::rewind()
                0x00000000c00139cc                File::unlink()
                0x00000000c0013a18                File::rename(char const*)
                0x00000000c0013a66                File::chfatattr(unsigned char, unsigned char)
                0x00000000c0013ac2                File::exists()
                0x00000000c0013b00                File::stat(unsigned long long*, bool*)
                0x00000000c0013b62                Directory::Directory(char const*, Process*)
                0x00000000c0013b62                Directory::Directory(char const*, Process*)
                0x00000000c0013bc6                Directory::~Directory()
                0x00000000c0013bc6                Directory::~Directory()
                0x00000000c0013bea                Directory::~Directory()
                0x00000000c0013c14                Directory::open()
                0x00000000c0013c70                Directory::read(unsigned long long, void*, int*)
                0x00000000c0013cc8                Directory::write(unsigned long long, void*, int*)
                0x00000000c0013cf6                Directory::close()
                0x00000000c0013d56                Directory::unlink()
                0x00000000c0013da2                Directory::rename(char const*)
                0x00000000c0013df0                Directory::exists()
                0x00000000c0013e2e                Directory::read(dirent*)
                0x00000000c0013e7a                Directory::create()
                0x00000000c0013ec6                File::isAtty()
                0x00000000c0013eca                Directory::isAtty()
                0x00000000c0013ece                Filesystem::getlabel(LogicalDisk*, int, char*, unsigned int*)
                0x00000000c0013ed4                Filesystem::setlabel(LogicalDisk*, int, char*)
                0x00000000c0013eda                Filesystem::chfatattr(char const*, unsigned char, unsigned char)
 .text          0x00000000c0013ee0       0x84 hal/bus.32
                0x00000000c0013ee0                Bus::Bus(char const*)
                0x00000000c0013ee0                Bus::Bus(char const*)
                0x00000000c0013f16                Bus::~Bus()
                0x00000000c0013f16                Bus::~Bus()
                0x00000000c0013f3a                Bus::~Bus()
 .text          0x00000000c0013f64      0x14b hal/buzzer.32
                0x00000000c0013f64                Buzzer::Buzzer(char const*)
                0x00000000c0013f64                Buzzer::Buzzer(char const*)
                0x00000000c0013fa8                Buzzer::~Buzzer()
                0x00000000c0013fa8                Buzzer::~Buzzer()
                0x00000000c0013fcc                Buzzer::~Buzzer()
                0x00000000c0013ff6                beepThread(void*)
                0x00000000c0014030                Buzzer::beep(int, int, bool)
                0x00000000c001409c                Buzzer::stop()
 *fill*         0x00000000c00140af        0x1 
 .text          0x00000000c00140b0      0x46b hal/clock.32
                0x00000000c00140b0                User::loadClockSettings(int)
                0x00000000c0014102                Clock::Clock(char const*)
                0x00000000c0014102                Clock::Clock(char const*)
                0x00000000c0014138                Clock::~Clock()
                0x00000000c0014138                Clock::~Clock()
                0x00000000c001415c                Clock::~Clock()
                0x00000000c0014186                Clock::timeInSecondsLocal()
                0x00000000c00141ce                Clock::timeInDatetimeLocal()
                0x00000000c00141f4                Clock::setTimeInSecondsLocal(unsigned long long)
                0x00000000c001424e                Clock::setTimeInDatetimeLocal(datetime_t)
                0x00000000c00142b1                datetimeToSeconds(datetime_t)
                0x00000000c00143d7                secondsToDatetime(unsigned long long)
 *fill*         0x00000000c001451b        0x1 
 .text          0x00000000c001451c      0x4dd hal/device.32
                0x00000000c001451c                Device::Device(char const*)
                0x00000000c001451c                Device::Device(char const*)
                0x00000000c0014618                Device::~Device()
                0x00000000c0014618                Device::~Device()
                0x00000000c0014626                Device::~Device()
                0x00000000c001464e                Device::findAndLoadDriver()
                0x00000000c0014650                Device::preOpenPCI(PCIDeviceInfo)
                0x00000000c0014676                Device::preOpenACPI(void*, char*, char*)
                0x00000000c00146ca                Device::addIRQHandler(int, void (*)(regs*, void*), bool, void*)
                0x00000000c0014708                Device::removeIRQHandler(int, void (*)(regs*, void*), bool)
                0x00000000c0014746                Device::addChild(Device*)
                0x00000000c001478a                Device::removeAllChildren()
                0x00000000c00147d0                Device::hibernateAll()
                0x00000000c0014800                Device::wakeAll()
                0x00000000c0014830                Device::detectAll()
                0x00000000c0014860                Device::disableLegacyAll()
                0x00000000c0014890                Device::loadDriversForAll()
                0x00000000c00148bc                Device::closeAll()
                0x00000000c00148f2                Device::powerSavingAll(PowerSavingLevel)
                0x00000000c0014928                Device::setName(char const*)
                0x00000000c0014936                Device::getName()
                0x00000000c0014940                Device::addToLinkedList(LinkedList<Device>&, DeviceType)
                0x00000000c0014984                Device::hibernate()
                0x00000000c0014986                Device::wake()
                0x00000000c0014988                Device::detect()
                0x00000000c001498a                Device::disableLegacy()
                0x00000000c001498c                Device::powerSaving(PowerSavingLevel)
                0x00000000c001498d                getDevicesOfType(DeviceType)
                0x00000000c00149b8                DriverlessDevice::DriverlessDevice(char const*)
                0x00000000c00149b8                DriverlessDevice::DriverlessDevice(char const*)
                0x00000000c00149e0                DriverlessDevice::open(int, int, void*)
                0x00000000c00149f4                DriverlessDevice::close(int, int, void*)
                0x00000000c00149f8                DriverlessDevice::detect()
 *fill*         0x00000000c00149f9        0x1 
 .text          0x00000000c00149fa       0x84 hal/diskctrl.32
                0x00000000c00149fa                HardDiskController::HardDiskController(char const*)
                0x00000000c00149fa                HardDiskController::HardDiskController(char const*)
                0x00000000c0014a30                HardDiskController::~HardDiskController()
                0x00000000c0014a30                HardDiskController::~HardDiskController()
                0x00000000c0014a54                HardDiskController::~HardDiskController()
 .text          0x00000000c0014a7e       0xf2 hal/diskphys.32
                0x00000000c0014a7e                PhysicalDisk::PhysicalDisk(char const*, int)
                0x00000000c0014a7e                PhysicalDisk::PhysicalDisk(char const*, int)
                0x00000000c0014ae6                PhysicalDisk::startCache()
                0x00000000c0014b0e                PhysicalDisk::~PhysicalDisk()
                0x00000000c0014b0e                PhysicalDisk::~PhysicalDisk()
                0x00000000c0014b32                PhysicalDisk::~PhysicalDisk()
                0x00000000c0014b5c                PhysicalDisk::eject()
 .text          0x00000000c0014b70      0x13b hal/fpu.32
                0x00000000c0014b70                FPU::FPU(char const*)
                0x00000000c0014b70                FPU::FPU(char const*)
                0x00000000c0014ba6                FPU::~FPU()
                0x00000000c0014ba6                FPU::~FPU()
                0x00000000c0014bca                FPU::~FPU()
                0x00000000c0014bf4                setupFPU()
 *fill*         0x00000000c0014cab        0x1 
 .text          0x00000000c0014cac     0x1381 hal/intctrl.32
                0x00000000c0014cac                int_handler
                0x00000000c0014d4c                InterruptController::installISRHandler(int, void (*)(regs*, void*), void*)
                0x00000000c0014d9e                InterruptController::installIRQHandler(int, void (*)(regs*, void*), bool, void*)
                0x00000000c0014e3a                InterruptController::uninstallISRHandler(int, void (*)(regs*, void*))
                0x00000000c0014e72                InterruptController::clearAllHandlers(int, bool)
                0x00000000c0014f1a                InterruptController::uninstallIRQHandler(int, void (*)(regs*, void*), bool)
                0x00000000c0014fa2                InterruptController::InterruptController(char const*)
                0x00000000c0014fa2                InterruptController::InterruptController(char const*)
                0x00000000c0015048                InterruptController::~InterruptController()
                0x00000000c0015048                InterruptController::~InterruptController()
                0x00000000c001506c                InterruptController::~InterruptController()
                0x00000000c0015096                displayDebugInfo(regs*)
                0x00000000c0015525                displayProgramFault(char const*)
                0x00000000c001554d                x87EmulHandler(regs*, void*)
                0x00000000c001557c                gpFault(regs*, void*)
                0x00000000c00155b5                pgFault(regs*, void*)
                0x00000000c00155cc                nmiHandler(regs*, void*)
                0x00000000c00155da                otherISRHandler(regs*, void*)
                0x00000000c00155f9                opcodeFault(regs*, void*)
                0x00000000c0015bff                doubleFault(regs*, void*)
                0x00000000c0015c18                setupInterruptController()
                0x00000000c0015fe0                InterruptController::convertLegacyIRQNumber(int)
 *fill*         0x00000000c001602d        0x1 
 .text          0x00000000c001602e      0x69a hal/keybrd.32
                0x00000000c001602e                sendKeyToTerminal(unsigned char)
                0x00000000c001609a                startGUI(void*)
                0x00000000c00160f6                startGUIVESA(void*)
                0x00000000c0016152                sendKeyboardToken(KeyboardToken)
                0x00000000c0016562                clearInternalKeybuffer(VgaText*)
                0x00000000c0016597                readKeyboard(VgaText*, char*, unsigned long)
                0x00000000c001663e                Keyboard::Keyboard(char const*)
                0x00000000c001663e                Keyboard::Keyboard(char const*)
                0x00000000c001667a                Keyboard::~Keyboard()
                0x00000000c001667a                Keyboard::~Keyboard()
                0x00000000c001669e                Keyboard::~Keyboard()
 .text          0x00000000c00166c8      0x414 hal/logidisk.32
                0x00000000c00166c8                LogicalDisk::absoluteToRelative(unsigned long long)
                0x00000000c0016700                LogicalDisk::relativeToAbsolute(unsigned long long)
                0x00000000c0016746                LogicalDisk::LogicalDisk(char const*, PhysicalDisk*, unsigned long long, unsigned long long)
                0x00000000c0016746                LogicalDisk::LogicalDisk(char const*, PhysicalDisk*, unsigned long long, unsigned long long)
                0x00000000c00167fc                LogicalDisk::~LogicalDisk()
                0x00000000c00167fc                LogicalDisk::~LogicalDisk()
                0x00000000c0016820                LogicalDisk::~LogicalDisk()
                0x00000000c001684a                LogicalDisk::assignDriveLetter()
                0x00000000c0016900                LogicalDisk::mount()
                0x00000000c0016972                LogicalDisk::unmount()
                0x00000000c0016982                LogicalDisk::open(int, int, void*)
                0x00000000c0016996                LogicalDisk::eject()
                0x00000000c00169aa                LogicalDisk::close(int, int, void*)
                0x00000000c00169ae                LogicalDisk::unassignDriveLetter()
                0x00000000c0016a04                LogicalDisk::read(unsigned long long, int, void*)
                0x00000000c0016a70                LogicalDisk::write(unsigned long long, int, void*)
 .text          0x00000000c0016adc       0x84 hal/mouse.32
                0x00000000c0016adc                Mouse::Mouse(char const*)
                0x00000000c0016adc                Mouse::Mouse(char const*)
                0x00000000c0016b12                Mouse::~Mouse()
                0x00000000c0016b12                Mouse::~Mouse()
                0x00000000c0016b36                Mouse::~Mouse()
 .text          0x00000000c0016b60      0x34d hal/partition.32
                0x00000000c0016b60                makePartition(PhysicalDisk*, unsigned long long, unsigned long long)
                0x00000000c0016c1c                createPartitionsForDisk(PhysicalDisk*)
 *fill*         0x00000000c0016ead        0x1 
 .text          0x00000000c0016eae       0x84 hal/serial.32
                0x00000000c0016eae                Serial::Serial(char const*)
                0x00000000c0016eae                Serial::Serial(char const*)
                0x00000000c0016ee4                Serial::~Serial()
                0x00000000c0016ee4                Serial::~Serial()
                0x00000000c0016f08                Serial::~Serial()
 .text          0x00000000c0016f32      0x2b8 hal/timer.32
                0x00000000c0016f32                Timer::Timer(char const*)
                0x00000000c0016f32                Timer::Timer(char const*)
                0x00000000c0016f68                Timer::~Timer()
                0x00000000c0016f68                Timer::~Timer()
                0x00000000c0016f8c                Timer::~Timer()
                0x00000000c0016fb6                Timer::read()
                0x00000000c0016fc1                setupTimer(int)
                0x00000000c00170b3                timerHandler(unsigned long long)
 .text          0x00000000c00171ea      0x4d0 hal/vcache.32
                0x00000000c00171ea                VCache::VCache(PhysicalDisk*)
                0x00000000c00171ea                VCache::VCache(PhysicalDisk*)
                0x00000000c0017328                VCache::~VCache()
                0x00000000c0017328                VCache::~VCache()
                0x00000000c001739c                VCache::~VCache()
                0x00000000c00173c4                VCache::invalidateReadBuffer()
                0x00000000c00173de                VCache::writeWriteBuffer()
                0x00000000c001741a                VCache::write(unsigned long long, int, void*)
                0x00000000c0017510                VCache::read(unsigned long long, int, void*)
 .text          0x00000000c00176ba      0x4cd hal/video.32
                0x00000000c00176ba                Video::Video(char const*)
                0x00000000c00176ba                Video::Video(char const*)
                0x00000000c00176f0                Video::~Video()
                0x00000000c00176f0                Video::~Video()
                0x00000000c0017714                Video::~Video()
                0x00000000c001773e                Video::isMonochrome()
                0x00000000c001774a                Video::getWidth()
                0x00000000c0017756                Video::getHeight()
                0x00000000c0017762                Video::putpixel(int, int, unsigned int)
                0x00000000c0017770                Video::drawCursor(int, int, unsigned char*, int)
                0x00000000c001782c                Video::putrect(int, int, int, int, unsigned int)
                0x00000000c0017878                Video::bitblit(int, int, int, int, int, int, int, unsigned int*)
                0x00000000c00178e8                Video::blit(unsigned int*, int, int, int, int)
                0x00000000c0017966                Video::clearScreen(unsigned int)
                0x00000000c001799a                Video::tgaParse(unsigned char*, int, int*, int*)
                0x00000000c0017b1c                Video::putTGA(int, int, unsigned char*, int)
 *fill*         0x00000000c0017b87        0x1 
 .text          0x00000000c0017b88      0xf65 hw/acpi.32
                0x00000000c0017b88                findRSDP()
                0x00000000c0017c12                loadACPITables(unsigned char*)
                0x00000000c0017e39                findRSDT(unsigned char*)
                0x00000000c0017f57                findDataTable(unsigned char*, char*)
                0x00000000c0017ff3                scanMADT()
                0x00000000c001847a                ACPI::ACPI()
                0x00000000c001847a                ACPI::ACPI()
                0x00000000c00184e4                ACPI::getPCIIRQAssignment(unsigned char, unsigned short, unsigned char)
                0x00000000c00185c6                ACPI::registerPCIIRQAssignment(void*, unsigned short, unsigned char, unsigned char)
                0x00000000c001868c                ACPI::setScreenBrightnessLevel(void*, int)
                0x00000000c0018692                ACPI::open(int, int, void*)
                0x00000000c00189d8                ACPI::writeSimpleBootFlag(SimpleBootFlagTable*)
                0x00000000c0018a20                ACPI::sleep()
                0x00000000c0018a38                ACPI::close(int, int, void*)
 *fill*         0x00000000c0018aed        0x1 
 .text          0x00000000c0018aee     0x1739 hw/cpu.32
                0x00000000c0018aee                CPU::lookupAMDName(unsigned char, unsigned char)
                0x00000000c0018c82                CPU::lookupIntelName(unsigned char, unsigned char)
                0x00000000c0018f30                CPU::AMD_K6_writeback(int, int, int)
                0x00000000c0018fac                CPU::AMD_K6_write_msr(unsigned int, unsigned int, unsigned int, CPU::REGS*)
                0x00000000c0018fc8                CPU::AMD_K6_read_msr(unsigned int, CPU::REGS*)
                0x00000000c0018fe0                CPU::cpuid(int, unsigned long*, unsigned long*, unsigned long*, unsigned long*)
                0x00000000c0019064                CPU::cpuidCheckEDX(unsigned int)
                0x00000000c0019092                CPU::cpuidCheckECX(unsigned int)
                0x00000000c00190c0                CPU::cpuidCheckExtendedEBX(unsigned int)
                0x00000000c00190ee                CPU::cpuidCheckExtendedECX(unsigned int)
                0x00000000c001911c                CPU::CPU()
                0x00000000c001911c                CPU::CPU()
                0x00000000c00191aa                CPU::open(int, int, void*)
                0x00000000c001927c                CPU::displayFeatures()
                0x00000000c00194f8                CPU::detectFeatures()
                0x00000000c0019ee8                CPU::close(int, int, void*)
                0x00000000c0019eec                CPU::setupSMEP()
                0x00000000c0019ef8                CPU::setupSMAP()
                0x00000000c0019f06                CPU::setupUMIP()
                0x00000000c0019f10                CPU::setupTSC()
                0x00000000c0019f1a                CPU::setupLargePages()
                0x00000000c0019f24                CPU::setupPAT()
                0x00000000c0019f60                CPU::setupMTRR()
                0x00000000c0019f62                CPU::setupGlobalPages()
                0x00000000c0019f6c                CPU::allowUsermodeDataAccess()
                0x00000000c0019f7e                CPU::prohibitUsermodeDataAccess()
                0x00000000c0019f90                CPU::setupFeatures()
                0x00000000c001a02c                CPU::decodeAddress(regs*, int*, bool*, unsigned char*)
 .text          0x00000000c001a227        0x0 hw/ports.32
 *fill*         0x00000000c001a227        0x1 
 .text          0x00000000c001a228      0x5d3 krnl/env.32
                0x00000000c001a228                EnvVarContainer::getEnv(char const*)
                0x00000000c001a266                EnvVarContainer::setEnv(char const*, char const*)
                0x00000000c001a332                EnvVarContainer::deleteEnv(char const*)
                0x00000000c001a334                EnvVarContainer::loadFrom(char const*, char const*)
                0x00000000c001a52a                EnvVarContainer::__loadSystem()
                0x00000000c001a544                EnvVarContainer::__loadUser()
                0x00000000c001a546                EnvVarContainer::EnvVarContainer(Process*)
                0x00000000c001a546                EnvVarContainer::EnvVarContainer(Process*)
                0x00000000c001a568                EnvVarContainer::~EnvVarContainer()
                0x00000000c001a568                EnvVarContainer::~EnvVarContainer()
                0x00000000c001a598                Krnl::getEnv(Process*, char const*)
                0x00000000c001a5fd                Krnl::setEnvSystem(char const*, char const*)
                0x00000000c001a617                Krnl::setEnvUser(char const*, char const*)
                0x00000000c001a636                Krnl::setEnvProcess(Process*, char const*, char const*)
                0x00000000c001a649                Krnl::deleteEnvSystem(char const*)
                0x00000000c001a64a                Krnl::deleteEnvUser(char const*)
                0x00000000c001a64b                Krnl::deleteEnvProcess(Process*, char const*)
                0x00000000c001a64c                Krnl::newProcessEnv(Process*)
                0x00000000c001a66e                Krnl::copyProcessEnv(Process*, Process*)
                0x00000000c001a6c2                Krnl::loadSystemEnv()
                0x00000000c001a6f0                Krnl::loadUserEnv()
                0x00000000c001a716                Krnl::flushEnv()
                0x00000000c001a717                Krnl::getProcessTotalEnvCount(Process*)
                0x00000000c001a737                Krnl::getProcessEnvPair(Process*, int)
 .text          0x00000000c001a7fb      0x396 krnl/panic.32
                0x00000000c001a7fb                Krnl::panic(char const*)
 .text          0x00000000c001ab91      0x3b6 net/ethernet.32
                0x00000000c001ab91                Net::switchEndian16(unsigned short)
                0x00000000c001abb2                Net::switchEndian32(unsigned int)
                0x00000000c001abe1                Net::crc32Calc(unsigned char*, int)
                0x00000000c001ac72                Net::wrapEthernetFrame(Net::UnwrappedEthernetFrame, unsigned char*)
                0x00000000c001adae                Net::unwrapEthernetFrame(unsigned char*, int)
 .text          0x00000000c001af47      0x513 reg/registry.32
                0x00000000c001af47                Reg::findLineFromLoadedData(char*, char*, char*)
                0x00000000c001b09f                Reg::getLineFromRegistry(char*, char*, char*, char*)
                0x00000000c001b1f4                Reg::getLine(char*, char*, char*)
                0x00000000c001b22b                Reg::readInt(char*, char*, int*)
                0x00000000c001b316                Reg::readString(char*, char*, char*, int)
                0x00000000c001b397                Reg::readBool(char*, char*, bool*)
                0x00000000c001b3bc                Reg::readBoolWithDefault(char*, char*, bool)
                0x00000000c001b3e8                Reg::readIntWithDefault(char*, char*, int)
                0x00000000c001b414                Reg::readStringWithDefault(char*, char*, char*, int, char*)
 .text          0x00000000c001b45a       0x36 sys/sc_eject.32
                0x00000000c001b45a                Sys::eject(regs*)
 .text          0x00000000c001b490       0x18 sys/sc_exit.32
                0x00000000c001b490                Sys::exit(regs*)
 .text          0x00000000c001b4a8       0x1f sys/sc_getcwd.32
                0x00000000c001b4a8                Sys::getCwd(regs*)
 .text          0x00000000c001b4c7        0xc sys/sc_getpid.32
                0x00000000c001b4c7                Sys::getPID(regs*)
 .text          0x00000000c001b4d3       0xa8 sys/sc_loaddll.32
                0x00000000c001b4d3                Sys::loadDLL(regs*)
 .text          0x00000000c001b57b       0x68 sys/sc_read.32
                0x00000000c001b57b                Sys::read(regs*)
 .text          0x00000000c001b5e3       0x55 sys/sc_sbrk.32
                0x00000000c001b5e3                Sys::sbrk(regs*)
 .text          0x00000000c001b638       0x1c sys/sc_setcwd.32
                0x00000000c001b638                Sys::setCwd(regs*)
 .text          0x00000000c001b654      0x128 sys/sc_settime.32
                0x00000000c001b654                Sys::setTime(regs*)
 .text          0x00000000c001b77c       0x4a sys/sc_timezone.32
                0x00000000c001b77c                Sys::timezone(regs*)
 .text          0x00000000c001b7c6       0x68 sys/sc_write.32
                0x00000000c001b7c6                Sys::write(regs*)
 .text          0x00000000c001b82e       0x3b sys/sc_yield.32
                0x00000000c001b82e                Sys::yield(regs*)
 .text          0x00000000c001b869     0x1028 sys/syscalls.32
                0x00000000c001b869                string_ends_with(char const*, char const*)
                0x00000000c001b8b1                sysCallOpen(regs*)
                0x00000000c001bac6                sysCallSeek(regs*)
                0x00000000c001bb2f                sysCallTell(regs*)
                0x00000000c001bbac                sysCallSizeFromFilename(regs*)
                0x00000000c001bc6c                sysCallSize(regs*)
                0x00000000c001bcef                sysCallClose(regs*)
                0x00000000c001bd77                sysCallOpenDir(regs*)
                0x00000000c001bdec                sysCallReadDir(regs*)
                0x00000000c001be7a                sysCallSeekDir(regs*)
                0x00000000c001be7f                sysCallTellDir(regs*)
                0x00000000c001be84                sysCallMakeDir(regs*)
                0x00000000c001bef4                sysCallCloseDir(regs*)
                0x00000000c001bf5a                sysCallVerify(regs*)
                0x00000000c001bf64                sysCallWait(regs*)
                0x00000000c001bf7e                sysCallNotImpl(regs*)
                0x00000000c001bf99                sysCallRmdir(regs*)
                0x00000000c001bffd                sysCallUnlink(regs*)
                0x00000000c001c061                sysCallGetArgc(regs*)
                0x00000000c001c071                sysCallGetArgv(regs*)
                0x00000000c001c0bd                sysCallRealpath(regs*)
                0x00000000c001c100                sysCallTTYName(regs*)
                0x00000000c001c183                sysCallIsATTY(regs*)
                0x00000000c001c1dd                sysCallUSleep(regs*)
                0x00000000c001c204                sysCallSpawn(regs*)
                0x00000000c001c25c                sysCallGetEnv(regs*)
                0x00000000c001c309                sysAppSettings(regs*)
                0x00000000c001c428                sysFormatDisk(regs*)
                0x00000000c001c492                sysSetDiskVolumeLabel(regs*)
                0x00000000c001c4d8                sysGetDiskVolumeLabel(regs*)
                0x00000000c001c529                sysSetFatAttrib(regs*)
                0x00000000c001c59b                sysPanic(regs*)
                0x00000000c001c5c1                sysShutdown(regs*)
                0x00000000c001c61f                sysPipe(regs*)
                0x00000000c001c664                sysGetUnixTime(regs*)
                0x00000000c001c678                Sys::loadSyscalls()
                0x00000000c001c84f                Sys::systemCall(regs*, void*)
 .text          0x00000000c001c891     0x1181 thr/elf.32
                0x00000000c001c891                Thr::allocateMemoryForTask(Process*, File*, unsigned long, unsigned long, unsigned long)
                0x00000000c001cb0e                Thr::loadProgramIntoMemory(Process*, char const*)
                0x00000000c001cd24                Thr::runtimeReferenceHelper()
                0x00000000c001cd37                Thr::getAddressOfKernelSymbol(char const*)
                0x00000000c001cd86                Thr::loadKernelSymbolTable(char const*)
                0x00000000c001d03a                Thr::loadDriverIntoMemory(char const*, unsigned long, bool)
                0x00000000c001d756                Thr::getDriverBaseFromAddress(unsigned long)
                0x00000000c001d788                Thr::getDriverNameFromAddress(unsigned long)
                0x00000000c001d7bf                Thr::getDriverOffsetFromAddress(unsigned long)
                0x00000000c001d7d9                Thr::loadDLL(char const*, bool)
                0x00000000c001d9e8                Thr::executeDLL(unsigned long, void*)
 .text          0x00000000c001da12     0x1051 thr/prcssthr.32
                0x00000000c001da12                changeTSS
                0x00000000c001da42                switchToThread(ThreadControlBlock*)
                0x00000000c001da92                Process::createUserThread()
                0x00000000c001daae                Process::createThread(void (*)(void*), void*, int)
                0x00000000c001db92                Process::addArgs(char**)
                0x00000000c001dbec                setupMultitasking(void (*)())
                0x00000000c001dcf6                Process::Process(char const*, Process*, char**)
                0x00000000c001dcf6                Process::Process(char const*, Process*, char**)
                0x00000000c001deda                Process::Process(bool, char const*, Process*, char**)
                0x00000000c001deda                Process::Process(bool, char const*, Process*, char**)
                0x00000000c001e089                disableIRQs()
                0x00000000c001e091                getIRQNestingLevel()
                0x00000000c001e097                enableIRQs()
                0x00000000c001e0a6                lockScheduler()
                0x00000000c001e0a8                unlockScheduler()
                0x00000000c001e0aa                lockStuff()
                0x00000000c001e0b6                unlockStuff()
                0x00000000c001e0e5                userModeEntryPoint(void*)
                0x00000000c001e108                taskStartupFunction
                0x00000000c001e111                schedule()
                0x00000000c001e196                updateTimeUsed()
                0x00000000c001e1fb                cleanupTerminatedTask(ThreadControlBlock*)
                0x00000000c001e4c4                waitTask(int, int*, int)
                0x00000000c001e506                cleanerTaskFunction(void*)
                0x00000000c001e5b9                terminateTask(int)
                0x00000000c001e699                blockTaskWithSchedulerLockAlreadyHeld(TaskState)
                0x00000000c001e6db                blockTask(TaskState)
                0x00000000c001e6fc                unblockTask(ThreadControlBlock*)
                0x00000000c001e7ab                nanoSleepUntil(unsigned long long)
                0x00000000c001e802                nanoSleep(unsigned long long)
                0x00000000c001e817                sleep(unsigned long long)
                0x00000000c001e834                taskReturned
                0x00000000c001e862                Semaphore::Semaphore(int)
                0x00000000c001e862                Semaphore::Semaphore(int)
                0x00000000c001e890                Semaphore::tryAcquire()
                0x00000000c001e8be                Semaphore::assertLocked(char const*)
                0x00000000c001e8f2                Semaphore::acquire()
                0x00000000c001e95a                Semaphore::release()
                0x00000000c001e992                Mutex::Mutex()
                0x00000000c001e992                Mutex::Mutex()
                0x00000000c001e9a3                Thr::terminateFromIRQ(int)
 .text          0x00000000c001ea63      0xc26 vm86/vm8086.32
                0x00000000c001ea63                Vm::inbv(unsigned short)
                0x00000000c001ea76                Vm::outbv(unsigned short, unsigned char)
                0x00000000c001eac9                Vm::realToLinear(unsigned short, unsigned short)
                0x00000000c001ead9                Vm::getSegment(unsigned int)
                0x00000000c001eae1                Vm::getOffset(unsigned int)
                0x00000000c001eae6                Vm::mainloop2()
                0x00000000c001eb21                Vm::mainloop3(unsigned long)
                0x00000000c001eb4b                Vm::mainVm8086Loop(void*)
                0x00000000c001eb58                Vm::initialise8086()
                0x00000000c001eb9b                Vm::finish8086()
                0x00000000c001ebe0                Vm::getOutput8086(unsigned char*)
                0x00000000c001ec0a                Vm::start8086(char const*, unsigned short, unsigned short, unsigned short, unsigned short)
                0x00000000c001ed5a                Vm::doISR(regs*, int, unsigned char*, unsigned short, unsigned short)
                0x00000000c001ede4                Vm::readByteFromReal(unsigned short, unsigned short)
                0x00000000c001edf5                Vm::readWordFromReal(unsigned short, unsigned short)
                0x00000000c001ee07                Vm::readDwordFromReal(unsigned short, unsigned short)
                0x00000000c001ee18                Vm::writeByteFromReal(unsigned short, unsigned short, unsigned char)
                0x00000000c001ee2d                Vm::writeWordFromReal(unsigned short, unsigned short, unsigned short)
                0x00000000c001ee43                Vm::writeDwordFromReal(unsigned short, unsigned short, unsigned int)
                0x00000000c001ee58                Vm::faultHandler(regs*)
 .text          0x00000000c001f689      0xefd vm86/x87em.32
                0x00000000c001f689                Vm::fpuInternalTo32(unsigned long long)
                0x00000000c001f6e4                Vm::fpuInternalTo64(unsigned long long)
                0x00000000c001f6ed                Vm::fpu32ToInternal(unsigned int)
                0x00000000c001f732                Vm::fpu64ToInternal(unsigned long long)
                0x00000000c001f73b                Vm::fpuFloatToLong(unsigned long long)
                0x00000000c001f796                Vm::fpuULongToFloat(unsigned long long)
                0x00000000c001f7cc                Vm::fpuLongToFloat(long long)
                0x00000000c001f822                Vm::fpuGet0()
                0x00000000c001f827                Vm::fpuGet1()
                0x00000000c001f82f                Vm::fpuGetPi()
                0x00000000c001f837                Vm::fpuGetLog2E()
                0x00000000c001f84f                Vm::fpuGetLogE2()
                0x00000000c001f867                Vm::fpuGetLog210()
                0x00000000c001f87f                Vm::fpuGetLog102()
                0x00000000c001f897                Vm::fpuIsSecondLarger(unsigned long long, unsigned long long)
                0x00000000c001f8ab                Vm::fpuAreEqual(unsigned long long, unsigned long long)
                0x00000000c001f8c1                Vm::fpuUnorderedCompare(unsigned long long, unsigned long long)
                0x00000000c001f914                Vm::fpuAdd(unsigned long long, unsigned long long)
                0x00000000c001f925                Vm::fpuAbs(unsigned long long)
                0x00000000c001f92e                Vm::fpuChs(unsigned long long)
                0x00000000c001f93e                Vm::fpuSub(unsigned long long, unsigned long long)
                0x00000000c001f94d                Vm::fpuMultiply(unsigned long long, unsigned long long)
                0x00000000c001f96c                Vm::fpuDivide(unsigned long long, unsigned long long)
                0x00000000c001f988                Vm::fpuSquare(unsigned long long)
                0x00000000c001f99e                Vm::fpuGetReg(int)
                0x00000000c001f9e1                Vm::fpuSetReg(int, unsigned long long)
                0x00000000c001fa2c                Vm::fpuPush(unsigned long long)
                0x00000000c001fa89                Vm::fpuPop()
                0x00000000c001fadb                Vm::x87Handler(regs*)
 .text          0x00000000c0020586     0x10ed fs/fat/vfslink.32
                0x00000000c0020586                fatWrapperReadDisk
                0x00000000c00205cd                fatWrapperWriteDisk
                0x00000000c0020614                fatWrapperIoctl
                0x00000000c0020718                FAT::FAT()
                0x00000000c0020718                FAT::FAT()
                0x00000000c002076a                FAT::~FAT()
                0x00000000c002076a                FAT::~FAT()
                0x00000000c002078e                FAT::~FAT()
                0x00000000c00207b6                FAT::getName()
                0x00000000c00207bc                FAT::getlabel(LogicalDisk*, int, char*, unsigned int*)
                0x00000000c002085a                FAT::setlabel(LogicalDisk*, int, char*)
                0x00000000c0020914                FAT::format(LogicalDisk*, int, char const*, int)
                0x00000000c0020af8                FAT::tryMount(LogicalDisk*, int)
                0x00000000c0020cfe                FAT::fixFilepath(char*)
                0x00000000c0020d36                FAT::open(char const*, void**, FileOpenMode)
                0x00000000c0020e5e                FAT::openDir(char const*, void**)
                0x00000000c0020f04                FAT::readDir(void*, unsigned long, void*, int*)
                0x00000000c002100a                FAT::read(void*, unsigned long, void*, int*)
                0x00000000c0021064                FAT::write(void*, unsigned long, void*, int*)
                0x00000000c00210be                FAT::close(void*)
                0x00000000c002110a                FAT::closeDir(void*)
                0x00000000c0021156                FAT::seek(void*, unsigned long long)
                0x00000000c00211aa                FAT::tell(void*, unsigned long long*)
                0x00000000c00211de                FAT::stat(void*, unsigned long long*)
                0x00000000c0021212                FAT::stat(char const*, unsigned long long*, bool*)
                0x00000000c00212fc                FAT::unlink(char const*)
                0x00000000c0021376                FAT::chfatattr(char const*, unsigned char, unsigned char)
                0x00000000c00214ca                FAT::rename(char const*, char const*)
                0x00000000c002158e                FAT::mkdir(char const*)
                0x00000000c0021608                FAT::exists(char const*)
 *fill*         0x00000000c0021673        0x1 
 .text          0x00000000c0021674      0xbc2 fs/iso9660/vfslink.32
                0x00000000c0021674                __memmem(unsigned char*, int, unsigned char*, int)
                0x00000000c00216b6                readSectorFromCDROM(unsigned int, unsigned char*, char)
                0x00000000c002171c                readRoot(unsigned int*, unsigned int*, char)
                0x00000000c0021771                readRecursively(char*, unsigned int, unsigned int, unsigned int*, unsigned int*, char, int*)
                0x00000000c0021944                getFileData(char*, unsigned int*, unsigned int*, char, int*)
                0x00000000c00219d2                ISO9660::ISO9660()
                0x00000000c00219d2                ISO9660::ISO9660()
                0x00000000c00219f6                ISO9660::~ISO9660()
                0x00000000c00219f6                ISO9660::~ISO9660()
                0x00000000c0021a1a                ISO9660::~ISO9660()
                0x00000000c0021a42                ISO9660::format(LogicalDisk*, int, char const*, int)
                0x00000000c0021a48                ISO9660::tryMount(LogicalDisk*, int)
                0x00000000c0021a98                ISO9660::open(char const*, void**, FileOpenMode)
                0x00000000c0021b58                ISO9660::read(void*, unsigned long, void*, int*)
                0x00000000c0021d58                ISO9660::exists(char const*)
                0x00000000c0021d7c                ISO9660::seek(void*, unsigned long long)
                0x00000000c0021dac                ISO9660::tell(void*, unsigned long long*)
                0x00000000c0021dd0                ISO9660::getName()
                0x00000000c0021dd6                ISO9660::stat(void*, unsigned long long*)
                0x00000000c0021dfa                ISO9660::stat(char const*, unsigned long long*, bool*)
                0x00000000c0021e8e                ISO9660::close(void*)
                0x00000000c0021eb0                ISO9660::openDir(char const*, void**)
                0x00000000c0021f68                ISO9660::readDir(void*, unsigned long, void*, int*)
                0x00000000c00221f6                ISO9660::closeDir(void*)
                0x00000000c0022218                ISO9660::chfatattr(char const*, unsigned char, unsigned char)
                0x00000000c002221e                ISO9660::unlink(char const*)
                0x00000000c0022224                ISO9660::write(void*, unsigned long, void*, int*)
                0x00000000c002222a                ISO9660::rename(char const*, char const*)
                0x00000000c0022230                ISO9660::mkdir(char const*)
 .text          0x00000000c0022236      0x330 hal/sound/sndchannel.32
                0x00000000c0022236                SoundChannel::SoundChannel(int, int, int, int)
                0x00000000c0022236                SoundChannel::SoundChannel(int, int, int, int)
                0x00000000c0022396                SoundChannel::~SoundChannel()
                0x00000000c0022396                SoundChannel::~SoundChannel()
                0x00000000c00223b2                SoundChannel::setSpeed(float)
                0x00000000c00223be                SoundChannel::getSpeed()
                0x00000000c00223c6                SoundChannel::setVolume(int)
                0x00000000c00223e2                SoundChannel::getVolume()
                0x00000000c00223ea                SoundChannel::pause()
                0x00000000c00223f4                SoundChannel::play()
                0x00000000c00223fe                SoundChannel::paused()
                0x00000000c0022406                SoundChannel::getSampleRate()
                0x00000000c002240e                SoundChannel::getBits()
                0x00000000c0022416                SoundChannel::getBufferUsed()
                0x00000000c002241e                SoundChannel::getBufferSize()
                0x00000000c0022426                SoundChannel::unbuffer(float*, int, int)
                0x00000000c00224c6                SoundChannel::buffer8(unsigned char*, int)
 .text          0x00000000c0022566      0x3d5 hal/sound/sndhw.32
                0x00000000c0022566                SoundDevice::SoundDevice(char const*)
                0x00000000c0022566                SoundDevice::SoundDevice(char const*)
                0x00000000c00225d2                SoundDevice::~SoundDevice()
                0x00000000c00225d2                SoundDevice::~SoundDevice()
                0x00000000c002264c                SoundDevice::~SoundDevice()
                0x00000000c0022676                SoundDevice::getFreeChannelNum()
                0x00000000c0022690                SoundDevice::addChannel(SoundChannel*)
                0x00000000c0022700                SoundDevice::removeChannel(int)
                0x00000000c0022732                SoundDevice::floatTo8(float*, unsigned char*, int)
                0x00000000c002281a                SoundDevice::getAudio(int, float*, float*)
 .text          0x00000000c002293b        0x0 hw/bus/isa.32
 *fill*         0x00000000c002293b        0x1 
 .text          0x00000000c002293c      0x6e3 hw/bus/pci.32
                0x00000000c002293c                PCI::PCI()
                0x00000000c002293c                PCI::PCI()
                0x00000000c00229bc                PCI::open(int, int, void*)
                0x00000000c00229d0                PCI::getVendorID(unsigned char, unsigned char, unsigned char)
                0x00000000c00229f4                PCI::getHeaderType(unsigned char, unsigned char, unsigned char)
                0x00000000c0022a1c                PCI::getClassCode(unsigned char, unsigned char, unsigned char)
                0x00000000c0022a66                PCI::getProgIF(unsigned char, unsigned char, unsigned char)
                0x00000000c0022a8e                PCI::getRevisionID(unsigned char, unsigned char, unsigned char)
                0x00000000c0022ab2                PCI::getInterruptNumber(unsigned char, unsigned char, unsigned char)
                0x00000000c0022ad6                PCI::getSecondaryBus(unsigned char, unsigned char, unsigned char)
                0x00000000c0022afe                PCI::getBARAddress(unsigned char, unsigned char, unsigned char, unsigned char)
                0x00000000c0022b62                PCI::pciReadWord(unsigned char, unsigned char, unsigned char, unsigned char)
                0x00000000c0022baa                PCI::pciWriteWord(unsigned char, unsigned char, unsigned char, unsigned char, unsigned short)
                0x00000000c0022c16                PCI::close(int, int, void*)
                0x00000000c0022c1a                PCI::foundDevice(PCIDeviceInfo)
                0x00000000c0022d8e                PCI::getDeviceData(unsigned char, unsigned char, unsigned char)
                0x00000000c0022f3c                PCI::checkDevice(unsigned char, unsigned char)
                0x00000000c0022fa8                PCI::checkBus(unsigned char)
                0x00000000c0022fcc                PCI::detect()
 *fill*         0x00000000c002301f        0x1 
 .text          0x00000000c0023020      0xc6f hw/diskctrl/ide.32
                0x00000000c0023020                IDE::IDE()
                0x00000000c0023020                IDE::IDE()
                0x00000000c0023054                IDE::prepareInterrupt(unsigned char)
                0x00000000c0023066                IDE::waitInterrupt(unsigned char)
                0x00000000c00230cc                ideChannel0IRQHandler(regs*, void*)
                0x00000000c00230e8                ideChannel1IRQHandler(regs*, void*)
                0x00000000c0023104                IDE::open(int, int, void*)
                0x00000000c0023514                IDE::enableIRQs(unsigned char, bool)
                0x00000000c002355a                selectDrive(unsigned char, unsigned char)
                0x00000000c002355c                IDE::getBase(unsigned char)
                0x00000000c002356e                IDE::close(int, int, void*)
                0x00000000c0023572                IDE::read(unsigned char, unsigned char)
                0x00000000c0023620                IDE::write(unsigned char, unsigned char, unsigned char)
                0x00000000c00236e0                IDE::readBuffer(unsigned char, unsigned char, unsigned int, unsigned int)
                0x00000000c00237ac                IDE::printError(unsigned char, unsigned char, unsigned char)
                0x00000000c0023942                IDE::polling(unsigned char, unsigned int)
                0x00000000c00239a8                IDE::detect()
 *fill*         0x00000000c0023c8f        0x1 
 .text          0x00000000c0023c90      0x391 hw/diskctrl/satabus.32
                0x00000000c0023c90                SATABus::SATABus()
                0x00000000c0023c90                SATABus::SATABus()
                0x00000000c0023d3c                SATABus::open(int, int, void*)
                0x00000000c0023d5c                SATABus::close(int, int, void*)
                0x00000000c0023d60                SATABus::detect()
                0x00000000c0023d62                SATABus::findCmdslot(SATABus::tagHBA_PORT volatile*)
                0x00000000c0023daa                SATABus::probePort(SATABus::tagHBA_MEM volatile*)
                0x00000000c0023e8c                SATABus::checkType(SATABus::tagHBA_PORT volatile*)
                0x00000000c0023ed4                SATABus::portRebase(SATABus::tagHBA_PORT volatile*, int)
                0x00000000c0023fd8                SATABus::startCmd(SATABus::tagHBA_PORT volatile*)
                0x00000000c0023ff8                SATABus::stopCmd(SATABus::tagHBA_PORT volatile*)
 *fill*         0x00000000c0024021        0x1 
 .text          0x00000000c0024022      0x631 hw/diskphys/ata.32
                0x00000000c0024022                ATA::ATA()
                0x00000000c0024022                ATA::ATA()
                0x00000000c0024050                ATA::flush(bool)
                0x00000000c002409a                ATA::readyForCommand()
                0x00000000c00240ea                ATA::access(unsigned long long, int, void*, bool)
                0x00000000c0024468                ATA::detectCHS()
                0x00000000c0024492                ATA::open(int, int, void*)
                0x00000000c002455e                ATA::read(unsigned long long, int, void*)
                0x00000000c00245c6                ATA::write(unsigned long long, int, void*)
                0x00000000c002462e                ATA::close(int, int, void*)
                0x00000000c0024652                ATA::powerSaving(PowerSavingLevel)
 *fill*         0x00000000c0024653        0x1 
 .text          0x00000000c0024654      0x5bd hw/diskphys/atapi.32
                0x00000000c0024654                ATAPI::ATAPI()
                0x00000000c0024654                ATAPI::ATAPI()
                0x00000000c0024682                ATAPI::sendPacket(unsigned char*, int, bool, unsigned short*, int)
                0x00000000c0024942                ATAPI::readyForCommand()
                0x00000000c0024992                ATAPI::open(int, int, void*)
                0x00000000c0024a1a                ATAPI::eject()
                0x00000000c0024a62                ATAPI::diskRemoved()
                0x00000000c0024a7e                ATAPI::diskInserted()
                0x00000000c0024aac                ATAPI::detectMedia()
                0x00000000c0024b68                ATAPI::read(unsigned long long, int, void*)
                0x00000000c0024be8                ATAPI::write(unsigned long long, int, void*)
                0x00000000c0024bee                ATAPI::close(int, int, void*)
 *fill*         0x00000000c0024c11        0x1 
 .text          0x00000000c0024c12      0x481 hw/diskphys/sata.32
                0x00000000c0024c12                SATA::SATA()
                0x00000000c0024c12                SATA::SATA()
                0x00000000c0024c40                SATA::open(int, int, void*)
                0x00000000c0024cee                SATA::access(unsigned long long, int, void*, bool)
                0x00000000c0024f9e                SATA::read(unsigned long long, int, void*)
                0x00000000c0025006                SATA::write(unsigned long long, int, void*)
                0x00000000c002506e                SATA::close(int, int, void*)
                0x00000000c0025092                SATA::powerSaving(PowerSavingLevel)
 *fill*         0x00000000c0025093        0x1 
 .text          0x00000000c0025094      0x566 hw/diskphys/satapi.32
                0x00000000c0025094                SATAPI::SATAPI()
                0x00000000c0025094                SATAPI::SATAPI()
                0x00000000c00250c2                SATAPI::diskRemoved()
                0x00000000c00250de                SATAPI::diskInserted()
                0x00000000c002510c                SATAPI::sendPacket(unsigned char*, int, unsigned long long, unsigned short*, int)
                0x00000000c002536a                SATAPI::open(int, int, void*)
                0x00000000c0025424                SATAPI::read(unsigned long long, int, void*)
                0x00000000c00254c6                SATAPI::write(unsigned long long, int, void*)
                0x00000000c00254cc                SATAPI::close(int, int, void*)
                0x00000000c00254f0                SATAPI::detectMedia()
                0x00000000c00255b2                SATAPI::eject()
 .text          0x00000000c00255fa       0x8e hw/fpu/avx.32
                0x00000000c00255fa                AVX::AVX()
                0x00000000c00255fa                AVX::AVX()
                0x00000000c0025622                AVX::open(int, int, void*)
                0x00000000c0025634                AVX::close(int, int, void*)
                0x00000000c0025646                AVX::available()
                0x00000000c0025658                AVX::save(void*)
                0x00000000c0025670                AVX::load(void*)
 .text          0x00000000c0025688       0x90 hw/fpu/mmx.32
                0x00000000c0025688                MMX::MMX()
                0x00000000c0025688                MMX::MMX()
                0x00000000c00256b0                MMX::open(int, int, void*)
                0x00000000c00256c2                MMX::close(int, int, void*)
                0x00000000c00256d4                MMX::available()
                0x00000000c00256e8                MMX::save(void*)
                0x00000000c0025700                MMX::load(void*)
 .text          0x00000000c0025718       0x96 hw/fpu/sse.32
                0x00000000c0025718                SSE::SSE()
                0x00000000c0025718                SSE::SSE()
                0x00000000c0025740                SSE::open(int, int, void*)
                0x00000000c0025752                SSE::close(int, int, void*)
                0x00000000c0025764                SSE::available()
                0x00000000c002577e                SSE::save(void*)
                0x00000000c0025796                SSE::load(void*)
 .text          0x00000000c00257ae       0x8e hw/fpu/x87.32
                0x00000000c00257ae                x87::x87()
                0x00000000c00257ae                x87::x87()
                0x00000000c00257d6                x87::open(int, int, void*)
                0x00000000c00257e8                x87::close(int, int, void*)
                0x00000000c00257fa                x87::available()
                0x00000000c002580c                x87::save(void*)
                0x00000000c0025824                x87::load(void*)
 .text          0x00000000c002583c      0x71e hw/intctrl/apic.32
                0x00000000c002583c                APIC::APIC()
                0x00000000c002583c                APIC::APIC()
                0x00000000c0025918                APIC::io_wait()
                0x00000000c002591e                APIC::disable()
                0x00000000c0025920                APIC::installIRQHandler(int, void (*)(regs*, void*), bool, void*)
                0x00000000c0025ad6                APIC::eoi(unsigned char)
                0x00000000c0025b04                APIC::getBase()
                0x00000000c0025b46                APIC::open(int, int, void*)
                0x00000000c0025c94                APIC::close(int, int, void*)
                0x00000000c0025cb6                IOAPIC::IOAPIC()
                0x00000000c0025cb6                IOAPIC::IOAPIC()
                0x00000000c0025cde                IOAPIC::handlesGSIWithNumber(unsigned int)
                0x00000000c0025d10                IOAPIC::open(int, int, void*)
                0x00000000c0025e06                IOAPIC::read(int)
                0x00000000c0025e2e                IOAPIC::write(int, int)
                0x00000000c0025e5a                IOAPIC::redirect(unsigned char, unsigned long long, unsigned char, bool, bool)
                0x00000000c0025f54                IOAPIC::close(int, int, void*)
 .text          0x00000000c0025f5a      0x3d4 hw/intctrl/pic.32
                0x00000000c0025f5a                PIC::PIC()
                0x00000000c0025f5a                PIC::PIC()
                0x00000000c0026030                PIC::ioWait()
                0x00000000c0026036                PIC::disable()
                0x00000000c0026064                PIC::getIRQReg(int)
                0x00000000c00260ce                PIC::remap()
                0x00000000c002623a                PIC::eoi(unsigned char)
                0x00000000c00262cc                PIC::open(int, int, void*)
                0x00000000c002630c                PIC::close(int, int, void*)
 .text          0x00000000c002632e      0x25e hw/timer/apictimer.32
                0x00000000c002632e                apicTimerHandler(regs*, void*)
                0x00000000c002635c                APICTimer::APICTimer()
                0x00000000c002635c                APICTimer::APICTimer()
                0x00000000c0026384                APICTimer::open(int, int, void*)
                0x00000000c0026482                APICTimer::write(int)
                0x00000000c0026586                APICTimer::close(int, int, void*)
 .text          0x00000000c002658c      0x1a8 hw/timer/pit.32
                0x00000000c002658c                pitHandler(regs*, void*)
                0x00000000c00265b8                PIT::PIT()
                0x00000000c00265b8                PIT::PIT()
                0x00000000c0026638                PIT::open(int, int, void*)
                0x00000000c0026686                PIT::write(int)
                0x00000000c0026704                PIT::close(int, int, void*)
 *fill*         0x00000000c0026734        0xc 
 .text          0x00000000c0026740       0x1e hw/fpu/x86/avx.32
                0x00000000c0026740                avxDetect
                0x00000000c0026746                avxSave
                0x00000000c0026747                avxLoad
                0x00000000c0026748                avxInit
                0x00000000c0026749                avxClose
                0x00000000c002674a                wouldSheSayYes
 *fill*         0x00000000c002675e        0x2 
 .text          0x00000000c0026760       0x35 hw/fpu/x86/sse.32
                0x00000000c0026760                absolutelyNoChanceInHell
                0x00000000c0026760                sseDetect
                0x00000000c0026778                sseSave
                0x00000000c002677e                sseLoad
                0x00000000c0026784                sseInit
                0x00000000c0026794                sseClose
 *fill*         0x00000000c0026795        0xb 
 .text          0x00000000c00267a0       0x47 hw/fpu/x86/x87.32
                0x00000000c00267a6                x87Detect
                0x00000000c00267c1                x87Save
                0x00000000c00267c7                x87Load
                0x00000000c00267cc                x87Init
                0x00000000c00267e6                x87Close
 *fill*         0x00000000c00267e7        0x1 
 .text          0x00000000c00267e8       0x25 /cygdrive/d/Users/Alex/Desktop/Toolchain/Output/bin/../lib/gcc/i386-banana/8.1.0/crtend.o
 .text          0x00000000c002680d        0x0 crtn.32
 *fill*         0x00000000c002680d        0x3 
 .text          0x00000000c0026810      0x14b /cygdrive/d/Users/Alex/Desktop/Toolchain/Output/bin/../lib/gcc/i386-banana/8.1.0/libkgcc.a(_divdi3.o)
                0x00000000c0026810                __divdi3
 *fill*         0x00000000c002695b        0x1 
 .text          0x00000000c002695c      0x17e /cygdrive/d/Users/Alex/Desktop/Toolchain/Output/bin/../lib/gcc/i386-banana/8.1.0/libkgcc.a(_moddi3.o)
                0x00000000c002695c                __moddi3
 *fill*         0x00000000c0026ada        0x2 
 .text          0x00000000c0026adc       0xff /cygdrive/d/Users/Alex/Desktop/Toolchain/Output/bin/../lib/gcc/i386-banana/8.1.0/libkgcc.a(_udivdi3.o)
                0x00000000c0026adc                __udivdi3
 *fill*         0x00000000c0026bdb        0x1 
 .text          0x00000000c0026bdc      0x11a /cygdrive/d/Users/Alex/Desktop/Toolchain/Output/bin/../lib/gcc/i386-banana/8.1.0/libkgcc.a(_umoddi3.o)
                0x00000000c0026bdc                __umoddi3
 .text          0x00000000c0026cf6      0x96d D:/Users/Alex/Desktop/Banana/kernel/libsoftfp.a(sfieeelib.o)
                0x00000000c0026cf6                __addsf3
                0x00000000c0026ff8                __subsf3
                0x00000000c002700c                __negsf2
                0x00000000c0027019                __mulsf3
                0x00000000c00271dc                __divsf3
                0x00000000c0027407                __floatsisf
                0x00000000c002747b                __floatunsisf
                0x00000000c00274bd                __fixsfsi
                0x00000000c002751f                __fixunssfsi
                0x00000000c0027550                __cmpsf2
                0x00000000c00275e5                __eqsf2
                0x00000000c0027620                __nesf2
                0x00000000c0027622                __gtsf2
                0x00000000c002765d                __gesf2
                0x00000000c002765f                __ltsf2
                0x00000000c0027661                __lesf2
 .text          0x00000000c0027663      0xf50 D:/Users/Alex/Desktop/Banana/kernel/libsoftfp.a(dfieeelib.o)
                0x00000000c0027663                __adddf3
                0x00000000c0027cb4                __subdf3
                0x00000000c0027ccf                __negdf2
                0x00000000c0027ce0                __muldf3
                0x00000000c0027fc4                __divdf3
                0x00000000c0028343                __floatsidf
                0x00000000c002839e                __floatunsidf
                0x00000000c00283dc                __fixdfsi
                0x00000000c0028449                __fixunsdfsi
                0x00000000c0028485                __cmpdf2
                0x00000000c0028573                __eqdf2
                0x00000000c002858f                __nedf2
                0x00000000c0028591                __gtdf2
                0x00000000c00285ad                __gedf2
                0x00000000c00285af                __ltdf2
                0x00000000c00285b1                __ledf2
 .text          0x00000000c00285b3      0x18d D:/Users/Alex/Desktop/Banana/kernel/libsoftfp.a(sfdfcvt.o)
                0x00000000c00285b3                __truncdfsf2
                0x00000000c00286d7                __extendsfdf2
 .text          0x00000000c0028740       0x1e D:/Users/Alex/Desktop/Banana/kernel/libk/libm32.a(s_fabs.c.o)
                0x00000000c0028740                fabs
 *fill*         0x00000000c002875e        0x2 
 .text          0x00000000c0028760        0xc D:/Users/Alex/Desktop/Banana/kernel/libk/libm32.a(s_lrint.S.o)
                0x00000000c0028760                lrint
 .text          0x00000000c002876c        0xc D:/Users/Alex/Desktop/Banana/kernel/libk/libm32.a(s_lrintf.S.o)
                0x00000000c002876c                lrintf
 *(.gnu.linkonce.t*)

.iplt           0x00000000c0028778        0x0
 .iplt          0x00000000c0028778        0x0 D:/Users/Alex/Desktop/Banana/kernel/boot.32

.init           0x00000000c0028778        0xf
 .init          0x00000000c0028778        0x3 crti.32
                0x00000000c0028778                _init
 .init          0x00000000c002877b        0x5 /cygdrive/d/Users/Alex/Desktop/Toolchain/Output/bin/../lib/gcc/i386-banana/8.1.0/crtbegin.o
 .init          0x00000000c0028780        0x5 /cygdrive/d/Users/Alex/Desktop/Toolchain/Output/bin/../lib/gcc/i386-banana/8.1.0/crtend.o
 .init          0x00000000c0028785        0x2 crtn.32

.fini           0x00000000c0028787        0xa
 .fini          0x00000000c0028787        0x3 crti.32
                0x00000000c0028787                _fini
 .fini          0x00000000c002878a        0x5 /cygdrive/d/Users/Alex/Desktop/Toolchain/Output/bin/../lib/gcc/i386-banana/8.1.0/crtbegin.o
 .fini          0x00000000c002878f        0x2 crtn.32

.text._ZN8ComputerD2Ev
                0x00000000c0028792       0x23
 .text._ZN8ComputerD2Ev
                0x00000000c0028792       0x23 core/computer.32
                0x00000000c0028792                Computer::~Computer()
                0x00000000c0028792                Computer::~Computer()

.text._ZN8ComputerD0Ev
                0x00000000c00287b6       0x2a
 .text._ZN8ComputerD0Ev
                0x00000000c00287b6       0x2a core/computer.32
                0x00000000c00287b6                Computer::~Computer()

.text._Z10idleCommonv
                0x00000000c00287e0       0x15
 .text._Z10idleCommonv
                0x00000000c00287e0       0x15 core/idle.32
                0x00000000c00287e0                idleCommon()

.text._ZN10LinkedListI8UnixFileEC2Ev
                0x00000000c00287f6       0x58
 .text._ZN10LinkedListI8UnixFileEC2Ev
                0x00000000c00287f6       0x58 core/unixfile.32
                0x00000000c00287f6                LinkedList<UnixFile>::LinkedList()
                0x00000000c00287f6                LinkedList<UnixFile>::LinkedList()

.text._ZN10LinkedListI8UnixFileE10addElementEPS0_
                0x00000000c002884e       0xd3
 .text._ZN10LinkedListI8UnixFileE10addElementEPS0_
                0x00000000c002884e       0xd3 core/unixfile.32
                0x00000000c002884e                LinkedList<UnixFile>::addElement(UnixFile*)

.text._ZN10LinkedListI8UnixFileE15getFirstElementEv
                0x00000000c0028922        0x7
 .text._ZN10LinkedListI8UnixFileE15getFirstElementEv
                0x00000000c0028922        0x7 core/unixfile.32
                0x00000000c0028922                LinkedList<UnixFile>::getFirstElement()

.text._ZN10LinkedListI8UnixFileE11removeFirstEv
                0x00000000c002892a       0xa1
 .text._ZN10LinkedListI8UnixFileE11removeFirstEv
                0x00000000c002892a       0xa1 core/unixfile.32
                0x00000000c002892a                LinkedList<UnixFile>::removeFirst()

.text._ZN10LinkedListI8UnixFileE7getNextEPS0_
                0x00000000c00289cc        0x8
 .text._ZN10LinkedListI8UnixFileE7getNextEPS0_
                0x00000000c00289cc        0x8 core/unixfile.32
                0x00000000c00289cc                LinkedList<UnixFile>::getNext(UnixFile*)

.text._ZN10LinkedListI8UnixFileED2Ev
                0x00000000c00289d4        0x2
 .text._ZN10LinkedListI8UnixFileED2Ev
                0x00000000c00289d4        0x2 core/unixfile.32
                0x00000000c00289d4                LinkedList<UnixFile>::~LinkedList()
                0x00000000c00289d4                LinkedList<UnixFile>::~LinkedList()

.text._ZN10LinkedListI6DeviceE10addElementEPS0_
                0x00000000c00289d6       0xdc
 .text._ZN10LinkedListI6DeviceE10addElementEPS0_
                0x00000000c00289d6       0xdc hal/device.32
                0x00000000c00289d6                LinkedList<Device>::addElement(Device*)

.text._ZN10LinkedListI6DeviceEC2Ev
                0x00000000c0028ab2       0x58
 .text._ZN10LinkedListI6DeviceEC2Ev
                0x00000000c0028ab2       0x58 hal/device.32
                0x00000000c0028ab2                LinkedList<Device>::LinkedList()
                0x00000000c0028ab2                LinkedList<Device>::LinkedList()

.text._ZN16DriverlessDeviceD2Ev
                0x00000000c0028b0a       0x1a
 .text._ZN16DriverlessDeviceD2Ev
                0x00000000c0028b0a       0x1a hal/device.32
                0x00000000c0028b0a                DriverlessDevice::~DriverlessDevice()
                0x00000000c0028b0a                DriverlessDevice::~DriverlessDevice()

.text._ZN16DriverlessDeviceD0Ev
                0x00000000c0028b24       0x2a
 .text._ZN16DriverlessDeviceD0Ev
                0x00000000c0028b24       0x2a hal/device.32
                0x00000000c0028b24                DriverlessDevice::~DriverlessDevice()

.text._ZN10LinkedListIV18ThreadControlBlockE15getFirstElementEv
                0x00000000c0028b4e        0x7
 .text._ZN10LinkedListIV18ThreadControlBlockE15getFirstElementEv
                0x00000000c0028b4e        0x7 hal/timer.32
                0x00000000c0028b4e                LinkedList<ThreadControlBlock volatile>::getFirstElement()

.text._ZN10LinkedListIV18ThreadControlBlockE7isEmptyEv
                0x00000000c0028b56       0x1c
 .text._ZN10LinkedListIV18ThreadControlBlockE7isEmptyEv
                0x00000000c0028b56       0x1c hal/timer.32
                0x00000000c0028b56                LinkedList<ThreadControlBlock volatile>::isEmpty()

.text._ZN10LinkedListIV18ThreadControlBlockE11removeFirstEv
                0x00000000c0028b72       0xae
 .text._ZN10LinkedListIV18ThreadControlBlockE11removeFirstEv
                0x00000000c0028b72       0xae hal/timer.32
                0x00000000c0028b72                LinkedList<ThreadControlBlock volatile>::removeFirst()

.text._ZN10LinkedListIV18ThreadControlBlockE10addElementEPS1_
                0x00000000c0028c20       0xd3
 .text._ZN10LinkedListIV18ThreadControlBlockE10addElementEPS1_
                0x00000000c0028c20       0xd3 hal/timer.32
                0x00000000c0028c20                LinkedList<ThreadControlBlock volatile>::addElement(ThreadControlBlock volatile*)

.text._ZN4ACPID2Ev
                0x00000000c0028cf4       0x23
 .text._ZN4ACPID2Ev
                0x00000000c0028cf4       0x23 hw/acpi.32
                0x00000000c0028cf4                ACPI::~ACPI()
                0x00000000c0028cf4                ACPI::~ACPI()

.text._ZN4ACPID0Ev
                0x00000000c0028d18       0x2a
 .text._ZN4ACPID0Ev
                0x00000000c0028d18       0x2a hw/acpi.32
                0x00000000c0028d18                ACPI::~ACPI()

.text._ZN3CPUD2Ev
                0x00000000c0028d42       0x23
 .text._ZN3CPUD2Ev
                0x00000000c0028d42       0x23 hw/cpu.32
                0x00000000c0028d42                CPU::~CPU()
                0x00000000c0028d42                CPU::~CPU()

.text._ZN3CPUD0Ev
                0x00000000c0028d66       0x2a
 .text._ZN3CPUD0Ev
                0x00000000c0028d66       0x2a hw/cpu.32
                0x00000000c0028d66                CPU::~CPU()

.text._ZN18ThreadControlBlockC2Ev
                0x00000000c0028d90       0x3e
 .text._ZN18ThreadControlBlockC2Ev
                0x00000000c0028d90       0x3e thr/prcssthr.32
                0x00000000c0028d90                ThreadControlBlock::ThreadControlBlock()
                0x00000000c0028d90                ThreadControlBlock::ThreadControlBlock()

.text._ZN10LinkedListIV18ThreadControlBlockEC2Ev
                0x00000000c0028dce       0x58
 .text._ZN10LinkedListIV18ThreadControlBlockEC2Ev
                0x00000000c0028dce       0x58 thr/prcssthr.32
                0x00000000c0028dce                LinkedList<ThreadControlBlock volatile>::LinkedList()
                0x00000000c0028dce                LinkedList<ThreadControlBlock volatile>::LinkedList()

.text._ZN10LinkedListIV18ThreadControlBlockE7getNextEPS1_
                0x00000000c0028e26        0x8
 .text._ZN10LinkedListIV18ThreadControlBlockE7getNextEPS1_
                0x00000000c0028e26        0x8 thr/prcssthr.32
                0x00000000c0028e26                LinkedList<ThreadControlBlock volatile>::getNext(ThreadControlBlock volatile*)

.text._ZN10LinkedListIV18ThreadControlBlockED2Ev
                0x00000000c0028e2e        0x2
 .text._ZN10LinkedListIV18ThreadControlBlockED2Ev
                0x00000000c0028e2e        0x2 thr/prcssthr.32
                0x00000000c0028e2e                LinkedList<ThreadControlBlock volatile>::~LinkedList()
                0x00000000c0028e2e                LinkedList<ThreadControlBlock volatile>::~LinkedList()

.text._ZN2Vm9_FPUStateC2Ev
                0x00000000c0028e30        0xd
 .text._ZN2Vm9_FPUStateC2Ev
                0x00000000c0028e30        0xd vm86/x87em.32
                0x00000000c0028e30                Vm::_FPUState::_FPUState()
                0x00000000c0028e30                Vm::_FPUState::_FPUState()

.text._ZN3PCID2Ev
                0x00000000c0028e3e       0x23
 .text._ZN3PCID2Ev
                0x00000000c0028e3e       0x23 hw/bus/pci.32
                0x00000000c0028e3e                PCI::~PCI()
                0x00000000c0028e3e                PCI::~PCI()

.text._ZN3PCID0Ev
                0x00000000c0028e62       0x2a
 .text._ZN3PCID0Ev
                0x00000000c0028e62       0x2a hw/bus/pci.32
                0x00000000c0028e62                PCI::~PCI()

.text._ZN3IDED2Ev
                0x00000000c0028e8c       0x23
 .text._ZN3IDED2Ev
                0x00000000c0028e8c       0x23 hw/diskctrl/ide.32
                0x00000000c0028e8c                IDE::~IDE()
                0x00000000c0028e8c                IDE::~IDE()

.text._ZN3IDED0Ev
                0x00000000c0028eb0       0x2a
 .text._ZN3IDED0Ev
                0x00000000c0028eb0       0x2a hw/diskctrl/ide.32
                0x00000000c0028eb0                IDE::~IDE()

.text._ZN7SATABusD2Ev
                0x00000000c0028eda       0x23
 .text._ZN7SATABusD2Ev
                0x00000000c0028eda       0x23 hw/diskctrl/satabus.32
                0x00000000c0028eda                SATABus::~SATABus()
                0x00000000c0028eda                SATABus::~SATABus()

.text._ZN7SATABusD0Ev
                0x00000000c0028efe       0x2a
 .text._ZN7SATABusD0Ev
                0x00000000c0028efe       0x2a hw/diskctrl/satabus.32
                0x00000000c0028efe                SATABus::~SATABus()

.text._ZN3ATAD2Ev
                0x00000000c0028f28       0x23
 .text._ZN3ATAD2Ev
                0x00000000c0028f28       0x23 hw/diskphys/ata.32
                0x00000000c0028f28                ATA::~ATA()
                0x00000000c0028f28                ATA::~ATA()

.text._ZN3ATAD0Ev
                0x00000000c0028f4c       0x2a
 .text._ZN3ATAD0Ev
                0x00000000c0028f4c       0x2a hw/diskphys/ata.32
                0x00000000c0028f4c                ATA::~ATA()

.text._ZN5ATAPID2Ev
                0x00000000c0028f76       0x23
 .text._ZN5ATAPID2Ev
                0x00000000c0028f76       0x23 hw/diskphys/atapi.32
                0x00000000c0028f76                ATAPI::~ATAPI()
                0x00000000c0028f76                ATAPI::~ATAPI()

.text._ZN5ATAPID0Ev
                0x00000000c0028f9a       0x2a
 .text._ZN5ATAPID0Ev
                0x00000000c0028f9a       0x2a hw/diskphys/atapi.32
                0x00000000c0028f9a                ATAPI::~ATAPI()

.text._ZN4SATAD2Ev
                0x00000000c0028fc4       0x23
 .text._ZN4SATAD2Ev
                0x00000000c0028fc4       0x23 hw/diskphys/sata.32
                0x00000000c0028fc4                SATA::~SATA()
                0x00000000c0028fc4                SATA::~SATA()

.text._ZN4SATAD0Ev
                0x00000000c0028fe8       0x2a
 .text._ZN4SATAD0Ev
                0x00000000c0028fe8       0x2a hw/diskphys/sata.32
                0x00000000c0028fe8                SATA::~SATA()

.text._ZN6SATAPID2Ev
                0x00000000c0029012       0x23
 .text._ZN6SATAPID2Ev
                0x00000000c0029012       0x23 hw/diskphys/satapi.32
                0x00000000c0029012                SATAPI::~SATAPI()
                0x00000000c0029012                SATAPI::~SATAPI()

.text._ZN6SATAPID0Ev
                0x00000000c0029036       0x2a
 .text._ZN6SATAPID0Ev
                0x00000000c0029036       0x2a hw/diskphys/satapi.32
                0x00000000c0029036                SATAPI::~SATAPI()

.text._ZN3AVXD2Ev
                0x00000000c0029060       0x23
 .text._ZN3AVXD2Ev
                0x00000000c0029060       0x23 hw/fpu/avx.32
                0x00000000c0029060                AVX::~AVX()
                0x00000000c0029060                AVX::~AVX()

.text._ZN3AVXD0Ev
                0x00000000c0029084       0x2a
 .text._ZN3AVXD0Ev
                0x00000000c0029084       0x2a hw/fpu/avx.32
                0x00000000c0029084                AVX::~AVX()

.text._ZN3MMXD2Ev
                0x00000000c00290ae       0x23
 .text._ZN3MMXD2Ev
                0x00000000c00290ae       0x23 hw/fpu/mmx.32
                0x00000000c00290ae                MMX::~MMX()
                0x00000000c00290ae                MMX::~MMX()

.text._ZN3MMXD0Ev
                0x00000000c00290d2       0x2a
 .text._ZN3MMXD0Ev
                0x00000000c00290d2       0x2a hw/fpu/mmx.32
                0x00000000c00290d2                MMX::~MMX()

.text._ZN3SSED2Ev
                0x00000000c00290fc       0x23
 .text._ZN3SSED2Ev
                0x00000000c00290fc       0x23 hw/fpu/sse.32
                0x00000000c00290fc                SSE::~SSE()
                0x00000000c00290fc                SSE::~SSE()

.text._ZN3SSED0Ev
                0x00000000c0029120       0x2a
 .text._ZN3SSED0Ev
                0x00000000c0029120       0x2a hw/fpu/sse.32
                0x00000000c0029120                SSE::~SSE()

.text._ZN3x87D2Ev
                0x00000000c002914a       0x23
 .text._ZN3x87D2Ev
                0x00000000c002914a       0x23 hw/fpu/x87.32
                0x00000000c002914a                x87::~x87()
                0x00000000c002914a                x87::~x87()

.text._ZN3x87D0Ev
                0x00000000c002916e       0x2a
 .text._ZN3x87D0Ev
                0x00000000c002916e       0x2a hw/fpu/x87.32
                0x00000000c002916e                x87::~x87()

.text._ZN6IOAPICD2Ev
                0x00000000c0029198       0x23
 .text._ZN6IOAPICD2Ev
                0x00000000c0029198       0x23 hw/intctrl/apic.32
                0x00000000c0029198                IOAPIC::~IOAPIC()
                0x00000000c0029198                IOAPIC::~IOAPIC()

.text._ZN6IOAPICD0Ev
                0x00000000c00291bc       0x2a
 .text._ZN6IOAPICD0Ev
                0x00000000c00291bc       0x2a hw/intctrl/apic.32
                0x00000000c00291bc                IOAPIC::~IOAPIC()

.text._ZN4APICD2Ev
                0x00000000c00291e6       0x23
 .text._ZN4APICD2Ev
                0x00000000c00291e6       0x23 hw/intctrl/apic.32
                0x00000000c00291e6                APIC::~APIC()
                0x00000000c00291e6                APIC::~APIC()

.text._ZN4APICD0Ev
                0x00000000c002920a       0x2a
 .text._ZN4APICD0Ev
                0x00000000c002920a       0x2a hw/intctrl/apic.32
                0x00000000c002920a                APIC::~APIC()

.text._ZN3PICD2Ev
                0x00000000c0029234       0x23
 .text._ZN3PICD2Ev
                0x00000000c0029234       0x23 hw/intctrl/pic.32
                0x00000000c0029234                PIC::~PIC()
                0x00000000c0029234                PIC::~PIC()

.text._ZN3PICD0Ev
                0x00000000c0029258       0x2a
 .text._ZN3PICD0Ev
                0x00000000c0029258       0x2a hw/intctrl/pic.32
                0x00000000c0029258                PIC::~PIC()

.text._ZN9APICTimerD2Ev
                0x00000000c0029282       0x23
 .text._ZN9APICTimerD2Ev
                0x00000000c0029282       0x23 hw/timer/apictimer.32
                0x00000000c0029282                APICTimer::~APICTimer()
                0x00000000c0029282                APICTimer::~APICTimer()

.text._ZN9APICTimerD0Ev
                0x00000000c00292a6       0x2a
 .text._ZN9APICTimerD0Ev
                0x00000000c00292a6       0x2a hw/timer/apictimer.32
                0x00000000c00292a6                APICTimer::~APICTimer()

.text._ZN3PITD2Ev
                0x00000000c00292d0       0x23
 .text._ZN3PITD2Ev
                0x00000000c00292d0       0x23 hw/timer/pit.32
                0x00000000c00292d0                PIT::~PIT()
                0x00000000c00292d0                PIT::~PIT()

.text._ZN3PITD0Ev
                0x00000000c00292f4       0x2a
 .text._ZN3PITD0Ev
                0x00000000c00292f4       0x2a hw/timer/pit.32
                0x00000000c00292f4                PIT::~PIT()

.rodata         0x00000000c002931e     0x6fc6
                0x00000000c002931e                start_ctors = .
 *(SORT_BY_NAME(.ctors*))
 *fill*         0x00000000c002931e        0x2 
 .ctors         0x00000000c0029320        0x4 /cygdrive/d/Users/Alex/Desktop/Toolchain/Output/bin/../lib/gcc/i386-banana/8.1.0/crtbegin.o
 .ctors         0x00000000c0029324        0x4 core/unixfile.32
 .ctors         0x00000000c0029328        0x4 thr/prcssthr.32
 .ctors         0x00000000c002932c        0x4 vm86/x87em.32
 .ctors         0x00000000c0029330        0x4 /cygdrive/d/Users/Alex/Desktop/Toolchain/Output/bin/../lib/gcc/i386-banana/8.1.0/crtend.o
                0x00000000c0029334                end_ctors = .
                0x00000000c0029334                start_dtors = .
 *(SORT_BY_NAME(.dtors*))
 .dtors         0x00000000c0029334        0x4 /cygdrive/d/Users/Alex/Desktop/Toolchain/Output/bin/../lib/gcc/i386-banana/8.1.0/crtbegin.o
 .dtors         0x00000000c0029338        0x4 /cygdrive/d/Users/Alex/Desktop/Toolchain/Output/bin/../lib/gcc/i386-banana/8.1.0/crtend.o
                0x00000000c0029338                __DTOR_END__
                0x00000000c002933c                end_dtors = .
 *(.rodata*)
 *fill*         0x00000000c002933c        0x4 
 .rodata        0x00000000c0029340      0x121 acpica/utclib.32
                0x00000000c0029360                AcpiGbl_Ctypes
 *fill*         0x00000000c0029461        0x3 
 .rodata        0x00000000c0029464       0x18 core/malloc.32
 *fill*         0x00000000c002947c        0x4 
 .rodata        0x00000000c0029480      0x102 fs/fat/ff.32
 .rodata.str1.1
                0x00000000c0029582       0x56 fs/fat/ff.32
                                         0x5a (size before relaxing)
 *fill*         0x00000000c00295d8        0x8 
 .rodata        0x00000000c00295e0      0x3fc fs/fat/ffunicode.32
 .rodata.str1.1
                0x00000000c00299dc       0xb6 hal/libresample/samplerate.32
 *fill*         0x00000000c0029a92        0x2 
 .rodata.str1.4
                0x00000000c0029a94      0x3a5 hal/libresample/samplerate.32
 *fill*         0x00000000c0029e39        0x7 
 .rodata        0x00000000c0029e40       0x60 hal/libresample/samplerate.32
 .rodata.str1.1
                0x00000000c0029ea0       0x42 hal/libresample/src_linear.32
 *fill*         0x00000000c0029ee2        0x2 
 .rodata        0x00000000c0029ee4       0x6c hal/libresample/src_sinc.32
 .rodata.str1.1
                0x00000000c0029f50       0x4a hal/libresample/src_sinc.32
 *fill*         0x00000000c0029f9a        0x2 
 .rodata.str1.4
                0x00000000c0029f9c       0xc4 hal/libresample/src_sinc.32
 .rodata.str1.1
                0x00000000c002a060       0x48 hal/libresample/src_zoh.32
 .rodata        0x00000000c002a0a8       0xa0 compat/inlines.32
 .rodata        0x00000000c002a148       0xa0 compat/resolve.32
 .rodata.str1.1
                0x00000000c002a1e8       0x49 compat/resolve.32
 *fill*         0x00000000c002a231        0x3 
 .rodata        0x00000000c002a234       0xa0 core/computer.32
 .rodata.str1.1
                0x00000000c002a2d4      0x1d0 core/computer.32
                                        0x1d2 (size before relaxing)
 .rodata._ZTV8Computer
                0x00000000c002a4a4       0x2c core/computer.32
                0x00000000c002a4a4                vtable for Computer
 .rodata        0x00000000c002a4d0       0xa0 core/gdt.32
 .rodata.str1.1
                0x00000000c002a570       0x1c core/gdt.32
 .rodata        0x00000000c002a58c       0xa0 core/idle.32
 .rodata        0x00000000c002a62c       0xa0 core/idt.32
 .rodata        0x00000000c002a6cc       0xa0 core/kheap.32
 .rodata.str1.4
                0x00000000c002a76c       0x30 core/kheap.32
 .rodata.str1.1
                0x00000000c002a79c        0xc core/kheap.32
 .rodata        0x00000000c002a7a8       0xa0 core/main.32
 .rodata.str1.1
                0x00000000c002a848       0x62 core/main.32
                                         0x63 (size before relaxing)
 *fill*         0x00000000c002a8aa        0x2 
 .rodata        0x00000000c002a8ac       0xa0 core/physmgr.32
 .rodata.str1.1
                0x00000000c002a94c       0x5f core/physmgr.32
 *fill*         0x00000000c002a9ab        0x1 
 .rodata.str1.4
                0x00000000c002a9ac       0x4d core/physmgr.32
 *fill*         0x00000000c002a9f9        0x3 
 .rodata        0x00000000c002a9fc       0xa0 core/pipe.32
 .rodata.str1.1
                0x00000000c002aa9c       0x39 core/pipe.32
 *fill*         0x00000000c002aad5        0x3 
 .rodata._ZTV4Pipe
                0x00000000c002aad8       0x1c core/pipe.32
                0x00000000c002aad8                vtable for Pipe
 .rodata        0x00000000c002aaf4       0xa0 core/terminal.32
 .rodata.str1.1
                0x00000000c002ab94       0x9d core/terminal.32
 *fill*         0x00000000c002ac31        0x3 
 .rodata._ZTV7VgaText
                0x00000000c002ac34       0x1c core/terminal.32
                0x00000000c002ac34                vtable for VgaText
 .rodata        0x00000000c002ac50       0xbe core/tss.32
 *fill*         0x00000000c002ad0e        0x2 
 .rodata        0x00000000c002ad10       0xa0 core/unixfile.32
 .rodata.str1.4
                0x00000000c002adb0       0x20 core/unixfile.32
 .rodata._ZN10LinkedListI8UnixFileEC2Ev.str1.1
                0x00000000c002add0       0x19 core/unixfile.32
 *fill*         0x00000000c002ade9        0x3 
 .rodata._ZN10LinkedListI8UnixFileE10addElementEPS0_.str1.4
                0x00000000c002adec       0x22 core/unixfile.32
 .rodata._ZN10LinkedListI8UnixFileE10addElementEPS0_.str1.1
                0x00000000c002ae0e       0x15 core/unixfile.32
 *fill*         0x00000000c002ae23        0x1 
 .rodata._ZN10LinkedListI8UnixFileE11removeFirstEv.str1.4
                0x00000000c002ae24       0x4b core/unixfile.32
 .rodata._ZN10LinkedListI8UnixFileE11removeFirstEv.str1.1
                0x00000000c002ae6f        0x8 core/unixfile.32
 *fill*         0x00000000c002ae77        0x1 
 .rodata._ZTV16ReservedFilename
                0x00000000c002ae78       0x1c core/unixfile.32
                0x00000000c002ae78                vtable for ReservedFilename
 .rodata._ZTV8UnixFile
                0x00000000c002ae94       0x1c core/unixfile.32
                0x00000000c002ae94                vtable for UnixFile
 .rodata        0x00000000c002aeb0       0xa0 core/virtmgr.32
 .rodata.str1.4
                0x00000000c002af50      0x185 core/virtmgr.32
 .rodata.str1.1
                0x00000000c002b0d5      0x103 core/virtmgr.32
 .rodata        0x00000000c002b1d8       0xa0 coreobjs/c++.32
 .rodata.str1.1
                0x00000000c002b278       0x83 coreobjs/c++.32
 *fill*         0x00000000c002b2fb        0x1 
 .rodata        0x00000000c002b2fc      0x1f0 dbg/kconsole.32
 .rodata.str1.4
                0x00000000c002b4ec       0x3f dbg/kconsole.32
 *fill*         0x00000000c002b52b        0x1 
 .rodata        0x00000000c002b52c       0xa0 fs/vfs.32
 .rodata.str1.1
                0x00000000c002b5cc       0x83 fs/vfs.32
                                          0x2 (size before relaxing)
 .rodata._ZTV9Directory
                0x00000000c002b5cc       0x1c fs/vfs.32
                0x00000000c002b5cc                vtable for Directory
 .rodata._ZTV4File
                0x00000000c002b5e8       0x1c fs/vfs.32
                0x00000000c002b5e8                vtable for File
 .rodata._ZTV10Filesystem
                0x00000000c002b604       0x64 fs/vfs.32
                0x00000000c002b604                vtable for Filesystem
 .rodata        0x00000000c002b668       0xa0 hal/bus.32
 .rodata._ZTV3Bus
                0x00000000c002b708       0x2c hal/bus.32
                0x00000000c002b708                vtable for Bus
 .rodata        0x00000000c002b734       0xa0 hal/buzzer.32
 .rodata._ZTV6Buzzer
                0x00000000c002b7d4       0x30 hal/buzzer.32
                0x00000000c002b7d4                vtable for Buzzer
 *fill*         0x00000000c002b804       0x1c 
 .rodata        0x00000000c002b820      0x110 hal/clock.32
 .rodata.str1.1
                0x00000000c002b930       0x1e hal/clock.32
 *fill*         0x00000000c002b94e        0x2 
 .rodata._ZTV5Clock
                0x00000000c002b950       0x3c hal/clock.32
                0x00000000c002b950                vtable for Clock
 .rodata        0x00000000c002b98c       0xa0 hal/device.32
 .rodata.str1.1
                0x00000000c002ba2c       0x1e hal/device.32
 .rodata._ZN10LinkedListI6DeviceE10addElementEPS0_.str1.4
                0x00000000c002ba4a       0x22 hal/device.32
 .rodata._ZN10LinkedListI6DeviceE10addElementEPS0_.str1.1
                0x00000000c002ba4a       0x15 hal/device.32
 .rodata._ZN10LinkedListI6DeviceEC2Ev.str1.1
                0x00000000c002ba4a       0x19 hal/device.32
 *fill*         0x00000000c002ba4a        0x2 
 .rodata._ZTV16DriverlessDevice
                0x00000000c002ba4c       0x2c hal/device.32
                0x00000000c002ba4c                vtable for DriverlessDevice
 .rodata._ZTV6Device
                0x00000000c002ba78       0x2c hal/device.32
                0x00000000c002ba78                vtable for Device
 .rodata        0x00000000c002baa4       0xa0 hal/diskctrl.32
 .rodata._ZTV18HardDiskController
                0x00000000c002bb44       0x2c hal/diskctrl.32
                0x00000000c002bb44                vtable for HardDiskController
 .rodata        0x00000000c002bb70       0xa0 hal/diskphys.32
 .rodata.str1.1
                0x00000000c002bc10       0x27 hal/diskphys.32
 *fill*         0x00000000c002bc37        0x1 
 .rodata._ZTV12PhysicalDisk
                0x00000000c002bc38       0x38 hal/diskphys.32
                0x00000000c002bc38                vtable for PhysicalDisk
 .rodata        0x00000000c002bc70       0xa0 hal/fpu.32
 .rodata.str1.1
                0x00000000c002bd10        0x9 hal/fpu.32
 *fill*         0x00000000c002bd19        0x3 
 .rodata._ZTV3FPU
                0x00000000c002bd1c       0x38 hal/fpu.32
                0x00000000c002bd1c                vtable for FPU
 .rodata        0x00000000c002bd54      0x3ee hal/intctrl.32
 *fill*         0x00000000c002c142        0x2 
 .rodata._ZTV19InterruptController
                0x00000000c002c144       0x48 hal/intctrl.32
                0x00000000c002c144                vtable for InterruptController
 .rodata        0x00000000c002c18c       0xef hal/keybrd.32
 *fill*         0x00000000c002c27b        0x1 
 .rodata._ZTV8Keyboard
                0x00000000c002c27c       0x34 hal/keybrd.32
                0x00000000c002c27c                vtable for Keyboard
 .rodata        0x00000000c002c2b0       0xa0 hal/logidisk.32
 .rodata.str1.1
                0x00000000c002c350       0x7a hal/logidisk.32
 *fill*         0x00000000c002c3ca        0x2 
 .rodata._ZTV11LogicalDisk
                0x00000000c002c3cc       0x2c hal/logidisk.32
                0x00000000c002c3cc                vtable for LogicalDisk
 .rodata        0x00000000c002c3f8       0xa0 hal/mouse.32
 .rodata._ZTV5Mouse
                0x00000000c002c498       0x2c hal/mouse.32
                0x00000000c002c498                vtable for Mouse
 .rodata        0x00000000c002c4c4       0xa0 hal/partition.32
 .rodata.str1.1
                0x00000000c002c564       0x2d hal/partition.32
 *fill*         0x00000000c002c591        0x3 
 .rodata        0x00000000c002c594       0xa0 hal/serial.32
 .rodata._ZTV6Serial
                0x00000000c002c634       0x44 hal/serial.32
                0x00000000c002c634                vtable for Serial
 .rodata        0x00000000c002c678       0xa0 hal/timer.32
 .rodata._ZN10LinkedListIV18ThreadControlBlockE11removeFirstEv.str1.4
                0x00000000c002c718       0x4b hal/timer.32
 .rodata._ZN10LinkedListIV18ThreadControlBlockE11removeFirstEv.str1.1
                0x00000000c002c718        0x8 hal/timer.32
 .rodata._ZN10LinkedListIV18ThreadControlBlockE10addElementEPS1_.str1.4
                0x00000000c002c718       0x22 hal/timer.32
 .rodata._ZN10LinkedListIV18ThreadControlBlockE10addElementEPS1_.str1.1
                0x00000000c002c718       0x15 hal/timer.32
 .rodata._ZTV5Timer
                0x00000000c002c718       0x30 hal/timer.32
                0x00000000c002c718                vtable for Timer
 .rodata        0x00000000c002c748       0xa0 hal/vcache.32
 .rodata.str1.1
                0x00000000c002c7e8       0xe9 hal/vcache.32
 *fill*         0x00000000c002c8d1        0x3 
 .rodata._ZTV6VCache
                0x00000000c002c8d4       0x10 hal/vcache.32
                0x00000000c002c8d4                vtable for VCache
 .rodata        0x00000000c002c8e4       0xa0 hal/video.32
 .rodata.str1.1
                0x00000000c002c984       0x7c hal/video.32
 .rodata._ZTV5Video
                0x00000000c002ca00       0x48 hal/video.32
                0x00000000c002ca00                vtable for Video
 .rodata        0x00000000c002ca48       0xa0 hw/acpi.32
 .rodata.str1.1
                0x00000000c002cae8      0x122 hw/acpi.32
 *fill*         0x00000000c002cc0a        0x2 
 .rodata.str1.4
                0x00000000c002cc0c       0xc0 hw/acpi.32
 .rodata._ZTV4ACPI
                0x00000000c002cccc       0x2c hw/acpi.32
                0x00000000c002cccc                vtable for ACPI
 .rodata        0x00000000c002ccf8       0xa0 hw/cpu.32
 .rodata.str1.1
                0x00000000c002cd98      0x3c1 hw/cpu.32
                                        0x3ce (size before relaxing)
 *fill*         0x00000000c002d159        0x3 
 .rodata._ZTV3CPU
                0x00000000c002d15c       0x2c hw/cpu.32
                0x00000000c002d15c                vtable for CPU
 .rodata        0x00000000c002d188       0xa0 krnl/env.32
 .rodata.str1.1
                0x00000000c002d228       0x89 krnl/env.32
 *fill*         0x00000000c002d2b1        0x3 
 .rodata        0x00000000c002d2b4       0xa0 krnl/panic.32
 .rodata.str1.1
                0x00000000c002d354       0xbe krnl/panic.32
                                         0xc5 (size before relaxing)
 *fill*         0x00000000c002d412        0x2 
 .rodata.str1.4
                0x00000000c002d414      0x13e krnl/panic.32
 *fill*         0x00000000c002d552        0x2 
 .rodata        0x00000000c002d554       0xa0 net/ethernet.32
 .rodata.str1.4
                0x00000000c002d5f4       0x4c net/ethernet.32
 .rodata        0x00000000c002d640       0xa0 reg/registry.32
 .rodata.str1.1
                0x00000000c002d6e0       0x45 reg/registry.32
                                         0x47 (size before relaxing)
 *fill*         0x00000000c002d725        0x3 
 .rodata        0x00000000c002d728       0xa0 sys/sc_eject.32
 .rodata        0x00000000c002d7c8       0xa0 sys/sc_exit.32
 .rodata        0x00000000c002d868       0xa0 sys/sc_getcwd.32
 .rodata        0x00000000c002d908       0xa0 sys/sc_getpid.32
 .rodata        0x00000000c002d9a8       0xa0 sys/sc_loaddll.32
 .rodata        0x00000000c002da48       0xa0 sys/sc_read.32
 .rodata        0x00000000c002dae8       0xa0 sys/sc_sbrk.32
 .rodata        0x00000000c002db88       0xa0 sys/sc_setcwd.32
 .rodata        0x00000000c002dc28       0xa0 sys/sc_settime.32
 .rodata.str1.1
                0x00000000c002dcc8       0x38 sys/sc_settime.32
 .rodata        0x00000000c002dd00       0xa0 sys/sc_timezone.32
 .rodata.str1.1
                0x00000000c002dda0       0x77 sys/sc_timezone.32
 *fill*         0x00000000c002de17        0x1 
 .rodata        0x00000000c002de18       0xa0 sys/sc_write.32
 .rodata        0x00000000c002deb8       0xa0 sys/sc_yield.32
 .rodata        0x00000000c002df58       0xa0 sys/syscalls.32
 .rodata.str1.1
                0x00000000c002dff8       0xde sys/syscalls.32
                                         0xe6 (size before relaxing)
 *fill*         0x00000000c002e0d6        0x2 
 .rodata.str1.4
                0x00000000c002e0d8       0x6f sys/syscalls.32
 *fill*         0x00000000c002e147        0x1 
 .rodata        0x00000000c002e148       0xa0 thr/elf.32
 .rodata.str1.1
                0x00000000c002e1e8      0x1a5 thr/elf.32
                                        0x1a7 (size before relaxing)
 *fill*         0x00000000c002e38d        0x3 
 .rodata        0x00000000c002e390       0xa0 thr/prcssthr.32
 .rodata.str1.1
                0x00000000c002e430       0xfb thr/prcssthr.32
 *fill*         0x00000000c002e52b        0x1 
 .rodata.str1.4
                0x00000000c002e52c      0x2a8 thr/prcssthr.32
 .rodata._ZN10LinkedListIV18ThreadControlBlockEC2Ev.str1.1
                0x00000000c002e7d4       0x19 thr/prcssthr.32
 .rodata._ZN10LinkedListIV18ThreadControlBlockE10addElementEPS1_.str1.4
                0x00000000c002e7d4       0x22 thr/prcssthr.32
 .rodata._ZN10LinkedListIV18ThreadControlBlockE10addElementEPS1_.str1.1
                0x00000000c002e7d4       0x15 thr/prcssthr.32
 .rodata._ZN10LinkedListIV18ThreadControlBlockE11removeFirstEv.str1.4
                0x00000000c002e7d4       0x4b thr/prcssthr.32
 .rodata._ZN10LinkedListIV18ThreadControlBlockE11removeFirstEv.str1.1
                0x00000000c002e7d4        0x8 thr/prcssthr.32
 .rodata        0x00000000c002e7d4       0xd0 vm86/vm8086.32
 .rodata.str1.1
                0x00000000c002e8a4      0x19f vm86/vm8086.32
 *fill*         0x00000000c002ea43        0x1 
 .rodata        0x00000000c002ea44       0xdc vm86/x87em.32
 .rodata.str1.1
                0x00000000c002eb20       0x58 vm86/x87em.32
 .rodata        0x00000000c002eb78       0xa0 fs/fat/vfslink.32
 .rodata.str1.1
                0x00000000c002ec18       0x53 fs/fat/vfslink.32
                                         0x5d (size before relaxing)
 *fill*         0x00000000c002ec6b        0x1 
 .rodata.str1.4
                0x00000000c002ec6c       0x25 fs/fat/vfslink.32
 *fill*         0x00000000c002ec91        0x3 
 .rodata._ZTV3FAT
                0x00000000c002ec94       0x64 fs/fat/vfslink.32
                0x00000000c002ec94                vtable for FAT
 .rodata        0x00000000c002ecf8       0xa0 fs/iso9660/vfslink.32
 .rodata.str1.1
                0x00000000c002ed98       0x5c fs/iso9660/vfslink.32
 .rodata._ZTV7ISO9660
                0x00000000c002edf4       0x64 fs/iso9660/vfslink.32
                0x00000000c002edf4                vtable for ISO9660
 .rodata        0x00000000c002ee58       0xa0 hal/sound/sndchannel.32
 .rodata.str1.1
                0x00000000c002eef8       0x1a hal/sound/sndchannel.32
 *fill*         0x00000000c002ef12        0x2 
 .rodata.cst4   0x00000000c002ef14        0x8 hal/sound/sndchannel.32
 .rodata        0x00000000c002ef1c       0xa0 hal/sound/sndhw.32
 .rodata._ZTV11SoundDevice
                0x00000000c002efbc       0x38 hal/sound/sndhw.32
                0x00000000c002efbc                vtable for SoundDevice
 .rodata        0x00000000c002eff4       0xa0 hw/bus/pci.32
 .rodata.str1.1
                0x00000000c002f094       0x62 hw/bus/pci.32
 *fill*         0x00000000c002f0f6        0x2 
 .rodata._ZTV3PCI
                0x00000000c002f0f8       0x2c hw/bus/pci.32
                0x00000000c002f0f8                vtable for PCI
 .rodata        0x00000000c002f124       0xa0 hw/diskctrl/ide.32
 .rodata.str1.1
                0x00000000c002f1c4      0x236 hw/diskctrl/ide.32
 *fill*         0x00000000c002f3fa        0x2 
 .rodata._ZTV3IDE
                0x00000000c002f3fc       0x2c hw/diskctrl/ide.32
                0x00000000c002f3fc                vtable for IDE
 .rodata        0x00000000c002f428       0xa0 hw/diskctrl/satabus.32
 .rodata.str1.4
                0x00000000c002f4c8       0x48 hw/diskctrl/satabus.32
                                         0x47 (size before relaxing)
 .rodata.str1.1
                0x00000000c002f510       0x6a hw/diskctrl/satabus.32
 *fill*         0x00000000c002f57a        0x2 
 .rodata._ZTV7SATABus
                0x00000000c002f57c       0x2c hw/diskctrl/satabus.32
                0x00000000c002f57c                vtable for SATABus
 .rodata        0x00000000c002f5a8       0xa0 hw/diskphys/ata.32
 .rodata.str1.1
                0x00000000c002f648       0x12 hw/diskphys/ata.32
                                         0x21 (size before relaxing)
 *fill*         0x00000000c002f65a        0x2 
 .rodata._ZTV3ATA
                0x00000000c002f65c       0x38 hw/diskphys/ata.32
                0x00000000c002f65c                vtable for ATA
 .rodata        0x00000000c002f694       0xa0 hw/diskphys/atapi.32
 .rodata.str1.1
                0x00000000c002f734       0x12 hw/diskphys/atapi.32
                                         0x38 (size before relaxing)
 .rodata._ZTV5ATAPI
                0x00000000c002f734       0x38 hw/diskphys/atapi.32
                0x00000000c002f734                vtable for ATAPI
 .rodata        0x00000000c002f76c       0xa0 hw/diskphys/sata.32
 .rodata.str1.1
                0x00000000c002f80c       0x43 hw/diskphys/sata.32
 *fill*         0x00000000c002f84f        0x1 
 .rodata._ZTV4SATA
                0x00000000c002f850       0x38 hw/diskphys/sata.32
                0x00000000c002f850                vtable for SATA
 .rodata        0x00000000c002f888       0xa0 hw/diskphys/satapi.32
 .rodata.str1.1
                0x00000000c002f928      0x139 hw/diskphys/satapi.32
                                        0x147 (size before relaxing)
 *fill*         0x00000000c002fa61        0x3 
 .rodata._ZTV6SATAPI
                0x00000000c002fa64       0x38 hw/diskphys/satapi.32
                0x00000000c002fa64                vtable for SATAPI
 .rodata        0x00000000c002fa9c       0xa0 hw/fpu/avx.32
 .rodata.str1.1
                0x00000000c002fb3c        0x8 hw/fpu/avx.32
 .rodata._ZTV3AVX
                0x00000000c002fb44       0x38 hw/fpu/avx.32
                0x00000000c002fb44                vtable for AVX
 .rodata        0x00000000c002fb7c       0xa0 hw/fpu/mmx.32
 .rodata.str1.1
                0x00000000c002fc1c        0x8 hw/fpu/mmx.32
 .rodata._ZTV3MMX
                0x00000000c002fc24       0x38 hw/fpu/mmx.32
                0x00000000c002fc24                vtable for MMX
 .rodata        0x00000000c002fc5c       0xa0 hw/fpu/sse.32
 .rodata.str1.1
                0x00000000c002fcfc        0x8 hw/fpu/sse.32
 .rodata._ZTV3SSE
                0x00000000c002fd04       0x38 hw/fpu/sse.32
                0x00000000c002fd04                vtable for SSE
 .rodata        0x00000000c002fd3c       0xa0 hw/fpu/x87.32
 .rodata.str1.1
                0x00000000c002fddc        0x8 hw/fpu/x87.32
 .rodata._ZTV3x87
                0x00000000c002fde4       0x38 hw/fpu/x87.32
                0x00000000c002fde4                vtable for x87
 .rodata        0x00000000c002fe1c      0x179 hw/intctrl/apic.32
 *fill*         0x00000000c002ff95        0x3 
 .rodata._ZTV6IOAPIC
                0x00000000c002ff98       0x2c hw/intctrl/apic.32
                0x00000000c002ff98                vtable for IOAPIC
 .rodata._ZTV4APIC
                0x00000000c002ffc4       0x48 hw/intctrl/apic.32
                0x00000000c002ffc4                vtable for APIC
 .rodata        0x00000000c003000c       0xc2 hw/intctrl/pic.32
 *fill*         0x00000000c00300ce        0x2 
 .rodata._ZTV3PIC
                0x00000000c00300d0       0x48 hw/intctrl/pic.32
                0x00000000c00300d0                vtable for PIC
 .rodata        0x00000000c0030118       0xa0 hw/timer/apictimer.32
 .rodata.str1.1
                0x00000000c00301b8        0xb hw/timer/apictimer.32
 *fill*         0x00000000c00301c3        0x1 
 .rodata._ZTV9APICTimer
                0x00000000c00301c4       0x30 hw/timer/apictimer.32
                0x00000000c00301c4                vtable for APICTimer
 .rodata        0x00000000c00301f4       0xa0 hw/timer/pit.32
 .rodata.str1.1
                0x00000000c0030294       0x1d hw/timer/pit.32
 *fill*         0x00000000c00302b1        0x3 
 .rodata._ZTV3PIT
                0x00000000c00302b4       0x30 hw/timer/pit.32
                0x00000000c00302b4                vtable for PIT
 *(.gnu.linkonce.r*)

.data           0x00000000c00302e4      0x651
 *(.data)
 .data          0x00000000c00302e4        0x0 crti.32
 .data          0x00000000c00302e4        0x4 /cygdrive/d/Users/Alex/Desktop/Toolchain/Output/bin/../lib/gcc/i386-banana/8.1.0/crtbegin.o
                0x00000000c00302e4                __dso_handle
 .data          0x00000000c00302e8        0x0 acpica/utclib.32
 .data          0x00000000c00302e8        0x0 core/malloc.32
 .data          0x00000000c00302e8        0x0 libk/string.32
 .data          0x00000000c00302e8        0x0 fs/fat/diskio.32
 .data          0x00000000c00302e8        0x0 fs/fat/ff.32
 .data          0x00000000c00302e8        0x0 fs/fat/ffsystem.32
 .data          0x00000000c00302e8        0x0 fs/fat/ffunicode.32
 .data          0x00000000c00302e8        0x0 hal/libresample/samplerate.32
 .data          0x00000000c00302e8        0x0 hal/libresample/src_linear.32
 .data          0x00000000c00302e8        0x0 hal/libresample/src_sinc.32
 .data          0x00000000c00302e8        0x0 hal/libresample/src_zoh.32
 .data          0x00000000c00302e8        0x0 compat/inlines.32
 .data          0x00000000c00302e8        0x0 compat/resolve.32
 .data          0x00000000c00302e8        0x0 core/computer.32
 .data          0x00000000c00302e8        0x0 core/gdt.32
 .data          0x00000000c00302e8        0x0 core/idle.32
 .data          0x00000000c00302e8        0x0 core/idt.32
 .data          0x00000000c00302e8        0x4 core/kheap.32
 .data          0x00000000c00302ec        0x0 core/main.32
 .data          0x00000000c00302ec        0x4 core/physmgr.32
                0x00000000c00302ec                Phys::bitmap
 .data          0x00000000c00302f0        0x0 core/pipe.32
 *fill*         0x00000000c00302f0       0x10 
 .data          0x00000000c0030300       0x48 core/terminal.32
                0x00000000c0030300                ansiToVGAMappings
                0x00000000c0030340                VgaText::hiddenOut
                0x00000000c0030344                VGA_TEXT_MODE_ADDRESS
 .data          0x00000000c0030348        0x0 core/tss.32
 .data          0x00000000c0030348        0x4 core/unixfile.32
                0x00000000c0030348                UnixFile::nextFd
 .data          0x00000000c003034c        0x8 core/virtmgr.32
                0x00000000c003034c                Virt::bitmap
                0x00000000c0030350                Virt::pageAllocPtr
 .data          0x00000000c0030354        0x4 coreobjs/c++.32
                0x00000000c0030354                __stack_chk_guard
 .data          0x00000000c0030358        0x0 dbg/kconsole.32
 .data          0x00000000c0030358        0x0 fs/vfs.32
 .data          0x00000000c0030358        0x0 hal/bus.32
 .data          0x00000000c0030358        0x0 hal/buzzer.32
 .data          0x00000000c0030358        0x0 hal/clock.32
 .data          0x00000000c0030358        0x0 hal/device.32
 .data          0x00000000c0030358        0x0 hal/diskctrl.32
 .data          0x00000000c0030358        0x0 hal/diskphys.32
 .data          0x00000000c0030358        0x0 hal/fpu.32
 *fill*         0x00000000c0030358        0x8 
 .data          0x00000000c0030360      0x2a0 hal/intctrl.32
                0x00000000c0030360                exceptionNames
 .data          0x00000000c0030600        0x0 hal/keybrd.32
 .data          0x00000000c0030600        0x0 hal/logidisk.32
 .data          0x00000000c0030600        0x0 hal/mouse.32
 .data          0x00000000c0030600        0x0 hal/partition.32
 .data          0x00000000c0030600        0x0 hal/serial.32
 .data          0x00000000c0030600        0x0 hal/timer.32
 .data          0x00000000c0030600        0x0 hal/vcache.32
 .data          0x00000000c0030600        0x0 hal/video.32
 .data          0x00000000c0030600       0x10 hw/acpi.32
                0x00000000c0030600                legacyIRQRemaps
 *fill*         0x00000000c0030610       0x10 
 .data          0x00000000c0030620      0x2c0 hw/cpu.32
                0x00000000c0030620                lastCode
                0x00000000c0030640                cpuNameList
 .data          0x00000000c00308e0        0x0 hw/ports.32
 .data          0x00000000c00308e0       0x4d krnl/env.32
                0x00000000c00308e0                defaultSysEnv
 .data          0x00000000c003092d        0x0 krnl/panic.32
 .data          0x00000000c003092d        0x0 net/ethernet.32
 .data          0x00000000c003092d        0x0 reg/registry.32
 .data          0x00000000c003092d        0x0 sys/sc_eject.32
 .data          0x00000000c003092d        0x0 sys/sc_exit.32
 .data          0x00000000c003092d        0x0 sys/sc_getcwd.32
 .data          0x00000000c003092d        0x0 sys/sc_getpid.32
 .data          0x00000000c003092d        0x0 sys/sc_loaddll.32
 .data          0x00000000c003092d        0x0 sys/sc_read.32
 .data          0x00000000c003092d        0x0 sys/sc_sbrk.32
 .data          0x00000000c003092d        0x0 sys/sc_setcwd.32
 .data          0x00000000c003092d        0x0 sys/sc_settime.32
 .data          0x00000000c003092d        0x0 sys/sc_timezone.32
 .data          0x00000000c003092d        0x0 sys/sc_write.32
 .data          0x00000000c003092d        0x0 sys/sc_yield.32
 .data          0x00000000c003092d        0x0 sys/syscalls.32
 .data          0x00000000c003092d        0x0 thr/elf.32
 *fill*         0x00000000c003092d        0x3 
 .data          0x00000000c0030930        0x4 thr/prcssthr.32
                0x00000000c0030930                Thr::nextPID
 .data          0x00000000c0030934        0x0 vm86/vm8086.32
 .data          0x00000000c0030934        0x0 vm86/x87em.32
 .data          0x00000000c0030934        0x0 fs/fat/vfslink.32
 .data          0x00000000c0030934        0x1 fs/iso9660/vfslink.32
                0x00000000c0030934                recentDriveletter
 .data          0x00000000c0030935        0x0 hal/sound/sndchannel.32
 .data          0x00000000c0030935        0x0 hal/sound/sndhw.32
 .data          0x00000000c0030935        0x0 hw/bus/isa.32
 .data          0x00000000c0030935        0x0 hw/bus/pci.32
 .data          0x00000000c0030935        0x0 hw/diskctrl/ide.32
 .data          0x00000000c0030935        0x0 hw/diskctrl/satabus.32
 .data          0x00000000c0030935        0x0 hw/diskphys/ata.32
 .data          0x00000000c0030935        0x0 hw/diskphys/atapi.32
 .data          0x00000000c0030935        0x0 hw/diskphys/sata.32
 .data          0x00000000c0030935        0x0 hw/diskphys/satapi.32
 .data          0x00000000c0030935        0x0 hw/fpu/avx.32
 .data          0x00000000c0030935        0x0 hw/fpu/mmx.32
 .data          0x00000000c0030935        0x0 hw/fpu/sse.32
 .data          0x00000000c0030935        0x0 hw/fpu/x87.32
 .data          0x00000000c0030935        0x0 hw/intctrl/apic.32
 .data          0x00000000c0030935        0x0 hw/intctrl/pic.32
 .data          0x00000000c0030935        0x0 hw/timer/apictimer.32
 .data          0x00000000c0030935        0x0 hw/timer/pit.32
 .data          0x00000000c0030935        0x0 /cygdrive/d/Users/Alex/Desktop/Toolchain/Output/bin/../lib/gcc/i386-banana/8.1.0/crtend.o
 .data          0x00000000c0030935        0x0 crtn.32
 .data          0x00000000c0030935        0x0 /cygdrive/d/Users/Alex/Desktop/Toolchain/Output/bin/../lib/gcc/i386-banana/8.1.0/libkgcc.a(_divdi3.o)
 .data          0x00000000c0030935        0x0 /cygdrive/d/Users/Alex/Desktop/Toolchain/Output/bin/../lib/gcc/i386-banana/8.1.0/libkgcc.a(_moddi3.o)
 .data          0x00000000c0030935        0x0 /cygdrive/d/Users/Alex/Desktop/Toolchain/Output/bin/../lib/gcc/i386-banana/8.1.0/libkgcc.a(_udivdi3.o)
 .data          0x00000000c0030935        0x0 /cygdrive/d/Users/Alex/Desktop/Toolchain/Output/bin/../lib/gcc/i386-banana/8.1.0/libkgcc.a(_umoddi3.o)
 .data          0x00000000c0030935        0x0 D:/Users/Alex/Desktop/Banana/kernel/libsoftfp.a(sfieeelib.o)
 .data          0x00000000c0030935        0x0 D:/Users/Alex/Desktop/Banana/kernel/libsoftfp.a(dfieeelib.o)
 .data          0x00000000c0030935        0x0 D:/Users/Alex/Desktop/Banana/kernel/libsoftfp.a(sfdfcvt.o)
 .data          0x00000000c0030935        0x0 D:/Users/Alex/Desktop/Banana/kernel/libk/libm32.a(s_fabs.c.o)
 .data          0x00000000c0030935        0x0 D:/Users/Alex/Desktop/Banana/kernel/libk/libm32.a(s_lrint.S.o)
 .data          0x00000000c0030935        0x0 D:/Users/Alex/Desktop/Banana/kernel/libk/libm32.a(s_lrintf.S.o)
 *(.gnu.linkonce.d*)

.got            0x00000000c0030938        0x0
 .got           0x00000000c0030938        0x0 D:/Users/Alex/Desktop/Banana/kernel/boot.32

.got.plt        0x00000000c0030938        0x0
 .got.plt       0x00000000c0030938        0x0 D:/Users/Alex/Desktop/Banana/kernel/boot.32

.igot.plt       0x00000000c0030938        0x0
 .igot.plt      0x00000000c0030938        0x0 D:/Users/Alex/Desktop/Banana/kernel/boot.32

.tm_clone_table
                0x00000000c0030938        0x0
 .tm_clone_table
                0x00000000c0030938        0x0 /cygdrive/d/Users/Alex/Desktop/Toolchain/Output/bin/../lib/gcc/i386-banana/8.1.0/crtbegin.o
 .tm_clone_table
                0x00000000c0030938        0x0 /cygdrive/d/Users/Alex/Desktop/Toolchain/Output/bin/../lib/gcc/i386-banana/8.1.0/crtend.o

.eh_frame       0x00000000c0030935      0x633
 *(.eh_frame)
 *fill*         0x00000000c0030935        0x3 
 .eh_frame      0x00000000c0030938        0x0 /cygdrive/d/Users/Alex/Desktop/Toolchain/Output/bin/../lib/gcc/i386-banana/8.1.0/crtbegin.o
 .eh_frame      0x00000000c0030938        0x0 /cygdrive/d/Users/Alex/Desktop/Toolchain/Output/bin/../lib/gcc/i386-banana/8.1.0/crtend.o
                                          0x4 (size before relaxing)
 .eh_frame      0x00000000c0030938       0x58 /cygdrive/d/Users/Alex/Desktop/Toolchain/Output/bin/../lib/gcc/i386-banana/8.1.0/libkgcc.a(_divdi3.o)
 .eh_frame      0x00000000c0030990       0x40 /cygdrive/d/Users/Alex/Desktop/Toolchain/Output/bin/../lib/gcc/i386-banana/8.1.0/libkgcc.a(_moddi3.o)
                                         0x58 (size before relaxing)
 .eh_frame      0x00000000c00309d0       0x6c /cygdrive/d/Users/Alex/Desktop/Toolchain/Output/bin/../lib/gcc/i386-banana/8.1.0/libkgcc.a(_udivdi3.o)
                                         0x84 (size before relaxing)
 .eh_frame      0x00000000c0030a3c       0x84 /cygdrive/d/Users/Alex/Desktop/Toolchain/Output/bin/../lib/gcc/i386-banana/8.1.0/libkgcc.a(_umoddi3.o)
                                         0x9c (size before relaxing)
 .eh_frame      0x00000000c0030ac0      0x218 D:/Users/Alex/Desktop/Banana/kernel/libsoftfp.a(sfieeelib.o)
                                        0x230 (size before relaxing)
 .eh_frame      0x00000000c0030cd8      0x220 D:/Users/Alex/Desktop/Banana/kernel/libsoftfp.a(dfieeelib.o)
                                        0x238 (size before relaxing)
 .eh_frame      0x00000000c0030ef8       0x58 D:/Users/Alex/Desktop/Banana/kernel/libsoftfp.a(sfdfcvt.o)
                                         0x70 (size before relaxing)
 .eh_frame      0x00000000c0030f50       0x18 D:/Users/Alex/Desktop/Banana/kernel/libk/libm32.a(s_fabs.c.o)
                                         0x30 (size before relaxing)

.rel.dyn        0x00000000c0030f68        0x0
 .rel.got       0x00000000c0030f68        0x0 D:/Users/Alex/Desktop/Banana/kernel/boot.32
 .rel.iplt      0x00000000c0030f68        0x0 D:/Users/Alex/Desktop/Banana/kernel/boot.32
 .rel.text      0x00000000c0030f68        0x0 D:/Users/Alex/Desktop/Banana/kernel/boot.32
 .rel.rodata._ZTV8Computer
                0x00000000c0030f68        0x0 D:/Users/Alex/Desktop/Banana/kernel/boot.32
 .rel.text._ZN8ComputerD2Ev
                0x00000000c0030f68        0x0 D:/Users/Alex/Desktop/Banana/kernel/boot.32
 .rel.text._ZN8ComputerD0Ev
                0x00000000c0030f68        0x0 D:/Users/Alex/Desktop/Banana/kernel/boot.32
 .rel.rodata._ZTV16DriverlessDevice
                0x00000000c0030f68        0x0 D:/Users/Alex/Desktop/Banana/kernel/boot.32
 .rel.text._ZN16DriverlessDeviceD2Ev
                0x00000000c0030f68        0x0 D:/Users/Alex/Desktop/Banana/kernel/boot.32
 .rel.text._ZN16DriverlessDeviceD0Ev
                0x00000000c0030f68        0x0 D:/Users/Alex/Desktop/Banana/kernel/boot.32
 .rel.rodata._ZTV4ACPI
                0x00000000c0030f68        0x0 D:/Users/Alex/Desktop/Banana/kernel/boot.32
 .rel.text._ZN4ACPID2Ev
                0x00000000c0030f68        0x0 D:/Users/Alex/Desktop/Banana/kernel/boot.32
 .rel.text._ZN4ACPID0Ev
                0x00000000c0030f68        0x0 D:/Users/Alex/Desktop/Banana/kernel/boot.32
 .rel.rodata._ZTV3CPU
                0x00000000c0030f68        0x0 D:/Users/Alex/Desktop/Banana/kernel/boot.32
 .rel.text._ZN3CPUD2Ev
                0x00000000c0030f68        0x0 D:/Users/Alex/Desktop/Banana/kernel/boot.32
 .rel.text._ZN3CPUD0Ev
                0x00000000c0030f68        0x0 D:/Users/Alex/Desktop/Banana/kernel/boot.32
 .rel.rodata._ZTV3PCI
                0x00000000c0030f68        0x0 D:/Users/Alex/Desktop/Banana/kernel/boot.32
 .rel.text._ZN3PCID2Ev
                0x00000000c0030f68        0x0 D:/Users/Alex/Desktop/Banana/kernel/boot.32
 .rel.text._ZN3PCID0Ev
                0x00000000c0030f68        0x0 D:/Users/Alex/Desktop/Banana/kernel/boot.32
 .rel.rodata._ZTV3IDE
                0x00000000c0030f68        0x0 D:/Users/Alex/Desktop/Banana/kernel/boot.32
 .rel.text._ZN3IDED2Ev
                0x00000000c0030f68        0x0 D:/Users/Alex/Desktop/Banana/kernel/boot.32
 .rel.text._ZN3IDED0Ev
                0x00000000c0030f68        0x0 D:/Users/Alex/Desktop/Banana/kernel/boot.32
 .rel.rodata._ZTV7SATABus
                0x00000000c0030f68        0x0 D:/Users/Alex/Desktop/Banana/kernel/boot.32
 .rel.text._ZN7SATABusD2Ev
                0x00000000c0030f68        0x0 D:/Users/Alex/Desktop/Banana/kernel/boot.32
 .rel.text._ZN7SATABusD0Ev
                0x00000000c0030f68        0x0 D:/Users/Alex/Desktop/Banana/kernel/boot.32
 .rel.rodata._ZTV3ATA
                0x00000000c0030f68        0x0 D:/Users/Alex/Desktop/Banana/kernel/boot.32
 .rel.text._ZN3ATAD2Ev
                0x00000000c0030f68        0x0 D:/Users/Alex/Desktop/Banana/kernel/boot.32
 .rel.text._ZN3ATAD0Ev
                0x00000000c0030f68        0x0 D:/Users/Alex/Desktop/Banana/kernel/boot.32
 .rel.rodata._ZTV5ATAPI
                0x00000000c0030f68        0x0 D:/Users/Alex/Desktop/Banana/kernel/boot.32
 .rel.text._ZN5ATAPID2Ev
                0x00000000c0030f68        0x0 D:/Users/Alex/Desktop/Banana/kernel/boot.32
 .rel.text._ZN5ATAPID0Ev
                0x00000000c0030f68        0x0 D:/Users/Alex/Desktop/Banana/kernel/boot.32
 .rel.rodata._ZTV4SATA
                0x00000000c0030f68        0x0 D:/Users/Alex/Desktop/Banana/kernel/boot.32
 .rel.text._ZN4SATAD2Ev
                0x00000000c0030f68        0x0 D:/Users/Alex/Desktop/Banana/kernel/boot.32
 .rel.text._ZN4SATAD0Ev
                0x00000000c0030f68        0x0 D:/Users/Alex/Desktop/Banana/kernel/boot.32
 .rel.rodata._ZTV6SATAPI
                0x00000000c0030f68        0x0 D:/Users/Alex/Desktop/Banana/kernel/boot.32
 .rel.text._ZN6SATAPID2Ev
                0x00000000c0030f68        0x0 D:/Users/Alex/Desktop/Banana/kernel/boot.32
 .rel.text._ZN6SATAPID0Ev
                0x00000000c0030f68        0x0 D:/Users/Alex/Desktop/Banana/kernel/boot.32
 .rel.rodata._ZTV3AVX
                0x00000000c0030f68        0x0 D:/Users/Alex/Desktop/Banana/kernel/boot.32
 .rel.text._ZN3AVXD2Ev
                0x00000000c0030f68        0x0 D:/Users/Alex/Desktop/Banana/kernel/boot.32
 .rel.text._ZN3AVXD0Ev
                0x00000000c0030f68        0x0 D:/Users/Alex/Desktop/Banana/kernel/boot.32
 .rel.rodata._ZTV3MMX
                0x00000000c0030f68        0x0 D:/Users/Alex/Desktop/Banana/kernel/boot.32
 .rel.text._ZN3MMXD2Ev
                0x00000000c0030f68        0x0 D:/Users/Alex/Desktop/Banana/kernel/boot.32
 .rel.text._ZN3MMXD0Ev
                0x00000000c0030f68        0x0 D:/Users/Alex/Desktop/Banana/kernel/boot.32
 .rel.rodata._ZTV3SSE
                0x00000000c0030f68        0x0 D:/Users/Alex/Desktop/Banana/kernel/boot.32
 .rel.text._ZN3SSED2Ev
                0x00000000c0030f68        0x0 D:/Users/Alex/Desktop/Banana/kernel/boot.32
 .rel.text._ZN3SSED0Ev
                0x00000000c0030f68        0x0 D:/Users/Alex/Desktop/Banana/kernel/boot.32
 .rel.rodata._ZTV3x87
                0x00000000c0030f68        0x0 D:/Users/Alex/Desktop/Banana/kernel/boot.32
 .rel.text._ZN3x87D2Ev
                0x00000000c0030f68        0x0 D:/Users/Alex/Desktop/Banana/kernel/boot.32
 .rel.text._ZN3x87D0Ev
                0x00000000c0030f68        0x0 D:/Users/Alex/Desktop/Banana/kernel/boot.32
 .rel.rodata._ZTV6IOAPIC
                0x00000000c0030f68        0x0 D:/Users/Alex/Desktop/Banana/kernel/boot.32
 .rel.text._ZN6IOAPICD2Ev
                0x00000000c0030f68        0x0 D:/Users/Alex/Desktop/Banana/kernel/boot.32
 .rel.text._ZN6IOAPICD0Ev
                0x00000000c0030f68        0x0 D:/Users/Alex/Desktop/Banana/kernel/boot.32
 .rel.rodata._ZTV4APIC
                0x00000000c0030f68        0x0 D:/Users/Alex/Desktop/Banana/kernel/boot.32
 .rel.text._ZN4APICD2Ev
                0x00000000c0030f68        0x0 D:/Users/Alex/Desktop/Banana/kernel/boot.32
 .rel.text._ZN4APICD0Ev
                0x00000000c0030f68        0x0 D:/Users/Alex/Desktop/Banana/kernel/boot.32
 .rel.rodata._ZTV3PIC
                0x00000000c0030f68        0x0 D:/Users/Alex/Desktop/Banana/kernel/boot.32
 .rel.text._ZN3PICD2Ev
                0x00000000c0030f68        0x0 D:/Users/Alex/Desktop/Banana/kernel/boot.32
 .rel.text._ZN3PICD0Ev
                0x00000000c0030f68        0x0 D:/Users/Alex/Desktop/Banana/kernel/boot.32
 .rel.rodata._ZTV9APICTimer
                0x00000000c0030f68        0x0 D:/Users/Alex/Desktop/Banana/kernel/boot.32
 .rel.text._ZN9APICTimerD2Ev
                0x00000000c0030f68        0x0 D:/Users/Alex/Desktop/Banana/kernel/boot.32
 .rel.text._ZN9APICTimerD0Ev
                0x00000000c0030f68        0x0 D:/Users/Alex/Desktop/Banana/kernel/boot.32
 .rel.rodata._ZTV3PIT
                0x00000000c0030f68        0x0 D:/Users/Alex/Desktop/Banana/kernel/boot.32
 .rel.text._ZN3PITD2Ev
                0x00000000c0030f68        0x0 D:/Users/Alex/Desktop/Banana/kernel/boot.32
 .rel.text._ZN3PITD0Ev
                0x00000000c0030f68        0x0 D:/Users/Alex/Desktop/Banana/kernel/boot.32

.bss            0x00000000c0030f68     0x4780
                0x00000000c0030f68                sbss = .
 *(COMMON)
 *(.bss)
 .bss           0x00000000c0030f68        0x0 crti.32
 .bss           0x00000000c0030f68       0x20 /cygdrive/d/Users/Alex/Desktop/Toolchain/Output/bin/../lib/gcc/i386-banana/8.1.0/crtbegin.o
 .bss           0x00000000c0030f88        0x4 acpica/utclib.32
 *fill*         0x00000000c0030f8c       0x14 
 .bss           0x00000000c0030fa0      0x378 core/malloc.32
 .bss           0x00000000c0031318        0x0 libk/string.32
 .bss           0x00000000c0031318        0x0 fs/fat/diskio.32
 *fill*         0x00000000c0031318        0x8 
 .bss           0x00000000c0031320       0x6a fs/fat/ff.32
 .bss           0x00000000c003138a        0x0 fs/fat/ffsystem.32
 .bss           0x00000000c003138a        0x0 fs/fat/ffunicode.32
 .bss           0x00000000c003138a        0x0 hal/libresample/samplerate.32
 .bss           0x00000000c003138a        0x0 hal/libresample/src_linear.32
 .bss           0x00000000c003138a        0x0 hal/libresample/src_sinc.32
 .bss           0x00000000c003138a        0x0 hal/libresample/src_zoh.32
 .bss           0x00000000c003138a        0x0 compat/inlines.32
 .bss           0x00000000c003138a        0x0 compat/resolve.32
 *fill*         0x00000000c003138a        0x2 
 .bss           0x00000000c003138c        0x8 core/computer.32
                0x00000000c003138c                Krnl::schedulingOn
                0x00000000c003138d                Krnl::preemptionOn
                0x00000000c0031390                Krnl::computer
 .bss           0x00000000c0031394        0x6 core/gdt.32
                0x00000000c0031394                gdtDescr
 .bss           0x00000000c003139a        0x0 core/idle.32
 *fill*         0x00000000c003139a        0x2 
 .bss           0x00000000c003139c        0x6 core/idt.32
                0x00000000c003139c                idtDescr
 .bss           0x00000000c00313a2        0x0 core/kheap.32
 *fill*         0x00000000c00313a2        0x2 
 .bss           0x00000000c00313a4        0x4 core/main.32
                0x00000000c00313a4                sysBootSettings
 *fill*         0x00000000c00313a8       0x18 
 .bss           0x00000000c00313c0       0x44 core/physmgr.32
                0x00000000c00313c0                Phys::dmaUsage
                0x00000000c00313f0                Phys::usablePages
                0x00000000c00313f4                Phys::usedPages
                0x00000000c00313f8                Phys::oldPercent
                0x00000000c00313fc                Phys::highestMem
                0x00000000c0031400                Phys::currentPagePointer
 .bss           0x00000000c0031404        0x0 core/pipe.32
 *fill*         0x00000000c0031404       0x1c 
 .bss           0x00000000c0031420       0x41 core/terminal.32
                0x00000000c0031420                VgaText::graphicMode
                0x00000000c0031424                activeTerminal
                0x00000000c0031428                terminalCycle
                0x00000000c0031440                textModeImplementation
                0x00000000c0031460                vgamono
 *fill*         0x00000000c0031461        0x1 
 .bss           0x00000000c0031462        0x2 core/tss.32
                0x00000000c0031462                doubleFaultSelector
 *fill*         0x00000000c0031464       0x1c 
 .bss           0x00000000c0031480       0x84 core/unixfile.32
                0x00000000c0031480                unixFileLinkedList
                0x00000000c003148c                initialFilesAdded
                0x00000000c0031490                sfileCon
                0x00000000c0031494                sfileAux
                0x00000000c0031498                sfilePnt
                0x00000000c003149c                sfileNul
                0x00000000c00314a0                sfileCom
                0x00000000c00314e0                sfileLpt
 .bss           0x00000000c0031504        0x4 core/virtmgr.32
                0x00000000c0031504                firstVAS
 .bss           0x00000000c0031508        0x0 coreobjs/c++.32
 .bss           0x00000000c0031508        0x0 dbg/kconsole.32
 .bss           0x00000000c0031508        0x4 fs/vfs.32
                0x00000000c0031508                installedFilesystems
 .bss           0x00000000c003150c        0x0 hal/bus.32
 .bss           0x00000000c003150c        0x4 hal/buzzer.32
                0x00000000c003150c                systemBuzzer
 .bss           0x00000000c0031510        0x6 hal/clock.32
                0x00000000c0031510                User::timezoneHourOffset
                0x00000000c0031514                User::timezoneHalfHourOffset
                0x00000000c0031515                User::dstOn
 .bss           0x00000000c0031516        0x0 hal/device.32
 .bss           0x00000000c0031516        0x0 hal/diskctrl.32
 .bss           0x00000000c0031516        0x0 hal/diskphys.32
 .bss           0x00000000c0031516        0x0 hal/fpu.32
 *fill*         0x00000000c0031516        0x2 
 .bss           0x00000000c0031518       0x1c hal/intctrl.32
                0x00000000c0031518                gpFaultIntercept
                0x00000000c003151c                pf0
                0x00000000c0031520                pf1
                0x00000000c0031524                pf2
                0x00000000c0031528                pf3
                0x00000000c003152c                pf4
                0x00000000c0031530                pf5
 *fill*         0x00000000c0031534        0xc 
 .bss           0x00000000c0031540      0x411 hal/keybrd.32
                0x00000000c0031540                keystates
                0x00000000c0031940                keyboardSetupYet
                0x00000000c0031944                keyboardWaitingTaskList
 *fill*         0x00000000c0031951        0xf 
 .bss           0x00000000c0031960       0x70 hal/logidisk.32
                0x00000000c0031960                disks
                0x00000000c00319c8                diskAssignments
 .bss           0x00000000c00319d0        0x4 hal/mouse.32
                0x00000000c00319d0                guiMouseHandler
 .bss           0x00000000c00319d4        0x0 hal/partition.32
 .bss           0x00000000c00319d4        0x0 hal/serial.32
 *fill*         0x00000000c00319d4        0x4 
 .bss           0x00000000c00319d8        0x8 hal/timer.32
                0x00000000c00319d8                nanoSinceBoot
 .bss           0x00000000c00319e0     0x2000 hal/vcache.32
                0x00000000c00319e0                testBuffer
                0x00000000c00329e0                uhOh
 .bss           0x00000000c00339e0        0x4 hal/video.32
                0x00000000c00339e0                screen
 *fill*         0x00000000c00339e4       0x1c 
 .bss           0x00000000c0033a00      0x470 hw/acpi.32
                0x00000000c0033a00                processorID
                0x00000000c0033a20                matchingAPICID
                0x00000000c0033a40                processorDiscoveryNumber
                0x00000000c0033a60                ioapicGSIBase
                0x00000000c0033ae0                ioapicAddresses
                0x00000000c0033b60                ioapicFoundInMADT
                0x00000000c0033b80                ioapicDiscoveryNumber
                0x00000000c0033ba0                legacyIRQFlags
                0x00000000c0033bc0                apicNMIInfo
                0x00000000c0033c40                nextAPICNMI
                0x00000000c0033c44                RSDPpointer
                0x00000000c0033c48                RSDTpointer
                0x00000000c0033c4c                MADTpointer
                0x00000000c0033c50                usingXSDT
                0x00000000c0033c60                acpiTables
                0x00000000c0033e60                nextACPITable
                0x00000000c0033e64                systemShutdownFunction
                0x00000000c0033e68                systemResetFunction
                0x00000000c0033e6c                systemSleepFunction
 .bss           0x00000000c0033e70       0x10 hw/cpu.32
                0x00000000c0033e70                lastA
                0x00000000c0033e74                lastB
                0x00000000c0033e78                lastC
                0x00000000c0033e7c                lastD
 .bss           0x00000000c0033e80        0x0 hw/ports.32
 .bss           0x00000000c0033e80        0x8 krnl/env.32
                0x00000000c0033e80                Krnl::systemEnv
                0x00000000c0033e84                Krnl::userEnv
 .bss           0x00000000c0033e88        0xc krnl/panic.32
                0x00000000c0033e88                Krnl::kernelInPanic
                0x00000000c0033e8c                Krnl::guiPanicHandler
                0x00000000c0033e90                Krnl::guiProgramFaultHandler
 .bss           0x00000000c0033e94        0x0 net/ethernet.32
 .bss           0x00000000c0033e94        0x0 reg/registry.32
 .bss           0x00000000c0033e94        0x0 sys/sc_eject.32
 .bss           0x00000000c0033e94        0x0 sys/sc_exit.32
 .bss           0x00000000c0033e94        0x0 sys/sc_getcwd.32
 .bss           0x00000000c0033e94        0x0 sys/sc_getpid.32
 .bss           0x00000000c0033e94        0x0 sys/sc_loaddll.32
 .bss           0x00000000c0033e94        0x0 sys/sc_read.32
 .bss           0x00000000c0033e94        0x0 sys/sc_sbrk.32
 .bss           0x00000000c0033e94        0x0 sys/sc_setcwd.32
 .bss           0x00000000c0033e94        0x0 sys/sc_settime.32
 .bss           0x00000000c0033e94        0x0 sys/sc_timezone.32
 .bss           0x00000000c0033e94        0x0 sys/sc_write.32
 .bss           0x00000000c0033e94        0x0 sys/sc_yield.32
 *fill*         0x00000000c0033e94        0xc 
 .bss           0x00000000c0033ea0      0x200 sys/syscalls.32
                0x00000000c0033ea0                systemCallHandlers
 .bss           0x00000000c00340a0      0x7a4 thr/elf.32
                0x00000000c00340a0                Thr::nextDLLSymbolIndex
                0x00000000c00340c0                Thr::kernelSymbolTable
                0x00000000c0034140                Thr::kernelStringTable
                0x00000000c00341c0                Thr::kernelSymbols
                0x00000000c0034240                Thr::driverNameLookup
                0x00000000c0034440                Thr::driverLookupAddr
                0x00000000c0034640                Thr::driverLookupLen
                0x00000000c0034840                Thr::driverLookupNext
 *fill*         0x00000000c0034844        0x4 
 .bss           0x00000000c0034848       0x68 thr/prcssthr.32
                0x00000000c0034848                kernelProcess
                0x00000000c003484c                taskList
                0x00000000c0034858                sleepingTaskList
                0x00000000c0034864                terminatedTaskList
                0x00000000c0034870                irqDisableCounter
                0x00000000c0034874                postponeTaskSwitchesCounter
                0x00000000c0034878                taskSwitchesPostponedFlag
                0x00000000c003487c                schedulerLock
                0x00000000c0034880                lockStuffLock
                0x00000000c0034884                retValSchedLock
                0x00000000c0034888                retValLockStuff
                0x00000000c003488c                xxxx
                0x00000000c0034890                weNeedTheCleanerToNotBlock
                0x00000000c0034894                cleanerThread
 *fill*         0x00000000c00348b0       0x10 
 .bss           0x00000000c00348c0       0x31 vm86/vm8086.32
                0x00000000c00348c0                Vm::vmToHostComms
                0x00000000c00348e0                Vm::vmToHostCommsPtr
                0x00000000c00348e4                Vm::vm86Thread
                0x00000000c00348e8                Vm::vmReady
                0x00000000c00348e9                Vm::vmDone
                0x00000000c00348ec                Vm::vmRetV
 *fill*         0x00000000c00348f1        0xf 
 .bss           0x00000000c0034900       0x48 vm86/x87em.32
                0x00000000c0034900                Vm::fpuState
 *fill*         0x00000000c0034948       0x18 
 .bss           0x00000000c0034960       0xcc fs/fat/vfslink.32
                0x00000000c0034960                fatToVFSRemaps
                0x00000000c00349c0                FAT::vfsToFatRemaps
                0x00000000c0034a28                FAT::fats
 *fill*         0x00000000c0034a2c       0x14 
 .bss           0x00000000c0034a40      0x804 fs/iso9660/vfslink.32
                0x00000000c0034a40                recentBuffer
                0x00000000c0035240                recentSector
 *fill*         0x00000000c0035244       0x1c 
 .bss           0x00000000c0035260      0x420 hal/sound/sndchannel.32
                0x00000000c0035260                gotLookupTable
                0x00000000c0035280                lookupTable8
 .bss           0x00000000c0035680        0x0 hal/sound/sndhw.32
 .bss           0x00000000c0035680        0x0 hw/bus/isa.32
 .bss           0x00000000c0035680        0x0 hw/bus/pci.32
 .bss           0x00000000c0035680        0x0 hw/diskctrl/ide.32
 .bss           0x00000000c0035680        0x0 hw/diskctrl/satabus.32
 .bss           0x00000000c0035680        0x8 hw/diskphys/ata.32
                0x00000000c0035680                ataSectorsRead
                0x00000000c0035684                ataSectorsWritten
 .bss           0x00000000c0035688        0x0 hw/diskphys/atapi.32
 .bss           0x00000000c0035688        0x0 hw/diskphys/sata.32
 .bss           0x00000000c0035688        0x0 hw/diskphys/satapi.32
 .bss           0x00000000c0035688        0x0 hw/fpu/avx.32
 .bss           0x00000000c0035688        0x0 hw/fpu/mmx.32
 .bss           0x00000000c0035688        0x0 hw/fpu/sse.32
 .bss           0x00000000c0035688        0x0 hw/fpu/x87.32
 *fill*         0x00000000c0035688       0x18 
 .bss           0x00000000c00356a0       0x44 hw/intctrl/apic.32
                0x00000000c00356a0                IOAPICsSetupYet
                0x00000000c00356c0                ioapics
                0x00000000c00356e0                noOfIOAPICs
 .bss           0x00000000c00356e4        0x0 hw/intctrl/pic.32
 .bss           0x00000000c00356e4        0x0 hw/timer/apictimer.32
 .bss           0x00000000c00356e4        0x4 hw/timer/pit.32
                0x00000000c00356e4                pitFreq
 .bss           0x00000000c00356e8        0x0 /cygdrive/d/Users/Alex/Desktop/Toolchain/Output/bin/../lib/gcc/i386-banana/8.1.0/crtend.o
 .bss           0x00000000c00356e8        0x0 crtn.32
 .bss           0x00000000c00356e8        0x0 /cygdrive/d/Users/Alex/Desktop/Toolchain/Output/bin/../lib/gcc/i386-banana/8.1.0/libkgcc.a(_divdi3.o)
 .bss           0x00000000c00356e8        0x0 /cygdrive/d/Users/Alex/Desktop/Toolchain/Output/bin/../lib/gcc/i386-banana/8.1.0/libkgcc.a(_moddi3.o)
 .bss           0x00000000c00356e8        0x0 /cygdrive/d/Users/Alex/Desktop/Toolchain/Output/bin/../lib/gcc/i386-banana/8.1.0/libkgcc.a(_udivdi3.o)
 .bss           0x00000000c00356e8        0x0 /cygdrive/d/Users/Alex/Desktop/Toolchain/Output/bin/../lib/gcc/i386-banana/8.1.0/libkgcc.a(_umoddi3.o)
 .bss           0x00000000c00356e8        0x0 D:/Users/Alex/Desktop/Banana/kernel/libsoftfp.a(sfieeelib.o)
 .bss           0x00000000c00356e8        0x0 D:/Users/Alex/Desktop/Banana/kernel/libsoftfp.a(dfieeelib.o)
 .bss           0x00000000c00356e8        0x0 D:/Users/Alex/Desktop/Banana/kernel/libsoftfp.a(sfdfcvt.o)
 .bss           0x00000000c00356e8        0x0 D:/Users/Alex/Desktop/Banana/kernel/libk/libm32.a(s_fabs.c.o)
 .bss           0x00000000c00356e8        0x0 D:/Users/Alex/Desktop/Banana/kernel/libk/libm32.a(s_lrint.S.o)
 .bss           0x00000000c00356e8        0x0 D:/Users/Alex/Desktop/Banana/kernel/libk/libm32.a(s_lrintf.S.o)
 *(.bootstrap_stack)
 *(.gnu.linkonce.b*)
                0x00000000c00356e8                ebss = .

/DISCARD/
 *(.comment)
                0x00000000c0039e68                . = (. + SIZEOF (.bss))
OUTPUT(D:/Users/Alex/Desktop/Banana/kernel/KERNEL32.EXE elf32-i386)

.debug_info     0x0000000000000000     0x351f
 .debug_info    0x0000000000000000      0xd63 /cygdrive/d/Users/Alex/Desktop/Toolchain/Output/bin/../lib/gcc/i386-banana/8.1.0/libkgcc.a(_divdi3.o)
 .debug_info    0x0000000000000d63      0xd63 /cygdrive/d/Users/Alex/Desktop/Toolchain/Output/bin/../lib/gcc/i386-banana/8.1.0/libkgcc.a(_moddi3.o)
 .debug_info    0x0000000000001ac6      0xd25 /cygdrive/d/Users/Alex/Desktop/Toolchain/Output/bin/../lib/gcc/i386-banana/8.1.0/libkgcc.a(_udivdi3.o)
 .debug_info    0x00000000000027eb      0xd34 /cygdrive/d/Users/Alex/Desktop/Toolchain/Output/bin/../lib/gcc/i386-banana/8.1.0/libkgcc.a(_umoddi3.o)

.debug_abbrev   0x0000000000000000      0x930
 .debug_abbrev  0x0000000000000000      0x255 /cygdrive/d/Users/Alex/Desktop/Toolchain/Output/bin/../lib/gcc/i386-banana/8.1.0/libkgcc.a(_divdi3.o)
 .debug_abbrev  0x0000000000000255      0x255 /cygdrive/d/Users/Alex/Desktop/Toolchain/Output/bin/../lib/gcc/i386-banana/8.1.0/libkgcc.a(_moddi3.o)
 .debug_abbrev  0x00000000000004aa      0x23a /cygdrive/d/Users/Alex/Desktop/Toolchain/Output/bin/../lib/gcc/i386-banana/8.1.0/libkgcc.a(_udivdi3.o)
 .debug_abbrev  0x00000000000006e4      0x24c /cygdrive/d/Users/Alex/Desktop/Toolchain/Output/bin/../lib/gcc/i386-banana/8.1.0/libkgcc.a(_umoddi3.o)

.debug_loc      0x0000000000000000     0x174d
 .debug_loc     0x0000000000000000      0x3b0 /cygdrive/d/Users/Alex/Desktop/Toolchain/Output/bin/../lib/gcc/i386-banana/8.1.0/libkgcc.a(_divdi3.o)
 .debug_loc     0x00000000000003b0      0x48d /cygdrive/d/Users/Alex/Desktop/Toolchain/Output/bin/../lib/gcc/i386-banana/8.1.0/libkgcc.a(_moddi3.o)
 .debug_loc     0x000000000000083d      0x79c /cygdrive/d/Users/Alex/Desktop/Toolchain/Output/bin/../lib/gcc/i386-banana/8.1.0/libkgcc.a(_udivdi3.o)
 .debug_loc     0x0000000000000fd9      0x774 /cygdrive/d/Users/Alex/Desktop/Toolchain/Output/bin/../lib/gcc/i386-banana/8.1.0/libkgcc.a(_umoddi3.o)

.debug_aranges  0x0000000000000000       0x80
 .debug_aranges
                0x0000000000000000       0x20 /cygdrive/d/Users/Alex/Desktop/Toolchain/Output/bin/../lib/gcc/i386-banana/8.1.0/libkgcc.a(_divdi3.o)
 .debug_aranges
                0x0000000000000020       0x20 /cygdrive/d/Users/Alex/Desktop/Toolchain/Output/bin/../lib/gcc/i386-banana/8.1.0/libkgcc.a(_moddi3.o)
 .debug_aranges
                0x0000000000000040       0x20 /cygdrive/d/Users/Alex/Desktop/Toolchain/Output/bin/../lib/gcc/i386-banana/8.1.0/libkgcc.a(_udivdi3.o)
 .debug_aranges
                0x0000000000000060       0x20 /cygdrive/d/Users/Alex/Desktop/Toolchain/Output/bin/../lib/gcc/i386-banana/8.1.0/libkgcc.a(_umoddi3.o)

.debug_ranges   0x0000000000000000       0x98
 .debug_ranges  0x0000000000000000       0x20 /cygdrive/d/Users/Alex/Desktop/Toolchain/Output/bin/../lib/gcc/i386-banana/8.1.0/libkgcc.a(_divdi3.o)
 .debug_ranges  0x0000000000000020       0x20 /cygdrive/d/Users/Alex/Desktop/Toolchain/Output/bin/../lib/gcc/i386-banana/8.1.0/libkgcc.a(_moddi3.o)
 .debug_ranges  0x0000000000000040       0x28 /cygdrive/d/Users/Alex/Desktop/Toolchain/Output/bin/../lib/gcc/i386-banana/8.1.0/libkgcc.a(_udivdi3.o)
 .debug_ranges  0x0000000000000068       0x30 /cygdrive/d/Users/Alex/Desktop/Toolchain/Output/bin/../lib/gcc/i386-banana/8.1.0/libkgcc.a(_umoddi3.o)

.debug_line     0x0000000000000000      0xbf2
 .debug_line    0x0000000000000000      0x2f9 /cygdrive/d/Users/Alex/Desktop/Toolchain/Output/bin/../lib/gcc/i386-banana/8.1.0/libkgcc.a(_divdi3.o)
 .debug_line    0x00000000000002f9      0x333 /cygdrive/d/Users/Alex/Desktop/Toolchain/Output/bin/../lib/gcc/i386-banana/8.1.0/libkgcc.a(_moddi3.o)
 .debug_line    0x000000000000062c      0x2c5 /cygdrive/d/Users/Alex/Desktop/Toolchain/Output/bin/../lib/gcc/i386-banana/8.1.0/libkgcc.a(_udivdi3.o)
 .debug_line    0x00000000000008f1      0x301 /cygdrive/d/Users/Alex/Desktop/Toolchain/Output/bin/../lib/gcc/i386-banana/8.1.0/libkgcc.a(_umoddi3.o)

.debug_str      0x0000000000000000      0xb97
 .debug_str     0x0000000000000000      0xb7a /cygdrive/d/Users/Alex/Desktop/Toolchain/Output/bin/../lib/gcc/i386-banana/8.1.0/libkgcc.a(_divdi3.o)
                                        0xc28 (size before relaxing)
 .debug_str     0x0000000000000b7a        0x9 /cygdrive/d/Users/Alex/Desktop/Toolchain/Output/bin/../lib/gcc/i386-banana/8.1.0/libkgcc.a(_moddi3.o)
                                        0xc28 (size before relaxing)
 .debug_str     0x0000000000000b83        0xa /cygdrive/d/Users/Alex/Desktop/Toolchain/Output/bin/../lib/gcc/i386-banana/8.1.0/libkgcc.a(_udivdi3.o)
                                        0xc29 (size before relaxing)
 .debug_str     0x0000000000000b8d        0xa /cygdrive/d/Users/Alex/Desktop/Toolchain/Output/bin/../lib/gcc/i386-banana/8.1.0/libkgcc.a(_umoddi3.o)
                                        0xc29 (size before relaxing)

.note.GNU-stack
                0x0000000000000000        0x0
 .note.GNU-stack
                0x0000000000000000        0x0 D:/Users/Alex/Desktop/Banana/kernel/libk/libm32.a(s_lrint.S.o)
 .note.GNU-stack
                0x0000000000000000        0x0 D:/Users/Alex/Desktop/Banana/kernel/libk/libm32.a(s_lrintf.S.o)
