Archive member included to satisfy reference by file (symbol)

/cygdrive/d/Users/Alex/Desktop/Toolchain/Output/bin/../lib/gcc/i386-banana/8.1.0/libgcc.a(_divdi3.o)
                              fs/fat/ff.32 (__divdi3)
/cygdrive/d/Users/Alex/Desktop/Toolchain/Output/bin/../lib/gcc/i386-banana/8.1.0/libgcc.a(_moddi3.o)
                              core/elf.32 (__moddi3)
/cygdrive/d/Users/Alex/Desktop/Toolchain/Output/bin/../lib/gcc/i386-banana/8.1.0/libgcc.a(_divmoddi4.o)
                              acpica/osl.32 (__divmoddi4)
/cygdrive/d/Users/Alex/Desktop/Toolchain/Output/bin/../lib/gcc/i386-banana/8.1.0/libgcc.a(_udivdi3.o)
                              acpica/utmath.32 (__udivdi3)
/cygdrive/d/Users/Alex/Desktop/Toolchain/Output/bin/../lib/gcc/i386-banana/8.1.0/libgcc.a(_umoddi3.o)
                              acpica/utmath.32 (__umoddi3)
D:/Users/Alex/Desktop/Banana/kernel/libk/libm32.a(s_fabs.c.o)
                              hal/libresample/samplerate.32 (fabs)
D:/Users/Alex/Desktop/Banana/kernel/libk/libm32.a(s_lrint.S.o)
                              hal/libresample/samplerate.32 (lrint)
D:/Users/Alex/Desktop/Banana/kernel/libk/libm32.a(s_lrintf.S.o)
                              hal/sound/sndhw.32 (lrintf)

Allocating common symbols
Common symbol       size              file

AcpiGbl_StateCache  0x4               acpica/utglobal.32
AcpiGbl_OwnerIdMask
                    0x200             acpica/utglobal.32
AcpiGbl_StepToNextCall
                    0x1               acpica/utglobal.32
AcpiGbl_RootTableList
                    0x10              acpica/utglobal.32
AcpiGbl_FadtGpeDevice
                    0x4               acpica/utglobal.32
AcpiGbl_GpeXruptListHead
                    0x4               acpica/utglobal.32
AcpiGbl_GlobalLockHandle
                    0x2               acpica/utglobal.32
AcpiGbl_RootNodeStruct
                    0x1c              acpica/utglobal.32
AcpiGbl_FACS        0x4               acpica/utglobal.32
AcpiGbl_AllGpesInitialized
                    0x1               acpica/utglobal.32
AcpiGbl_GlobalLockMutex
                    0x4               acpica/utglobal.32
AcpiGbl_IntegerByteWidth
                    0x1               acpica/utglobal.32
AcpiGbl_Pm1EnableRegisterSave
                    0x2               acpica/utglobal.32
AcpiGbl_NsLookupCount
                    0x4               acpica/utglobal.32
AcpiCurrentGpeCount
                    0x4               acpica/utglobal.32
AcpiGbl_IntegerBitWidth
                    0x1               acpica/utglobal.32
AcpiGbl_NamespaceCache
                    0x4               acpica/utglobal.32
AcpiGbl_TableHandler
                    0x4               acpica/utglobal.32
AcpiGbl_HardwareLock
                    0x4               acpica/utglobal.32
AcpiGbl_FixedEventHandlers
                    0x28              acpica/utglobal.32
AcpiSciCount        0x4               acpica/utglobal.32
AcpiGbl_DSDT        0x4               acpica/utglobal.32
AcpiGbl_GlobalNotify
                    0x10              acpica/utglobal.32
AcpiGbl_GlobalLockSemaphore
                    0x4               acpica/utglobal.32
AcpiGbl_SystemAwakeAndRunning
                    0x1               acpica/utglobal.32
AcpiGbl_InterfaceHandler
                    0x4               acpica/utglobal.32
AcpiGbl_EventsInitialized
                    0x1               acpica/utglobal.32
AcpiGbl_SupportedInterfaces
                    0x4               acpica/utglobal.32
AcpiGbl_GpeLock     0x4               acpica/utglobal.32
AcpiGbl_SleepTypeB  0x1               acpica/utglobal.32
AcpiGbl_InitHandler
                    0x4               acpica/utglobal.32
AcpiGbl_GlobalLockAcquired
                    0x1               acpica/utglobal.32
AcpiGbl_XPm1bEnable
                    0xc               acpica/utglobal.32
AcpiGbl_OriginalDsdtHeader
                    0x24              acpica/utglobal.32
AcpiGbl_ReferenceCountLock
                    0x4               acpica/utglobal.32
AcpiGpeCount        0x4               acpica/utglobal.32
AcpiGbl_TableHandlerContext
                    0x4               acpica/utglobal.32
AcpiGbl_XPm1aStatus
                    0xc               acpica/utglobal.32
AcpiGbl_OriginalMode
                    0x4               acpica/utglobal.32
AcpiGbl_CmSingleStep
                    0x1               acpica/utglobal.32
AcpiGbl_GlobalEventHandlerContext
                    0x4               acpica/utglobal.32
AcpiGbl_PsFindCount
                    0x4               acpica/utglobal.32
AcpiFixedEventCount
                    0x14              acpica/utglobal.32
AcpiGbl_AcpiHardwarePresent
                    0x1               acpica/utglobal.32
AcpiGbl_MutexInfo   0x60              acpica/utglobal.32
AcpiGbl_RootNode    0x4               acpica/utglobal.32
AcpiGbl_AddressRangeList
                    0x8               acpica/utglobal.32
AcpiGbl_FADT        0x114             acpica/utglobal.32
AcpiGbl_IntegerNybbleWidth
                    0x1               acpica/utglobal.32
AcpiGbl_XPm1aEnable
                    0xc               acpica/utglobal.32
AcpiGbl_OperandCache
                    0x4               acpica/utglobal.32
AcpiGbl_SciHandlerList
                    0x4               acpica/utglobal.32
AcpiGbl_OriginalDbgLayer
                    0x4               acpica/utglobal.32
AcpiGbl_PsNodeExtCache
                    0x4               acpica/utglobal.32
AcpiGbl_GlobalLockPendingLock
                    0x4               acpica/utglobal.32
AcpiGbl_DebuggerConfiguration
                    0x1               acpica/utglobal.32
AcpiGbl_OriginalDbgLevel
                    0x4               acpica/utglobal.32
AcpiGbl_GlobalLockPending
                    0x1               acpica/utglobal.32
AcpiGbl_PsNodeCache
                    0x4               acpica/utglobal.32
AcpiGbl_SleepTypeA  0x1               acpica/utglobal.32
AcpiGbl_GpeFadtBlocks
                    0x8               acpica/utglobal.32
AcpiMethodCount     0x4               acpica/utglobal.32
AcpiGbl_ExceptionHandler
                    0x4               acpica/utglobal.32
AcpiGbl_NamespaceRwLock
                    0xc               acpica/utglobal.32
AcpiGbl_GlobalEventHandler
                    0x4               acpica/utglobal.32
AcpiGbl_CurrentWalkList
                    0x4               acpica/utglobal.32
AcpiGbl_OsiMutex    0x4               acpica/utglobal.32
AcpiGbl_GlobalLockPresent
                    0x1               acpica/utglobal.32
AcpiGbl_NextOwnerIdOffset
                    0x1               acpica/utglobal.32
AcpiGbl_LastOwnerIdIndex
                    0x1               acpica/utglobal.32
AcpiGbl_XPm1bStatus
                    0xc               acpica/utglobal.32

Discarded input sections

 .comment       0x0000000000000000       0x12 /cygdrive/d/Users/Alex/Desktop/Toolchain/Output/bin/../lib/gcc/i386-banana/8.1.0/crtbegin.o
 .comment       0x0000000000000000       0x12 acpica/dsargs.32
 .comment       0x0000000000000000       0x12 acpica/dscontrol.32
 .comment       0x0000000000000000       0x12 acpica/dsdebug.32
 .comment       0x0000000000000000       0x12 acpica/dsfield.32
 .comment       0x0000000000000000       0x12 acpica/dsinit.32
 .comment       0x0000000000000000       0x12 acpica/dsmethod.32
 .comment       0x0000000000000000       0x12 acpica/dsmthdat.32
 .comment       0x0000000000000000       0x12 acpica/dsobject.32
 .comment       0x0000000000000000       0x12 acpica/dsopcode.32
 .comment       0x0000000000000000       0x12 acpica/dspkginit.32
 .comment       0x0000000000000000       0x12 acpica/dsutils.32
 .comment       0x0000000000000000       0x12 acpica/dswexec.32
 .comment       0x0000000000000000       0x12 acpica/dswload.32
 .comment       0x0000000000000000       0x12 acpica/dswload2.32
 .comment       0x0000000000000000       0x12 acpica/dswscope.32
 .comment       0x0000000000000000       0x12 acpica/dswstate.32
 .comment       0x0000000000000000       0x12 acpica/evevent.32
 .comment       0x0000000000000000       0x12 acpica/evglock.32
 .comment       0x0000000000000000       0x12 acpica/evgpe.32
 .comment       0x0000000000000000       0x12 acpica/evgpeblk.32
 .comment       0x0000000000000000       0x12 acpica/evgpeinit.32
 .comment       0x0000000000000000       0x12 acpica/evgpeutil.32
 .comment       0x0000000000000000       0x12 acpica/evhandler.32
 .comment       0x0000000000000000       0x12 acpica/evmisc.32
 .comment       0x0000000000000000       0x12 acpica/evregion.32
 .comment       0x0000000000000000       0x12 acpica/evrgnini.32
 .comment       0x0000000000000000       0x12 acpica/evsci.32
 .comment       0x0000000000000000       0x12 acpica/evxface.32
 .comment       0x0000000000000000       0x12 acpica/evxfevnt.32
 .comment       0x0000000000000000       0x12 acpica/evxfgpe.32
 .comment       0x0000000000000000       0x12 acpica/evxfregn.32
 .comment       0x0000000000000000       0x12 acpica/exconcat.32
 .comment       0x0000000000000000       0x12 acpica/exconfig.32
 .comment       0x0000000000000000       0x12 acpica/exconvrt.32
 .comment       0x0000000000000000       0x12 acpica/excreate.32
 .comment       0x0000000000000000       0x12 acpica/exdebug.32
 .comment       0x0000000000000000       0x12 acpica/exdump.32
 .comment       0x0000000000000000       0x12 acpica/exfield.32
 .comment       0x0000000000000000       0x12 acpica/exfldio.32
 .comment       0x0000000000000000       0x12 acpica/exmisc.32
 .comment       0x0000000000000000       0x12 acpica/exmutex.32
 .comment       0x0000000000000000       0x12 acpica/exnames.32
 .comment       0x0000000000000000       0x12 acpica/exoparg1.32
 .comment       0x0000000000000000       0x12 acpica/exoparg2.32
 .comment       0x0000000000000000       0x12 acpica/exoparg3.32
 .comment       0x0000000000000000       0x12 acpica/exoparg6.32
 .comment       0x0000000000000000       0x12 acpica/exprep.32
 .comment       0x0000000000000000       0x12 acpica/exregion.32
 .comment       0x0000000000000000       0x12 acpica/exresnte.32
 .comment       0x0000000000000000       0x12 acpica/exresolv.32
 .comment       0x0000000000000000       0x12 acpica/exresop.32
 .comment       0x0000000000000000       0x12 acpica/exserial.32
 .comment       0x0000000000000000       0x12 acpica/exstore.32
 .comment       0x0000000000000000       0x12 acpica/exstoren.32
 .comment       0x0000000000000000       0x12 acpica/exstorob.32
 .comment       0x0000000000000000       0x12 acpica/exsystem.32
 .comment       0x0000000000000000       0x12 acpica/extrace.32
 .comment       0x0000000000000000       0x12 acpica/exutils.32
 .comment       0x0000000000000000       0x12 acpica/hwacpi.32
 .comment       0x0000000000000000       0x12 acpica/hwesleep.32
 .comment       0x0000000000000000       0x12 acpica/hwgpe.32
 .comment       0x0000000000000000       0x12 acpica/hwpci.32
 .comment       0x0000000000000000       0x12 acpica/hwregs.32
 .comment       0x0000000000000000       0x12 acpica/hwsleep.32
 .comment       0x0000000000000000       0x12 acpica/hwtimer.32
 .comment       0x0000000000000000       0x12 acpica/hwvalid.32
 .comment       0x0000000000000000       0x12 acpica/hwxface.32
 .comment       0x0000000000000000       0x12 acpica/hwxfsleep.32
 .comment       0x0000000000000000       0x12 acpica/nsaccess.32
 .comment       0x0000000000000000       0x12 acpica/nsalloc.32
 .comment       0x0000000000000000       0x12 acpica/nsarguments.32
 .comment       0x0000000000000000       0x12 acpica/nsconvert.32
 .comment       0x0000000000000000       0x12 acpica/nsdump.32
 .comment       0x0000000000000000       0x12 acpica/nsdumpdv.32
 .comment       0x0000000000000000       0x12 acpica/nseval.32
 .comment       0x0000000000000000       0x12 acpica/nsinit.32
 .comment       0x0000000000000000       0x12 acpica/nsload.32
 .comment       0x0000000000000000       0x12 acpica/nsnames.32
 .comment       0x0000000000000000       0x12 acpica/nsobject.32
 .comment       0x0000000000000000       0x12 acpica/nsparse.32
 .comment       0x0000000000000000       0x12 acpica/nspredef.32
 .comment       0x0000000000000000       0x12 acpica/nsprepkg.32
 .comment       0x0000000000000000       0x12 acpica/nsrepair.32
 .comment       0x0000000000000000       0x12 acpica/nsrepair2.32
 .comment       0x0000000000000000       0x12 acpica/nssearch.32
 .comment       0x0000000000000000       0x12 acpica/nsutils.32
 .comment       0x0000000000000000       0x12 acpica/nswalk.32
 .comment       0x0000000000000000       0x12 acpica/nsxfeval.32
 .comment       0x0000000000000000       0x12 acpica/nsxfname.32
 .comment       0x0000000000000000       0x12 acpica/nsxfobj.32
 .comment       0x0000000000000000       0x12 acpica/psargs.32
 .comment       0x0000000000000000       0x12 acpica/psloop.32
 .comment       0x0000000000000000       0x12 acpica/psobject.32
 .comment       0x0000000000000000       0x12 acpica/psopcode.32
 .comment       0x0000000000000000       0x12 acpica/psopinfo.32
 .comment       0x0000000000000000       0x12 acpica/psparse.32
 .comment       0x0000000000000000       0x12 acpica/psscope.32
 .comment       0x0000000000000000       0x12 acpica/pstree.32
 .comment       0x0000000000000000       0x12 acpica/psutils.32
 .comment       0x0000000000000000       0x12 acpica/pswalk.32
 .comment       0x0000000000000000       0x12 acpica/psxface.32
 .comment       0x0000000000000000       0x12 acpica/rsaddr.32
 .comment       0x0000000000000000       0x12 acpica/rscalc.32
 .comment       0x0000000000000000       0x12 acpica/rscreate.32
 .comment       0x0000000000000000       0x12 acpica/rsdump.32
 .comment       0x0000000000000000       0x12 acpica/rsdumpinfo.32
 .comment       0x0000000000000000       0x12 acpica/rsinfo.32
 .comment       0x0000000000000000       0x12 acpica/rsio.32
 .comment       0x0000000000000000       0x12 acpica/rsirq.32
 .comment       0x0000000000000000       0x12 acpica/rslist.32
 .comment       0x0000000000000000       0x12 acpica/rsmemory.32
 .comment       0x0000000000000000       0x12 acpica/rsmisc.32
 .comment       0x0000000000000000       0x12 acpica/rsserial.32
 .comment       0x0000000000000000       0x12 acpica/rsutils.32
 .comment       0x0000000000000000       0x12 acpica/rsxface.32
 .comment       0x0000000000000000       0x12 acpica/tbdata.32
 .comment       0x0000000000000000       0x12 acpica/tbfadt.32
 .comment       0x0000000000000000       0x12 acpica/tbfind.32
 .comment       0x0000000000000000       0x12 acpica/tbinstal.32
 .comment       0x0000000000000000       0x12 acpica/tbprint.32
 .comment       0x0000000000000000       0x12 acpica/tbutils.32
 .comment       0x0000000000000000       0x12 acpica/tbxface.32
 .comment       0x0000000000000000       0x12 acpica/tbxfload.32
 .comment       0x0000000000000000       0x12 acpica/tbxfroot.32
 .comment       0x0000000000000000       0x12 acpica/utaddress.32
 .comment       0x0000000000000000       0x12 acpica/utalloc.32
 .comment       0x0000000000000000       0x12 acpica/utascii.32
 .comment       0x0000000000000000       0x12 acpica/utbuffer.32
 .comment       0x0000000000000000       0x12 acpica/utcache.32
 .comment       0x0000000000000000       0x12 acpica/utclib.32
 .comment       0x0000000000000000       0x12 acpica/utcopy.32
 .comment       0x0000000000000000       0x12 acpica/utdebug.32
 .comment       0x0000000000000000       0x12 acpica/utdecode.32
 .comment       0x0000000000000000       0x12 acpica/utdelete.32
 .comment       0x0000000000000000       0x12 acpica/uterror.32
 .comment       0x0000000000000000       0x12 acpica/uteval.32
 .comment       0x0000000000000000       0x12 acpica/utexcep.32
 .comment       0x0000000000000000       0x12 acpica/utglobal.32
 .comment       0x0000000000000000       0x12 acpica/uthex.32
 .comment       0x0000000000000000       0x12 acpica/utids.32
 .comment       0x0000000000000000       0x12 acpica/utinit.32
 .comment       0x0000000000000000       0x12 acpica/utlock.32
 .comment       0x0000000000000000       0x12 acpica/utmath.32
 .comment       0x0000000000000000       0x12 acpica/utmisc.32
 .comment       0x0000000000000000       0x12 acpica/utmutex.32
 .comment       0x0000000000000000       0x12 acpica/utnonansi.32
 .comment       0x0000000000000000       0x12 acpica/utobject.32
 .comment       0x0000000000000000       0x12 acpica/utosi.32
 .comment       0x0000000000000000       0x12 acpica/utownerid.32
 .comment       0x0000000000000000       0x12 acpica/utpredef.32
 .comment       0x0000000000000000       0x12 acpica/utprint.32
 .comment       0x0000000000000000       0x12 acpica/utresdecode.32
 .comment       0x0000000000000000       0x12 acpica/utresrc.32
 .comment       0x0000000000000000       0x12 acpica/utstate.32
 .comment       0x0000000000000000       0x12 acpica/utstring.32
 .comment       0x0000000000000000       0x12 acpica/utstrsuppt.32
 .comment       0x0000000000000000       0x12 acpica/utstrtoul64.32
 .comment       0x0000000000000000       0x12 acpica/uttrack.32
 .comment       0x0000000000000000       0x12 acpica/utuuid.32
 .comment       0x0000000000000000       0x12 acpica/utxface.32
 .comment       0x0000000000000000       0x12 acpica/utxferror.32
 .comment       0x0000000000000000       0x12 acpica/utxfinit.32
 .comment       0x0000000000000000       0x12 acpica/utxfmutex.32
 .comment       0x0000000000000000       0x12 core/malloc.32
 .comment       0x0000000000000000       0x12 libk/string.32
 .comment       0x0000000000000000       0x12 fs/fat/diskio.32
 .comment       0x0000000000000000       0x12 fs/fat/ff.32
 .comment       0x0000000000000000       0x12 fs/fat/ffsystem.32
 .comment       0x0000000000000000       0x12 fs/fat/ffunicode.32
 .comment       0x0000000000000000       0x12 hal/libresample/samplerate.32
 .comment       0x0000000000000000       0x12 hal/libresample/src_linear.32
 .comment       0x0000000000000000       0x12 hal/libresample/src_sinc.32
 .comment       0x0000000000000000       0x12 hal/libresample/src_zoh.32
 .comment       0x0000000000000000       0x12 acpica/osl.32
 .group         0x0000000000000000       0x14 core/computer.32
 .group         0x0000000000000000        0xc core/computer.32
 .comment       0x0000000000000000       0x12 core/computer.32
 .comment       0x0000000000000000       0x12 core/elf.32
 .comment       0x0000000000000000       0x12 core/gdt.32
 .group         0x0000000000000000        0xc core/idle.32
 .comment       0x0000000000000000       0x12 core/idle.32
 .comment       0x0000000000000000       0x12 core/idt.32
 .comment       0x0000000000000000       0x12 core/kconsole.32
 .comment       0x0000000000000000       0x12 core/kheap.32
 .comment       0x0000000000000000       0x12 core/main.32
 .comment       0x0000000000000000       0x12 core/physmgr.32
 .group         0x0000000000000000        0xc core/pipe.32
 .comment       0x0000000000000000       0x12 core/pipe.32
 .group         0x0000000000000000        0x8 core/prcssthr.32
 .group         0x0000000000000000        0x8 core/prcssthr.32
 .group         0x0000000000000000        0xc core/prcssthr.32
 .group         0x0000000000000000        0xc core/prcssthr.32
 .group         0x0000000000000000        0x8 core/prcssthr.32
 .group         0x0000000000000000        0xc core/prcssthr.32
 .group         0x0000000000000000        0x8 core/prcssthr.32
 .group         0x0000000000000000        0x8 core/prcssthr.32
 .comment       0x0000000000000000       0x12 core/prcssthr.32
 .comment       0x0000000000000000       0x12 core/syscalls.32
 .group         0x0000000000000000        0xc core/terminal.32
 .comment       0x0000000000000000       0x12 core/terminal.32
 .comment       0x0000000000000000       0x12 core/tss.32
 .group         0x0000000000000000        0x8 core/unixfile.32
 .group         0x0000000000000000        0xc core/unixfile.32
 .group         0x0000000000000000        0x8 core/unixfile.32
 .group         0x0000000000000000        0xc core/unixfile.32
 .group         0x0000000000000000        0x8 core/unixfile.32
 .group         0x0000000000000000        0xc core/unixfile.32
 .group         0x0000000000000000        0xc core/unixfile.32
 .group         0x0000000000000000        0xc core/unixfile.32
 .comment       0x0000000000000000       0x12 core/unixfile.32
 .comment       0x0000000000000000       0x12 core/virtmgr.32
 .comment       0x0000000000000000       0x12 coreobjs/c++.32
 .comment       0x0000000000000000       0x12 debugger/debug.32
 .group         0x0000000000000000        0xc fs/vfs.32
 .group         0x0000000000000000        0xc fs/vfs.32
 .group         0x0000000000000000        0xc fs/vfs.32
 .comment       0x0000000000000000       0x12 fs/vfs.32
 .group         0x0000000000000000        0xc hal/bus.32
 .comment       0x0000000000000000       0x12 hal/bus.32
 .group         0x0000000000000000        0xc hal/buzzer.32
 .comment       0x0000000000000000       0x12 hal/buzzer.32
 .group         0x0000000000000000        0xc hal/clock.32
 .comment       0x0000000000000000       0x12 hal/clock.32
 .group         0x0000000000000000       0x14 hal/device.32
 .group         0x0000000000000000        0xc hal/device.32
 .group         0x0000000000000000        0xc hal/device.32
 .group         0x0000000000000000        0xc hal/device.32
 .group         0x0000000000000000        0xc hal/device.32
 .comment       0x0000000000000000       0x12 hal/device.32
 .group         0x0000000000000000        0xc hal/diskctrl.32
 .comment       0x0000000000000000       0x12 hal/diskctrl.32
 .group         0x0000000000000000        0xc hal/diskphys.32
 .comment       0x0000000000000000       0x12 hal/diskphys.32
 .group         0x0000000000000000        0xc hal/fpu.32
 .comment       0x0000000000000000       0x12 hal/fpu.32
 .group         0x0000000000000000        0xc hal/intctrl.32
 .comment       0x0000000000000000       0x12 hal/intctrl.32
 .group         0x0000000000000000        0xc hal/keybrd.32
 .comment       0x0000000000000000       0x12 hal/keybrd.32
 .group         0x0000000000000000        0xc hal/logidisk.32
 .comment       0x0000000000000000       0x12 hal/logidisk.32
 .comment       0x0000000000000000       0x12 hal/partition.32
 .group         0x0000000000000000        0x8 hal/timer.32
 .group         0x0000000000000000        0x8 hal/timer.32
 .group         0x0000000000000000        0xc hal/timer.32
 .group         0x0000000000000000        0x8 hal/timer.32
 .group         0x0000000000000000        0xc hal/timer.32
 .group         0x0000000000000000        0xc hal/timer.32
 .text._ZN10LinkedListIV18ThreadControlBlockE15getFirstElementEv
                0x0000000000000000        0x7 hal/timer.32
 .text._ZN10LinkedListIV18ThreadControlBlockE7isEmptyEv
                0x0000000000000000       0x1c hal/timer.32
 .text._ZN10LinkedListIV18ThreadControlBlockE11removeFirstEv
                0x0000000000000000       0xae hal/timer.32
 .text._ZN10LinkedListIV18ThreadControlBlockE7getNextEPS1_
                0x0000000000000000        0x8 hal/timer.32
 .text._ZN10LinkedListIV18ThreadControlBlockE10addElementEPS1_
                0x0000000000000000      0x130 hal/timer.32
 .comment       0x0000000000000000       0x12 hal/timer.32
 .group         0x0000000000000000        0xc hal/vcache.32
 .comment       0x0000000000000000       0x12 hal/vcache.32
 .group         0x0000000000000000       0x14 hw/acpi.32
 .group         0x0000000000000000        0xc hw/acpi.32
 .comment       0x0000000000000000       0x12 hw/acpi.32
 .group         0x0000000000000000       0x14 hw/cpu.32
 .group         0x0000000000000000        0xc hw/cpu.32
 .comment       0x0000000000000000       0x12 hw/cpu.32
 .comment       0x0000000000000000       0x12 hw/ports.32
 .comment       0x0000000000000000       0x12 registry/registry.32
 .comment       0x0000000000000000       0x12 syscalls/sc_exit.32
 .comment       0x0000000000000000       0x12 syscalls/sc_sbrk.32
 .comment       0x0000000000000000       0x12 syscalls/sc_yield.32
 .comment       0x0000000000000000       0x12 vm86/vm8086.32
 .group         0x0000000000000000        0xc fs/fat/vfslink.32
 .comment       0x0000000000000000       0x12 fs/fat/vfslink.32
 .group         0x0000000000000000        0xc fs/iso9660/vfslink.32
 .comment       0x0000000000000000       0x12 fs/iso9660/vfslink.32
 .comment       0x0000000000000000       0x12 hal/sound/sndchannel.32
 .group         0x0000000000000000        0xc hal/sound/sndhw.32
 .comment       0x0000000000000000       0x12 hal/sound/sndhw.32
 .group         0x0000000000000000       0x14 hw/audio/sb16.32
 .group         0x0000000000000000        0xc hw/audio/sb16.32
 .comment       0x0000000000000000       0x12 hw/audio/sb16.32
 .group         0x0000000000000000       0x14 hw/bus/isa.32
 .group         0x0000000000000000        0xc hw/bus/isa.32
 .comment       0x0000000000000000       0x12 hw/bus/isa.32
 .group         0x0000000000000000       0x14 hw/bus/pci.32
 .group         0x0000000000000000        0xc hw/bus/pci.32
 .comment       0x0000000000000000       0x12 hw/bus/pci.32
 .group         0x0000000000000000       0x14 hw/bus/ps2.32
 .group         0x0000000000000000        0xc hw/bus/ps2.32
 .comment       0x0000000000000000       0x12 hw/bus/ps2.32
 .group         0x0000000000000000       0x14 hw/bus/ps2port.32
 .group         0x0000000000000000        0xc hw/bus/ps2port.32
 .comment       0x0000000000000000       0x12 hw/bus/ps2port.32
 .group         0x0000000000000000       0x14 hw/buzzer/pcspk.32
 .group         0x0000000000000000        0xc hw/buzzer/pcspk.32
 .comment       0x0000000000000000       0x12 hw/buzzer/pcspk.32
 .group         0x0000000000000000        0xc hw/clock/rtc.32
 .comment       0x0000000000000000       0x12 hw/clock/rtc.32
 .group         0x0000000000000000       0x14 hw/diskctrl/ide.32
 .group         0x0000000000000000        0xc hw/diskctrl/ide.32
 .comment       0x0000000000000000       0x12 hw/diskctrl/ide.32
 .group         0x0000000000000000       0x14 hw/diskphys/ata.32
 .group         0x0000000000000000        0xc hw/diskphys/ata.32
 .comment       0x0000000000000000       0x12 hw/diskphys/ata.32
 .group         0x0000000000000000       0x14 hw/diskphys/atapi.32
 .group         0x0000000000000000        0xc hw/diskphys/atapi.32
 .comment       0x0000000000000000       0x12 hw/diskphys/atapi.32
 .group         0x0000000000000000       0x14 hw/dma/isadma.32
 .group         0x0000000000000000        0xc hw/dma/isadma.32
 .comment       0x0000000000000000       0x12 hw/dma/isadma.32
 .group         0x0000000000000000       0x14 hw/fpu/avx.32
 .group         0x0000000000000000        0xc hw/fpu/avx.32
 .comment       0x0000000000000000       0x12 hw/fpu/avx.32
 .group         0x0000000000000000       0x14 hw/fpu/mmx.32
 .group         0x0000000000000000        0xc hw/fpu/mmx.32
 .comment       0x0000000000000000       0x12 hw/fpu/mmx.32
 .group         0x0000000000000000       0x14 hw/fpu/sse.32
 .group         0x0000000000000000        0xc hw/fpu/sse.32
 .comment       0x0000000000000000       0x12 hw/fpu/sse.32
 .group         0x0000000000000000       0x14 hw/fpu/x87.32
 .group         0x0000000000000000        0xc hw/fpu/x87.32
 .comment       0x0000000000000000       0x12 hw/fpu/x87.32
 .group         0x0000000000000000       0x14 hw/intctrl/apic.32
 .group         0x0000000000000000       0x14 hw/intctrl/apic.32
 .group         0x0000000000000000        0xc hw/intctrl/apic.32
 .group         0x0000000000000000        0xc hw/intctrl/apic.32
 .comment       0x0000000000000000       0x12 hw/intctrl/apic.32
 .group         0x0000000000000000       0x14 hw/intctrl/pic.32
 .group         0x0000000000000000        0xc hw/intctrl/pic.32
 .comment       0x0000000000000000       0x12 hw/intctrl/pic.32
 .group         0x0000000000000000        0xc hw/keybrd/ps2key.32
 .comment       0x0000000000000000       0x12 hw/keybrd/ps2key.32
 .group         0x0000000000000000       0x14 hw/timer/apictimer.32
 .group         0x0000000000000000        0xc hw/timer/apictimer.32
 .comment       0x0000000000000000       0x12 hw/timer/apictimer.32
 .group         0x0000000000000000       0x14 hw/timer/pit.32
 .group         0x0000000000000000        0xc hw/timer/pit.32
 .comment       0x0000000000000000       0x12 hw/timer/pit.32
 .comment       0x0000000000000000       0x12 /cygdrive/d/Users/Alex/Desktop/Toolchain/Output/bin/../lib/gcc/i386-banana/8.1.0/crtend.o
 .comment       0x0000000000000000       0x12 /cygdrive/d/Users/Alex/Desktop/Toolchain/Output/bin/../lib/gcc/i386-banana/8.1.0/libgcc.a(_divdi3.o)
 .comment       0x0000000000000000       0x12 /cygdrive/d/Users/Alex/Desktop/Toolchain/Output/bin/../lib/gcc/i386-banana/8.1.0/libgcc.a(_moddi3.o)
 .comment       0x0000000000000000       0x12 /cygdrive/d/Users/Alex/Desktop/Toolchain/Output/bin/../lib/gcc/i386-banana/8.1.0/libgcc.a(_divmoddi4.o)
 .comment       0x0000000000000000       0x12 /cygdrive/d/Users/Alex/Desktop/Toolchain/Output/bin/../lib/gcc/i386-banana/8.1.0/libgcc.a(_udivdi3.o)
 .comment       0x0000000000000000       0x12 /cygdrive/d/Users/Alex/Desktop/Toolchain/Output/bin/../lib/gcc/i386-banana/8.1.0/libgcc.a(_umoddi3.o)
 .comment       0x0000000000000000       0x12 D:/Users/Alex/Desktop/Banana/kernel/libk/libm32.a(s_fabs.c.o)

Memory Configuration

Name             Origin             Length             Attributes
*default*        0x0000000000000000 0xffffffffffffffff

Linker script and memory map

LOAD D:/Users/Alex/Desktop/Banana/kernel/boot.32
LOAD crti.32
LOAD /cygdrive/d/Users/Alex/Desktop/Toolchain/Output/bin/../lib/gcc/i386-banana/8.1.0/crtbegin.o
LOAD D:/Users/Alex/Desktop/Banana/kernel/morenasm.32
LOAD acpica/dsargs.32
LOAD acpica/dscontrol.32
LOAD acpica/dsdebug.32
LOAD acpica/dsfield.32
LOAD acpica/dsinit.32
LOAD acpica/dsmethod.32
LOAD acpica/dsmthdat.32
LOAD acpica/dsobject.32
LOAD acpica/dsopcode.32
LOAD acpica/dspkginit.32
LOAD acpica/dsutils.32
LOAD acpica/dswexec.32
LOAD acpica/dswload.32
LOAD acpica/dswload2.32
LOAD acpica/dswscope.32
LOAD acpica/dswstate.32
LOAD acpica/evevent.32
LOAD acpica/evglock.32
LOAD acpica/evgpe.32
LOAD acpica/evgpeblk.32
LOAD acpica/evgpeinit.32
LOAD acpica/evgpeutil.32
LOAD acpica/evhandler.32
LOAD acpica/evmisc.32
LOAD acpica/evregion.32
LOAD acpica/evrgnini.32
LOAD acpica/evsci.32
LOAD acpica/evxface.32
LOAD acpica/evxfevnt.32
LOAD acpica/evxfgpe.32
LOAD acpica/evxfregn.32
LOAD acpica/exconcat.32
LOAD acpica/exconfig.32
LOAD acpica/exconvrt.32
LOAD acpica/excreate.32
LOAD acpica/exdebug.32
LOAD acpica/exdump.32
LOAD acpica/exfield.32
LOAD acpica/exfldio.32
LOAD acpica/exmisc.32
LOAD acpica/exmutex.32
LOAD acpica/exnames.32
LOAD acpica/exoparg1.32
LOAD acpica/exoparg2.32
LOAD acpica/exoparg3.32
LOAD acpica/exoparg6.32
LOAD acpica/exprep.32
LOAD acpica/exregion.32
LOAD acpica/exresnte.32
LOAD acpica/exresolv.32
LOAD acpica/exresop.32
LOAD acpica/exserial.32
LOAD acpica/exstore.32
LOAD acpica/exstoren.32
LOAD acpica/exstorob.32
LOAD acpica/exsystem.32
LOAD acpica/extrace.32
LOAD acpica/exutils.32
LOAD acpica/hwacpi.32
LOAD acpica/hwesleep.32
LOAD acpica/hwgpe.32
LOAD acpica/hwpci.32
LOAD acpica/hwregs.32
LOAD acpica/hwsleep.32
LOAD acpica/hwtimer.32
LOAD acpica/hwvalid.32
LOAD acpica/hwxface.32
LOAD acpica/hwxfsleep.32
LOAD acpica/nsaccess.32
LOAD acpica/nsalloc.32
LOAD acpica/nsarguments.32
LOAD acpica/nsconvert.32
LOAD acpica/nsdump.32
LOAD acpica/nsdumpdv.32
LOAD acpica/nseval.32
LOAD acpica/nsinit.32
LOAD acpica/nsload.32
LOAD acpica/nsnames.32
LOAD acpica/nsobject.32
LOAD acpica/nsparse.32
LOAD acpica/nspredef.32
LOAD acpica/nsprepkg.32
LOAD acpica/nsrepair.32
LOAD acpica/nsrepair2.32
LOAD acpica/nssearch.32
LOAD acpica/nsutils.32
LOAD acpica/nswalk.32
LOAD acpica/nsxfeval.32
LOAD acpica/nsxfname.32
LOAD acpica/nsxfobj.32
LOAD acpica/psargs.32
LOAD acpica/psloop.32
LOAD acpica/psobject.32
LOAD acpica/psopcode.32
LOAD acpica/psopinfo.32
LOAD acpica/psparse.32
LOAD acpica/psscope.32
LOAD acpica/pstree.32
LOAD acpica/psutils.32
LOAD acpica/pswalk.32
LOAD acpica/psxface.32
LOAD acpica/rsaddr.32
LOAD acpica/rscalc.32
LOAD acpica/rscreate.32
LOAD acpica/rsdump.32
LOAD acpica/rsdumpinfo.32
LOAD acpica/rsinfo.32
LOAD acpica/rsio.32
LOAD acpica/rsirq.32
LOAD acpica/rslist.32
LOAD acpica/rsmemory.32
LOAD acpica/rsmisc.32
LOAD acpica/rsserial.32
LOAD acpica/rsutils.32
LOAD acpica/rsxface.32
LOAD acpica/tbdata.32
LOAD acpica/tbfadt.32
LOAD acpica/tbfind.32
LOAD acpica/tbinstal.32
LOAD acpica/tbprint.32
LOAD acpica/tbutils.32
LOAD acpica/tbxface.32
LOAD acpica/tbxfload.32
LOAD acpica/tbxfroot.32
LOAD acpica/utaddress.32
LOAD acpica/utalloc.32
LOAD acpica/utascii.32
LOAD acpica/utbuffer.32
LOAD acpica/utcache.32
LOAD acpica/utclib.32
LOAD acpica/utcopy.32
LOAD acpica/utdebug.32
LOAD acpica/utdecode.32
LOAD acpica/utdelete.32
LOAD acpica/uterror.32
LOAD acpica/uteval.32
LOAD acpica/utexcep.32
LOAD acpica/utglobal.32
LOAD acpica/uthex.32
LOAD acpica/utids.32
LOAD acpica/utinit.32
LOAD acpica/utlock.32
LOAD acpica/utmath.32
LOAD acpica/utmisc.32
LOAD acpica/utmutex.32
LOAD acpica/utnonansi.32
LOAD acpica/utobject.32
LOAD acpica/utosi.32
LOAD acpica/utownerid.32
LOAD acpica/utpredef.32
LOAD acpica/utprint.32
LOAD acpica/utresdecode.32
LOAD acpica/utresrc.32
LOAD acpica/utstate.32
LOAD acpica/utstring.32
LOAD acpica/utstrsuppt.32
LOAD acpica/utstrtoul64.32
LOAD acpica/uttrack.32
LOAD acpica/utuuid.32
LOAD acpica/utxface.32
LOAD acpica/utxferror.32
LOAD acpica/utxfinit.32
LOAD acpica/utxfmutex.32
LOAD core/malloc.32
LOAD libk/string.32
LOAD fs/fat/diskio.32
LOAD fs/fat/ff.32
LOAD fs/fat/ffsystem.32
LOAD fs/fat/ffunicode.32
LOAD hal/libresample/samplerate.32
LOAD hal/libresample/src_linear.32
LOAD hal/libresample/src_sinc.32
LOAD hal/libresample/src_zoh.32
LOAD acpica/osl.32
LOAD core/computer.32
LOAD core/elf.32
LOAD core/gdt.32
LOAD core/idle.32
LOAD core/idt.32
LOAD core/kconsole.32
LOAD core/kheap.32
LOAD core/main.32
LOAD core/physmgr.32
LOAD core/pipe.32
LOAD core/prcssthr.32
LOAD core/syscalls.32
LOAD core/terminal.32
LOAD core/tss.32
LOAD core/unixfile.32
LOAD core/virtmgr.32
LOAD coreobjs/c++.32
LOAD debugger/debug.32
LOAD fs/vfs.32
LOAD hal/bus.32
LOAD hal/buzzer.32
LOAD hal/clock.32
LOAD hal/device.32
LOAD hal/diskctrl.32
LOAD hal/diskphys.32
LOAD hal/fpu.32
LOAD hal/intctrl.32
LOAD hal/keybrd.32
LOAD hal/logidisk.32
LOAD hal/partition.32
LOAD hal/timer.32
LOAD hal/vcache.32
LOAD hw/acpi.32
LOAD hw/cpu.32
LOAD hw/ports.32
LOAD registry/registry.32
LOAD syscalls/sc_exit.32
LOAD syscalls/sc_sbrk.32
LOAD syscalls/sc_yield.32
LOAD vm86/vm8086.32
LOAD fs/fat/vfslink.32
LOAD fs/iso9660/vfslink.32
LOAD hal/sound/sndchannel.32
LOAD hal/sound/sndhw.32
LOAD hw/audio/sb16.32
LOAD hw/bus/isa.32
LOAD hw/bus/pci.32
LOAD hw/bus/ps2.32
LOAD hw/bus/ps2port.32
LOAD hw/buzzer/pcspk.32
LOAD hw/clock/rtc.32
LOAD hw/diskctrl/ide.32
LOAD hw/diskphys/ata.32
LOAD hw/diskphys/atapi.32
LOAD hw/dma/isadma.32
LOAD hw/fpu/avx.32
LOAD hw/fpu/mmx.32
LOAD hw/fpu/sse.32
LOAD hw/fpu/x87.32
LOAD hw/intctrl/apic.32
LOAD hw/intctrl/pic.32
LOAD hw/keybrd/ps2key.32
LOAD hw/timer/apictimer.32
LOAD hw/timer/pit.32
LOAD hw/fpu/x86/avx.32
LOAD hw/fpu/x86/sse.32
LOAD hw/fpu/x86/x87.32
LOAD /cygdrive/d/Users/Alex/Desktop/Toolchain/Output/bin/../lib/gcc/i386-banana/8.1.0/crtend.o
LOAD crtn.32
LOAD /cygdrive/d/Users/Alex/Desktop/Toolchain/Output/bin/../lib/gcc/i386-banana/8.1.0/libgcc.a
LOAD D:/Users/Alex/Desktop/Banana/kernel/libk/libm32.a
                0x00000000c0000000                . = 0xc0000000

.text           0x00000000c0000000    0x50988
 *(.text)
 .text          0x00000000c0000000       0x39 D:/Users/Alex/Desktop/Banana/kernel/boot.32
                0x00000000c000001e                callGlobalConstructors
 .text          0x00000000c0000039        0x0 crti.32
 *fill*         0x00000000c0000039        0x3 
 .text          0x00000000c000003c      0x101 /cygdrive/d/Users/Alex/Desktop/Toolchain/Output/bin/../lib/gcc/i386-banana/8.1.0/crtbegin.o
 *fill*         0x00000000c000013d        0x3 
 .text          0x00000000c0000140      0x443 D:/Users/Alex/Desktop/Banana/kernel/morenasm.32
                0x00000000c0000140                doTPAUSE
                0x00000000c000014a                hasLegacyFPU
                0x00000000c000016f                is486
                0x00000000c00001d2                goToVM86
                0x00000000c0000203                goToUsermode
                0x00000000c000022e                switchToThreadASMFirstTime
                0x00000000c000023c                switchToThreadASM
                0x00000000c00002d4                detectCPUID
                0x00000000c00002ea                asmQuickAcquireLock
                0x00000000c0000308                asmQuickReleaseLock
                0x00000000c0000314                asmAcquireLock
                0x00000000c0000335                asmReleaseLock
                0x00000000c0000348                loadGDT
                0x00000000c0000368                isr0
                0x00000000c0000378                isr1
                0x00000000c0000382                isr2
                0x00000000c000038c                isr3
                0x00000000c0000396                isr4
                0x00000000c00003a0                isr5
                0x00000000c00003aa                isr6
                0x00000000c00003b4                isr7
                0x00000000c00003be                isr8
                0x00000000c00003c6                isr9
                0x00000000c00003d0                isr10
                0x00000000c00003d8                isr11
                0x00000000c00003e0                isr12
                0x00000000c00003e8                isr13
                0x00000000c00003f0                isr14
                0x00000000c00003f8                isr15
                0x00000000c0000402                isr16
                0x00000000c000040c                isr17
                0x00000000c0000416                isr18
                0x00000000c0000420                isr96
                0x00000000c000042a                irq0
                0x00000000c0000434                irq1
                0x00000000c000043e                irq2
                0x00000000c0000448                irq3
                0x00000000c0000452                irq4
                0x00000000c000045c                irq5
                0x00000000c0000466                irq6
                0x00000000c0000470                irq7
                0x00000000c000047a                irq8
                0x00000000c0000484                irq9
                0x00000000c000048e                irq10
                0x00000000c0000498                irq11
                0x00000000c00004a2                irq12
                0x00000000c00004ac                irq13
                0x00000000c00004b6                irq14
                0x00000000c00004c0                irq15
                0x00000000c00004ca                irq16
                0x00000000c00004d4                irq17
                0x00000000c00004de                irq18
                0x00000000c00004e8                irq19
                0x00000000c00004f2                irq20
                0x00000000c00004fc                irq21
                0x00000000c0000506                irq22
                0x00000000c0000510                irq23
                0x00000000c000051a                int_common_stub
                0x00000000c000054a                syscall_common_stub
 .text          0x00000000c0000583      0x3da acpica/dsargs.32
                0x00000000c0000712                AcpiDsGetBufferFieldArguments
                0x00000000c0000771                AcpiDsGetBankFieldArguments
                0x00000000c00007d0                AcpiDsGetBufferArguments
                0x00000000c0000841                AcpiDsGetPackageArguments
                0x00000000c00008b2                AcpiDsGetRegionArguments
 .text          0x00000000c000095d      0x47a acpica/dscontrol.32
                0x00000000c000095f                AcpiDsExecBeginControlOp
                0x00000000c0000a8f                AcpiDsExecEndControlOp
 .text          0x00000000c0000dd7        0x2 acpica/dsdebug.32
                0x00000000c0000dd7                AcpiDsDumpMethodStack
 .text          0x00000000c0000dd9      0x9f6 acpica/dsfield.32
                0x00000000c0000dd9                AcpiDsCreateBufferField
                0x00000000c00012cf                AcpiDsCreateField
                0x00000000c00013d9                AcpiDsInitFieldObjects
                0x00000000c000157a                AcpiDsCreateBankField
                0x00000000c00016ae                AcpiDsCreateIndexField
 .text          0x00000000c00017cf      0x22d acpica/dsinit.32
                0x00000000c000194a                AcpiDsInitializeObjects
 .text          0x00000000c00019fc      0x9d7 acpica/dsmethod.32
                0x00000000c0001a4b                AcpiDsAutoSerializeMethod
                0x00000000c0001b54                AcpiDsMethodError
                0x00000000c0001cb0                AcpiDsBeginMethodExecution
                0x00000000c0001f53                AcpiDsRestartControlMethod
                0x00000000c0001ff2                AcpiDsTerminateControlMethod
                0x00000000c00021d6                AcpiDsCallControlMethod
 .text          0x00000000c00023d3      0x743 acpica/dsmthdat.32
                0x00000000c00023d3                AcpiDsMethodDataInit
                0x00000000c00025bc                AcpiDsMethodDataDeleteAll
                0x00000000c0002689                AcpiDsMethodDataGetNode
                0x00000000c00027c4                AcpiDsMethodDataInitArgs
                0x00000000c000283b                AcpiDsMethodDataGetValue
                0x00000000c00029ca                AcpiDsStoreObjectToLocal
 .text          0x00000000c0002b16      0x736 acpica/dsobject.32
                0x00000000c0002b16                AcpiDsBuildInternalBufferObj
                0x00000000c0002c7f                AcpiDsInitObjectFromOp
                0x00000000c0003014                AcpiDsBuildInternalObject
                0x00000000c00031b6                AcpiDsCreateNode
 .text          0x00000000c000324c      0xa93 acpica/dsopcode.32
                0x00000000c000324c                AcpiDsInitializeRegion
                0x00000000c000355f                AcpiDsEvalBufferFieldOperands
                0x00000000c00036d0                AcpiDsEvalRegionOperands
                0x00000000c0003875                AcpiDsEvalTableRegionOperands
                0x00000000c0003a2f                AcpiDsEvalDataObjectOperands
                0x00000000c0003be3                AcpiDsEvalBankFieldOperands
 .text          0x00000000c0003cdf      0x597 acpica/dspkginit.32
                0x00000000c0003eb1                AcpiDsInitPackageElement
                0x00000000c0003f1d                AcpiDsBuildInternalPackageObj
 .text          0x00000000c0004276      0x956 acpica/dsutils.32
                0x00000000c0004278                AcpiDsClearImplicitReturn
                0x00000000c00042bb                AcpiDsDoImplicitReturn
                0x00000000c000432b                AcpiDsIsResultUsed
                0x00000000c00044bd                AcpiDsDeleteResultIfNotUsed
                0x00000000c0004535                AcpiDsResolveOperands
                0x00000000c0004591                AcpiDsClearOperands
                0x00000000c00045e5                AcpiDsCreateOperand
                0x00000000c0004950                AcpiDsCreateOperands
                0x00000000c0004a40                AcpiDsEvaluateNamePath
 .text          0x00000000c0004bcc      0xa84 acpica/dswexec.32
                0x00000000c0004bd4                AcpiDsGetPredicateValue
                0x00000000c0004df0                AcpiDsExecBeginOp
                0x00000000c0004fed                AcpiDsExecEndOp
 .text          0x00000000c0005650      0x6f7 acpica/dswload.32
                0x00000000c0005650                AcpiDsLoad1BeginOp
                0x00000000c00059b9                AcpiDsLoad1EndOp
                0x00000000c0005c77                AcpiDsInitCallbacks
 .text          0x00000000c0005d47      0x901 acpica/dswload2.32
                0x00000000c0005d47                AcpiDsLoad2BeginOp
                0x00000000c00061b6                AcpiDsLoad2EndOp
 .text          0x00000000c0006648      0x161 acpica/dswscope.32
                0x00000000c0006648                AcpiDsScopeStackClear
                0x00000000c0006688                AcpiDsScopeStackPush
                0x00000000c000674f                AcpiDsScopeStackPop
 .text          0x00000000c00067a9      0x8f5 acpica/dswstate.32
                0x00000000c0006839                AcpiDsResultPush
                0x00000000c0006a0c                AcpiDsResultPop
                0x00000000c0006b3e                AcpiDsObjStackPush
                0x00000000c0006bbd                AcpiDsObjStackPop
                0x00000000c0006c3f                AcpiDsObjStackPopAndDelete
                0x00000000c0006cbe                AcpiDsGetCurrentWalkState
                0x00000000c0006cd6                AcpiDsPushWalkState
                0x00000000c0006cf0                AcpiDsPopWalkState
                0x00000000c0006d15                AcpiDsCreateWalkState
                0x00000000c0006daa                AcpiDsInitAmlWalk
                0x00000000c0006f76                AcpiDsDeleteWalkState
 .text          0x00000000c000709e      0x307 acpica/evevent.32
                0x00000000c000709e                AcpiEvInstallXruptHandlers
                0x00000000c000719c                AcpiEvInitializeEvents
                0x00000000c00072bd                AcpiEvFixedEventDetect
 .text          0x00000000c00073a5      0x2d8 acpica/evglock.32
                0x00000000c0007426                AcpiEvInitGlobalLockHandler
                0x00000000c00074b2                AcpiEvRemoveGlobalLockHandler
                0x00000000c00074ea                AcpiEvAcquireGlobalLock
                0x00000000c00075f8                AcpiEvReleaseGlobalLock
 .text          0x00000000c000767d      0x960 acpica/evgpe.32
                0x00000000c000767d                AcpiEvUpdateGpeEnableMask
                0x00000000c00076eb                AcpiEvEnableGpe
                0x00000000c0007709                AcpiEvMaskGpe
                0x00000000c00077db                AcpiEvAddGpeReference
                0x00000000c000786e                AcpiEvRemoveGpeReference
                0x00000000c00078e9                AcpiEvLowGetGpeInfo
                0x00000000c000794a                AcpiEvGetGpeEventInfo
                0x00000000c00079d2                AcpiEvFinishGpe
                0x00000000c0007b91                AcpiEvGpeDispatch
                0x00000000c0007d03                AcpiEvDetectGpe
                0x00000000c0007e90                AcpiEvGpeDetect
 .text          0x00000000c0007fdd      0x726 acpica/evgpeblk.32
                0x00000000c00080a7                AcpiEvDeleteGpeBlock
                0x00000000c0008423                AcpiEvCreateGpeBlock
                0x00000000c0008598                AcpiEvInitializeGpeBlock
 .text          0x00000000c0008703      0x48d acpica/evgpeinit.32
                0x00000000c0008703                AcpiEvMatchGpeMethod
                0x00000000c000889a                AcpiEvGpeInitialize
                0x00000000c0008a9c                AcpiEvUpdateGpes
 .text          0x00000000c0008b90      0x407 acpica/evgpeutil.32
                0x00000000c0008b90                AcpiEvWalkGpeList
                0x00000000c0008c2f                AcpiEvGetGpeDevice
                0x00000000c0008c90                AcpiEvGetGpeXruptBlock
                0x00000000c0008dbf                AcpiEvDeleteGpeXrupt
                0x00000000c0008e89                AcpiEvDeleteGpeHandlers
 .text          0x00000000c0008f97      0x4a5 acpica/evhandler.32
                0x00000000c0008f97                AcpiEvHasDefaultHandler
                0x00000000c0008ff7                AcpiEvFindRegionHandler
                0x00000000c000912d                AcpiEvInstallSpaceHandler
                0x00000000c00093b2                AcpiEvInstallRegionHandlers
 .text          0x00000000c000943c      0x32c acpica/evmisc.32
                0x00000000c00094e3                AcpiEvIsNotifyObject
                0x00000000c0009509                AcpiEvQueueNotifyRequest
                0x00000000c0009619                AcpiEvTerminate
 .text          0x00000000c0009768      0x9c7 acpica/evregion.32
                0x00000000c0009768                AcpiEvAddressSpaceDispatch
                0x00000000c0009a69                AcpiEvAttachRegion
                0x00000000c0009ab9                AcpiEvExecuteRegMethod
                0x00000000c0009ca0                AcpiEvDetachRegion
                0x00000000c000a03a                AcpiEvExecuteRegMethods
                0x00000000c000a0a6                AcpiEvInitializeOpRegions
 .text          0x00000000c000a12f      0x535 acpica/evrgnini.32
                0x00000000c000a12f                AcpiEvSystemMemoryRegionSetup
                0x00000000c000a1dc                AcpiEvIoSpaceRegionSetup
                0x00000000c000a1ff                AcpiEvIsPciRootBridge
                0x00000000c000a2ca                AcpiEvPciConfigRegionSetup
                0x00000000c000a52b                AcpiEvPciBarRegionSetup
                0x00000000c000a531                AcpiEvCmosRegionSetup
                0x00000000c000a537                AcpiEvDefaultRegionSetup
                0x00000000c000a55a                AcpiEvInitializeRegion
 .text          0x00000000c000a664      0x1a4 acpica/evsci.32
                0x00000000c000a664                AcpiEvSciDispatch
                0x00000000c000a720                AcpiEvGpeXruptHandler
                0x00000000c000a749                AcpiEvInstallSciHandler
                0x00000000c000a77f                AcpiEvRemoveAllSciHandlers
 .text          0x00000000c000a808      0xcf1 acpica/evxface.32
                0x00000000c000a808                AcpiInstallNotifyHandler
                0x00000000c000aa63                AcpiRemoveNotifyHandler
                0x00000000c000ac87                AcpiInstallExceptionHandler
                0x00000000c000acd4                AcpiInstallSciHandler
                0x00000000c000adc2                AcpiRemoveSciHandler
                0x00000000c000aea7                AcpiInstallGlobalEventHandler
                0x00000000c000af09                AcpiInstallFixedEventHandler
                0x00000000c000afe4                AcpiRemoveFixedEventHandler
                0x00000000c000b27c                AcpiInstallGpeHandler
                0x00000000c000b2a6                AcpiInstallGpeRawHandler
                0x00000000c000b2d0                AcpiRemoveGpeHandler
                0x00000000c000b460                AcpiAcquireGlobalLock
                0x00000000c000b4bf                AcpiReleaseGlobalLock
 .text          0x00000000c000b4f9      0x38d acpica/evxfevnt.32
                0x00000000c000b4f9                AcpiEnable
                0x00000000c000b56b                AcpiDisable
                0x00000000c000b5cc                AcpiEnableEvent
                0x00000000c000b69a                AcpiDisableEvent
                0x00000000c000b767                AcpiClearEvent
                0x00000000c000b7bc                AcpiGetEventStatus
 .text          0x00000000c000b886      0xa22 acpica/evxfgpe.32
                0x00000000c000b886                AcpiUpdateAllGpes
                0x00000000c000b911                AcpiEnableGpe
                0x00000000c000b991                AcpiDisableGpe
                0x00000000c000b9f6                AcpiSetGpe
                0x00000000c000baa1                AcpiMaskGpe
                0x00000000c000bb13                AcpiMarkGpeForWake
                0x00000000c000bb7f                AcpiSetupGpeForWake
                0x00000000c000bd05                AcpiSetGpeWakeMask
                0x00000000c000be0f                AcpiClearGpe
                0x00000000c000be7d                AcpiGetGpeStatus
                0x00000000c000beee                AcpiDispatchGpe
                0x00000000c000bf09                AcpiFinishGpe
                0x00000000c000bf70                AcpiDisableAllGpes
                0x00000000c000bfab                AcpiEnableAllRuntimeGpes
                0x00000000c000bfe6                AcpiEnableAllWakeupGpes
                0x00000000c000c021                AcpiInstallGpeBlock
                0x00000000c000c171                AcpiRemoveGpeBlock
                0x00000000c000c23a                AcpiGetGpeDevice
 .text          0x00000000c000c2a8      0x1f7 acpica/evxfregn.32
                0x00000000c000c2a8                AcpiInstallAddressSpaceHandler
                0x00000000c000c34e                AcpiRemoveAddressSpaceHandler
 .text          0x00000000c000c49f      0x4fd acpica/exconcat.32
                0x00000000c000c53c                AcpiExDoConcatenate
                0x00000000c000c89a                AcpiExConcatTemplate
 .text          0x00000000c000c99c      0x62b acpica/exconfig.32
                0x00000000c000ca5f                AcpiExUnloadTable
                0x00000000c000cb16                AcpiExLoadTableOp
                0x00000000c000cd37                AcpiExLoadOp
 .text          0x00000000c000cfc7      0x74e acpica/exconvrt.32
                0x00000000c000cfc7                AcpiExConvertToInteger
                0x00000000c000d126                AcpiExConvertToBuffer
                0x00000000c000d384                AcpiExConvertToString
                0x00000000c000d5ce                AcpiExConvertToTargetType
 .text          0x00000000c000d715      0x52a acpica/excreate.32
                0x00000000c000d715                AcpiExCreateAlias
                0x00000000c000d797                AcpiExCreateEvent
                0x00000000c000d81a                AcpiExCreateMutex
                0x00000000c000d8c7                AcpiExCreateRegion
                0x00000000c000da27                AcpiExCreateProcessor
                0x00000000c000dad0                AcpiExCreatePowerResource
                0x00000000c000db64                AcpiExCreateMethod
 .text          0x00000000c000dc3f      0x557 acpica/exdebug.32
                0x00000000c000dc3f                AcpiExDoDebugObject
 .text          0x00000000c000e196        0x0 acpica/exdump.32
 .text          0x00000000c000e196      0x4d5 acpica/exfield.32
                0x00000000c000e196                AcpiExGetProtocolBufferLength
                0x00000000c000e1ea                AcpiExReadDataFromField
                0x00000000c000e411                AcpiExWriteDataToField
 .text          0x00000000c000e66b      0xed6 acpica/exfldio.32
                0x00000000c000e8ae                AcpiExAccessRegion
                0x00000000c000ea40                AcpiExInsertIntoField
                0x00000000c000f017                AcpiExWriteWithUpdateRule
                0x00000000c000f209                AcpiExExtractFromField
 .text          0x00000000c000f541      0x664 acpica/exmisc.32
                0x00000000c000f541                AcpiExGetObjectReference
                0x00000000c000f63c                AcpiExDoMathOp
                0x00000000c000f80d                AcpiExDoLogicalNumericOp
                0x00000000c000f911                AcpiExDoLogicalOp
 .text          0x00000000c000fba5      0x5d0 acpica/exmutex.32
                0x00000000c000fba5                AcpiExUnlinkMutex
                0x00000000c000fc4b                AcpiExAcquireMutexObject
                0x00000000c000fd20                AcpiExAcquireMutex
                0x00000000c000fe67                AcpiExReleaseMutexObject
                0x00000000c000ff06                AcpiExReleaseMutex
                0x00000000c00100e3                AcpiExReleaseAllMutexes
 .text          0x00000000c0010175      0x457 acpica/exnames.32
                0x00000000c001034d                AcpiExGetNameString
 .text          0x00000000c00105cc     0x1142 acpica/exoparg1.32
                0x00000000c00105cc                AcpiExOpcode_0A_0T_1R
                0x00000000c0010682                AcpiExOpcode_1A_0T_0R
                0x00000000c0010784                AcpiExOpcode_1A_1T_0R
                0x00000000c00107fe                AcpiExOpcode_1A_1T_1R
                0x00000000c0010fce                AcpiExOpcode_1A_0T_1R
 .text          0x00000000c001170e      0x8df acpica/exoparg2.32
                0x00000000c001170e                AcpiExOpcode_2A_0T_0R
                0x00000000c00117df                AcpiExOpcode_2A_2T_1R
                0x00000000c001195f                AcpiExOpcode_2A_1T_1R
                0x00000000c0011e0c                AcpiExOpcode_2A_0T_1R
 .text          0x00000000c0011fed      0x33c acpica/exoparg3.32
                0x00000000c0011fed                AcpiExOpcode_3A_0T_0R
                0x00000000c00120ec                AcpiExOpcode_3A_1T_1R
 .text          0x00000000c0012329      0x36c acpica/exoparg6.32
                0x00000000c0012436                AcpiExOpcode_6A_0T_1R
 .text          0x00000000c0012695      0x53f acpica/exprep.32
                0x00000000c001274f                AcpiExPrepCommonFieldObject
                0x00000000c00127e7                AcpiExPrepFieldValue
 .text          0x00000000c0012bd4      0x4b7 acpica/exregion.32
                0x00000000c0012bd4                AcpiExSystemMemorySpaceHandler
                0x00000000c0012ed9                AcpiExSystemIoSpaceHandler
                0x00000000c0012f56                AcpiExPciConfigSpaceHandler
                0x00000000c0012fe7                AcpiExCmosSpaceHandler
                0x00000000c0013005                AcpiExPciBarSpaceHandler
                0x00000000c0013023                AcpiExDataTableSpaceHandler
 .text          0x00000000c001308b      0x360 acpica/exresnte.32
                0x00000000c001308b                AcpiExResolveNodeToValue
 .text          0x00000000c00133eb      0x61b acpica/exresolv.32
                0x00000000c001362c                AcpiExResolveToValue
                0x00000000c00136ec                AcpiExResolveMultiple
 .text          0x00000000c0013a06      0x7cc acpica/exresop.32
                0x00000000c0013a93                AcpiExResolveOperands
 .text          0x00000000c00141d2      0x3a2 acpica/exserial.32
                0x00000000c00141d2                AcpiExReadGpio
                0x00000000c001421c                AcpiExWriteGpio
                0x00000000c0014280                AcpiExReadSerialBus
                0x00000000c00143d8                AcpiExWriteSerialBus
 .text          0x00000000c0014574      0x588 acpica/exstore.32
                0x00000000c001478b                AcpiExStoreObjectToNode
                0x00000000c001497a                AcpiExStore
 .text          0x00000000c0014afc      0x296 acpica/exstoren.32
                0x00000000c0014afc                AcpiExResolveObject
                0x00000000c0014c1a                AcpiExStoreObjectToObject
 .text          0x00000000c0014d92      0x202 acpica/exstorob.32
                0x00000000c0014d92                AcpiExStoreBufferToBuffer
                0x00000000c0014e89                AcpiExStoreStringToString
 .text          0x00000000c0014f94      0x206 acpica/exsystem.32
                0x00000000c0014f94                AcpiExSystemWaitSemaphore
                0x00000000c0014fee                AcpiExSystemWaitMutex
                0x00000000c0015048                AcpiExSystemDoStall
                0x00000000c0015094                AcpiExSystemDoSleep
                0x00000000c00150e8                AcpiExSystemSignalEvent
                0x00000000c0015117                AcpiExSystemWaitEvent
                0x00000000c0015151                AcpiExSystemResetEvent
 .text          0x00000000c001519a      0x1ec acpica/extrace.32
                0x00000000c0015205                AcpiExTracePoint
                0x00000000c0015214                AcpiExStartTraceMethod
                0x00000000c00152cb                AcpiExStopTraceMethod
                0x00000000c0015356                AcpiExStartTraceOpcode
                0x00000000c001536e                AcpiExStopTraceOpcode
 .text          0x00000000c0015386      0x525 acpica/exutils.32
                0x00000000c0015386                AcpiExEnterInterpreter
                0x00000000c00153f0                AcpiExExitInterpreter
                0x00000000c001545a                AcpiExTruncateFor32bitTable
                0x00000000c00154c0                AcpiExAcquireGlobalLock
                0x00000000c0015517                AcpiExReleaseGlobalLock
                0x00000000c00155ef                AcpiExEisaIdToString
                0x00000000c0015710                AcpiExIntegerToString
                0x00000000c0015789                AcpiExPciClsToString
                0x00000000c001587e                AcpiIsValidSpaceId
 .text          0x00000000c00158ab      0x1ae acpica/hwacpi.32
                0x00000000c00158ab                AcpiHwGetMode
                0x00000000c0015907                AcpiHwSetMode
 .text          0x00000000c0015a59      0x2a5 acpica/hwesleep.32
                0x00000000c0015a59                AcpiHwExecuteSleepMethod
                0x00000000c0015ad1                AcpiHwExtendedSleep
                0x00000000c0015c20                AcpiHwExtendedWakePrep
                0x00000000c0015c8b                AcpiHwExtendedWake
 .text          0x00000000c0015cfe      0x55c acpica/hwgpe.32
                0x00000000c0015cfe                AcpiHwGetGpeRegisterBit
                0x00000000c0015d28                AcpiHwLowSetGpe
                0x00000000c0015e5f                AcpiHwClearGpe
                0x00000000c0015ead                AcpiHwGetGpeStatus
                0x00000000c0016050                AcpiHwDisableGpeBlock
                0x00000000c00160ac                AcpiHwEnableRuntimeGpeBlock
                0x00000000c0016199                AcpiHwClearGpeBlock
                0x00000000c00161fa                AcpiHwDisableAllGpes
                0x00000000c001621a                AcpiHwEnableAllRuntimeGpes
                0x00000000c001623a                AcpiHwEnableAllWakeupGpes
 .text          0x00000000c001625a      0x338 acpica/hwpci.32
                0x00000000c0016538                AcpiHwDerivePciId
 .text          0x00000000c0016592      0xbfa acpica/hwregs.32
                0x00000000c00167af                AcpiHwValidateRegister
                0x00000000c00168f0                AcpiHwRead
                0x00000000c0016ae6                AcpiHwWrite
                0x00000000c0016c96                AcpiHwGetBitRegisterInfo
                0x00000000c0016cd0                AcpiHwWritePm1Control
                0x00000000c0016de8                AcpiHwRegisterRead
                0x00000000c0016f97                AcpiHwRegisterWrite
                0x00000000c001711f                AcpiHwClearAcpiStatus
 .text          0x00000000c001718c      0x417 acpica/hwsleep.32
                0x00000000c001718c                AcpiHwLegacySleep
                0x00000000c00173e7                AcpiHwLegacyWakePrep
                0x00000000c00174de                AcpiHwLegacyWake
 .text          0x00000000c00175a3      0x1a6 acpica/hwtimer.32
                0x00000000c00175a3                AcpiGetTimerResolution
                0x00000000c00175d8                AcpiGetTimer
                0x00000000c0017647                AcpiGetTimerDuration
 .text          0x00000000c0017749      0x331 acpica/hwvalid.32
                0x00000000c00178b2                AcpiHwReadPort
                0x00000000c00179a4                AcpiHwWritePort
 .text          0x00000000c0017a7a      0x47c acpica/hwxface.32
                0x00000000c0017a7a                AcpiReset
                0x00000000c0017b12                AcpiRead
                0x00000000c0017b31                AcpiWrite
                0x00000000c0017b5f                AcpiReadBitRegister
                0x00000000c0017bd9                AcpiWriteBitRegister
                0x00000000c0017cf9                AcpiGetSleepTypeData
 .text          0x00000000c0017ef6      0x3c1 acpica/hwxfsleep.32
                0x00000000c0017f68                AcpiSetFirmwareWakingVector
                0x00000000c0017fbd                AcpiEnterSleepStateS4bios
                0x00000000c0018105                AcpiEnterSleepStatePrep
                0x00000000c00181f4                AcpiEnterSleepState
                0x00000000c0018263                AcpiLeaveSleepStatePrep
                0x00000000c001828d                AcpiLeaveSleepState
 .text          0x00000000c00182b7      0x7cd acpica/nsaccess.32
                0x00000000c00182b7                AcpiNsRootInitialize
                0x00000000c001862e                AcpiNsLookup
 .text          0x00000000c0018a84      0x44a acpica/nsalloc.32
                0x00000000c0018a84                AcpiNsCreateNode
                0x00000000c0018ac0                AcpiNsDeleteNode
                0x00000000c0018b5c                AcpiNsRemoveNode
                0x00000000c0018bc5                AcpiNsInstallNode
                0x00000000c0018c79                AcpiNsDeleteChildren
                0x00000000c0018ced                AcpiNsDeleteNamespaceSubtree
                0x00000000c0018da3                AcpiNsDeleteNamespaceByOwner
 .text          0x00000000c0018ece      0x3ca acpica/nsarguments.32
                0x00000000c0018ece                AcpiNsCheckArgumentTypes
                0x00000000c0018fd6                AcpiNsCheckAcpiCompliance
                0x00000000c0019129                AcpiNsCheckArgumentCount
 .text          0x00000000c0019298      0x5e2 acpica/nsconvert.32
                0x00000000c0019298                AcpiNsConvertToInteger
                0x00000000c00193af                AcpiNsConvertToString
                0x00000000c00194b2                AcpiNsConvertToBuffer
                0x00000000c001960b                AcpiNsConvertToUnicode
                0x00000000c00196cf                AcpiNsConvertToResource
                0x00000000c0019783                AcpiNsConvertToReference
 .text          0x00000000c001987a        0x0 acpica/nsdump.32
 .text          0x00000000c001987a        0x0 acpica/nsdumpdv.32
 .text          0x00000000c001987a      0x38e acpica/nseval.32
                0x00000000c001987a                AcpiNsEvaluate
 .text          0x00000000c0019c08      0x6b7 acpica/nsinit.32
                0x00000000c0019e21                AcpiNsInitializeObjects
                0x00000000c0019e82                AcpiNsInitializeDevices
                0x00000000c001a04c                AcpiNsInitOnePackage
 .text          0x00000000c001a2bf       0xdb acpica/nsload.32
                0x00000000c001a2bf                AcpiNsLoadTable
 .text          0x00000000c001a39a      0x592 acpica/nsnames.32
                0x00000000c001a39a                AcpiNsHandleToName
                0x00000000c001a40d                AcpiNsBuildNormalizedPath
                0x00000000c001a566                AcpiNsGetPathnameLength
                0x00000000c001a5bd                AcpiNsHandleToPathname
                0x00000000c001a64b                AcpiNsGetNormalizedPathname
                0x00000000c001a6ce                AcpiNsGetExternalPathname
                0x00000000c001a7e2                AcpiNsBuildPrefixedPathname
 .text          0x00000000c001a92c      0x45a acpica/nsobject.32
                0x00000000c001a92c                AcpiNsDetachObject
                0x00000000c001aa18                AcpiNsAttachObject
                0x00000000c001ab86                AcpiNsGetAttachedObject
                0x00000000c001abee                AcpiNsGetSecondaryObject
                0x00000000c001ac24                AcpiNsAttachData
                0x00000000c001acc2                AcpiNsDetachData
                0x00000000c001ad3a                AcpiNsGetAttachedData
 .text          0x00000000c001ad86      0x359 acpica/nsparse.32
                0x00000000c001ad86                AcpiNsExecuteTable
                0x00000000c001af30                AcpiNsOneCompleteParse
                0x00000000c001b0c0                AcpiNsParseTable
 .text          0x00000000c001b0df      0x3b5 acpica/nspredef.32
                0x00000000c001b1ac                AcpiNsCheckObjectType
                0x00000000c001b37d                AcpiNsCheckReturnValue
 .text          0x00000000c001b494      0x9d3 acpica/nsprepkg.32
                0x00000000c001b9dc                AcpiNsCheckPackage
 .text          0x00000000c001be67      0x47e acpica/nsrepair.32
                0x00000000c001becb                AcpiNsRepairNullElement
                0x00000000c001bf84                AcpiNsRemoveNullElements
                0x00000000c001c018                AcpiNsWrapWithPackage
                0x00000000c001c066                AcpiNsSimpleRepair
 .text          0x00000000c001c2e5      0x9f8 acpica/nsrepair2.32
                0x00000000c001c6c5                AcpiNsComplexRepairs
 .text          0x00000000c001ccdd      0x27a acpica/nssearch.32
                0x00000000c001ccdd                AcpiNsSearchOneScope
                0x00000000c001cda5                AcpiNsSearchAndEnter
 .text          0x00000000c001cf57      0x819 acpica/nsutils.32
                0x00000000c001cf57                AcpiNsPrintNodePathname
                0x00000000c001cfd7                AcpiNsGetType
                0x00000000c001d00f                AcpiNsLocal
                0x00000000c001d05d                AcpiNsGetInternalNameLength
                0x00000000c001d136                AcpiNsBuildInternalName
                0x00000000c001d2dd                AcpiNsInternalizeName
                0x00000000c001d370                AcpiNsExternalizeName
                0x00000000c001d5b4                AcpiNsValidateHandle
                0x00000000c001d5e0                AcpiNsTerminate
                0x00000000c001d631                AcpiNsOpensScope
                0x00000000c001d670                AcpiNsGetNodeUnlocked
                0x00000000c001d726                AcpiNsGetNode
 .text          0x00000000c001d770      0x264 acpica/nswalk.32
                0x00000000c001d770                AcpiNsGetNextNode
                0x00000000c001d789                AcpiNsGetNextNodeTyped
                0x00000000c001d7de                AcpiNsWalkNamespace
 .text          0x00000000c001d9d4      0x94e acpica/nsxfeval.32
                0x00000000c001dc40                AcpiEvaluateObject
                0x00000000c001def9                AcpiEvaluateObjectTyped
                0x00000000c001e071                AcpiWalkNamespace
                0x00000000c001e12f                AcpiGetDevices
                0x00000000c001e1a2                AcpiAttachData
                0x00000000c001e225                AcpiDetachData
                0x00000000c001e29f                AcpiGetData
 .text          0x00000000c001e322      0x7f2 acpica/nsxfname.32
                0x00000000c001e322                AcpiGetHandle
                0x00000000c001e3d9                AcpiGetName
                0x00000000c001e4b9                AcpiGetObjectInfo
                0x00000000c001e8d0                AcpiInstallMethod
 .text          0x00000000c001eb14      0x1f1 acpica/nsxfobj.32
                0x00000000c001eb14                AcpiGetType
                0x00000000c001eba6                AcpiGetParent
                0x00000000c001ec34                AcpiGetNextObject
 .text          0x00000000c001ed05      0xb9c acpica/psargs.32
                0x00000000c001ed80                AcpiPsGetNextPackageEnd
                0x00000000c001eda7                AcpiPsGetNextNamestring
                0x00000000c001ee2d                AcpiPsGetNextNamepath
                0x00000000c001f06f                AcpiPsGetNextSimpleArg
                0x00000000c001f581                AcpiPsGetNextArg
 .text          0x00000000c001f8a1      0x8ef acpica/psloop.32
                0x00000000c001fac4                AcpiPsParseLoop
 .text          0x00000000c0020190      0xb0d acpica/psobject.32
                0x00000000c00202d5                AcpiPsBuildNamedOp
                0x00000000c0020497                AcpiPsCreateOp
                0x00000000c00206f6                AcpiPsCompleteOp
                0x00000000c0020b0e                AcpiPsCompleteFinalOp
 .text          0x00000000c0020c9d        0x0 acpica/psopcode.32
 .text          0x00000000c0020c9d       0x97 acpica/psopinfo.32
                0x00000000c0020c9d                AcpiPsGetOpcodeInfo
                0x00000000c0020d07                AcpiPsGetOpcodeName
                0x00000000c0020d1b                AcpiPsGetArgumentCount
 .text          0x00000000c0020d34      0x936 acpica/psparse.32
                0x00000000c0020d34                AcpiPsGetOpcodeSize
                0x00000000c0020d4e                AcpiPsPeekOpcode
                0x00000000c0020d90                AcpiPsCompleteThisOp
                0x00000000c00210a6                AcpiPsNextParseState
                0x00000000c00211fe                AcpiPsParseAml
 .text          0x00000000c002166a      0x1f4 acpica/psscope.32
                0x00000000c002166a                AcpiPsGetParentScope
                0x00000000c0021678                AcpiPsHasCompletedScope
                0x00000000c00216ac                AcpiPsInitScope
                0x00000000c0021712                AcpiPsPushScope
                0x00000000c0021795                AcpiPsPopScope
                0x00000000c002181d                AcpiPsCleanupScope
 .text          0x00000000c002185e      0x218 acpica/pstree.32
                0x00000000c002185e                AcpiPsGetArg
                0x00000000c00218d6                AcpiPsAppendArg
                0x00000000c00219ac                AcpiPsGetDepthNext
 .text          0x00000000c0021a76      0x1cc acpica/psutils.32
                0x00000000c0021a76                AcpiPsInitOp
                0x00000000c0021a97                AcpiPsAllocOp
                0x00000000c0021b61                AcpiPsCreateScopeOp
                0x00000000c0021b96                AcpiPsFreeOp
                0x00000000c0021bd9                AcpiPsIsLeadingChar
                0x00000000c0021bff                AcpiPsGetName
                0x00000000c0021c21                AcpiPsSetName
 .text          0x00000000c0021c42       0x99 acpica/pswalk.32
                0x00000000c0021c42                AcpiPsDeleteParseTree
 .text          0x00000000c0021cdb      0x4a2 acpica/psxface.32
                0x00000000c0021cdb                AcpiDebugTrace
                0x00000000c0021d35                AcpiPsExecuteTable
                0x00000000c0021f10                AcpiPsExecuteMethod
 .text          0x00000000c002217d       0xf7 acpica/rsaddr.32
                0x00000000c002217d                AcpiRsGetAddressCommon
                0x00000000c0022205                AcpiRsSetAddressCommon
 .text          0x00000000c0022274      0x7f5 acpica/rscalc.32
                0x00000000c00222ea                AcpiRsGetAmlLength
                0x00000000c00225a4                AcpiRsGetListLength
                0x00000000c0022940                AcpiRsGetPciRoutingTableLength
 .text          0x00000000c0022a69      0x567 acpica/rscreate.32
                0x00000000c0022a69                AcpiBufferToResource
                0x00000000c0022b24                AcpiRsCreateResourceList
                0x00000000c0022bc0                AcpiRsCreatePciRoutingTable
                0x00000000c0022f47                AcpiRsCreateAmlResources
 .text          0x00000000c0022fd0        0x0 acpica/rsdump.32
 .text          0x00000000c0022fd0        0x0 acpica/rsdumpinfo.32
 .text          0x00000000c0022fd0        0x0 acpica/rsinfo.32
 .text          0x00000000c0022fd0        0x0 acpica/rsio.32
 .text          0x00000000c0022fd0        0x0 acpica/rsirq.32
 .text          0x00000000c0022fd0      0x2a0 acpica/rslist.32
                0x00000000c0022fd0                AcpiRsConvertAmlToResources
                0x00000000c00230e4                AcpiRsConvertResourcesToAml
 .text          0x00000000c0023270        0x0 acpica/rsmemory.32
 .text          0x00000000c0023270      0xd8c acpica/rsmisc.32
                0x00000000c0023270                AcpiRsConvertAmlToResource
                0x00000000c00239fb                AcpiRsConvertResourceToAml
 .text          0x00000000c0023ffc        0x0 acpica/rsserial.32
 .text          0x00000000c0023ffc      0x61c acpica/rsutils.32
                0x00000000c0023ffc                AcpiRsDecodeBitmask
                0x00000000c002404a                AcpiRsEncodeBitmask
                0x00000000c002409b                AcpiRsMoveData
                0x00000000c0024173                AcpiRsSetResourceLength
                0x00000000c00241cb                AcpiRsSetResourceHeader
                0x00000000c0024242                AcpiRsGetResourceSource
                0x00000000c002431b                AcpiRsSetResourceSource
                0x00000000c0024380                AcpiRsGetPrtMethodData
                0x00000000c00243d3                AcpiRsGetCrsMethodData
                0x00000000c0024426                AcpiRsGetPrsMethodData
                0x00000000c0024479                AcpiRsGetAeiMethodData
                0x00000000c00244cc                AcpiRsGetMethodData
                0x00000000c002451d                AcpiRsSetSrsMethodData
 .text          0x00000000c0024618      0x698 acpica/rsxface.32
                0x00000000c0024757                AcpiGetIrqRoutingTable
                0x00000000c002479a                AcpiGetCurrentResources
                0x00000000c00247dd                AcpiGetPossibleResources
                0x00000000c0024820                AcpiSetCurrentResources
                0x00000000c0024883                AcpiGetEventResources
                0x00000000c00248c6                AcpiResourceToAddress64
                0x00000000c0024ae7                AcpiWalkResourceBuffer
                0x00000000c0024ba5                AcpiWalkResources
                0x00000000c0024c5a                AcpiGetVendorResource
 .text          0x00000000c0024cb0      0xd8f acpica/tbdata.32
                0x00000000c0024cb0                AcpiTbInitTableDescriptor
                0x00000000c0024d0f                AcpiTbAcquireTable
                0x00000000c0024d97                AcpiTbReleaseTable
                0x00000000c0024e73                AcpiTbAcquireTempTable
                0x00000000c0024f3a                AcpiTbValidateTable
                0x00000000c0024f8a                AcpiTbInvalidateTable
                0x00000000c0024fcd                AcpiTbReleaseTempTable
                0x00000000c0024fe4                AcpiTbValidateTempTable
                0x00000000c00250c9                AcpiTbVerifyTempTable
                0x00000000c002528f                AcpiTbResizeRootTableList
                0x00000000c0025441                AcpiTbGetNextTableDescriptor
                0x00000000c00254be                AcpiTbTerminate
                0x00000000c002555e                AcpiTbDeleteNamespaceByOwner
                0x00000000c0025617                AcpiTbAllocateOwnerId
                0x00000000c002567f                AcpiTbReleaseOwnerId
                0x00000000c00256eb                AcpiTbGetOwnerId
                0x00000000c0025751                AcpiTbIsTableLoaded
                0x00000000c00257b5                AcpiTbSetTableLoadedFlag
                0x00000000c0025881                AcpiTbNotifyTable
                0x00000000c00258ad                AcpiTbLoadTable
                0x00000000c0025936                AcpiTbInstallAndLoadTable
                0x00000000c00259ab                AcpiTbUnloadTable
 .text          0x00000000c0025a3f      0x8f3 acpica/tbfadt.32
                0x00000000c0026161                AcpiTbCreateLocalFadt
                0x00000000c0026204                AcpiTbParseFadt
 .text          0x00000000c0026332      0x27a acpica/tbfind.32
                0x00000000c0026332                AcpiTbFindTable
 .text          0x00000000c00265ac      0x47b acpica/tbinstal.32
                0x00000000c00265ac                AcpiTbUninstallTable
                0x00000000c0026619                AcpiTbOverrideTable
                0x00000000c002679f                AcpiTbInstallTableWithOverride
                0x00000000c002687f                AcpiTbInstallStandardTable
 .text          0x00000000c0026a27      0x2ae acpica/tbprint.32
                0x00000000c0026acb                AcpiTbPrintTableHeader
                0x00000000c0026c23                AcpiTbChecksum
                0x00000000c0026c55                AcpiTbVerifyChecksum
 .text          0x00000000c0026cd5      0x609 acpica/tbutils.32
                0x00000000c0026cd5                AcpiTbInitializeFacs
                0x00000000c0026d79                AcpiTbCheckDsdtHeader
                0x00000000c0026e03                AcpiTbCopyDsdt
                0x00000000c0026f68                AcpiTbParseRootTable
                0x00000000c00271fa                AcpiTbGetTable
                0x00000000c0027279                AcpiTbPutTable
 .text          0x00000000c00272de      0x62b acpica/tbxface.32
                0x00000000c00272de                AcpiAllocateRootTable
                0x00000000c00272fa                AcpiInitializeTables
                0x00000000c00273c4                AcpiReallocateRootTable
                0x00000000c002750e                AcpiGetTableHeader
                0x00000000c002768e                AcpiGetTable
                0x00000000c002774f                AcpiPutTable
                0x00000000c00277d1                AcpiGetTableByIndex
                0x00000000c0027851                AcpiInstallTableHandler
                0x00000000c00278b3                AcpiRemoveTableHandler
 .text          0x00000000c0027909      0x519 acpica/tbxfload.32
                0x00000000c0027909                AcpiTbLoadNamespace
                0x00000000c0027bab                AcpiLoadTables
                0x00000000c0027c30                AcpiInstallTable
                0x00000000c0027c80                AcpiLoadTable
                0x00000000c0027ce1                AcpiUnloadParentTable
                0x00000000c0027df9                AcpiUnloadTable
 .text          0x00000000c0027e22      0x2e0 acpica/tbxfroot.32
                0x00000000c0027e22                AcpiTbGetRsdpLength
                0x00000000c0027e62                AcpiTbValidateRsdp
                0x00000000c0027ed0                AcpiTbScanMemoryForRsdp
                0x00000000c0027f18                AcpiFindRootPointer
 .text          0x00000000c0028102      0x31c acpica/utaddress.32
                0x00000000c0028102                AcpiUtAddAddressRange
                0x00000000c00281ac                AcpiUtRemoveAddressRange
                0x00000000c0028233                AcpiUtCheckAddressRange
                0x00000000c00283c4                AcpiUtDeleteAddressLists
 .text          0x00000000c002841e      0x28d acpica/utalloc.32
                0x00000000c002841e                AcpiOsAllocateZeroed
                0x00000000c0028453                AcpiUtCreateCaches
                0x00000000c0028517                AcpiUtDeleteCaches
                0x00000000c00285ab                AcpiUtValidateBuffer
                0x00000000c00285f7                AcpiUtInitializeBuffer
 .text          0x00000000c00286ab       0xeb acpica/utascii.32
                0x00000000c00286ab                AcpiUtValidNameChar
                0x00000000c00286ed                AcpiUtValidNameseg
                0x00000000c002872d                AcpiUtCheckAndRepairAscii
 .text          0x00000000c0028796      0x2b9 acpica/utbuffer.32
                0x00000000c0028796                AcpiUtDumpBuffer
                0x00000000c0028a17                AcpiUtDebugDumpBuffer
 .text          0x00000000c0028a4f      0x2d4 acpica/utcache.32
                0x00000000c0028a4f                AcpiOsCreateCache
                0x00000000c0028ad7                AcpiOsPurgeCache
                0x00000000c0028b57                AcpiOsDeleteCache
                0x00000000c0028b8e                AcpiOsReleaseObject
                0x00000000c0028c41                AcpiOsAcquireObject
 .text          0x00000000c0028d23      0x6ff acpica/utclib.32
                0x00000000c0028d23                memcmp
                0x00000000c0028d7b                memmove
                0x00000000c0028de8                memcpy
                0x00000000c0028e5f                memset
                0x00000000c0028e88                strlen
                0x00000000c0028eab                strpbrk
                0x00000000c0028eed                strtok
                0x00000000c0028f7b                strcpy
                0x00000000c0028fad                strncpy
                0x00000000c0029001                strcmp
                0x00000000c0029043                strchr
                0x00000000c002906c                strncmp
                0x00000000c00290c8                strcat
                0x00000000c0029109                strncat
                0x00000000c0029165                strstr
                0x00000000c00291b8                toupper
                0x00000000c00291de                tolower
                0x00000000c0029204                simple_strtoul
 .text          0x00000000c0029422      0xaf8 acpica/utcopy.32
                0x00000000c002977f                AcpiUtCopyIobjectToEobject
                0x00000000c00299b1                AcpiUtCopyEobjectToIobject
                0x00000000c0029e7f                AcpiUtCopyIobjectToIobject
 .text          0x00000000c0029f1a        0x0 acpica/utdebug.32
 .text          0x00000000c0029f1a      0x1db acpica/utdecode.32
                0x00000000c0029f1a                AcpiUtGetRegionName
                0x00000000c0029f68                AcpiUtGetEventName
                0x00000000c0029f84                AcpiUtGetTypeName
                0x00000000c0029fa0                AcpiUtGetObjectTypeName
                0x00000000c0029fe5                AcpiUtGetNodeName
                0x00000000c002a040                AcpiUtGetDescriptorName
                0x00000000c002a073                AcpiUtGetReferenceName
                0x00000000c002a0c8                AcpiUtGetMutexName
                0x00000000c002a0e4                AcpiUtValidObjectType
 .text          0x00000000c002a0f5      0x83c acpica/utdelete.32
                0x00000000c002a0f5                AcpiUtRemoveReference
                0x00000000c002a62c                AcpiUtUpdateObjectReference
                0x00000000c002a8c3                AcpiUtAddReference
                0x00000000c002a8f4                AcpiUtDeleteInternalObjectList
 .text          0x00000000c002a931      0x28c acpica/uterror.32
                0x00000000c002a931                AcpiUtPredefinedWarning
                0x00000000c002a991                AcpiUtPredefinedInfo
                0x00000000c002a9f1                AcpiUtPredefinedBiosError
                0x00000000c002aa51                AcpiUtPrefixedNamespaceError
                0x00000000c002ab22                AcpiUtMethodError
 .text          0x00000000c002abbd      0x323 acpica/uteval.32
                0x00000000c002abbd                AcpiUtEvaluateObject
                0x00000000c002ad98                AcpiUtEvaluateNumericObject
                0x00000000c002ade5                AcpiUtExecute_STA
                0x00000000c002ae49                AcpiUtExecutePowerMethods
 .text          0x00000000c002aee0      0x124 acpica/utexcep.32
                0x00000000c002aee0                AcpiUtValidateException
                0x00000000c002afc2                AcpiFormatException
 .text          0x00000000c002b004        0x0 acpica/utglobal.32
 .text          0x00000000c002b004       0xea acpica/uthex.32
                0x00000000c002b004                AcpiUtHexToAsciiChar
                0x00000000c002b050                AcpiUtAsciiCharToHex
                0x00000000c002b077                AcpiUtAsciiToHexByte
 .text          0x00000000c002b0ee      0x4eb acpica/utids.32
                0x00000000c002b0ee                AcpiUtExecute_HID
                0x00000000c002b1ce                AcpiUtExecute_UID
                0x00000000c002b2ae                AcpiUtExecute_CID
                0x00000000c002b4a7                AcpiUtExecute_CLS
 .text          0x00000000c002b5d9      0x344 acpica/utinit.32
                0x00000000c002b661                AcpiUtInitGlobals
                0x00000000c002b8c0                AcpiUtSubsystemShutdown
 .text          0x00000000c002b91d      0x1c7 acpica/utlock.32
                0x00000000c002b91d                AcpiUtCreateRwLock
                0x00000000c002b96c                AcpiUtDeleteRwLock
                0x00000000c002b9b5                AcpiUtAcquireReadLock
                0x00000000c002ba30                AcpiUtReleaseReadLock
                0x00000000c002baa2                AcpiUtAcquireWriteLock
                0x00000000c002bac8                AcpiUtReleaseWriteLock
 .text          0x00000000c002bae4      0x210 acpica/utmath.32
                0x00000000c002bae4                AcpiUtShortMultiply
                0x00000000c002bb2f                AcpiUtShortShiftLeft
                0x00000000c002bb78                AcpiUtShortShiftRight
                0x00000000c002bbc1                AcpiUtShortDivide
                0x00000000c002bc52                AcpiUtDivide
 .text          0x00000000c002bcf4      0x2ca acpica/utmisc.32
                0x00000000c002bcf4                AcpiUtIsPciRootBridge
                0x00000000c002bd30                AcpiUtDwordByteSwap
                0x00000000c002bd59                AcpiUtSetIntegerWidth
                0x00000000c002bd9a                AcpiUtCreateUpdateStateAndPush
                0x00000000c002bdef                AcpiUtWalkPackageTree
 .text          0x00000000c002bfbe      0x371 acpica/utmutex.32
                0x00000000c002c029                AcpiUtMutexInitialize
                0x00000000c002c14b                AcpiUtMutexTerminate
                0x00000000c002c1c8                AcpiUtAcquireMutex
                0x00000000c002c283                AcpiUtReleaseMutex
 .text          0x00000000c002c32f       0xd0 acpica/utnonansi.32
                0x00000000c002c32f                AcpiUtStrlwr
                0x00000000c002c36f                AcpiUtStrupr
                0x00000000c002c3af                AcpiUtStricmp
 .text          0x00000000c002c3ff      0x5ff acpica/utobject.32
                0x00000000c002c3ff                AcpiUtValidInternalObject
                0x00000000c002c423                AcpiUtAllocateObjectDescDbg
                0x00000000c002c46c                AcpiUtDeleteObjectDesc
                0x00000000c002c4c1                AcpiUtCreateInternalObjectDbg
                0x00000000c002c563                AcpiUtCreatePackageObject
                0x00000000c002c5d7                AcpiUtCreateIntegerObject
                0x00000000c002c623                AcpiUtCreateBufferObject
                0x00000000c002c6ca                AcpiUtCreateStringObject
                0x00000000c002c9b5                AcpiUtGetObjectSize
 .text          0x00000000c002c9fe      0x4f3 acpica/utosi.32
                0x00000000c002c9fe                AcpiUtInitializeInterfaces
                0x00000000c002ca88                AcpiUtInterfaceTerminate
                0x00000000c002cb59                AcpiUtInstallInterface
                0x00000000c002cbf2                AcpiUtRemoveInterface
                0x00000000c002ccc8                AcpiUtUpdateInterfaces
                0x00000000c002cd59                AcpiUtGetInterface
                0x00000000c002cd9c                AcpiUtOsiImplementation
 .text          0x00000000c002cef1      0x246 acpica/utownerid.32
                0x00000000c002cef1                AcpiUtAllocateOwnerId
                0x00000000c002d055                AcpiUtReleaseOwnerId
 .text          0x00000000c002d137       0xfd acpica/utpredef.32
                0x00000000c002d137                AcpiUtGetNextPredefinedMethod
                0x00000000c002d161                AcpiUtMatchPredefinedMethod
                0x00000000c002d1b4                AcpiUtGetExpectedReturnTypes
 .text          0x00000000c002d234      0x9ed acpica/utprint.32
                0x00000000c002d35e                AcpiUtScanNumber
                0x00000000c002d3e1                AcpiUtPrintNumber
                0x00000000c002d6b7                vsnprintf
                0x00000000c002dbd0                snprintf
                0x00000000c002dbf9                sprintf
 .text          0x00000000c002dc21        0x0 acpica/utresdecode.32
 .text          0x00000000c002dc21      0x3ad acpica/utresrc.32
                0x00000000c002dc21                AcpiUtGetResourceType
                0x00000000c002dc3e                AcpiUtGetResourceLength
                0x00000000c002dc71                AcpiUtValidateResource
                0x00000000c002de04                AcpiUtGetResourceHeaderLength
                0x00000000c002de18                AcpiUtGetDescriptorLength
                0x00000000c002de45                AcpiUtWalkAmlResources
                0x00000000c002df84                AcpiUtGetResourceEndTag
 .text          0x00000000c002dfce      0x1ce acpica/utstate.32
                0x00000000c002dfce                AcpiUtPushGenericState
                0x00000000c002dfe6                AcpiUtPopGenericState
                0x00000000c002e009                AcpiUtCreateGenericState
                0x00000000c002e035                AcpiUtCreateThreadState
                0x00000000c002e0bb                AcpiUtCreateUpdateState
                0x00000000c002e0fc                AcpiUtCreatePkgState
                0x00000000c002e148                AcpiUtCreateControlState
                0x00000000c002e178                AcpiUtDeleteGenericState
 .text          0x00000000c002e19c      0x264 acpica/utstring.32
                0x00000000c002e19c                AcpiUtPrintString
                0x00000000c002e365                AcpiUtRepairName
 .text          0x00000000c002e400      0x425 acpica/utstrsuppt.32
                0x00000000c002e400                AcpiUtRemoveLeadingZeros
                0x00000000c002e426                AcpiUtRemoveWhitespace
                0x00000000c002e45b                AcpiUtRemoveHexPrefix
                0x00000000c002e498                AcpiUtDetectHexPrefix
                0x00000000c002e4c6                AcpiUtDetectOctalPrefix
                0x00000000c002e6ab                AcpiUtConvertOctalString
                0x00000000c002e725                AcpiUtConvertDecimalString
                0x00000000c002e7a8                AcpiUtConvertHexString
 .text          0x00000000c002e825      0x238 acpica/utstrtoul64.32
                0x00000000c002e825                AcpiUtStrtoul64
                0x00000000c002e937                AcpiUtImplicitStrtoul64
                0x00000000c002e9b3                AcpiUtExplicitStrtoul64
 .text          0x00000000c002ea5d        0x0 acpica/uttrack.32
 .text          0x00000000c002ea5d        0x0 acpica/utuuid.32
 .text          0x00000000c002ea5d      0x641 acpica/utxface.32
                0x00000000c002ea5d                AcpiTerminate
                0x00000000c002ea7a                AcpiSubsystemStatus
                0x00000000c002ea92                AcpiGetSystemInfo
                0x00000000c002eb48                AcpiGetStatistics
                0x00000000c002eb9e                AcpiInstallInitializationHandler
                0x00000000c002ebcd                AcpiPurgeCachedObjects
                0x00000000c002ec1e                AcpiInstallInterface
                0x00000000c002ecdf                AcpiRemoveInterface
                0x00000000c002ed53                AcpiInstallInterfaceHandler
                0x00000000c002edb7                AcpiUpdateInterfaces
                0x00000000c002ee14                AcpiCheckAddressRange
                0x00000000c002ee84                AcpiDecodePldBuffer
 .text          0x00000000c002f09e      0x245 acpica/utxferror.32
                0x00000000c002f09e                AcpiError
                0x00000000c002f0e7                AcpiException
                0x00000000c002f157                AcpiWarning
                0x00000000c002f1a0                AcpiInfo
                0x00000000c002f1e1                AcpiBiosError
                0x00000000c002f22a                AcpiBiosException
                0x00000000c002f29a                AcpiBiosWarning
 .text          0x00000000c002f2e3      0x218 acpica/utxfinit.32
                0x00000000c002f2e3                AcpiInitializeSubsystem
                0x00000000c002f3e1                AcpiEnableSubsystem
                0x00000000c002f4ac                AcpiInitializeObjects
 .text          0x00000000c002f4fb      0x129 acpica/utxfmutex.32
                0x00000000c002f58f                AcpiAcquireMutex
                0x00000000c002f5e0                AcpiReleaseMutex
 .text          0x00000000c002f624      0xfd0 core/malloc.32
                0x00000000c002f78f                dlfree
                0x00000000c002faec                dlmalloc
                0x00000000c0030038                dlrealloc
                0x00000000c00301ed                dlmemalign
                0x00000000c0030310                dlcalloc
                0x00000000c00303aa                dlcfree
                0x00000000c00303af                dlindependent_calloc
                0x00000000c00303d4                dlindependent_comalloc
                0x00000000c00303eb                dlvalloc
                0x00000000c0030416                dlpvalloc
                0x00000000c003044c                dlmalloc_trim
                0x00000000c0030459                dlmalloc_usable_size
                0x00000000c003048a                dlmallinfo
                0x00000000c0030559                dlmalloc_stats
                0x00000000c003056a                dlmallopt
 .text          0x00000000c00305f4        0x0 libk/string.32
 .text          0x00000000c00305f4       0x51 fs/fat/diskio.32
                0x00000000c00305f4                disk_status
                0x00000000c00305f7                disk_initialize
                0x00000000c00305fa                disk_read
                0x00000000c0030610                disk_write
                0x00000000c0030626                disk_ioctl
 .text          0x00000000c0030645     0x681b fs/fat/ff.32
                0x00000000c003390e                f_mount
                0x00000000c003396c                f_open
                0x00000000c0033da4                f_read
                0x00000000c0034024                f_write
                0x00000000c00342de                f_sync
                0x00000000c00344b6                f_close
                0x00000000c00344e5                f_lseek
                0x00000000c003499c                f_opendir
                0x00000000c0034a9e                f_closedir
                0x00000000c0034ac0                f_readdir
                0x00000000c0034b5b                f_stat
                0x00000000c0034bea                f_getfree
                0x00000000c0034db5                f_truncate
                0x00000000c0034ead                f_unlink
                0x00000000c0035031                f_mkdir
                0x00000000c003525d                f_rename
                0x00000000c003554c                f_chmod
                0x00000000c003562a                f_utime
                0x00000000c0035708                f_getlabel
                0x00000000c00358f6                f_setlabel
                0x00000000c0035b5f                f_forward
                0x00000000c0035d3d                f_mkfs
 .text          0x00000000c0036e60       0x2d fs/fat/ffsystem.32
                0x00000000c0036e60                ff_memalloc
                0x00000000c0036e76                ff_memfree
 .text          0x00000000c0036e8d      0x253 fs/fat/ffunicode.32
                0x00000000c0036e8d                ff_uni2oem
                0x00000000c0036f1d                ff_oem2uni
                0x00000000c0036f89                ff_wtoupper
 .text          0x00000000c00370e0      0x70b hal/libresample/samplerate.32
                0x00000000c0037168                src_delete
                0x00000000c00371a4                src_process
                0x00000000c00372c9                src_callback_read
                0x00000000c003742a                src_set_ratio
                0x00000000c0037481                src_get_channels
                0x00000000c00374a3                src_reset
                0x00000000c00374e7                src_new
                0x00000000c0037575                src_callback_new
                0x00000000c00375d7                src_get_name
                0x00000000c003760e                src_get_description
                0x00000000c0037645                src_get_version
                0x00000000c003764b                src_is_valid_ratio
                0x00000000c0037665                src_error
                0x00000000c0037673                src_strerror
                0x00000000c0037686                src_simple
                0x00000000c00376d9                src_short_to_float_array
                0x00000000c00376ff                src_float_to_short_array
                0x00000000c0037763                src_int_to_float_array
                0x00000000c0037789                src_float_to_int_array
 .text          0x00000000c00377eb      0x428 hal/libresample/src_linear.32
                0x00000000c0037b6e                linear_get_name
                0x00000000c0037b7d                linear_get_description
                0x00000000c0037b8c                linear_set_converter
 .text          0x00000000c0037c13     0x1b5a hal/libresample/src_sinc.32
                0x00000000c003957d                sinc_get_name
                0x00000000c0039590                sinc_get_description
                0x00000000c00395a3                sinc_set_converter
 .text          0x00000000c003976d      0x403 hal/libresample/src_zoh.32
                0x00000000c0039acb                zoh_get_name
                0x00000000c0039ada                zoh_get_description
                0x00000000c0039ae9                zoh_set_converter
 .text          0x00000000c0039b70      0xb85 acpica/osl.32
                0x00000000c0039b70                Subhandler
                0x00000000c0039b80                isblank
                0x00000000c0039b9c                iscntrl
                0x00000000c0039bb8                isdigit
                0x00000000c0039bcc                islower
                0x00000000c0039be0                isspace
                0x00000000c0039c04                isupper
                0x00000000c0039c18                isalpha
                0x00000000c0039c40                isalnum
                0x00000000c0039c6c                ispunct
                0x00000000c0039ca4                isgraph
                0x00000000c0039cd0                isprint
                0x00000000c0039cf4                isxdigit
                0x00000000c0039d1c                AcpiOsInitialize
                0x00000000c0039d20                AcpiOsTerminate
                0x00000000c0039d24                AcpiOsGetRootPointer
                0x00000000c0039d50                AcpiOsPredefinedOverride
                0x00000000c0039d74                AcpiOsTableOverride
                0x00000000c0039d84                AcpiOsPhysicalTableOverride
                0x00000000c0039d98                AcpiOsReadPort
                0x00000000c0039de4                AcpiOsWritePort
                0x00000000c0039e18                AcpiOsGetTimer
                0x00000000c0039e34                AcpiOsWaitEventsComplete
                0x00000000c0039e48                AcpiOsReadPciConfiguration
                0x00000000c0039ebc                AcpiOsWritePciConfiguration
                0x00000000c0039f48                AcpiOsSignal
                0x00000000c0039f7c                AcpiOsReadMemory
                0x00000000c003a014                AcpiOsEnterSleep
                0x00000000c003a018                AcpiOsWriteMemory
                0x00000000c003a098                AcpiOsMapMemory
                0x00000000c003a158                AcpiOsUnmapMemory
                0x00000000c003a15c                AcpiOsGetPhysicalAddress
                0x00000000c003a184                AcpiOsAllocate
                0x00000000c003a18c                AcpiOsFree
                0x00000000c003a194                AcpiOsReadable
                0x00000000c003a1a8                AcpiOsWritable
                0x00000000c003a1bc                AcpiOsGetThreadId
                0x00000000c003a1c4                AcpiOsExecute
                0x00000000c003a1d8                AcpiOsSleep
                0x00000000c003a1f8                AcpiOsStall
                0x00000000c003a248                AcpiOsCreateSemaphore
                0x00000000c003a278                AcpiOsDeleteSemaphore
                0x00000000c003a28c                AcpiOsWaitSemaphore
                0x00000000c003a334                AcpiOsSignalSemaphore
                0x00000000c003a360                AcpiOsCreateLock
                0x00000000c003a37c                AcpiOsDeleteLock
                0x00000000c003a380                AcpiOsAcquireLock
                0x00000000c003a388                AcpiOsReleaseLock
                0x00000000c003a390                AcpiOsInstallInterruptHandler
                0x00000000c003a3d0                AcpiOsRemoveInterruptHandler
                0x00000000c003a3e4                __i__int_str
                0x00000000c003a688                __i_displayCharacter
                0x00000000c003a6ac                __i_displayString
                0x00000000c003a6ec                __i_internal_printf
                0x00000000c003a6f0                AcpiOsVprintf
                0x00000000c003a6f4                AcpiOsPrintf
 *fill*         0x00000000c003a6f5        0x3 
 .text          0x00000000c003a6f8      0x73b core/computer.32
                0x00000000c003a6f8                Computer::close(int, int, void*)
                0x00000000c003a73c                Computer::Computer()
                0x00000000c003a73c                Computer::Computer()
                0x00000000c003a898                Computer::setBootMessage(char const*)
                0x00000000c003a89c                Computer::start()
                0x00000000c003aa08                firstTask()
                0x00000000c003aa18                Computer::detectFeatures()
                0x00000000c003abf8                Computer::displayFeatures()
                0x00000000c003abfc                Computer::rdmsr(unsigned int)
                0x00000000c003ac2c                Computer::wrmsr(unsigned int, unsigned long long)
                0x00000000c003ac68                Computer::nmiEnabled()
                0x00000000c003ac74                Computer::readCMOS(unsigned char)
                0x00000000c003ac90                Computer::enableNMI(bool)
                0x00000000c003aca8                Computer::open(int, int, void*)
                0x00000000c003ad70                Computer::disableNMI()
                0x00000000c003ad80                Computer::writeCMOS(unsigned char, unsigned char)
                0x00000000c003ada0                Computer::handleNMI()
                0x00000000c003ae08                Computer::setDiskActivityLight(int, bool)
 .text          0x00000000c003ae33      0xe65 core/elf.32
                0x00000000c003ae33                allocateMemoryForTask(Process*, File*, unsigned long, unsigned long, unsigned long)
                0x00000000c003b0b0                loadProgramIntoMemory(Process*, char const*)
                0x00000000c003b2d4                runtimeReferenceHelper()
                0x00000000c003b2e7                getAddressOfKernelSymbol(char const*)
                0x00000000c003b336                loadKernelSymbolTable(char const*)
                0x00000000c003b5fe                loadDriverIntoMemory(char const*, unsigned long)
                0x00000000c003bbc1                loadDLL(char const*)
                0x00000000c003bc8a                executeDLL(unsigned long, void*)
 .text          0x00000000c003bc98      0x19f core/gdt.32
                0x00000000c003bc98                GDTEntry::setBase(unsigned int)
                0x00000000c003bcb4                GDTEntry::setLimit(unsigned int)
                0x00000000c003bcd4                GDT::GDT()
                0x00000000c003bcd4                GDT::GDT()
                0x00000000c003bcea                GDT::addEntry(GDTEntry)
                0x00000000c003bd0c                GDT::getNumberOfEntries()
                0x00000000c003bd14                GDT::flush()
                0x00000000c003bd36                GDT::setup()
 .text          0x00000000c003be37       0x61 core/idle.32
                0x00000000c003be37                idleFunction(void*)
 .text          0x00000000c003be98      0x3dd core/idt.32
                0x00000000c003be98                IDTEntry::IDTEntry(bool)
                0x00000000c003be98                IDTEntry::IDTEntry(bool)
                0x00000000c003bf06                IDTEntry::setOffset(unsigned int)
                0x00000000c003bf1a                IDT::IDT()
                0x00000000c003bf1a                IDT::IDT()
                0x00000000c003bf1c                IDT::getPointerToInvalidOpcodeEntryForF00F()
                0x00000000c003bf24                IDT::addEntry(IDTEntry, int)
                0x00000000c003bf3e                IDT::addEntry(int, void (*)(), bool)
                0x00000000c003bf76                IDT::flush()
                0x00000000c003bf90                IDT::setup()
 *fill*         0x00000000c003c275        0x3 
 .text          0x00000000c003c278      0x560 core/kconsole.32
                0x00000000c003c278                stringifyxWithBase(unsigned int, char*, int)
                0x00000000c003c2e0                logc(char)
                0x00000000c003c2fc                logs(char*)
                0x00000000c003c31c                logWriteInt(unsigned int)
                0x00000000c003c33c                logWriteIntBase(unsigned int, int)
                0x00000000c003c35c                kprintf(char const*, ...)
                0x00000000c003c48c                panic(char const*)
 .text          0x00000000c003c7d8      0x1d6 core/kheap.32
                0x00000000c003c7d8                sbrk
                0x00000000c003c8b9                mmap
                0x00000000c003c8cf                munmap
                0x00000000c003c8e5                liballoc_lock()
                0x00000000c003c8f6                liballoc_unlock()
                0x00000000c003c907                liballoc_alloc(int)
                0x00000000c003c922                liballoc_free(void*, int)
                0x00000000c003c940                realloc
                0x00000000c003c954                malloc
                0x00000000c003c964                free
                0x00000000c003c974                rfree
                0x00000000c003c984                calloc
 *fill*         0x00000000c003c9ae        0x2 
 .text          0x00000000c003c9b0      0x3a4 core/main.32
                0x00000000c003c9b0                hwTextMode_loadInData(VgaText*)
                0x00000000c003c9fc                hwTextMode_loadInTitle(VgaText*, char*)
                0x00000000c003ca40                hwTextMode_showCursor(VgaText*, bool)
                0x00000000c003ca98                hwTextMode_update(VgaText*)
                0x00000000c003ca9c                hwTextMode_updateCursor(VgaText*)
                0x00000000c003cae4                hwTextMode_disableBlink(VgaText*, bool)
                0x00000000c003cb20                hwTextMode_scrollScreen(VgaText*)
                0x00000000c003cba8                hwTextMode_writeCharacter(VgaText*, char, VgaColour, VgaColour, int, int)
                0x00000000c003cc08                setupTextMode()
                0x00000000c003cc5c                kernel_main
 .text          0x00000000c003cd54      0x491 core/physmgr.32
                0x00000000c003cd54                PhysMem::allocateDMA(unsigned long)
                0x00000000c003ce00                PhysMem::freeDMA(unsigned long, unsigned long)
                0x00000000c003ce4c                PhysMem::setPageState(unsigned long, bool)
                0x00000000c003ce80                PhysMem::getPageState(unsigned long)
                0x00000000c003ce9c                PhysMem::freePage(unsigned long)
                0x00000000c003cf2c                PhysMem::allocatePage()
                0x00000000c003cff0                PhysMem::allowSegmentToBeUsed(unsigned long, unsigned long)
                0x00000000c003d02c                PhysMem::physicalMemorySetup(unsigned int)
 *fill*         0x00000000c003d1e5        0x3 
 .text          0x00000000c003d1e8      0x273 core/pipe.32
                0x00000000c003d1e8                Pipe::isAtty()
                0x00000000c003d1ec                Pipe::~Pipe()
                0x00000000c003d1ec                Pipe::~Pipe()
                0x00000000c003d210                Pipe::~Pipe()
                0x00000000c003d238                Pipe::read(unsigned long long, void*, int*)
                0x00000000c003d32c                Pipe::write(unsigned long long, void*, int*)
                0x00000000c003d3f4                Pipe::Pipe(int)
                0x00000000c003d3f4                Pipe::Pipe(int)
 *fill*         0x00000000c003d45b        0x1 
 .text          0x00000000c003d45c     0x1132 core/prcssthr.32
                0x00000000c003d45c                changeTSS
                0x00000000c003d48a                Process::addArgs(char**)
                0x00000000c003d4e4                Process::Process(char const*, Process*, char**)
                0x00000000c003d4e4                Process::Process(char const*, Process*, char**)
                0x00000000c003d69c                Process::Process(bool, char const*, Process*, char**)
                0x00000000c003d69c                Process::Process(bool, char const*, Process*, char**)
                0x00000000c003d81f                disableIRQs()
                0x00000000c003d827                getIRQNestingLevel()
                0x00000000c003d82d                enableIRQs()
                0x00000000c003d83c                lockScheduler()
                0x00000000c003d83e                unlockScheduler()
                0x00000000c003d840                userModeEntryPoint(void*)
                0x00000000c003d863                lockStuff()
                0x00000000c003d86f                taskStartupFunction
                0x00000000c003d878                updateTimeUsed()
                0x00000000c003d8d6                switchToThread(ThreadControlBlock*)
                0x00000000c003d926                Semaphore::Semaphore(int)
                0x00000000c003d926                Semaphore::Semaphore(int)
                0x00000000c003d954                Mutex::Mutex()
                0x00000000c003d954                Mutex::Mutex()
                0x00000000c003d966                Process::createThread(void (*)(void*), void*, int)
                0x00000000c003da4a                Process::createUserThread()
                0x00000000c003da66                setupMultitasking(void (*)())
                0x00000000c003db70                schedule()
                0x00000000c003dbf0                unlockStuff()
                0x00000000c003dc25                forkProcess(regs*)
                0x00000000c003dd94                Semaphore::tryAcquire()
                0x00000000c003ddc2                Semaphore::assertLocked(char const*)
                0x00000000c003ddf5                blockTaskWithSchedulerLockAlreadyHeld(TaskState)
                0x00000000c003de37                blockTask(TaskState)
                0x00000000c003de58                waitTask(int, int*, int)
                0x00000000c003de90                nanoSleepUntil(unsigned long long)
                0x00000000c003dee2                nanoSleep(unsigned long long)
                0x00000000c003def7                sleep(unsigned long long)
                0x00000000c003df14                Semaphore::acquire()
                0x00000000c003df7c                execveProcess(char const*, char* const*, char* const*)
                0x00000000c003e00a                taskReturned
                0x00000000c003e044                unblockTask(ThreadControlBlock*)
                0x00000000c003e0f3                cleanupTerminatedTask(ThreadControlBlock*)
                0x00000000c003e390                cleanerTaskFunction(void*)
                0x00000000c003e420                terminateTask(int)
                0x00000000c003e4a2                Semaphore::release()
 *fill*         0x00000000c003e58e        0x2 
 .text          0x00000000c003e590      0xec6 core/syscalls.32
                0x00000000c003e590                sysCallGetPID(regs*)
                0x00000000c003e59c                sysCallSeekDir(regs*)
                0x00000000c003e5a4                sysCallTellDir(regs*)
                0x00000000c003e5ac                sysCallVerify(regs*)
                0x00000000c003e5b8                sysCallGetArgc(regs*)
                0x00000000c003e5c8                sysFormatDisk(regs*)
                0x00000000c003e634                sysSetDiskVolumeLabel(regs*)
                0x00000000c003e67c                sysGetDiskVolumeLabel(regs*)
                0x00000000c003e6d0                sysShutdown(regs*)
                0x00000000c003e71c                sysCallWrite(regs*)
                0x00000000c003e78c                sysCallRead(regs*)
                0x00000000c003e7fc                sysCallReadDir(regs*)
                0x00000000c003e86c                sysCallIsATTY(regs*)
                0x00000000c003e8c4                sysCallGetCwd(regs*)
                0x00000000c003e8e4                sysCallSetCwd(regs*)
                0x00000000c003e900                sysCallRealpath(regs*)
                0x00000000c003e944                sysCallOpen(regs*)
                0x00000000c003ea38                sysCallSeek(regs*)
                0x00000000c003ea8c                sysCallTell(regs*)
                0x00000000c003eadc                sysCallSizeFromFilename(regs*)
                0x00000000c003eb58                sysCallSize(regs*)
                0x00000000c003ebac                sysCallClose(regs*)
                0x00000000c003ebfc                sysCallOpenDir(regs*)
                0x00000000c003ec6c                sysCallMakeDir(regs*)
                0x00000000c003ecc8                sysCallCloseDir(regs*)
                0x00000000c003ed18                sysCallWait(regs*)
                0x00000000c003ed34                sysCallFork(regs*)
                0x00000000c003ed50                sysCallExecve(regs*)
                0x00000000c003eda8                sysCallRmdir(regs*)
                0x00000000c003edfc                sysCallUnlink(regs*)
                0x00000000c003ee50                sysCallGetArgv(regs*)
                0x00000000c003eea0                sysCallTTYName(regs*)
                0x00000000c003ef20                sysCallGetEnv(regs*)
                0x00000000c003ef78                sysCallUSleep(regs*)
                0x00000000c003efa0                sysCallSpawn(regs*)
                0x00000000c003f014                sysAppSettings(regs*)
                0x00000000c003f138                sysSetFatAttrib(regs*)
                0x00000000c003f198                sysPanic(regs*)
                0x00000000c003f1c0                sysPipe(regs*)
                0x00000000c003f208                sysGetUnixTime(regs*)
                0x00000000c003f21c                string_ends_with(char const*, char const*)
                0x00000000c003f265                setupSystemCalls()
                0x00000000c003f414                systemCall(regs*, void*)
 *fill*         0x00000000c003f456        0x2 
 .text          0x00000000c003f458      0xf53 core/terminal.32
                0x00000000c003f458                VgaText::isAtty()
                0x00000000c003f45c                VgaText::~VgaText()
                0x00000000c003f45c                VgaText::~VgaText()
                0x00000000c003f480                VgaText::~VgaText()
                0x00000000c003f4aa                VgaText::read(unsigned long long, void*, int*)
                0x00000000c003f4ca                setTerminalScrollLock(bool)
                0x00000000c003f4cb                addToTerminalCycle(VgaText*)
                0x00000000c003f4f8                installVgaTextImplementation()
                0x00000000c003f50d                scrollTerminalScrollLock(int)
                0x00000000c003f50e                VgaText::load()
                0x00000000c003f562                VgaText::updateCursor()
                0x00000000c003f57c                VgaText::showCursor(bool)
                0x00000000c003f58c                VgaText::disableBlink(bool)
                0x00000000c003f5c6                VgaText::doANSI_SGR(int)
                0x00000000c003f652                VgaText::setDefaultBgColour(VgaColour)
                0x00000000c003f668                VgaText::setDefaultFgColour(VgaColour)
                0x00000000c003f67e                VgaText::setDefaultColours(VgaColour, VgaColour)
                0x00000000c003f69e                VgaText::combineColours(unsigned char, unsigned char)
                0x00000000c003f6b0                VgaText::scrollScreen()
                0x00000000c003f744                VgaText::combineCharAndColour(char, unsigned char)
                0x00000000c003f756                VgaText::writeCharacter(char, VgaColour, VgaColour, int, int)
                0x00000000c003f7b6                VgaText::getCursorX()
                0x00000000c003f7c2                VgaText::getCursorY()
                0x00000000c003f7ce                VgaText::setCursor(int, int)
                0x00000000c003f7ec                VgaText::setCursorX(int)
                0x00000000c003f808                VgaText::setCursorY(int)
                0x00000000c003f824                VgaText::incrementCursor(bool)
                0x00000000c003f88c                VgaText::updateRAMUsageDisplay(int)
                0x00000000c003f8e6                VgaText::updateDiskUsage()
                0x00000000c003fa38                VgaText::updateTitle()
                0x00000000c003fa7e                VgaText::setTitleTextColour(VgaColour)
                0x00000000c003fa8e                VgaText::setTitleColour(VgaColour)
                0x00000000c003fa9e                VgaText::setTitle(char*)
                0x00000000c003fac4                VgaText::decrementCursor(bool)
                0x00000000c003faec                VgaText::putchar(char, VgaColour, VgaColour)
                0x00000000c003fbe8                VgaText::isShowingCursor()
                0x00000000c003fbf4                VgaText::isBlinkDisabled()
                0x00000000c003fc02                VgaText::setCursorHeight(int)
                0x00000000c003fc20                VgaText::getCursorHeight()
                0x00000000c003fc2b                setActiveTerminal(VgaText*)
                0x00000000c003fcdd                doTerminalCycle()
                0x00000000c003fcfa                VgaText::doUpdate()
                0x00000000c003fd0c                VgaText::puts(char const*, VgaColour, VgaColour)
                0x00000000c003fecc                VgaText::clearScreen()
                0x00000000c003ff30                VgaText::putchar(char)
                0x00000000c004004a                VgaText::puts(char const*)
                0x00000000c0040070                VgaText::putx(unsigned int)
                0x00000000c00400b8                VgaText::VgaText(char const*)
                0x00000000c00400b8                VgaText::VgaText(char const*)
                0x00000000c004024a                VgaText::receiveKey(unsigned char)
                0x00000000c0040332                VgaText::write(unsigned long long, void*, int*)
                0x00000000c0040386                newTerminal(char*)
 *fill*         0x00000000c00403ab        0x1 
 .text          0x00000000c00403ac      0x106 core/tss.32
                0x00000000c00403ac                TSS::TSS()
                0x00000000c00403ac                TSS::TSS()
                0x00000000c00403ae                TSS::setESP(unsigned long)
                0x00000000c00403ca                TSS::setup(unsigned long)
 *fill*         0x00000000c00404b2        0x2 
 .text          0x00000000c00404b4      0x335 core/unixfile.32
                0x00000000c00404b4                ReservedFilename::isAtty()
                0x00000000c00404ca                ReservedFilename::read(unsigned long long, void*, int*)
                0x00000000c004055c                ReservedFilename::write(unsigned long long, void*, int*)
                0x00000000c00405f2                UnixFile::getFileDescriptor()
                0x00000000c00405fc                UnixFile::UnixFile(int)
                0x00000000c00405fc                UnixFile::UnixFile(int)
                0x00000000c0040638                ReservedFilename::ReservedFilename(int)
                0x00000000c0040638                ReservedFilename::ReservedFilename(int)
                0x00000000c0040660                UnixFile::~UnixFile()
                0x00000000c0040660                UnixFile::~UnixFile()
                0x00000000c00406e8                UnixFile::~UnixFile()
                0x00000000c0040710                ReservedFilename::~ReservedFilename()
                0x00000000c0040710                ReservedFilename::~ReservedFilename()
                0x00000000c0040734                ReservedFilename::~ReservedFilename()
                0x00000000c004075b                getFromFileDescriptor(int)
 *fill*         0x00000000c00407e9        0x3 
 .text          0x00000000c00407ec     0x1080 core/virtmgr.32
                0x00000000c00407ec                VirtMem::setPageState(unsigned long, VirtMem::VirtPageState)
                0x00000000c0040824                VirtMem::getPageState(unsigned long)
                0x00000000c0040848                VirtMem::allocateKernelVirtualPages(int)
                0x00000000c0040964                VirtMem::virtualMemorySetup()
                0x00000000c00409e8                VirtMem::getAKernelVAS()
                0x00000000c00409f0                VirtMem::setupPageSwapping(int)
                0x00000000c0040b1c                VAS::VAS()
                0x00000000c0040b1c                VAS::VAS()
                0x00000000c0040b4c                VAS::getForeignPageTableEntry(bool, unsigned long)
                0x00000000c0040b78                VAS::getPageTableEntry(unsigned long)
                0x00000000c0040b98                VirtMem::freeKernelVirtualPages(unsigned long)
                0x00000000c0040cc0                VAS::freeAllocatedPages(unsigned long)
                0x00000000c0040ce8                VAS::virtualToPhysical(unsigned long)
                0x00000000c0040d00                VAS::mapOtherVASIn(bool, VAS*)
                0x00000000c0040d4c                VAS::~VAS()
                0x00000000c0040d4c                VAS::~VAS()
                0x00000000c0040eb8                VAS::mapForeignPage(bool, VAS*, unsigned long, unsigned long, int)
                0x00000000c0040f60                VAS::mapPage(unsigned long, unsigned long, int)
                0x00000000c0041010                VAS::allocatePages(int, int)
                0x00000000c0041170                VAS::mapRange(unsigned long, unsigned long, int, int)
                0x00000000c0041230                VAS::VAS(VAS*)
                0x00000000c0041230                VAS::VAS(VAS*)
                0x00000000c004157c                VAS::VAS(bool)
                0x00000000c004157c                VAS::VAS(bool)
                0x00000000c0041794                mapVASFirstTime
 .text          0x00000000c004186c       0x93 coreobjs/c++.32
                0x00000000c004186c                __cxa_atexit
                0x00000000c004186f                __cxa_finalize
                0x00000000c0041870                __stack_chk_fail
                0x00000000c00418d0                __cxa_pure_virtual
                0x00000000c00418e1                operator new(unsigned long)
                0x00000000c00418e6                operator new[](unsigned long)
                0x00000000c00418eb                operator delete(void*)
                0x00000000c00418f0                operator delete(void*, unsigned long)
                0x00000000c00418f5                operator delete[](void*)
                0x00000000c00418fa                operator delete[](void*, unsigned long)
 .text          0x00000000c00418ff        0x0 debugger/debug.32
 *fill*         0x00000000c00418ff        0x1 
 .text          0x00000000c0041900      0xb5e fs/vfs.32
                0x00000000c0041900                File::read(unsigned long long, void*, int*)
                0x00000000c0041958                File::write(unsigned long long, void*, int*)
                0x00000000c00419b0                Directory::read(unsigned long long, void*, int*)
                0x00000000c0041a08                Directory::write(unsigned long long, void*, int*)
                0x00000000c0041a36                File::isAtty()
                0x00000000c0041a3a                Directory::isAtty()
                0x00000000c0041a3e                Filesystem::getlabel(LogicalDisk*, int, char*, unsigned int*)
                0x00000000c0041a44                Filesystem::setlabel(LogicalDisk*, int, char*)
                0x00000000c0041a4c                File::~File()
                0x00000000c0041a4c                File::~File()
                0x00000000c0041a70                File::~File()
                0x00000000c0041a9c                Directory::~Directory()
                0x00000000c0041a9c                Directory::~Directory()
                0x00000000c0041ac0                Directory::~Directory()
                0x00000000c0041aec                Filesystem::Filesystem()
                0x00000000c0041aec                Filesystem::Filesystem()
                0x00000000c0041b10                Filesystem::~Filesystem()
                0x00000000c0041b10                Filesystem::~Filesystem()
                0x00000000c0041b20                Filesystem::~Filesystem()
                0x00000000c0041b44                initVFS()
                0x00000000c0041b5a                standardiseFiles(char*, char const*, char const*)
                0x00000000c0041d04                File::File(char const*, Process*)
                0x00000000c0041d04                File::File(char const*, Process*)
                0x00000000c0041d68                File::open(FileOpenMode)
                0x00000000c0041dc6                File::close()
                0x00000000c0041e26                File::seek(unsigned long long)
                0x00000000c0041e7c                File::tell(unsigned long long*)
                0x00000000c0041ecc                File::rewind()
                0x00000000c0041ee0                File::unlink()
                0x00000000c0041f2c                File::rename(char const*)
                0x00000000c0041f7a                File::chfatattr(unsigned char, unsigned char)
                0x00000000c0041fd6                File::exists()
                0x00000000c0042014                File::stat(unsigned long long*, bool*)
                0x00000000c0042075                getcwd(Process*, char*, int)
                0x00000000c004209f                setcwd(Process*, char*)
                0x00000000c00421c8                Directory::Directory(char const*, Process*)
                0x00000000c00421c8                Directory::Directory(char const*, Process*)
                0x00000000c004222c                Directory::open()
                0x00000000c0042288                Directory::close()
                0x00000000c00422e8                Directory::unlink()
                0x00000000c0042334                Directory::rename(char const*)
                0x00000000c0042382                Directory::exists()
                0x00000000c00423c0                Directory::read(dirent*)
                0x00000000c004240c                Directory::create()
                0x00000000c0042458                Filesystem::chfatattr(char const*, unsigned char, unsigned char)
 .text          0x00000000c004245e       0x84 hal/bus.32
                0x00000000c004245e                Bus::Bus(char const*)
                0x00000000c004245e                Bus::Bus(char const*)
                0x00000000c0042494                Bus::~Bus()
                0x00000000c0042494                Bus::~Bus()
                0x00000000c00424b8                Bus::~Bus()
 .text          0x00000000c00424e2      0x146 hal/buzzer.32
                0x00000000c00424e2                Buzzer::Buzzer(char const*)
                0x00000000c00424e2                Buzzer::Buzzer(char const*)
                0x00000000c0042526                Buzzer::~Buzzer()
                0x00000000c0042526                Buzzer::~Buzzer()
                0x00000000c004254a                Buzzer::~Buzzer()
                0x00000000c0042574                Buzzer::stop()
                0x00000000c0042587                beepThread(void*)
                0x00000000c00425ba                Buzzer::beep(int, int, bool)
 .text          0x00000000c0042628      0x433 hal/clock.32
                0x00000000c0042628                loadClockSettings()
                0x00000000c0042644                Clock::Clock(char const*)
                0x00000000c0042644                Clock::Clock(char const*)
                0x00000000c004267c                Clock::~Clock()
                0x00000000c004267c                Clock::~Clock()
                0x00000000c00426a0                Clock::~Clock()
                0x00000000c00426ca                Clock::timeInSecondsLocal()
                0x00000000c0042712                Clock::setTimeInSecondsLocal(unsigned long long)
                0x00000000c004276b                datetimeToSeconds(datetime_t)
                0x00000000c0042892                Clock::setTimeInDatetimeLocal(datetime_t)
                0x00000000c00428f2                secondsToDatetime(unsigned long long)
                0x00000000c0042a36                Clock::timeInDatetimeLocal()
 *fill*         0x00000000c0042a5b        0x1 
 .text          0x00000000c0042a5c      0x506 hal/device.32
                0x00000000c0042a5c                Device::hibernate()
                0x00000000c0042a5e                Device::wake()
                0x00000000c0042a60                Device::detect()
                0x00000000c0042a62                Device::disableLegacy()
                0x00000000c0042a64                Device::powerSaving(PowerSavingLevel)
                0x00000000c0042a66                DriverlessDevice::close(int, int, void*)
                0x00000000c0042a6a                DriverlessDevice::detect()
                0x00000000c0042a6c                DriverlessDevice::open(int, int, void*)
                0x00000000c0042a80                Device::~Device()
                0x00000000c0042a80                Device::~Device()
                0x00000000c0042a90                Device::~Device()
                0x00000000c0042ab8                Device::findAndLoadDriver()
                0x00000000c0042aba                Device::preOpenPCI(PCIDeviceInfo)
                0x00000000c0042ae0                Device::preOpenACPI(void*, char*, char*)
                0x00000000c0042b34                Device::addIRQHandler(int, void (*)(regs*, void*), bool, void*)
                0x00000000c0042b92                Device::removeIRQHandler(int, void (*)(regs*, void*), bool)
                0x00000000c0042be0                Device::addChild(Device*)
                0x00000000c0042c24                Device::removeAllChildren()
                0x00000000c0042c6a                Device::hibernateAll()
                0x00000000c0042c9a                Device::wakeAll()
                0x00000000c0042cca                Device::detectAll()
                0x00000000c0042cfa                Device::disableLegacyAll()
                0x00000000c0042d2a                Device::loadDriversForAll()
                0x00000000c0042d56                Device::closeAll()
                0x00000000c0042d8c                Device::powerSavingAll(PowerSavingLevel)
                0x00000000c0042dc2                Device::setName(char const*)
                0x00000000c0042dd0                Device::Device(char const*)
                0x00000000c0042dd0                Device::Device(char const*)
                0x00000000c0042ec2                Device::getName()
                0x00000000c0042ecc                DriverlessDevice::DriverlessDevice(char const*)
                0x00000000c0042ecc                DriverlessDevice::DriverlessDevice(char const*)
                0x00000000c0042ef4                Device::addToLinkedList(LinkedList<Device>&, DeviceType)
                0x00000000c0042f38                getDevicesOfType(DeviceType)
 .text          0x00000000c0042f62       0x84 hal/diskctrl.32
                0x00000000c0042f62                HardDiskController::HardDiskController(char const*)
                0x00000000c0042f62                HardDiskController::HardDiskController(char const*)
                0x00000000c0042f98                HardDiskController::~HardDiskController()
                0x00000000c0042f98                HardDiskController::~HardDiskController()
                0x00000000c0042fbc                HardDiskController::~HardDiskController()
 .text          0x00000000c0042fe6       0xde hal/diskphys.32
                0x00000000c0042fe6                PhysicalDisk::PhysicalDisk(char const*, int)
                0x00000000c0042fe6                PhysicalDisk::PhysicalDisk(char const*, int)
                0x00000000c004304e                PhysicalDisk::startCache()
                0x00000000c0043076                PhysicalDisk::~PhysicalDisk()
                0x00000000c0043076                PhysicalDisk::~PhysicalDisk()
                0x00000000c004309a                PhysicalDisk::~PhysicalDisk()
 .text          0x00000000c00430c4      0x128 hal/fpu.32
                0x00000000c00430c4                FPU::FPU(char const*)
                0x00000000c00430c4                FPU::FPU(char const*)
                0x00000000c00430fa                FPU::~FPU()
                0x00000000c00430fa                FPU::~FPU()
                0x00000000c004311e                FPU::~FPU()
                0x00000000c0043148                setupFPU()
 .text          0x00000000c00431ec      0xaab hal/intctrl.32
                0x00000000c00431ec                InterruptController::uninstallISRHandler(int, void (*)(regs*, void*))
                0x00000000c0043228                InterruptController::installISRHandler(int, void (*)(regs*, void*), void*)
                0x00000000c004327c                doubleFault(regs*, void*)
                0x00000000c004328c                InterruptController::installIRQHandler(int, void (*)(regs*, void*), bool, void*)
                0x00000000c004332c                InterruptController::clearAllHandlers(int, bool)
                0x00000000c00433d8                InterruptController::uninstallIRQHandler(int, void (*)(regs*, void*), bool)
                0x00000000c0043464                nmiHandler(regs*, void*)
                0x00000000c0043474                int_handler
                0x00000000c0043510                InterruptController::InterruptController(char const*)
                0x00000000c0043510                InterruptController::InterruptController(char const*)
                0x00000000c00435b8                InterruptController::~InterruptController()
                0x00000000c00435b8                InterruptController::~InterruptController()
                0x00000000c00435dc                InterruptController::~InterruptController()
                0x00000000c0043608                displayDebugInfo(regs*)
                0x00000000c0043868                displayProgramFault(char const*)
                0x00000000c0043894                gpFault(regs*, void*)
                0x00000000c00438ec                pgFault(regs*, void*)
                0x00000000c0043924                otherISRHandler(regs*, void*)
                0x00000000c0043960                opcodeFault(regs*, void*)
                0x00000000c00439ec                InterruptController::convertLegacyIRQNumber(int)
                0x00000000c0043a38                setupInterruptController()
 *fill*         0x00000000c0043c97        0x1 
 .text          0x00000000c0043c98      0x67a hal/keybrd.32
                0x00000000c0043c98                sendKeyToTerminal(unsigned char)
                0x00000000c0043cf4                sendKeyboardToken(KeyboardToken)
                0x00000000c00441f0                clearInternalKeybuffer(VgaText*)
                0x00000000c0044218                readKeyboard(VgaText*, char*, unsigned long)
                0x00000000c0044288                Keyboard::Keyboard(char const*)
                0x00000000c0044288                Keyboard::Keyboard(char const*)
                0x00000000c00442c4                Keyboard::~Keyboard()
                0x00000000c00442c4                Keyboard::~Keyboard()
                0x00000000c00442e8                Keyboard::~Keyboard()
 *fill*         0x00000000c0044312        0x2 
 .text          0x00000000c0044314      0x400 hal/logidisk.32
                0x00000000c0044314                LogicalDisk::close(int, int, void*)
                0x00000000c0044318                LogicalDisk::~LogicalDisk()
                0x00000000c0044318                LogicalDisk::~LogicalDisk()
                0x00000000c004433c                LogicalDisk::~LogicalDisk()
                0x00000000c0044366                LogicalDisk::open(int, int, void*)
                0x00000000c004437a                LogicalDisk::absoluteToRelative(unsigned long long)
                0x00000000c00443b2                LogicalDisk::relativeToAbsolute(unsigned long long)
                0x00000000c00443f8                LogicalDisk::LogicalDisk(char const*, PhysicalDisk*, unsigned long long, unsigned long long)
                0x00000000c00443f8                LogicalDisk::LogicalDisk(char const*, PhysicalDisk*, unsigned long long, unsigned long long)
                0x00000000c00444ae                LogicalDisk::assignDriveLetter()
                0x00000000c0044564                LogicalDisk::mount()
                0x00000000c00445d6                LogicalDisk::unmount()
                0x00000000c00445e6                LogicalDisk::unassignDriveLetter()
                0x00000000c004463c                LogicalDisk::read(unsigned long long, int, void*)
                0x00000000c00446a8                LogicalDisk::write(unsigned long long, int, void*)
 .text          0x00000000c0044714      0x302 hal/partition.32
                0x00000000c0044714                makePartition(PhysicalDisk*, unsigned long long, unsigned long long)
                0x00000000c00447bc                createPartitionsForDisk(PhysicalDisk*)
 .text          0x00000000c0044a16      0x2e7 hal/timer.32
                0x00000000c0044a16                Timer::Timer(char const*)
                0x00000000c0044a16                Timer::Timer(char const*)
                0x00000000c0044a4c                Timer::~Timer()
                0x00000000c0044a4c                Timer::~Timer()
                0x00000000c0044a70                Timer::~Timer()
                0x00000000c0044a9a                Timer::read()
                0x00000000c0044aa5                timerHandler(unsigned long long)
                0x00000000c0044bdc                setupTimer(int)
 *fill*         0x00000000c0044cfd        0x1 
 .text          0x00000000c0044cfe      0x1a6 hal/vcache.32
                0x00000000c0044cfe                VCache::~VCache()
                0x00000000c0044cfe                VCache::~VCache()
                0x00000000c0044d0c                VCache::~VCache()
                0x00000000c0044d30                VCache::VCache(PhysicalDisk*)
                0x00000000c0044d30                VCache::VCache(PhysicalDisk*)
                0x00000000c0044e20                VCache::write(unsigned long long, int, void*)
                0x00000000c0044e62                VCache::read(unsigned long long, int, void*)
 .text          0x00000000c0044ea4     0x1a86 hw/acpi.32
                0x00000000c0044ea4                acpiGlobalEventHandler(unsigned int, void*, unsigned int, void*)
                0x00000000c0044ed8                acpiWalkAscendingCallback(void*, unsigned int, void*, void**)
                0x00000000c0044ede                ACPI::close(int, int, void*)
                0x00000000c0044f93                acpicaShutdown()
                0x00000000c0044fc7                acpicaSleep()
                0x00000000c0045003                acpicaReset()
                0x00000000c0045010                findRSDP()
                0x00000000c004509a                loadACPITables(unsigned char*)
                0x00000000c00452c1                findRSDT(unsigned char*)
                0x00000000c00453df                findDataTable(unsigned char*, char*)
                0x00000000c004547b                scanMADT()
                0x00000000c0045810                ACPI::ACPI()
                0x00000000c0045810                ACPI::ACPI()
                0x00000000c004586f                acpicaSetBrightness(void*, int)
                0x00000000c00458b8                ACPI::getPCIIRQAssignment(unsigned char, unsigned short, unsigned char)
                0x00000000c004599a                ACPI::registerPCIIRQAssignment(void*, unsigned short, unsigned char, unsigned char)
                0x00000000c0045a5f                acpiDynamicIrqCallback(acpi_resource*, void*)
                0x00000000c0045b5a                acpiWalkCallback(void*, unsigned int, void*, void**)
                0x00000000c0045d50                ACPI::setScreenBrightnessLevel(void*, int)
                0x00000000c0045d6a                acpiWalkDescendingCallback(void*, unsigned int, void*, void**)
                0x00000000c00464a8                ACPI::writeSimpleBootFlag(SimpleBootFlagTable*)
                0x00000000c00464f0                ACPI::open(int, int, void*)
                0x00000000c0046912                ACPI::sleep()
 *fill*         0x00000000c004692a        0x2 
 .text          0x00000000c004692c     0x12da hw/cpu.32
                0x00000000c004692c                CPU::close(int, int, void*)
                0x00000000c004692f                lookupAMDCPUName(unsigned char, unsigned char)
                0x00000000c0046ac3                lookupIntelCPUName(unsigned char, unsigned char)
                0x00000000c0046d71                AMD_K6_write_msr(unsigned int, unsigned int, unsigned int, REGS*)
                0x00000000c0046d8d                AMD_K6_read_msr(unsigned int, REGS*)
                0x00000000c0046da5                AMD_K6_writeback(int, int, int)
                0x00000000c0046e18                cpuid(int, unsigned long*, unsigned long*, unsigned long*, unsigned long*)
                0x00000000c0046e9b                cpuidCheckEDX(unsigned int)
                0x00000000c0046ec8                cpuidCheckECX(unsigned int)
                0x00000000c0046ef5                cpuidCheckExtendedEBX(unsigned int)
                0x00000000c0046f22                cpuidCheckExtendedECX(unsigned int)
                0x00000000c0046f4f                getCPUNumber()
                0x00000000c0046f52                thisCPU()
                0x00000000c0046f68                CPU::CPU()
                0x00000000c0046f68                CPU::CPU()
                0x00000000c0046fe8                CPU::displayFeatures()
                0x00000000c0046fea                CPU::readCR0()
                0x00000000c0046fee                CPU::detectFeatures()
                0x00000000c00479e4                CPU::readCR2()
                0x00000000c00479e8                CPU::readCR3()
                0x00000000c00479ec                CPU::readCR4()
                0x00000000c00479f0                CPU::writeCR0(unsigned long)
                0x00000000c00479f8                CPU::writeCR3(unsigned long)
                0x00000000c0047a00                CPU::writeCR4(unsigned long)
                0x00000000c0047a08                CPU::setupSMEP()
                0x00000000c0047a22                CPU::setupUMIP()
                0x00000000c0047a3a                CPU::setupTSC()
                0x00000000c0047a52                CPU::setupLargePages()
                0x00000000c0047a6a                CPU::setupPAT()
                0x00000000c0047aa6                CPU::setupMTRR()
                0x00000000c0047aa8                CPU::setupGlobalPages()
                0x00000000c0047ac0                CPU::allowUsermodeDataAccess()
                0x00000000c0047ad2                CPU::prohibitUsermodeDataAccess()
                0x00000000c0047ae4                CPU::setupSMAP()
                0x00000000c0047b04                CPU::setupFeatures()
                0x00000000c0047b84                CPU::open(int, int, void*)
 .text          0x00000000c0047c06        0x0 hw/ports.32
 .text          0x00000000c0047c06      0x49d registry/registry.32
                0x00000000c0047c06                Registry::findLineFromLoadedData(char*, char*, char*)
                0x00000000c0047d5e                Registry::getLineFromRegistry(char*, char*, char*, char*)
                0x00000000c0047ebd                Registry::getLine(char*, char*, char*)
                0x00000000c0047ef4                Registry::readInt(char*, char*, int*)
                0x00000000c0047f79                Registry::readString(char*, char*, char*, int)
                0x00000000c0047ffa                Registry::readBool(char*, char*, bool*)
                0x00000000c004801f                Registry::readBoolWithDefault(char*, char*, bool)
                0x00000000c004804b                Registry::readIntWithDefault(char*, char*, int)
                0x00000000c0048077                Registry::readStringWithDefault(char*, char*, char*, int, char*)
 .text          0x00000000c00480a3       0x18 syscalls/sc_exit.32
                0x00000000c00480a3                sysCallExit(regs*)
 .text          0x00000000c00480bb       0x55 syscalls/sc_sbrk.32
                0x00000000c00480bb                sysCallSbrk(regs*)
 .text          0x00000000c0048110       0x1a syscalls/sc_yield.32
                0x00000000c0048110                sysCallYield(regs*)
 .text          0x00000000c004812a     0x14e4 vm86/vm8086.32
                0x00000000c004812a                vm8086EntryPoint(void*)
                0x00000000c004818e                inbv(unsigned short)
                0x00000000c00481cf                outbv(unsigned short, unsigned char)
                0x00000000c0048223                realToLinear(unsigned short, unsigned short)
                0x00000000c004824b                getSegment(unsigned int)
                0x00000000c0048253                getOffset(unsigned int)
                0x00000000c0048258                loadVM8086FileAsThread(Process*, char const*, unsigned short, unsigned short, unsigned short, unsigned short)
                0x00000000c00484fa                vm8086DoISR(regs*, int, unsigned char*, unsigned short, unsigned short)
                0x00000000c0048602                readByteFromReal(unsigned short, unsigned short)
                0x00000000c0048634                readWordFromReal(unsigned short, unsigned short)
                0x00000000c0048667                readDwordFromReal(unsigned short, unsigned short)
                0x00000000c0048699                writeByteFromReal(unsigned short, unsigned short, unsigned char)
                0x00000000c00486da                writeWordFromReal(unsigned short, unsigned short, unsigned short)
                0x00000000c004871b                writeDwordFromReal(unsigned short, unsigned short, unsigned int)
                0x00000000c0048752                vm8086FaultHandler(regs*)
 .text          0x00000000c004960e     0x1064 fs/fat/vfslink.32
                0x00000000c004960e                FAT::getName()
                0x00000000c0049614                FAT::tell(void*, unsigned long long*)
                0x00000000c0049648                FAT::stat(void*, unsigned long long*)
                0x00000000c004967c                FAT::exists(char const*)
                0x00000000c0049680                FAT::~FAT()
                0x00000000c0049680                FAT::~FAT()
                0x00000000c00496a4                FAT::~FAT()
                0x00000000c00496cc                FAT::getlabel(LogicalDisk*, int, char*, unsigned int*)
                0x00000000c004976a                FAT::setlabel(LogicalDisk*, int, char*)
                0x00000000c0049824                FAT::format(LogicalDisk*, int, char const*, int)
                0x00000000c0049a08                FAT::tryMount(LogicalDisk*, int)
                0x00000000c0049bec                FAT::readDir(void*, unsigned long, void*, int*)
                0x00000000c0049cf2                FAT::read(void*, unsigned long, void*, int*)
                0x00000000c0049d4c                FAT::write(void*, unsigned long, void*, int*)
                0x00000000c0049da6                FAT::close(void*)
                0x00000000c0049df2                FAT::closeDir(void*)
                0x00000000c0049e3e                FAT::seek(void*, unsigned long long)
                0x00000000c0049e92                fatWrapperReadDisk
                0x00000000c0049ed9                fatWrapperWriteDisk
                0x00000000c0049f20                fatWrapperIoctl
                0x00000000c004a024                FAT::FAT()
                0x00000000c004a024                FAT::FAT()
                0x00000000c004a076                FAT::fixFilepath(char*)
                0x00000000c004a0ae                FAT::open(char const*, void**, FileOpenMode)
                0x00000000c004a1d6                FAT::openDir(char const*, void**)
                0x00000000c004a27c                FAT::stat(char const*, unsigned long long*, bool*)
                0x00000000c004a366                FAT::unlink(char const*)
                0x00000000c004a3e0                FAT::chfatattr(char const*, unsigned char, unsigned char)
                0x00000000c004a534                FAT::rename(char const*, char const*)
                0x00000000c004a5f8                FAT::mkdir(char const*)
 *fill*         0x00000000c004a672        0x2 
 .text          0x00000000c004a674      0x773 fs/iso9660/vfslink.32
                0x00000000c004a674                ISO9660::format(LogicalDisk*, int, char const*, int)
                0x00000000c004a67a                ISO9660::exists(char const*)
                0x00000000c004a67e                ISO9660::seek(void*, unsigned long long)
                0x00000000c004a68a                ISO9660::tell(void*, unsigned long long*)
                0x00000000c004a6b2                ISO9660::getName()
                0x00000000c004a6b8                ISO9660::stat(void*, unsigned long long*)
                0x00000000c004a6e0                ISO9660::stat(char const*, unsigned long long*, bool*)
                0x00000000c004a71c                ISO9660::close(void*)
                0x00000000c004a728                ISO9660::openDir(char const*, void**)
                0x00000000c004a742                ISO9660::readDir(void*, unsigned long, void*, int*)
                0x00000000c004a75c                ISO9660::closeDir(void*)
                0x00000000c004a768                ISO9660::unlink(char const*)
                0x00000000c004a774                ISO9660::write(void*, unsigned long, void*, int*)
                0x00000000c004a796                ISO9660::mkdir(char const*)
                0x00000000c004a7a2                ISO9660::rename(char const*, char const*)
                0x00000000c004a7b8                __memmem(unsigned char*, int, unsigned char*, int)
                0x00000000c004a7fa                readSectorFromCDROM(unsigned int, unsigned char*, char)
                0x00000000c004a820                ISO9660::tryMount(LogicalDisk*, int)
                0x00000000c004a88e                ISO9660::read(void*, unsigned long, void*, int*)
                0x00000000c004aa88                readRoot(unsigned int*, unsigned int*, char)
                0x00000000c004aadd                readRecursively(char*, unsigned int, unsigned int, unsigned int*, unsigned int*, char)
                0x00000000c004ac8f                getFileData(char*, unsigned int*, unsigned int*, char)
                0x00000000c004acec                ISO9660::open(char const*, void**, FileOpenMode)
                0x00000000c004ad78                ISO9660::ISO9660()
                0x00000000c004ad78                ISO9660::ISO9660()
                0x00000000c004ad9c                ISO9660::~ISO9660()
                0x00000000c004ad9c                ISO9660::~ISO9660()
                0x00000000c004adc0                ISO9660::~ISO9660()
 *fill*         0x00000000c004ade7        0x1 
 .text          0x00000000c004ade8      0x244 hal/sound/sndchannel.32
                0x00000000c004ade8                SoundChannel::~SoundChannel()
                0x00000000c004ade8                SoundChannel::~SoundChannel()
                0x00000000c004ae04                SoundChannel::setSpeed(float)
                0x00000000c004ae10                SoundChannel::getSpeed()
                0x00000000c004ae18                SoundChannel::setVolume(int)
                0x00000000c004ae34                SoundChannel::getVolume()
                0x00000000c004ae3c                SoundChannel::pause()
                0x00000000c004ae46                SoundChannel::SoundChannel(int, int, int, int)
                0x00000000c004ae46                SoundChannel::SoundChannel(int, int, int, int)
                0x00000000c004af3c                SoundChannel::play()
                0x00000000c004af46                SoundChannel::paused()
                0x00000000c004af4e                SoundChannel::getSampleRate()
                0x00000000c004af56                SoundChannel::getBits()
                0x00000000c004af5e                SoundChannel::getBufferUsed()
                0x00000000c004af66                SoundChannel::getBufferSize()
                0x00000000c004af6e                SoundChannel::unbuffer(float*, int, int)
                0x00000000c004afe0                SoundChannel::buffer8(unsigned char*, int)
 .text          0x00000000c004b02c      0x317 hal/sound/sndhw.32
                0x00000000c004b02c                SoundDevice::SoundDevice(char const*)
                0x00000000c004b02c                SoundDevice::SoundDevice(char const*)
                0x00000000c004b098                SoundDevice::~SoundDevice()
                0x00000000c004b098                SoundDevice::~SoundDevice()
                0x00000000c004b112                SoundDevice::~SoundDevice()
                0x00000000c004b13c                SoundDevice::getFreeChannelNum()
                0x00000000c004b156                SoundDevice::addChannel(SoundChannel*)
                0x00000000c004b1c6                SoundDevice::removeChannel(int)
                0x00000000c004b1f8                SoundDevice::floatTo8(float*, unsigned char*, int)
                0x00000000c004b264                SoundDevice::getAudio(int, float*, float*)
 *fill*         0x00000000c004b343        0x1 
 .text          0x00000000c004b344      0x757 hw/audio/sb16.32
                0x00000000c004b344                SoundBlaster16::getNumHwChannels()
                0x00000000c004b34a                SoundBlaster16::close(int, int, void*)
                0x00000000c004b372                sb16Demo(void*)
                0x00000000c004b49e                SoundBlaster16::resetDSP()
                0x00000000c004b508                SoundBlaster16::DSPOut(unsigned short, unsigned char)
                0x00000000c004b522                SoundBlaster16::turnSpeakerOn(bool)
                0x00000000c004b578                SoundBlaster16::beginPlayback(int, int)
                0x00000000c004b666                SoundBlaster16::stopPlayback()
                0x00000000c004b674                SoundBlaster16::open(int, int, void*)
                0x00000000c004b930                SoundBlaster16::SoundBlaster16()
                0x00000000c004b930                SoundBlaster16::SoundBlaster16()
                0x00000000c004b9a0                SoundBlaster16::onInterrupt()
                0x00000000c004ba5e                SoundBlaster16::handleIRQ()
                0x00000000c004ba91                sb16Handler(regs*, void*)
 *fill*         0x00000000c004ba9b        0x1 
 .text          0x00000000c004ba9c      0x293 hw/bus/isa.32
                0x00000000c004ba9c                ISA::open(int, int, void*)
                0x00000000c004bab0                ISA::close(int, int, void*)
                0x00000000c004bab4                ISA::doGameport()
                0x00000000c004bab6                ISA::doFloppy()
                0x00000000c004bab8                ISA::doATA()
                0x00000000c004baba                ISA::doSpeaker()
                0x00000000c004bb0e                ISA::doSoundblaster()
                0x00000000c004bb88                ISA::doPS2()
                0x00000000c004bbbe                ISA::doRTC()
                0x00000000c004bc18                ISA::detect()
                0x00000000c004bd04                ISA::ISA()
                0x00000000c004bd04                ISA::ISA()
                0x00000000c004bd2c                ISA::doSerial()
                0x00000000c004bd2e                ISA::doParallel()
 *fill*         0x00000000c004bd2f        0x1 
 .text          0x00000000c004bd30      0x6e5 hw/bus/pci.32
                0x00000000c004bd30                PCI::open(int, int, void*)
                0x00000000c004bd44                PCI::close(int, int, void*)
                0x00000000c004bd48                PCI::PCI()
                0x00000000c004bd48                PCI::PCI()
                0x00000000c004bdc8                PCI::pciReadWord(unsigned char, unsigned char, unsigned char, unsigned char)
                0x00000000c004be10                PCI::getVendorID(unsigned char, unsigned char, unsigned char)
                0x00000000c004be32                PCI::getHeaderType(unsigned char, unsigned char, unsigned char)
                0x00000000c004be56                PCI::getClassCode(unsigned char, unsigned char, unsigned char)
                0x00000000c004be9a                PCI::getProgIF(unsigned char, unsigned char, unsigned char)
                0x00000000c004bebe                PCI::getRevisionID(unsigned char, unsigned char, unsigned char)
                0x00000000c004bee0                PCI::getInterruptNumber(unsigned char, unsigned char, unsigned char)
                0x00000000c004bf02                PCI::getSecondaryBus(unsigned char, unsigned char, unsigned char)
                0x00000000c004bf26                PCI::getBARAddress(unsigned char, unsigned char, unsigned char, unsigned char)
                0x00000000c004bf86                PCI::pciWriteWord(unsigned char, unsigned char, unsigned char, unsigned char, unsigned short)
                0x00000000c004bff2                PCI::checkBus(unsigned char)
                0x00000000c004c016                PCI::foundDevice(PCIDeviceInfo)
                0x00000000c004c186                PCI::getDeviceData(unsigned char, unsigned char, unsigned char)
                0x00000000c004c356                PCI::checkDevice(unsigned char, unsigned char)
                0x00000000c004c3c2                PCI::detect()
 *fill*         0x00000000c004c415        0x3 
 .text          0x00000000c004c418      0x1e2 hw/bus/ps2.32
                0x00000000c004c418                PS2::close(int, int, void*)
                0x00000000c004c41c                PS2::detect()
                0x00000000c004c420                PS2::PS2()
                0x00000000c004c420                PS2::PS2()
                0x00000000c004c4f6                PS2::controllerWrite(unsigned char)
                0x00000000c004c500                PS2::controllerWrite(unsigned char, unsigned char)
                0x00000000c004c52c                PS2::controllerRead()
                0x00000000c004c54a                PS2::open(int, int, void*)
 *fill*         0x00000000c004c5fa        0x2 
 .text          0x00000000c004c5fc       0xff hw/bus/ps2port.32
                0x00000000c004c5fc                PS2Port::open(int, int, void*)
                0x00000000c004c624                PS2Port::close(int, int, void*)
                0x00000000c004c628                PS2Port::detect()
                0x00000000c004c670                PS2Port::PS2Port()
                0x00000000c004c670                PS2Port::PS2Port()
                0x00000000c004c698                PS2Port::deviceWrite(unsigned char)
                0x00000000c004c6e8                PS2Port::deviceRead()
 *fill*         0x00000000c004c6fb        0x1 
 .text          0x00000000c004c6fc      0x11a hw/buzzer/pcspk.32
                0x00000000c004c6fc                Beep::start(int)
                0x00000000c004c736                Beep::open(int, int, void*)
                0x00000000c004c73a                Beep::close(int, int, void*)
                0x00000000c004c740                Beep::Beep()
                0x00000000c004c740                Beep::Beep()
 *fill*         0x00000000c004c816        0x2 
 .text          0x00000000c004c818      0x4bb hw/clock/rtc.32
                0x00000000c004c818                RTC::open(int, int, void*)
                0x00000000c004c81c                RTC::close(int, int, void*)
                0x00000000c004c820                RTC::timeInSecondsUTC()
                0x00000000c004c832                RTC::setTimeInDatetimeUTC(datetime_t)
                0x00000000c004c836                RTC::timeInDatetimeUTC()
                0x00000000c004c85c                RTC::setTimeInSecondsUTC(unsigned long long)
                0x00000000c004c89c                RTC::~RTC()
                0x00000000c004c89c                RTC::~RTC()
                0x00000000c004c8c0                RTC::~RTC()
                0x00000000c004c8ea                RTC::get_update_in_progress_flag()
                0x00000000c004c902                RTC::completeRTCRefresh()
                0x00000000c004cbee                rtcIRQHandler(regs*, void*)
                0x00000000c004cc34                RTC::RTC()
                0x00000000c004cc34                RTC::RTC()
 *fill*         0x00000000c004ccd3        0x1 
 .text          0x00000000c004ccd4      0xc8c hw/diskctrl/ide.32
                0x00000000c004ccd4                IDE::close(int, int, void*)
                0x00000000c004ccd8                IDE::IDE()
                0x00000000c004ccd8                IDE::IDE()
                0x00000000c004cd0c                IDE::prepareInterrupt(unsigned char)
                0x00000000c004cd1e                selectDrive(unsigned char, unsigned char)
                0x00000000c004cd20                IDE::getBase(unsigned char)
                0x00000000c004cd32                IDE::write(unsigned char, unsigned char, unsigned char)
                0x00000000c004cdf2                IDE::read(unsigned char, unsigned char)
                0x00000000c004cea0                IDE::waitInterrupt(unsigned char)
                0x00000000c004cf22                ideChannel0IRQHandler(regs*, void*)
                0x00000000c004cf3e                ideChannel1IRQHandler(regs*, void*)
                0x00000000c004cf5a                IDE::enableIRQs(unsigned char, bool)
                0x00000000c004cfa0                IDE::open(int, int, void*)
                0x00000000c004d3b0                IDE::readBuffer(unsigned char, unsigned char, unsigned int, unsigned int)
                0x00000000c004d47c                IDE::detect()
                0x00000000c004d764                IDE::printError(unsigned char, unsigned char, unsigned char)
                0x00000000c004d8fa                IDE::polling(unsigned char, unsigned int)
 .text          0x00000000c004d960      0x62d hw/diskphys/ata.32
                0x00000000c004d960                ATA::close(int, int, void*)
                0x00000000c004d984                ATA::powerSaving(PowerSavingLevel)
                0x00000000c004d988                ATA::ATA()
                0x00000000c004d988                ATA::ATA()
                0x00000000c004d9b6                ATA::flush(bool)
                0x00000000c004da00                ATA::readyForCommand()
                0x00000000c004da50                ATA::access(unsigned long long, int, void*, bool)
                0x00000000c004ddce                ATA::read(unsigned long long, int, void*)
                0x00000000c004de36                ATA::write(unsigned long long, int, void*)
                0x00000000c004de9e                ATA::detectCHS()
                0x00000000c004dec8                ATA::open(int, int, void*)
 *fill*         0x00000000c004df8d        0x3 
 .text          0x00000000c004df90      0x5c2 hw/diskphys/atapi.32
                0x00000000c004df90                ATAPI::write(unsigned long long, int, void*)
                0x00000000c004df96                ATAPI::close(int, int, void*)
                0x00000000c004dfba                ATAPI::read(unsigned long long, int, void*)
                0x00000000c004dfd0                ATAPI::ATAPI()
                0x00000000c004dfd0                ATAPI::ATAPI()
                0x00000000c004dffe                ATAPI::readyForCommand()
                0x00000000c004e04e                ATAPI::sendPacket(unsigned char*, int, bool, unsigned short*, int)
                0x00000000c004e386                ATAPI::diskRemoved()
                0x00000000c004e3a2                ATAPI::eject()
                0x00000000c004e3e8                ATAPI::diskInserted()
                0x00000000c004e416                ATAPI::detectMedia()
                0x00000000c004e4d2                ATAPI::open(int, int, void*)
 *fill*         0x00000000c004e552        0x2 
 .text          0x00000000c004e554      0x6d8 hw/dma/isadma.32
                0x00000000c004e554                DMA::open(int, int, void*)
                0x00000000c004e568                DMA::close(int, int, void*)
                0x00000000c004e56c                DMAChannel::DMAChannel(int)
                0x00000000c004e56c                DMAChannel::DMAChannel(int)
                0x00000000c004e5c4                DMAChannel::~DMAChannel()
                0x00000000c004e5c4                DMAChannel::~DMAChannel()
                0x00000000c004e5f2                DMAChannel::getAddress()
                0x00000000c004e5fa                DMAChannel::getChannelNum()
                0x00000000c004e602                DMAChannel::setLength(unsigned int)
                0x00000000c004e622                DMAChannel::setAddress(unsigned int)
                0x00000000c004e62e                DMAChannel::allocateAddressAndSet(unsigned short)
                0x00000000c004e654                DMAChannel::stop()
                0x00000000c004e656                DMAChannel::mask(bool)
                0x00000000c004e678                DMAChannel::unmask()
                0x00000000c004e686                DMAChannel::setMode(unsigned char)
                0x00000000c004e6c0                DMAChannel::start()
                0x00000000c004e7c8                DMA::DMA()
                0x00000000c004e7c8                DMA::DMA()
                0x00000000c004ea08                DMA::getAvailable()
                0x00000000c004ea40                DMA::tryLockChannelWithBase(int)
                0x00000000c004eaae                DMA::lockChannelWithBase(int)
                0x00000000c004eacc                DMA::tryLockChannel8()
                0x00000000c004eade                DMA::tryLockChannel16()
                0x00000000c004eaf0                DMA::tryLockChannel(int)
                0x00000000c004eb6a                DMA::lockChannel8()
                0x00000000c004eb7c                DMA::lockChannel16()
                0x00000000c004eb8e                DMA::lockChannel(int)
                0x00000000c004ebbc                DMA::unlockChannel(DMAChannel*)
 .text          0x00000000c004ec2c       0x8e hw/fpu/avx.32
                0x00000000c004ec2c                AVX::open(int, int, void*)
                0x00000000c004ec3e                AVX::close(int, int, void*)
                0x00000000c004ec50                AVX::available()
                0x00000000c004ec62                AVX::save(void*)
                0x00000000c004ec7a                AVX::load(void*)
                0x00000000c004ec92                AVX::AVX()
                0x00000000c004ec92                AVX::AVX()
 .text          0x00000000c004ecba       0x90 hw/fpu/mmx.32
                0x00000000c004ecba                MMX::available()
                0x00000000c004ecce                MMX::open(int, int, void*)
                0x00000000c004ece0                MMX::close(int, int, void*)
                0x00000000c004ecf2                MMX::save(void*)
                0x00000000c004ed0a                MMX::load(void*)
                0x00000000c004ed22                MMX::MMX()
                0x00000000c004ed22                MMX::MMX()
 .text          0x00000000c004ed4a       0x96 hw/fpu/sse.32
                0x00000000c004ed4a                SSE::open(int, int, void*)
                0x00000000c004ed5c                SSE::close(int, int, void*)
                0x00000000c004ed6e                SSE::available()
                0x00000000c004ed88                SSE::save(void*)
                0x00000000c004eda0                SSE::load(void*)
                0x00000000c004edb8                SSE::SSE()
                0x00000000c004edb8                SSE::SSE()
 .text          0x00000000c004ede0       0x8e hw/fpu/x87.32
                0x00000000c004ede0                x87::open(int, int, void*)
                0x00000000c004edf2                x87::close(int, int, void*)
                0x00000000c004ee04                x87::available()
                0x00000000c004ee16                x87::save(void*)
                0x00000000c004ee2e                x87::load(void*)
                0x00000000c004ee46                x87::x87()
                0x00000000c004ee46                x87::x87()
 *fill*         0x00000000c004ee6e        0x2 
 .text          0x00000000c004ee70      0x3d9 hw/intctrl/apic.32
                0x00000000c004ee70                APIC::disable()
                0x00000000c004ee72                APIC::close(int, int, void*)
                0x00000000c004ee86                IOAPIC::close(int, int, void*)
                0x00000000c004ee8a                APIC::io_wait()
                0x00000000c004ee90                APIC::getBase()
                0x00000000c004eeb6                APIC::eoi(unsigned char)
                0x00000000c004eed0                APIC::open(int, int, void*)
                0x00000000c004ef28                IOAPIC::IOAPIC()
                0x00000000c004ef28                IOAPIC::IOAPIC()
                0x00000000c004ef50                APIC::APIC()
                0x00000000c004ef50                APIC::APIC()
                0x00000000c004f020                IOAPIC::handlesGSIWithNumber(unsigned int)
                0x00000000c004f042                IOAPIC::read(int)
                0x00000000c004f058                IOAPIC::open(int, int, void*)
                0x00000000c004f0da                IOAPIC::write(int, int)
                0x00000000c004f0f4                IOAPIC::redirect(unsigned char, unsigned long long, unsigned char)
                0x00000000c004f152                APIC::installIRQHandler(int, void (*)(regs*, void*), bool, void*)
 *fill*         0x00000000c004f249        0x3 
 .text          0x00000000c004f24c      0x1c7 hw/intctrl/pic.32
                0x00000000c004f24c                PIC::disable()
                0x00000000c004f254                PIC::close(int, int, void*)
                0x00000000c004f268                PIC::PIC()
                0x00000000c004f268                PIC::PIC()
                0x00000000c004f33e                PIC::ioWait()
                0x00000000c004f344                PIC::getIRQReg(int)
                0x00000000c004f35c                PIC::eoi(unsigned char)
                0x00000000c004f39a                PIC::remap()
                0x00000000c004f400                PIC::open(int, int, void*)
 *fill*         0x00000000c004f413        0x1 
 .text          0x00000000c004f414      0x990 hw/keybrd/ps2key.32
                0x00000000c004f414                PS2Keyboard::setRepeatRate(int)
                0x00000000c004f416                PS2Keyboard::setRepeatDelay(int)
                0x00000000c004f418                PS2Keyboard::close(int, int, void*)
                0x00000000c004f41c                PS2Keyboard::~PS2Keyboard()
                0x00000000c004f41c                PS2Keyboard::~PS2Keyboard()
                0x00000000c004f440                PS2Keyboard::~PS2Keyboard()
                0x00000000c004f46a                PS2Keyboard::open(int, int, void*)
                0x00000000c004f4bc                PS2Keyboard::PS2Keyboard()
                0x00000000c004f4bc                PS2Keyboard::PS2Keyboard()
                0x00000000c004f55e                PS2Keyboard::sendKey(unsigned short, bool)
                0x00000000c004f5a6                PS2Keyboard::sendKey(KeyboardSpecialKeys, bool)
                0x00000000c004f5ee                PS2Keyboard::updateKeyboardLEDs()
                0x00000000c004f658                PS2Keyboard::handler()
                0x00000000c004fd97                ps2KeyboardHandler(regs*, void*)
 .text          0x00000000c004fda4      0x252 hw/timer/apictimer.32
                0x00000000c004fda4                APICTimer::close(int, int, void*)
                0x00000000c004fdaa                apicTimerHandler(regs*, void*)
                0x00000000c004fdd8                APICTimer::write(int)
                0x00000000c004fed6                APICTimer::open(int, int, void*)
                0x00000000c004ffce                APICTimer::APICTimer()
                0x00000000c004ffce                APICTimer::APICTimer()
 .text          0x00000000c004fff6      0x1a7 hw/timer/pit.32
                0x00000000c004fff6                PIT::write(int)
                0x00000000c0050074                pitHandler(regs*, void*)
                0x00000000c00500a0                PIT::open(int, int, void*)
                0x00000000c00500ee                PIT::close(int, int, void*)
                0x00000000c005011e                PIT::PIT()
                0x00000000c005011e                PIT::PIT()
 *fill*         0x00000000c005019d        0x3 
 .text          0x00000000c00501a0        0xa hw/fpu/x86/avx.32
                0x00000000c00501a0                avxDetect
                0x00000000c00501a6                avxSave
                0x00000000c00501a7                avxLoad
                0x00000000c00501a8                avxInit
                0x00000000c00501a9                avxClose
 *fill*         0x00000000c00501aa        0x6 
 .text          0x00000000c00501b0       0x38 hw/fpu/x86/sse.32
                0x00000000c00501b0                sseDetect
                0x00000000c00501cb                sseSave
                0x00000000c00501d1                sseLoad
                0x00000000c00501d7                sseInit
                0x00000000c00501e7                sseClose
 *fill*         0x00000000c00501e8        0x8 
 .text          0x00000000c00501f0       0x47 hw/fpu/x86/x87.32
                0x00000000c00501f6                x87Detect
                0x00000000c0050211                x87Save
                0x00000000c0050217                x87Load
                0x00000000c005021c                x87Init
                0x00000000c0050236                x87Close
 *fill*         0x00000000c0050237        0x1 
 .text          0x00000000c0050238       0x25 /cygdrive/d/Users/Alex/Desktop/Toolchain/Output/bin/../lib/gcc/i386-banana/8.1.0/crtend.o
 .text          0x00000000c005025d        0x0 crtn.32
 *fill*         0x00000000c005025d        0x3 
 .text          0x00000000c0050260      0x14b /cygdrive/d/Users/Alex/Desktop/Toolchain/Output/bin/../lib/gcc/i386-banana/8.1.0/libgcc.a(_divdi3.o)
                0x00000000c0050260                __divdi3
 *fill*         0x00000000c00503ab        0x1 
 .text          0x00000000c00503ac      0x17e /cygdrive/d/Users/Alex/Desktop/Toolchain/Output/bin/../lib/gcc/i386-banana/8.1.0/libgcc.a(_moddi3.o)
                0x00000000c00503ac                __moddi3
 *fill*         0x00000000c005052a        0x2 
 .text          0x00000000c005052c      0x1fb /cygdrive/d/Users/Alex/Desktop/Toolchain/Output/bin/../lib/gcc/i386-banana/8.1.0/libgcc.a(_divmoddi4.o)
                0x00000000c005052c                __divmoddi4
 *fill*         0x00000000c0050727        0x1 
 .text          0x00000000c0050728       0xff /cygdrive/d/Users/Alex/Desktop/Toolchain/Output/bin/../lib/gcc/i386-banana/8.1.0/libgcc.a(_udivdi3.o)
                0x00000000c0050728                __udivdi3
 *fill*         0x00000000c0050827        0x1 
 .text          0x00000000c0050828      0x11a /cygdrive/d/Users/Alex/Desktop/Toolchain/Output/bin/../lib/gcc/i386-banana/8.1.0/libgcc.a(_umoddi3.o)
                0x00000000c0050828                __umoddi3
 *fill*         0x00000000c0050942        0xe 
 .text          0x00000000c0050950       0x1e D:/Users/Alex/Desktop/Banana/kernel/libk/libm32.a(s_fabs.c.o)
                0x00000000c0050950                fabs
 *fill*         0x00000000c005096e        0x2 
 .text          0x00000000c0050970        0xc D:/Users/Alex/Desktop/Banana/kernel/libk/libm32.a(s_lrint.S.o)
                0x00000000c0050970                lrint
 .text          0x00000000c005097c        0xc D:/Users/Alex/Desktop/Banana/kernel/libk/libm32.a(s_lrintf.S.o)
                0x00000000c005097c                lrintf
 *(.gnu.linkonce.t*)

.iplt           0x00000000c0050988        0x0
 .iplt          0x00000000c0050988        0x0 D:/Users/Alex/Desktop/Banana/kernel/boot.32

.init           0x00000000c0050988        0xf
 .init          0x00000000c0050988        0x3 crti.32
                0x00000000c0050988                _init
 .init          0x00000000c005098b        0x5 /cygdrive/d/Users/Alex/Desktop/Toolchain/Output/bin/../lib/gcc/i386-banana/8.1.0/crtbegin.o
 .init          0x00000000c0050990        0x5 /cygdrive/d/Users/Alex/Desktop/Toolchain/Output/bin/../lib/gcc/i386-banana/8.1.0/crtend.o
 .init          0x00000000c0050995        0x2 crtn.32

.fini           0x00000000c0050997        0xa
 .fini          0x00000000c0050997        0x3 crti.32
                0x00000000c0050997                _fini
 .fini          0x00000000c005099a        0x5 /cygdrive/d/Users/Alex/Desktop/Toolchain/Output/bin/../lib/gcc/i386-banana/8.1.0/crtbegin.o
 .fini          0x00000000c005099f        0x2 crtn.32

.text._ZN8ComputerD2Ev
                0x00000000c00509a4       0x23
 .text._ZN8ComputerD2Ev
                0x00000000c00509a4       0x23 core/computer.32
                0x00000000c00509a4                Computer::~Computer()
                0x00000000c00509a4                Computer::~Computer()

.text._ZN8ComputerD0Ev
                0x00000000c00509c8       0x2a
 .text._ZN8ComputerD0Ev
                0x00000000c00509c8       0x2a core/computer.32
                0x00000000c00509c8                Computer::~Computer()

.text._Z10idleCommonv
                0x00000000c00509f2       0x15
 .text._Z10idleCommonv
                0x00000000c00509f2       0x15 core/idle.32
                0x00000000c00509f2                idleCommon()

.text._ZN10LinkedListIV18ThreadControlBlockED2Ev
                0x00000000c0050a08        0x2
 .text._ZN10LinkedListIV18ThreadControlBlockED2Ev
                0x00000000c0050a08        0x2 core/prcssthr.32
                0x00000000c0050a08                LinkedList<ThreadControlBlock volatile>::~LinkedList()
                0x00000000c0050a08                LinkedList<ThreadControlBlock volatile>::~LinkedList()

.text._ZN18ThreadControlBlockC2Ev
                0x00000000c0050a0a       0x3e
 .text._ZN18ThreadControlBlockC2Ev
                0x00000000c0050a0a       0x3e core/prcssthr.32
                0x00000000c0050a0a                ThreadControlBlock::ThreadControlBlock()
                0x00000000c0050a0a                ThreadControlBlock::ThreadControlBlock()

.text._ZN10LinkedListIV18ThreadControlBlockEC2Ev
                0x00000000c0050a48       0x58
 .text._ZN10LinkedListIV18ThreadControlBlockEC2Ev
                0x00000000c0050a48       0x58 core/prcssthr.32
                0x00000000c0050a48                LinkedList<ThreadControlBlock volatile>::LinkedList()
                0x00000000c0050a48                LinkedList<ThreadControlBlock volatile>::LinkedList()

.text._ZN10LinkedListIV18ThreadControlBlockE10addElementEPS1_
                0x00000000c0050aa0       0xd3
 .text._ZN10LinkedListIV18ThreadControlBlockE10addElementEPS1_
                0x00000000c0050aa0       0xd3 core/prcssthr.32
                0x00000000c0050aa0                LinkedList<ThreadControlBlock volatile>::addElement(ThreadControlBlock volatile*)

.text._ZN10LinkedListIV18ThreadControlBlockE7isEmptyEv
                0x00000000c0050b74       0x1c
 .text._ZN10LinkedListIV18ThreadControlBlockE7isEmptyEv
                0x00000000c0050b74       0x1c core/prcssthr.32
                0x00000000c0050b74                LinkedList<ThreadControlBlock volatile>::isEmpty()

.text._ZN10LinkedListIV18ThreadControlBlockE11removeFirstEv
                0x00000000c0050b90       0xae
 .text._ZN10LinkedListIV18ThreadControlBlockE11removeFirstEv
                0x00000000c0050b90       0xae core/prcssthr.32
                0x00000000c0050b90                LinkedList<ThreadControlBlock volatile>::removeFirst()

.text._ZN10LinkedListIV18ThreadControlBlockE15getFirstElementEv
                0x00000000c0050c3e        0x7
 .text._ZN10LinkedListIV18ThreadControlBlockE15getFirstElementEv
                0x00000000c0050c3e        0x7 core/prcssthr.32
                0x00000000c0050c3e                LinkedList<ThreadControlBlock volatile>::getFirstElement()

.text._ZN10LinkedListIV18ThreadControlBlockE7getNextEPS1_
                0x00000000c0050c46        0x8
 .text._ZN10LinkedListIV18ThreadControlBlockE7getNextEPS1_
                0x00000000c0050c46        0x8 core/prcssthr.32
                0x00000000c0050c46                LinkedList<ThreadControlBlock volatile>::getNext(ThreadControlBlock volatile*)

.text._ZN10LinkedListI8UnixFileED2Ev
                0x00000000c0050c50        0x2
 .text._ZN10LinkedListI8UnixFileED2Ev
                0x00000000c0050c50        0x2 core/unixfile.32
                0x00000000c0050c50                LinkedList<UnixFile>::~LinkedList()
                0x00000000c0050c50                LinkedList<UnixFile>::~LinkedList()

.text._ZN10LinkedListI8UnixFileEC2Ev
                0x00000000c0050c54       0x58
 .text._ZN10LinkedListI8UnixFileEC2Ev
                0x00000000c0050c54       0x58 core/unixfile.32
                0x00000000c0050c54                LinkedList<UnixFile>::LinkedList()
                0x00000000c0050c54                LinkedList<UnixFile>::LinkedList()

.text._ZN10LinkedListI8UnixFileE15getFirstElementEv
                0x00000000c0050cac        0x7
 .text._ZN10LinkedListI8UnixFileE15getFirstElementEv
                0x00000000c0050cac        0x7 core/unixfile.32
                0x00000000c0050cac                LinkedList<UnixFile>::getFirstElement()

.text._ZN10LinkedListI8UnixFileE11removeFirstEv
                0x00000000c0050cb4       0xa1
 .text._ZN10LinkedListI8UnixFileE11removeFirstEv
                0x00000000c0050cb4       0xa1 core/unixfile.32
                0x00000000c0050cb4                LinkedList<UnixFile>::removeFirst()

.text._ZN10LinkedListI8UnixFileE7getNextEPS0_
                0x00000000c0050d58        0x8
 .text._ZN10LinkedListI8UnixFileE7getNextEPS0_
                0x00000000c0050d58        0x8 core/unixfile.32
                0x00000000c0050d58                LinkedList<UnixFile>::getNext(UnixFile*)

.text._ZN10LinkedListI8UnixFileE10addElementEPS0_
                0x00000000c0050d60      0x130
 .text._ZN10LinkedListI8UnixFileE10addElementEPS0_
                0x00000000c0050d60      0x130 core/unixfile.32
                0x00000000c0050d60                LinkedList<UnixFile>::addElement(UnixFile*)

.text._ZN16DriverlessDeviceD2Ev
                0x00000000c0050e90       0x1a
 .text._ZN16DriverlessDeviceD2Ev
                0x00000000c0050e90       0x1a hal/device.32
                0x00000000c0050e90                DriverlessDevice::~DriverlessDevice()
                0x00000000c0050e90                DriverlessDevice::~DriverlessDevice()

.text._ZN16DriverlessDeviceD0Ev
                0x00000000c0050eac       0x2a
 .text._ZN16DriverlessDeviceD0Ev
                0x00000000c0050eac       0x2a hal/device.32
                0x00000000c0050eac                DriverlessDevice::~DriverlessDevice()

.text._ZN10LinkedListI6DeviceE10addElementEPS0_
                0x00000000c0050ed8       0xdc
 .text._ZN10LinkedListI6DeviceE10addElementEPS0_
                0x00000000c0050ed8       0xdc hal/device.32
                0x00000000c0050ed8                LinkedList<Device>::addElement(Device*)

.text._ZN10LinkedListI6DeviceEC2Ev
                0x00000000c0050fb4       0x58
 .text._ZN10LinkedListI6DeviceEC2Ev
                0x00000000c0050fb4       0x58 hal/device.32
                0x00000000c0050fb4                LinkedList<Device>::LinkedList()
                0x00000000c0050fb4                LinkedList<Device>::LinkedList()

.text._ZN4ACPID2Ev
                0x00000000c005100c       0x23
 .text._ZN4ACPID2Ev
                0x00000000c005100c       0x23 hw/acpi.32
                0x00000000c005100c                ACPI::~ACPI()
                0x00000000c005100c                ACPI::~ACPI()

.text._ZN4ACPID0Ev
                0x00000000c0051030       0x2a
 .text._ZN4ACPID0Ev
                0x00000000c0051030       0x2a hw/acpi.32
                0x00000000c0051030                ACPI::~ACPI()

.text._ZN3CPUD2Ev
                0x00000000c005105c       0x23
 .text._ZN3CPUD2Ev
                0x00000000c005105c       0x23 hw/cpu.32
                0x00000000c005105c                CPU::~CPU()
                0x00000000c005105c                CPU::~CPU()

.text._ZN3CPUD0Ev
                0x00000000c0051080       0x2a
 .text._ZN3CPUD0Ev
                0x00000000c0051080       0x2a hw/cpu.32
                0x00000000c0051080                CPU::~CPU()

.text._ZN14SoundBlaster16D2Ev
                0x00000000c00510ac       0x23
 .text._ZN14SoundBlaster16D2Ev
                0x00000000c00510ac       0x23 hw/audio/sb16.32
                0x00000000c00510ac                SoundBlaster16::~SoundBlaster16()
                0x00000000c00510ac                SoundBlaster16::~SoundBlaster16()

.text._ZN14SoundBlaster16D0Ev
                0x00000000c00510d0       0x2a
 .text._ZN14SoundBlaster16D0Ev
                0x00000000c00510d0       0x2a hw/audio/sb16.32
                0x00000000c00510d0                SoundBlaster16::~SoundBlaster16()

.text._ZN3ISAD2Ev
                0x00000000c00510fc       0x23
 .text._ZN3ISAD2Ev
                0x00000000c00510fc       0x23 hw/bus/isa.32
                0x00000000c00510fc                ISA::~ISA()
                0x00000000c00510fc                ISA::~ISA()

.text._ZN3ISAD0Ev
                0x00000000c0051120       0x2a
 .text._ZN3ISAD0Ev
                0x00000000c0051120       0x2a hw/bus/isa.32
                0x00000000c0051120                ISA::~ISA()

.text._ZN3PCID2Ev
                0x00000000c005114c       0x23
 .text._ZN3PCID2Ev
                0x00000000c005114c       0x23 hw/bus/pci.32
                0x00000000c005114c                PCI::~PCI()
                0x00000000c005114c                PCI::~PCI()

.text._ZN3PCID0Ev
                0x00000000c0051170       0x2a
 .text._ZN3PCID0Ev
                0x00000000c0051170       0x2a hw/bus/pci.32
                0x00000000c0051170                PCI::~PCI()

.text._ZN3PS2D2Ev
                0x00000000c005119c       0x23
 .text._ZN3PS2D2Ev
                0x00000000c005119c       0x23 hw/bus/ps2.32
                0x00000000c005119c                PS2::~PS2()
                0x00000000c005119c                PS2::~PS2()

.text._ZN3PS2D0Ev
                0x00000000c00511c0       0x2a
 .text._ZN3PS2D0Ev
                0x00000000c00511c0       0x2a hw/bus/ps2.32
                0x00000000c00511c0                PS2::~PS2()

.text._ZN7PS2PortD2Ev
                0x00000000c00511ec       0x23
 .text._ZN7PS2PortD2Ev
                0x00000000c00511ec       0x23 hw/bus/ps2port.32
                0x00000000c00511ec                PS2Port::~PS2Port()
                0x00000000c00511ec                PS2Port::~PS2Port()

.text._ZN7PS2PortD0Ev
                0x00000000c0051210       0x2a
 .text._ZN7PS2PortD0Ev
                0x00000000c0051210       0x2a hw/bus/ps2port.32
                0x00000000c0051210                PS2Port::~PS2Port()

.text._ZN4BeepD2Ev
                0x00000000c005123c       0x23
 .text._ZN4BeepD2Ev
                0x00000000c005123c       0x23 hw/buzzer/pcspk.32
                0x00000000c005123c                Beep::~Beep()
                0x00000000c005123c                Beep::~Beep()

.text._ZN4BeepD0Ev
                0x00000000c0051260       0x2a
 .text._ZN4BeepD0Ev
                0x00000000c0051260       0x2a hw/buzzer/pcspk.32
                0x00000000c0051260                Beep::~Beep()

.text._ZN3IDED2Ev
                0x00000000c005128c       0x23
 .text._ZN3IDED2Ev
                0x00000000c005128c       0x23 hw/diskctrl/ide.32
                0x00000000c005128c                IDE::~IDE()
                0x00000000c005128c                IDE::~IDE()

.text._ZN3IDED0Ev
                0x00000000c00512b0       0x2a
 .text._ZN3IDED0Ev
                0x00000000c00512b0       0x2a hw/diskctrl/ide.32
                0x00000000c00512b0                IDE::~IDE()

.text._ZN3ATAD2Ev
                0x00000000c00512dc       0x23
 .text._ZN3ATAD2Ev
                0x00000000c00512dc       0x23 hw/diskphys/ata.32
                0x00000000c00512dc                ATA::~ATA()
                0x00000000c00512dc                ATA::~ATA()

.text._ZN3ATAD0Ev
                0x00000000c0051300       0x2a
 .text._ZN3ATAD0Ev
                0x00000000c0051300       0x2a hw/diskphys/ata.32
                0x00000000c0051300                ATA::~ATA()

.text._ZN5ATAPID2Ev
                0x00000000c005132c       0x23
 .text._ZN5ATAPID2Ev
                0x00000000c005132c       0x23 hw/diskphys/atapi.32
                0x00000000c005132c                ATAPI::~ATAPI()
                0x00000000c005132c                ATAPI::~ATAPI()

.text._ZN5ATAPID0Ev
                0x00000000c0051350       0x2a
 .text._ZN5ATAPID0Ev
                0x00000000c0051350       0x2a hw/diskphys/atapi.32
                0x00000000c0051350                ATAPI::~ATAPI()

.text._ZN3DMAD2Ev
                0x00000000c005137c       0x23
 .text._ZN3DMAD2Ev
                0x00000000c005137c       0x23 hw/dma/isadma.32
                0x00000000c005137c                DMA::~DMA()
                0x00000000c005137c                DMA::~DMA()

.text._ZN3DMAD0Ev
                0x00000000c00513a0       0x2a
 .text._ZN3DMAD0Ev
                0x00000000c00513a0       0x2a hw/dma/isadma.32
                0x00000000c00513a0                DMA::~DMA()

.text._ZN3AVXD2Ev
                0x00000000c00513ca       0x23
 .text._ZN3AVXD2Ev
                0x00000000c00513ca       0x23 hw/fpu/avx.32
                0x00000000c00513ca                AVX::~AVX()
                0x00000000c00513ca                AVX::~AVX()

.text._ZN3AVXD0Ev
                0x00000000c00513ee       0x2a
 .text._ZN3AVXD0Ev
                0x00000000c00513ee       0x2a hw/fpu/avx.32
                0x00000000c00513ee                AVX::~AVX()

.text._ZN3MMXD2Ev
                0x00000000c0051418       0x23
 .text._ZN3MMXD2Ev
                0x00000000c0051418       0x23 hw/fpu/mmx.32
                0x00000000c0051418                MMX::~MMX()
                0x00000000c0051418                MMX::~MMX()

.text._ZN3MMXD0Ev
                0x00000000c005143c       0x2a
 .text._ZN3MMXD0Ev
                0x00000000c005143c       0x2a hw/fpu/mmx.32
                0x00000000c005143c                MMX::~MMX()

.text._ZN3SSED2Ev
                0x00000000c0051466       0x23
 .text._ZN3SSED2Ev
                0x00000000c0051466       0x23 hw/fpu/sse.32
                0x00000000c0051466                SSE::~SSE()
                0x00000000c0051466                SSE::~SSE()

.text._ZN3SSED0Ev
                0x00000000c005148a       0x2a
 .text._ZN3SSED0Ev
                0x00000000c005148a       0x2a hw/fpu/sse.32
                0x00000000c005148a                SSE::~SSE()

.text._ZN3x87D2Ev
                0x00000000c00514b4       0x23
 .text._ZN3x87D2Ev
                0x00000000c00514b4       0x23 hw/fpu/x87.32
                0x00000000c00514b4                x87::~x87()
                0x00000000c00514b4                x87::~x87()

.text._ZN3x87D0Ev
                0x00000000c00514d8       0x2a
 .text._ZN3x87D0Ev
                0x00000000c00514d8       0x2a hw/fpu/x87.32
                0x00000000c00514d8                x87::~x87()

.text._ZN6IOAPICD2Ev
                0x00000000c0051504       0x23
 .text._ZN6IOAPICD2Ev
                0x00000000c0051504       0x23 hw/intctrl/apic.32
                0x00000000c0051504                IOAPIC::~IOAPIC()
                0x00000000c0051504                IOAPIC::~IOAPIC()

.text._ZN6IOAPICD0Ev
                0x00000000c0051528       0x2a
 .text._ZN6IOAPICD0Ev
                0x00000000c0051528       0x2a hw/intctrl/apic.32
                0x00000000c0051528                IOAPIC::~IOAPIC()

.text._ZN4APICD2Ev
                0x00000000c0051554       0x23
 .text._ZN4APICD2Ev
                0x00000000c0051554       0x23 hw/intctrl/apic.32
                0x00000000c0051554                APIC::~APIC()
                0x00000000c0051554                APIC::~APIC()

.text._ZN4APICD0Ev
                0x00000000c0051578       0x2a
 .text._ZN4APICD0Ev
                0x00000000c0051578       0x2a hw/intctrl/apic.32
                0x00000000c0051578                APIC::~APIC()

.text._ZN3PICD2Ev
                0x00000000c00515a4       0x23
 .text._ZN3PICD2Ev
                0x00000000c00515a4       0x23 hw/intctrl/pic.32
                0x00000000c00515a4                PIC::~PIC()
                0x00000000c00515a4                PIC::~PIC()

.text._ZN3PICD0Ev
                0x00000000c00515c8       0x2a
 .text._ZN3PICD0Ev
                0x00000000c00515c8       0x2a hw/intctrl/pic.32
                0x00000000c00515c8                PIC::~PIC()

.text._ZN9APICTimerD2Ev
                0x00000000c00515f2       0x23
 .text._ZN9APICTimerD2Ev
                0x00000000c00515f2       0x23 hw/timer/apictimer.32
                0x00000000c00515f2                APICTimer::~APICTimer()
                0x00000000c00515f2                APICTimer::~APICTimer()

.text._ZN9APICTimerD0Ev
                0x00000000c0051616       0x2a
 .text._ZN9APICTimerD0Ev
                0x00000000c0051616       0x2a hw/timer/apictimer.32
                0x00000000c0051616                APICTimer::~APICTimer()

.text._ZN3PITD2Ev
                0x00000000c0051640       0x23
 .text._ZN3PITD2Ev
                0x00000000c0051640       0x23 hw/timer/pit.32
                0x00000000c0051640                PIT::~PIT()
                0x00000000c0051640                PIT::~PIT()

.text._ZN3PITD0Ev
                0x00000000c0051664       0x2a
 .text._ZN3PITD0Ev
                0x00000000c0051664       0x2a hw/timer/pit.32
                0x00000000c0051664                PIT::~PIT()

.rodata         0x00000000c005168e    0x2583e
                0x00000000c005168e                start_ctors = .
 *(SORT_BY_NAME(.ctors*))
 *fill*         0x00000000c005168e        0x2 
 .ctors         0x00000000c0051690        0x4 /cygdrive/d/Users/Alex/Desktop/Toolchain/Output/bin/../lib/gcc/i386-banana/8.1.0/crtbegin.o
 .ctors         0x00000000c0051694        0x4 core/prcssthr.32
 .ctors         0x00000000c0051698        0x4 core/unixfile.32
 .ctors         0x00000000c005169c        0x4 /cygdrive/d/Users/Alex/Desktop/Toolchain/Output/bin/../lib/gcc/i386-banana/8.1.0/crtend.o
                0x00000000c00516a0                end_ctors = .
                0x00000000c00516a0                start_dtors = .
 *(SORT_BY_NAME(.dtors*))
 .dtors         0x00000000c00516a0        0x4 /cygdrive/d/Users/Alex/Desktop/Toolchain/Output/bin/../lib/gcc/i386-banana/8.1.0/crtbegin.o
 .dtors         0x00000000c00516a4        0x4 /cygdrive/d/Users/Alex/Desktop/Toolchain/Output/bin/../lib/gcc/i386-banana/8.1.0/crtend.o
                0x00000000c00516a4                __DTOR_END__
                0x00000000c00516a8                end_dtors = .
 *(.rodata*)
 .rodata        0x00000000c00516a8       0x6f acpica/dsargs.32
 *fill*         0x00000000c0051717        0x1 
 .rodata        0x00000000c0051718      0x106 acpica/dscontrol.32
 *fill*         0x00000000c005181e        0x2 
 .rodata        0x00000000c0051820       0xfc acpica/dsfield.32
 .rodata        0x00000000c005191c       0x4b acpica/dsinit.32
 *fill*         0x00000000c0051967        0x1 
 .rodata        0x00000000c0051968       0xf5 acpica/dsmethod.32
 *fill*         0x00000000c0051a5d        0x3 
 .rodata        0x00000000c0051a60       0xcd acpica/dsmthdat.32
 *fill*         0x00000000c0051b2d        0x3 
 .rodata        0x00000000c0051b30      0x161 acpica/dsobject.32
 *fill*         0x00000000c0051c91        0x3 
 .rodata        0x00000000c0051c94      0x1cd acpica/dsopcode.32
 *fill*         0x00000000c0051e61        0x3 
 .rodata        0x00000000c0051e64      0x146 acpica/dspkginit.32
 *fill*         0x00000000c0051faa        0x2 
 .rodata        0x00000000c0051fac       0x5c acpica/dsutils.32
 .rodata        0x00000000c0052008      0x15c acpica/dswexec.32
 .rodata        0x00000000c0052164       0xc4 acpica/dswload.32
 .rodata        0x00000000c0052228      0x165 acpica/dswload2.32
 *fill*         0x00000000c005238d        0x3 
 .rodata        0x00000000c0052390       0x39 acpica/dswscope.32
 *fill*         0x00000000c00523c9        0x3 
 .rodata        0x00000000c00523cc      0x221 acpica/dswstate.32
 *fill*         0x00000000c00525ed        0x3 
 .rodata        0x00000000c00525f0       0xf4 acpica/evevent.32
 .rodata        0x00000000c00526e4       0xa8 acpica/evglock.32
 .rodata        0x00000000c005278c       0xca acpica/evgpe.32
 *fill*         0x00000000c0052856        0x2 
 .rodata        0x00000000c0052858       0xa9 acpica/evgpeblk.32
 *fill*         0x00000000c0052901        0x3 
 .rodata        0x00000000c0052904      0x106 acpica/evgpeinit.32
 *fill*         0x00000000c0052a0a        0x2 
 .rodata        0x00000000c0052a0c       0x42 acpica/evgpeutil.32
 *fill*         0x00000000c0052a4e        0x2 
 .rodata        0x00000000c0052a50        0xa acpica/evhandler.32
 *fill*         0x00000000c0052a5a        0x2 
 .rodata        0x00000000c0052a5c       0xc3 acpica/evmisc.32
 *fill*         0x00000000c0052b1f        0x1 
 .rodata        0x00000000c0052b20      0x135 acpica/evregion.32
 *fill*         0x00000000c0052c55        0x3 
 .rodata        0x00000000c0052c58       0x55 acpica/evrgnini.32
 *fill*         0x00000000c0052cad        0x3 
 .rodata        0x00000000c0052cb0       0x78 acpica/evxface.32
 .rodata        0x00000000c0052d28       0x8d acpica/evxfevnt.32
 *fill*         0x00000000c0052db5        0x3 
 .rodata        0x00000000c0052db8       0x1c acpica/evxfgpe.32
 .rodata        0x00000000c0052dd4       0x31 acpica/exconcat.32
 *fill*         0x00000000c0052e05        0x3 
 .rodata        0x00000000c0052e08       0x75 acpica/exconfig.32
 *fill*         0x00000000c0052e7d        0x3 
 .rodata        0x00000000c0052e80       0xe1 acpica/exconvrt.32
 *fill*         0x00000000c0052f61        0x3 
 .rodata        0x00000000c0052f64       0x35 acpica/excreate.32
 *fill*         0x00000000c0052f99        0x3 
 .rodata        0x00000000c0052f9c      0x214 acpica/exdebug.32
 .rodata        0x00000000c00531b0       0x44 acpica/exfield.32
                0x00000000c00531dc                AcpiProtocolLengths
 .rodata        0x00000000c00531f4      0x1f4 acpica/exfldio.32
 .rodata        0x00000000c00533e8       0xef acpica/exmisc.32
 *fill*         0x00000000c00534d7        0x1 
 .rodata        0x00000000c00534d8      0x160 acpica/exmutex.32
 .rodata        0x00000000c0053638       0x7c acpica/exnames.32
 .rodata        0x00000000c00536b4      0x219 acpica/exoparg1.32
 *fill*         0x00000000c00538cd        0x3 
 .rodata        0x00000000c00538d0      0x13d acpica/exoparg2.32
 *fill*         0x00000000c0053a0d        0x3 
 .rodata        0x00000000c0053a10       0x39 acpica/exoparg3.32
 *fill*         0x00000000c0053a49        0x3 
 .rodata        0x00000000c0053a4c       0x85 acpica/exoparg6.32
 *fill*         0x00000000c0053ad1        0x3 
 .rodata        0x00000000c0053ad4       0x97 acpica/exprep.32
 *fill*         0x00000000c0053b6b        0x1 
 .rodata        0x00000000c0053b6c       0x59 acpica/exregion.32
 *fill*         0x00000000c0053bc5        0x3 
 .rodata        0x00000000c0053bc8      0x165 acpica/exresnte.32
 *fill*         0x00000000c0053d2d        0x3 
 .rodata        0x00000000c0053d30      0x1a9 acpica/exresolv.32
 *fill*         0x00000000c0053ed9        0x3 
 .rodata        0x00000000c0053edc      0x2a8 acpica/exresop.32
 .rodata        0x00000000c0054184       0xb9 acpica/exserial.32
 *fill*         0x00000000c005423d        0x3 
 .rodata        0x00000000c0054240      0x1f0 acpica/exstore.32
 .rodata        0x00000000c0054430       0xf1 acpica/exstoren.32
 *fill*         0x00000000c0054521        0x3 
 .rodata        0x00000000c0054524       0x2d acpica/exsystem.32
 *fill*         0x00000000c0054551        0x3 
 .rodata        0x00000000c0054554      0x128 acpica/exutils.32
 .rodata        0x00000000c005467c       0xbf acpica/hwacpi.32
 .rodata.str1.1
                0x00000000c005473b       0x2a acpica/hwesleep.32
 *fill*         0x00000000c0054765        0x3 
 .rodata        0x00000000c0054768        0x9 acpica/hwesleep.32
 *fill*         0x00000000c0054771        0x3 
 .rodata        0x00000000c0054774       0x1e acpica/hwgpe.32
 .rodata        0x00000000c0054792        0x5 acpica/hwpci.32
 *fill*         0x00000000c0054797        0x1 
 .rodata        0x00000000c0054798      0x107 acpica/hwregs.32
 .rodata.str1.1
                0x00000000c005489f       0x10 acpica/hwsleep.32
 *fill*         0x00000000c005489f        0x1 
 .rodata        0x00000000c00548a0      0x194 acpica/hwvalid.32
 .rodata        0x00000000c0054a34       0x84 acpica/hwxface.32
 .rodata.str1.1
                0x00000000c0054ab8        0x6 acpica/hwxfsleep.32
                                         0x10 (size before relaxing)
 *fill*         0x00000000c0054abe        0x2 
 .rodata.str1.4
                0x00000000c0054ac0       0x29 acpica/hwxfsleep.32
 *fill*         0x00000000c0054ae9        0x3 
 .rodata        0x00000000c0054aec        0xa acpica/hwxfsleep.32
 *fill*         0x00000000c0054af6        0x2 
 .rodata        0x00000000c0054af8      0x129 acpica/nsaccess.32
 *fill*         0x00000000c0054c21        0x3 
 .rodata        0x00000000c0054c24       0x28 acpica/nsalloc.32
 .rodata        0x00000000c0054c4c      0x268 acpica/nsarguments.32
 .rodata        0x00000000c0054eb4        0xa acpica/nsconvert.32
 *fill*         0x00000000c0054ebe        0x2 
 .rodata        0x00000000c0054ec0      0x10f acpica/nseval.32
 *fill*         0x00000000c0054fcf        0x1 
 .rodata        0x00000000c0054fd0       0xdf acpica/nsinit.32
 *fill*         0x00000000c00550af        0x1 
 .rodata        0x00000000c00550b0       0x64 acpica/nsnames.32
 .rodata        0x00000000c0055114       0x71 acpica/nsobject.32
 *fill*         0x00000000c0055185        0x3 
 .rodata        0x00000000c0055188       0x10 acpica/nsparse.32
 *fill*         0x00000000c0055198        0x8 
 .rodata        0x00000000c00551a0      0xa4e acpica/nspredef.32
                0x00000000c0055320                AcpiGbl_PredefinedMethods
 *fill*         0x00000000c0055bee        0x2 
 .rodata        0x00000000c0055bf0      0x1b5 acpica/nsprepkg.32
 *fill*         0x00000000c0055da5       0x1b 
 .rodata        0x00000000c0055dc0       0xf9 acpica/nsrepair.32
 *fill*         0x00000000c0055eb9        0x7 
 .rodata        0x00000000c0055ec0      0x1da acpica/nsrepair2.32
 *fill*         0x00000000c005609a        0x2 
 .rodata        0x00000000c005609c       0x39 acpica/nssearch.32
 *fill*         0x00000000c00560d5        0x3 
 .rodata        0x00000000c00560d8       0x60 acpica/nsutils.32
 .rodata        0x00000000c0056138       0x8d acpica/nsxfeval.32
 *fill*         0x00000000c00561c5        0x3 
 .rodata        0x00000000c00561c8       0x1d acpica/nsxfname.32
 *fill*         0x00000000c00561e5        0x3 
 .rodata        0x00000000c00561e8      0x11f acpica/psargs.32
 *fill*         0x00000000c0056307        0x1 
 .rodata        0x00000000c0056308       0x9b acpica/psloop.32
 *fill*         0x00000000c00563a3        0x1 
 .rodata        0x00000000c00563a4       0x89 acpica/psobject.32
 *fill*         0x00000000c005642d       0x13 
 .rodata        0x00000000c0056440      0x830 acpica/psopcode.32
                0x00000000c0056440                AcpiGbl_AmlOpInfo
 *fill*         0x00000000c0056c70       0x10 
 .rodata        0x00000000c0056c80      0x1cc acpica/psopinfo.32
                0x00000000c0056ca0                AcpiGbl_LongOpIndex
                0x00000000c0056d40                AcpiGbl_ShortOpIndex
 .rodata        0x00000000c0056e4c       0x40 acpica/psparse.32
 .rodata        0x00000000c0056e8c       0x23 acpica/pstree.32
 *fill*         0x00000000c0056eaf        0x1 
 .rodata        0x00000000c0056eb0       0x8c acpica/rsaddr.32
                0x00000000c0056eec                AcpiRsConvertExtAddress64
                0x00000000c0056f00                AcpiRsConvertAddress64
                0x00000000c0056f14                AcpiRsConvertAddress32
                0x00000000c0056f28                AcpiRsConvertAddress16
 .rodata        0x00000000c0056f3c      0x230 acpica/rscalc.32
 .rodata        0x00000000c005716c      0x12d acpica/rscreate.32
 *fill*         0x00000000c0057299        0x7 
 .rodata        0x00000000c00572a0       0x5d acpica/rsinfo.32
                0x00000000c00572a0                AcpiGbl_ResourceStructSerialBusSizes
                0x00000000c00572a4                AcpiGbl_AmlResourceSerialBusSizes
                0x00000000c00572c0                AcpiGbl_ResourceStructSizes
                0x00000000c00572e4                AcpiGbl_AmlResourceSizes
 *fill*         0x00000000c00572fd        0x3 
 .rodata        0x00000000c0057300       0x84 acpica/rsio.32
                0x00000000c0057300                AcpiRsSetStartDpf
                0x00000000c0057328                AcpiRsGetStartDpf
                0x00000000c0057340                AcpiRsConvertEndTag
                0x00000000c0057348                AcpiRsConvertEndDpf
                0x00000000c0057350                AcpiRsConvertGenericReg
                0x00000000c0057360                AcpiRsConvertFixedIo
                0x00000000c0057370                AcpiRsConvertIo
 *fill*         0x00000000c0057384       0x1c 
 .rodata        0x00000000c00573a0       0xe4 acpica/rsirq.32
                0x00000000c00573a0                AcpiRsConvertFixedDma
                0x00000000c00573b0                AcpiRsConvertDma
                0x00000000c00573e0                AcpiRsConvertExtIrq
                0x00000000c0057420                AcpiRsSetIrq
                0x00000000c0057460                AcpiRsGetIrq
 .rodata        0x00000000c0057484      0x11f acpica/rslist.32
 *fill*         0x00000000c00575a3        0x1 
 .rodata        0x00000000c00575a4       0x64 acpica/rsmemory.32
                0x00000000c00575a4                AcpiRsSetVendor
                0x00000000c00575c0                AcpiRsGetVendorLarge
                0x00000000c00575cc                AcpiRsGetVendorSmall
                0x00000000c00575d8                AcpiRsConvertFixedMemory32
                0x00000000c00575e8                AcpiRsConvertMemory32
                0x00000000c00575f8                AcpiRsConvertMemory24
 .rodata        0x00000000c0057608      0x17f acpica/rsmisc.32
 *fill*         0x00000000c0057787       0x19 
 .rodata        0x00000000c00577a0      0x2a8 acpica/rsserial.32
                0x00000000c00577a0                AcpiRsConvertPinGroupConfig
                0x00000000c00577e0                AcpiRsConvertPinGroupFunction
                0x00000000c0057820                AcpiRsConvertPinGroup
                0x00000000c0057860                AcpiRsConvertPinConfig
                0x00000000c00578a0                AcpiRsConvertUartSerialBus
                0x00000000c0057900                AcpiRsConvertSpiSerialBus
                0x00000000c0057960                AcpiRsConvertI2cSerialBus
                0x00000000c00579c0                AcpiRsConvertPinFunction
                0x00000000c0057a00                AcpiRsConvertGpio
 .rodata        0x00000000c0057a48       0x44 acpica/rsutils.32
 .rodata        0x00000000c0057a8c       0x14 acpica/rsxface.32
 .rodata        0x00000000c0057aa0       0xf7 acpica/tbdata.32
 *fill*         0x00000000c0057b97        0x1 
 .rodata        0x00000000c0057b98      0x2f7 acpica/tbfadt.32
 *fill*         0x00000000c0057e8f        0x1 
 .rodata        0x00000000c0057e90       0xc1 acpica/tbinstal.32
 *fill*         0x00000000c0057f51        0x3 
 .rodata        0x00000000c0057f54       0xe4 acpica/tbprint.32
 .rodata        0x00000000c0058038      0x178 acpica/tbutils.32
 .rodata        0x00000000c00581b0       0x44 acpica/tbxface.32
 .rodata        0x00000000c00581f4      0x129 acpica/tbxfload.32
 *fill*         0x00000000c005831d        0x3 
 .rodata        0x00000000c0058320       0x61 acpica/tbxfroot.32
 *fill*         0x00000000c0058381        0x3 
 .rodata        0x00000000c0058384       0x66 acpica/utaddress.32
 .rodata        0x00000000c00583ea       0x40 acpica/utalloc.32
 *fill*         0x00000000c005842a        0x2 
 .rodata        0x00000000c005842c       0x54 acpica/utbuffer.32
 .rodata        0x00000000c0058480      0x101 acpica/utclib.32
                0x00000000c0058480                AcpiGbl_Ctypes
 *fill*         0x00000000c0058581        0x3 
 .rodata        0x00000000c0058584      0x14b acpica/utcopy.32
 *fill*         0x00000000c00586cf        0x1 
 .rodata        0x00000000c00586d0      0x473 acpica/utdecode.32
                0x00000000c0058b24                AcpiGbl_NsProperties
 *fill*         0x00000000c0058b43        0x1 
 .rodata        0x00000000c0058b44      0x1e9 acpica/utdelete.32
 *fill*         0x00000000c0058d2d        0x3 
 .rodata        0x00000000c0058d30      0x121 acpica/uterror.32
 *fill*         0x00000000c0058e51        0x3 
 .rodata        0x00000000c0058e54       0x9f acpica/uteval.32
 *fill*         0x00000000c0058ef3        0xd 
 .rodata        0x00000000c0058f00      0x930 acpica/utexcep.32
 *fill*         0x00000000c0059830       0x10 
 .rodata        0x00000000c0059840      0x14e acpica/utglobal.32
                0x00000000c00598a0                AcpiGbl_PreDefinedNames
                0x00000000c0059918                AcpiGbl_UpperHexDigits
                0x00000000c005992c                AcpiGbl_LowerHexDigits
 *fill*         0x00000000c005998e        0x2 
 .rodata        0x00000000c0059990       0x10 acpica/uthex.32
 .rodata        0x00000000c00599a0       0x14 acpica/utids.32
 .rodata        0x00000000c00599b4       0x2f acpica/utinit.32
 *fill*         0x00000000c00599e3        0x1 
 .rodata        0x00000000c00599e4       0x17 acpica/utmath.32
 *fill*         0x00000000c00599fb        0x1 
 .rodata        0x00000000c00599fc       0x3f acpica/utmisc.32
 *fill*         0x00000000c0059a3b        0x1 
 .rodata        0x00000000c0059a3c       0x6c acpica/utmutex.32
 .rodata        0x00000000c0059aa8      0x1b5 acpica/utobject.32
 *fill*         0x00000000c0059c5d        0x3 
 .rodata        0x00000000c0059c60      0x1ae acpica/utosi.32
 *fill*         0x00000000c0059e0e        0x2 
 .rodata        0x00000000c0059e10       0xba acpica/utownerid.32
 .rodata        0x00000000c0059eca       0x32 acpica/utpredef.32
 .rodata        0x00000000c0059efc      0x158 acpica/utprint.32
 *fill*         0x00000000c005a054        0xc 
 .rodata        0x00000000c005a060      0x14c acpica/utresrc.32
                0x00000000c005a164                AcpiGbl_ResourceAmlSerialBusSizes
                0x00000000c005a180                AcpiGbl_ResourceAmlSizes
 .rodata        0x00000000c005a1ac       0x30 acpica/utstate.32
 .rodata        0x00000000c005a1dc      0x1e5 acpica/utstring.32
 .rodata        0x00000000c005a3c1       0x94 acpica/utxferror.32
 *fill*         0x00000000c005a455        0x3 
 .rodata        0x00000000c005a458       0xd9 acpica/utxfinit.32
 *fill*         0x00000000c005a531        0x3 
 .rodata        0x00000000c005a534       0x18 core/malloc.32
 *fill*         0x00000000c005a54c       0x14 
 .rodata        0x00000000c005a560      0x120 fs/fat/ff.32
 .rodata.str1.1
                0x00000000c005a680       0x56 fs/fat/ff.32
                                         0x5a (size before relaxing)
 *fill*         0x00000000c005a6d6        0xa 
 .rodata        0x00000000c005a6e0      0x400 fs/fat/ffunicode.32
 .rodata.str1.1
                0x00000000c005aae0       0xb6 hal/libresample/samplerate.32
 *fill*         0x00000000c005ab96        0x2 
 .rodata.str1.4
                0x00000000c005ab98      0x3a5 hal/libresample/samplerate.32
 *fill*         0x00000000c005af3d        0x3 
 .rodata        0x00000000c005af40       0x60 hal/libresample/samplerate.32
 .rodata.cst8   0x00000000c005afa0       0x20 hal/libresample/samplerate.32
 .rodata.cst4   0x00000000c005afc0       0x14 hal/libresample/samplerate.32
 .rodata.str1.1
                0x00000000c005afd4       0x42 hal/libresample/src_linear.32
 *fill*         0x00000000c005b016        0x2 
 .rodata.cst8   0x00000000c005b018        0x8 hal/libresample/src_linear.32
                                         0x18 (size before relaxing)
 .rodata        0x00000000c005b020    0x185a4 hal/libresample/src_sinc.32
 .rodata.str1.4
                0x00000000c00735c4       0xc4 hal/libresample/src_sinc.32
 .rodata.str1.1
                0x00000000c0073688       0x4a hal/libresample/src_sinc.32
 *fill*         0x00000000c00736d2        0x6 
 .rodata.cst8   0x00000000c00736d8        0x8 hal/libresample/src_sinc.32
                                         0x20 (size before relaxing)
 .rodata.cst4   0x00000000c00736e0       0x14 hal/libresample/src_sinc.32
 .rodata.str1.1
                0x00000000c00736f4       0x48 hal/libresample/src_zoh.32
 .rodata.cst8   0x00000000c007373c       0x18 hal/libresample/src_zoh.32
 .rodata.str1.1
                0x00000000c007373c       0xa1 acpica/osl.32
                                         0xa8 (size before relaxing)
 *fill*         0x00000000c00737dd        0x3 
 .rodata.str1.4
                0x00000000c00737e0       0x61 acpica/osl.32
 .rodata.str1.1
                0x00000000c0073841       0xaf core/computer.32
                                         0xb6 (size before relaxing)
 .rodata._ZTV8Computer
                0x00000000c00738f0       0x2c core/computer.32
                0x00000000c00738f0                vtable for Computer
 .rodata.str1.1
                0x00000000c007391c      0x151 core/elf.32
                                        0x153 (size before relaxing)
 *fill*         0x00000000c0073a6d        0x3 
 .rodata.str1.4
                0x00000000c0073a70      0x152 core/kconsole.32
 *fill*         0x00000000c0073bc2        0x2 
 .rodata        0x00000000c0073bc4      0x150 core/kconsole.32
 .rodata.str1.1
                0x00000000c0073d14       0xb5 core/kconsole.32
                                         0xc5 (size before relaxing)
 *fill*         0x00000000c0073dc9        0x3 
 .rodata.str1.4
                0x00000000c0073dcc       0x30 core/kheap.32
 .rodata.str1.1
                0x00000000c0073dfc        0xc core/kheap.32
 .rodata.str1.1
                0x00000000c0073e08       0x1b core/main.32
                                         0x1c (size before relaxing)
 .rodata.str1.1
                0x00000000c0073e23       0x4e core/physmgr.32
 .rodata.str1.1
                0x00000000c0073e71       0x39 core/pipe.32
 *fill*         0x00000000c0073eaa        0x2 
 .rodata._ZTV4Pipe
                0x00000000c0073eac       0x1c core/pipe.32
                0x00000000c0073eac                vtable for Pipe
 .rodata.str1.1
                0x00000000c0073ec8       0x53 core/prcssthr.32
 *fill*         0x00000000c0073f1b        0x1 
 .rodata.str1.4
                0x00000000c0073f1c      0x280 core/prcssthr.32
 .rodata._ZN10LinkedListIV18ThreadControlBlockEC2Ev.str1.1
                0x00000000c007419c       0x19 core/prcssthr.32
 *fill*         0x00000000c00741b5        0x3 
 .rodata._ZN10LinkedListIV18ThreadControlBlockE10addElementEPS1_.str1.4
                0x00000000c00741b8       0x22 core/prcssthr.32
 .rodata._ZN10LinkedListIV18ThreadControlBlockE10addElementEPS1_.str1.1
                0x00000000c00741da       0x15 core/prcssthr.32
 *fill*         0x00000000c00741ef        0x1 
 .rodata._ZN10LinkedListIV18ThreadControlBlockE11removeFirstEv.str1.4
                0x00000000c00741f0       0x4b core/prcssthr.32
 .rodata._ZN10LinkedListIV18ThreadControlBlockE11removeFirstEv.str1.1
                0x00000000c007423b        0x8 core/prcssthr.32
 .rodata.str1.1
                0x00000000c0074243       0x5d core/syscalls.32
 .rodata.str1.4
                0x00000000c00742a0       0x4c core/syscalls.32
 .rodata.str1.1
                0x00000000c00742ec       0x9d core/terminal.32
 *fill*         0x00000000c0074389        0x3 
 .rodata._ZTV7VgaText
                0x00000000c007438c       0x1c core/terminal.32
                0x00000000c007438c                vtable for VgaText
 .rodata.str1.1
                0x00000000c00743a8       0x1a core/unixfile.32
 .rodata._ZN10LinkedListI8UnixFileEC2Ev.str1.1
                0x00000000c00743c2       0x19 core/unixfile.32
 .rodata._ZN10LinkedListI8UnixFileE11removeFirstEv.str1.4
                0x00000000c00743c2       0x4b core/unixfile.32
 .rodata._ZN10LinkedListI8UnixFileE11removeFirstEv.str1.1
                0x00000000c00743c2        0x8 core/unixfile.32
 .rodata._ZN10LinkedListI8UnixFileE10addElementEPS0_.str1.1
                0x00000000c00743c2       0x2f core/unixfile.32
                                         0x44 (size before relaxing)
 .rodata._ZN10LinkedListI8UnixFileE10addElementEPS0_.str1.4
                0x00000000c00743f1       0x22 core/unixfile.32
 *fill*         0x00000000c00743f1        0x3 
 .rodata.str1.4
                0x00000000c00743f4       0x20 core/unixfile.32
 .rodata._ZTV8UnixFile
                0x00000000c0074414       0x1c core/unixfile.32
                0x00000000c0074414                vtable for UnixFile
 .rodata._ZTV16ReservedFilename
                0x00000000c0074430       0x1c core/unixfile.32
                0x00000000c0074430                vtable for ReservedFilename
 .rodata.str1.4
                0x00000000c007444c      0x16d core/virtmgr.32
 .rodata.str1.1
                0x00000000c00745b9      0x1a0 core/virtmgr.32
                                        0x1b0 (size before relaxing)
 .rodata.str1.1
                0x00000000c0074759       0x33 coreobjs/c++.32
 .rodata.str1.1
                0x00000000c007478c       0x33 fs/vfs.32
                                          0x2 (size before relaxing)
 .rodata._ZTV10Filesystem
                0x00000000c007478c       0x64 fs/vfs.32
                0x00000000c007478c                vtable for Filesystem
 .rodata._ZTV4File
                0x00000000c00747f0       0x1c fs/vfs.32
                0x00000000c00747f0                vtable for File
 .rodata._ZTV9Directory
                0x00000000c007480c       0x1c fs/vfs.32
                0x00000000c007480c                vtable for Directory
 .rodata._ZTV3Bus
                0x00000000c0074828       0x2c hal/bus.32
                0x00000000c0074828                vtable for Bus
 .rodata._ZTV6Buzzer
                0x00000000c0074854       0x30 hal/buzzer.32
                0x00000000c0074854                vtable for Buzzer
 .rodata._ZTV5Clock
                0x00000000c0074884       0x3c hal/clock.32
                0x00000000c0074884                vtable for Clock
 .rodata        0x00000000c00748c0       0x30 hal/clock.32
 .rodata.str1.1
                0x00000000c00748f0       0x1e hal/device.32
 .rodata._ZN10LinkedListI6DeviceE10addElementEPS0_.str1.4
                0x00000000c007490e       0x22 hal/device.32
 .rodata._ZN10LinkedListI6DeviceE10addElementEPS0_.str1.1
                0x00000000c007490e       0x15 hal/device.32
 .rodata._ZN10LinkedListI6DeviceEC2Ev.str1.1
                0x00000000c007490e       0x19 hal/device.32
 *fill*         0x00000000c007490e        0x2 
 .rodata._ZTV6Device
                0x00000000c0074910       0x2c hal/device.32
                0x00000000c0074910                vtable for Device
 .rodata._ZTV16DriverlessDevice
                0x00000000c007493c       0x2c hal/device.32
                0x00000000c007493c                vtable for DriverlessDevice
 .rodata._ZTV18HardDiskController
                0x00000000c0074968       0x2c hal/diskctrl.32
                0x00000000c0074968                vtable for HardDiskController
 .rodata._ZTV12PhysicalDisk
                0x00000000c0074994       0x34 hal/diskphys.32
                0x00000000c0074994                vtable for PhysicalDisk
 .rodata.str1.1
                0x00000000c00749c8        0x8 hal/fpu.32
 .rodata._ZTV3FPU
                0x00000000c00749d0       0x38 hal/fpu.32
                0x00000000c00749d0                vtable for FPU
 .rodata.str1.4
                0x00000000c0074a08      0x158 hal/intctrl.32
 .rodata.str1.1
                0x00000000c0074b60      0x146 hal/intctrl.32
                                        0x159 (size before relaxing)
 *fill*         0x00000000c0074ca6        0x2 
 .rodata._ZTV19InterruptController
                0x00000000c0074ca8       0x48 hal/intctrl.32
                0x00000000c0074ca8                vtable for InterruptController
 .rodata._ZTV8Keyboard
                0x00000000c0074cf0       0x34 hal/keybrd.32
                0x00000000c0074cf0                vtable for Keyboard
 .rodata.str1.1
                0x00000000c0074d24       0x7a hal/logidisk.32
 *fill*         0x00000000c0074d9e        0x2 
 .rodata._ZTV11LogicalDisk
                0x00000000c0074da0       0x2c hal/logidisk.32
                0x00000000c0074da0                vtable for LogicalDisk
 .rodata.str1.1
                0x00000000c0074dcc        0xb hal/partition.32
 .rodata._ZN10LinkedListIV18ThreadControlBlockE11removeFirstEv.str1.4
                0x00000000c0074dd7       0x4b hal/timer.32
 .rodata._ZN10LinkedListIV18ThreadControlBlockE11removeFirstEv.str1.1
                0x00000000c0074dd7        0x8 hal/timer.32
 .rodata._ZN10LinkedListIV18ThreadControlBlockE10addElementEPS1_.str1.1
                0x00000000c0074dd7       0x44 hal/timer.32
 .rodata._ZN10LinkedListIV18ThreadControlBlockE10addElementEPS1_.str1.4
                0x00000000c0074dd7       0x22 hal/timer.32
 *fill*         0x00000000c0074dd7        0x1 
 .rodata._ZTV5Timer
                0x00000000c0074dd8       0x30 hal/timer.32
                0x00000000c0074dd8                vtable for Timer
 .rodata._ZTV6VCache
                0x00000000c0074e08       0x10 hal/vcache.32
                0x00000000c0074e08                vtable for VCache
 .rodata.str1.1
                0x00000000c0074e18      0x213 hw/acpi.32
                                        0x243 (size before relaxing)
 *fill*         0x00000000c007502b        0x1 
 .rodata.str1.4
                0x00000000c007502c      0x29a hw/acpi.32
 *fill*         0x00000000c00752c6        0x2 
 .rodata._ZTV4ACPI
                0x00000000c00752c8       0x2c hw/acpi.32
                0x00000000c00752c8                vtable for ACPI
 .rodata.str1.1
                0x00000000c00752f4      0x224 hw/cpu.32
                                        0x228 (size before relaxing)
 .rodata._ZTV3CPU
                0x00000000c0075518       0x2c hw/cpu.32
                0x00000000c0075518                vtable for CPU
 .rodata.str1.1
                0x00000000c0075544       0x45 registry/registry.32
                                         0x47 (size before relaxing)
 .rodata.str1.1
                0x00000000c0075589      0x105 vm86/vm8086.32
 *fill*         0x00000000c007568e        0x2 
 .rodata.str1.4
                0x00000000c0075690       0x2d vm86/vm8086.32
 *fill*         0x00000000c00756bd        0x3 
 .rodata        0x00000000c00756c0      0x390 vm86/vm8086.32
 .rodata.str1.1
                0x00000000c0075a50       0x53 fs/fat/vfslink.32
                                         0x5d (size before relaxing)
 *fill*         0x00000000c0075aa3        0x1 
 .rodata.str1.4
                0x00000000c0075aa4       0x25 fs/fat/vfslink.32
 *fill*         0x00000000c0075ac9        0x3 
 .rodata._ZTV3FAT
                0x00000000c0075acc       0x64 fs/fat/vfslink.32
                0x00000000c0075acc                vtable for FAT
 .rodata.str1.1
                0x00000000c0075b30       0x64 fs/iso9660/vfslink.32
 .rodata._ZTV7ISO9660
                0x00000000c0075b94       0x64 fs/iso9660/vfslink.32
                0x00000000c0075b94                vtable for ISO9660
 .rodata.str1.1
                0x00000000c0075bf8       0x1a hal/sound/sndchannel.32
 *fill*         0x00000000c0075c12        0x2 
 .rodata.cst4   0x00000000c0075c14        0x4 hal/sound/sndchannel.32
 .rodata._ZTV11SoundDevice
                0x00000000c0075c18       0x38 hal/sound/sndhw.32
                0x00000000c0075c18                vtable for SoundDevice
 .rodata.cst4   0x00000000c0075c50       0x10 hal/sound/sndhw.32
 .rodata.str1.1
                0x00000000c0075c60       0xce hw/audio/sb16.32
 *fill*         0x00000000c0075d2e        0x2 
 .rodata._ZTV14SoundBlaster16
                0x00000000c0075d30       0x38 hw/audio/sb16.32
                0x00000000c0075d30                vtable for SoundBlaster16
 .rodata.str1.1
                0x00000000c0075d68       0x29 hw/bus/isa.32
 *fill*         0x00000000c0075d91        0xf 
 .rodata        0x00000000c0075da0       0xa8 hw/bus/isa.32
 .rodata._ZTV3ISA
                0x00000000c0075e48       0x2c hw/bus/isa.32
                0x00000000c0075e48                vtable for ISA
 .rodata.str1.1
                0x00000000c0075e74       0xa4 hw/bus/pci.32
 .rodata._ZTV3PCI
                0x00000000c0075f18       0x2c hw/bus/pci.32
                0x00000000c0075f18                vtable for PCI
 .rodata.str1.1
                0x00000000c0075f44       0x10 hw/bus/ps2.32
 .rodata._ZTV3PS2
                0x00000000c0075f54       0x2c hw/bus/ps2.32
                0x00000000c0075f54                vtable for PS2
 .rodata.str1.1
                0x00000000c0075f80        0xa hw/bus/ps2port.32
 *fill*         0x00000000c0075f8a        0x2 
 .rodata._ZTV7PS2Port
                0x00000000c0075f8c       0x2c hw/bus/ps2port.32
                0x00000000c0075f8c                vtable for PS2Port
 .rodata.str1.1
                0x00000000c0075fb8        0xb hw/buzzer/pcspk.32
 *fill*         0x00000000c0075fc3        0x1 
 .rodata._ZTV4Beep
                0x00000000c0075fc4       0x30 hw/buzzer/pcspk.32
                0x00000000c0075fc4                vtable for Beep
 .rodata.str1.1
                0x00000000c0075ff4       0x2b hw/clock/rtc.32
 *fill*         0x00000000c007601f        0x1 
 .rodata._ZTV3RTC
                0x00000000c0076020       0x3c hw/clock/rtc.32
                0x00000000c0076020                vtable for RTC
 .rodata.str1.1
                0x00000000c007605c      0x264 hw/diskctrl/ide.32
 .rodata._ZTV3IDE
                0x00000000c00762c0       0x2c hw/diskctrl/ide.32
                0x00000000c00762c0                vtable for IDE
 .rodata.str1.1
                0x00000000c00762ec       0x21 hw/diskphys/ata.32
 *fill*         0x00000000c007630d        0x3 
 .rodata._ZTV3ATA
                0x00000000c0076310       0x34 hw/diskphys/ata.32
                0x00000000c0076310                vtable for ATA
 .rodata.str1.1
                0x00000000c0076344       0x62 hw/diskphys/atapi.32
                                         0x6c (size before relaxing)
 *fill*         0x00000000c00763a6        0x2 
 .rodata._ZTV5ATAPI
                0x00000000c00763a8       0x34 hw/diskphys/atapi.32
                0x00000000c00763a8                vtable for ATAPI
 .rodata.str1.1
                0x00000000c00763dc       0xea hw/dma/isadma.32
 *fill*         0x00000000c00764c6        0x2 
 .rodata        0x00000000c00764c8       0x18 hw/dma/isadma.32
 .rodata._ZTV3DMA
                0x00000000c00764e0       0x2c hw/dma/isadma.32
                0x00000000c00764e0                vtable for DMA
 .rodata.str1.1
                0x00000000c007650c        0x8 hw/fpu/avx.32
 .rodata._ZTV3AVX
                0x00000000c0076514       0x38 hw/fpu/avx.32
                0x00000000c0076514                vtable for AVX
 .rodata.str1.1
                0x00000000c007654c        0x8 hw/fpu/mmx.32
 .rodata._ZTV3MMX
                0x00000000c0076554       0x38 hw/fpu/mmx.32
                0x00000000c0076554                vtable for MMX
 .rodata.str1.1
                0x00000000c007658c        0x8 hw/fpu/sse.32
 .rodata._ZTV3SSE
                0x00000000c0076594       0x38 hw/fpu/sse.32
                0x00000000c0076594                vtable for SSE
 .rodata.str1.1
                0x00000000c00765cc        0x8 hw/fpu/x87.32
 .rodata._ZTV3x87
                0x00000000c00765d4       0x38 hw/fpu/x87.32
                0x00000000c00765d4                vtable for x87
 .rodata.str1.1
                0x00000000c007660c       0xad hw/intctrl/apic.32
 *fill*         0x00000000c00766b9        0x3 
 .rodata.str1.4
                0x00000000c00766bc       0x2b hw/intctrl/apic.32
 *fill*         0x00000000c00766e7        0x1 
 .rodata._ZTV4APIC
                0x00000000c00766e8       0x48 hw/intctrl/apic.32
                0x00000000c00766e8                vtable for APIC
 .rodata._ZTV6IOAPIC
                0x00000000c0076730       0x2c hw/intctrl/apic.32
                0x00000000c0076730                vtable for IOAPIC
 .rodata.str1.4
                0x00000000c007675c       0x24 hw/intctrl/pic.32
                                         0x22 (size before relaxing)
 .rodata._ZTV3PIC
                0x00000000c0076780       0x48 hw/intctrl/pic.32
                0x00000000c0076780                vtable for PIC
 .rodata.str1.1
                0x00000000c00767c8        0xe hw/keybrd/ps2key.32
 *fill*         0x00000000c00767d6        0x2 
 .rodata._ZTV11PS2Keyboard
                0x00000000c00767d8       0x34 hw/keybrd/ps2key.32
                0x00000000c00767d8                vtable for PS2Keyboard
 *fill*         0x00000000c007680c       0x14 
 .rodata        0x00000000c0076820      0x620 hw/keybrd/ps2key.32
                0x00000000c0076820                PS2Keyboard::internalMapperLowerBad
                0x00000000c0076a40                PS2Keyboard::internalMapCapUpper
                0x00000000c0076b40                PS2Keyboard::internalMapCapLower
                0x00000000c0076c40                PS2Keyboard::internalMapperUpper
                0x00000000c0076d40                PS2Keyboard::internalMapperLower
 .rodata.str1.1
                0x00000000c0076e40        0xb hw/timer/apictimer.32
 *fill*         0x00000000c0076e4b        0x1 
 .rodata._ZTV9APICTimer
                0x00000000c0076e4c       0x30 hw/timer/apictimer.32
                0x00000000c0076e4c                vtable for APICTimer
 .rodata.str1.1
                0x00000000c0076e7c       0x1d hw/timer/pit.32
 *fill*         0x00000000c0076e99        0x3 
 .rodata._ZTV3PIT
                0x00000000c0076e9c       0x30 hw/timer/pit.32
                0x00000000c0076e9c                vtable for PIT
 *(.gnu.linkonce.r*)

.data           0x00000000c0076ecc      0xbb9
 *(.data)
 .data          0x00000000c0076ecc        0x0 crti.32
 .data          0x00000000c0076ecc        0x4 /cygdrive/d/Users/Alex/Desktop/Toolchain/Output/bin/../lib/gcc/i386-banana/8.1.0/crtbegin.o
                0x00000000c0076ecc                __dso_handle
 .data          0x00000000c0076ed0        0x0 acpica/dsargs.32
 .data          0x00000000c0076ed0        0x0 acpica/dscontrol.32
 .data          0x00000000c0076ed0        0x0 acpica/dsdebug.32
 .data          0x00000000c0076ed0        0x0 acpica/dsfield.32
 .data          0x00000000c0076ed0        0x0 acpica/dsinit.32
 .data          0x00000000c0076ed0        0x0 acpica/dsmethod.32
 .data          0x00000000c0076ed0        0x0 acpica/dsmthdat.32
 .data          0x00000000c0076ed0        0x0 acpica/dsobject.32
 .data          0x00000000c0076ed0        0x0 acpica/dsopcode.32
 .data          0x00000000c0076ed0        0x0 acpica/dspkginit.32
 .data          0x00000000c0076ed0        0x0 acpica/dsutils.32
 *fill*         0x00000000c0076ed0       0x10 
 .data          0x00000000c0076ee0       0x30 acpica/dswexec.32
 .data          0x00000000c0076f10        0x0 acpica/dswload.32
 .data          0x00000000c0076f10        0x0 acpica/dswload2.32
 .data          0x00000000c0076f10        0x0 acpica/dswscope.32
 .data          0x00000000c0076f10        0x0 acpica/dswstate.32
 .data          0x00000000c0076f10        0x0 acpica/evevent.32
 .data          0x00000000c0076f10        0x0 acpica/evglock.32
 .data          0x00000000c0076f10        0x0 acpica/evgpe.32
 .data          0x00000000c0076f10        0x0 acpica/evgpeblk.32
 .data          0x00000000c0076f10        0x0 acpica/evgpeinit.32
 .data          0x00000000c0076f10        0x0 acpica/evgpeutil.32
 .data          0x00000000c0076f10        0x4 acpica/evhandler.32
                0x00000000c0076f10                AcpiGbl_DefaultAddressSpaces
 .data          0x00000000c0076f14        0x0 acpica/evmisc.32
 .data          0x00000000c0076f14        0x0 acpica/evregion.32
 .data          0x00000000c0076f14        0x0 acpica/evrgnini.32
 .data          0x00000000c0076f14        0x0 acpica/evsci.32
 .data          0x00000000c0076f14        0x0 acpica/evxface.32
 .data          0x00000000c0076f14        0x0 acpica/evxfevnt.32
 .data          0x00000000c0076f14        0x0 acpica/evxfgpe.32
 .data          0x00000000c0076f14        0x0 acpica/evxfregn.32
 .data          0x00000000c0076f14        0x0 acpica/exconcat.32
 .data          0x00000000c0076f14        0x0 acpica/exconfig.32
 .data          0x00000000c0076f14        0x0 acpica/exconvrt.32
 .data          0x00000000c0076f14        0x0 acpica/excreate.32
 .data          0x00000000c0076f14        0x0 acpica/exdebug.32
 .data          0x00000000c0076f14        0x0 acpica/exdump.32
 .data          0x00000000c0076f14        0x0 acpica/exfield.32
 .data          0x00000000c0076f14        0x0 acpica/exfldio.32
 .data          0x00000000c0076f14        0x0 acpica/exmisc.32
 .data          0x00000000c0076f14        0x0 acpica/exmutex.32
 .data          0x00000000c0076f14        0x0 acpica/exnames.32
 .data          0x00000000c0076f14        0x0 acpica/exoparg1.32
 .data          0x00000000c0076f14        0x0 acpica/exoparg2.32
 .data          0x00000000c0076f14        0x0 acpica/exoparg3.32
 .data          0x00000000c0076f14        0x0 acpica/exoparg6.32
 .data          0x00000000c0076f14        0x0 acpica/exprep.32
 .data          0x00000000c0076f14        0x0 acpica/exregion.32
 .data          0x00000000c0076f14        0x0 acpica/exresnte.32
 .data          0x00000000c0076f14        0x0 acpica/exresolv.32
 .data          0x00000000c0076f14        0x0 acpica/exresop.32
 .data          0x00000000c0076f14        0x0 acpica/exserial.32
 .data          0x00000000c0076f14        0x0 acpica/exstore.32
 .data          0x00000000c0076f14        0x0 acpica/exstoren.32
 .data          0x00000000c0076f14        0x0 acpica/exstorob.32
 .data          0x00000000c0076f14        0x0 acpica/exsystem.32
 .data          0x00000000c0076f14        0x0 acpica/extrace.32
 .data          0x00000000c0076f14        0x0 acpica/exutils.32
 .data          0x00000000c0076f14        0x0 acpica/hwacpi.32
 .data          0x00000000c0076f14        0x0 acpica/hwesleep.32
 .data          0x00000000c0076f14        0x0 acpica/hwgpe.32
 .data          0x00000000c0076f14        0x0 acpica/hwpci.32
 .data          0x00000000c0076f14        0x0 acpica/hwregs.32
 .data          0x00000000c0076f14        0x0 acpica/hwsleep.32
 .data          0x00000000c0076f14        0x0 acpica/hwtimer.32
 .data          0x00000000c0076f14        0x0 acpica/hwvalid.32
 .data          0x00000000c0076f14        0x0 acpica/hwxface.32
 .data          0x00000000c0076f14       0x18 acpica/hwxfsleep.32
 .data          0x00000000c0076f2c        0x0 acpica/nsaccess.32
 .data          0x00000000c0076f2c        0x0 acpica/nsalloc.32
 .data          0x00000000c0076f2c        0x0 acpica/nsarguments.32
 .data          0x00000000c0076f2c        0x0 acpica/nsconvert.32
 .data          0x00000000c0076f2c        0x0 acpica/nsdump.32
 .data          0x00000000c0076f2c        0x0 acpica/nsdumpdv.32
 .data          0x00000000c0076f2c        0x0 acpica/nseval.32
 .data          0x00000000c0076f2c        0x0 acpica/nsinit.32
 .data          0x00000000c0076f2c        0x0 acpica/nsload.32
 .data          0x00000000c0076f2c        0x0 acpica/nsnames.32
 .data          0x00000000c0076f2c        0x0 acpica/nsobject.32
 .data          0x00000000c0076f2c        0x0 acpica/nsparse.32
 .data          0x00000000c0076f2c        0x0 acpica/nspredef.32
 .data          0x00000000c0076f2c        0x0 acpica/nsprepkg.32
 .data          0x00000000c0076f2c        0x0 acpica/nsrepair.32
 .data          0x00000000c0076f2c        0x0 acpica/nsrepair2.32
 .data          0x00000000c0076f2c        0x0 acpica/nssearch.32
 .data          0x00000000c0076f2c        0x0 acpica/nsutils.32
 .data          0x00000000c0076f2c        0x0 acpica/nswalk.32
 .data          0x00000000c0076f2c        0x0 acpica/nsxfeval.32
 .data          0x00000000c0076f2c        0x0 acpica/nsxfname.32
 .data          0x00000000c0076f2c        0x0 acpica/nsxfobj.32
 .data          0x00000000c0076f2c        0x0 acpica/psargs.32
 .data          0x00000000c0076f2c        0x0 acpica/psloop.32
 .data          0x00000000c0076f2c        0x0 acpica/psobject.32
 .data          0x00000000c0076f2c        0x0 acpica/psopcode.32
 .data          0x00000000c0076f2c        0x0 acpica/psopinfo.32
 .data          0x00000000c0076f2c        0x0 acpica/psparse.32
 .data          0x00000000c0076f2c        0x0 acpica/psscope.32
 .data          0x00000000c0076f2c        0x0 acpica/pstree.32
 .data          0x00000000c0076f2c        0x0 acpica/psutils.32
 .data          0x00000000c0076f2c        0x0 acpica/pswalk.32
 .data          0x00000000c0076f2c        0x0 acpica/psxface.32
 .data          0x00000000c0076f2c        0x0 acpica/rsaddr.32
 .data          0x00000000c0076f2c        0x0 acpica/rscalc.32
 .data          0x00000000c0076f2c        0x0 acpica/rscreate.32
 .data          0x00000000c0076f2c        0x0 acpica/rsdump.32
 .data          0x00000000c0076f2c        0x0 acpica/rsdumpinfo.32
 *fill*         0x00000000c0076f2c       0x14 
 .data          0x00000000c0076f40      0x124 acpica/rsinfo.32
                0x00000000c0076f40                AcpiGbl_ConvertResourceSerialBusDispatch
                0x00000000c0076f60                AcpiGbl_GetResourceDispatch
                0x00000000c0077000                AcpiGbl_SetResourceDispatch
 .data          0x00000000c0077064        0x0 acpica/rsio.32
 .data          0x00000000c0077064        0x0 acpica/rsirq.32
 .data          0x00000000c0077064        0x0 acpica/rslist.32
 .data          0x00000000c0077064        0x0 acpica/rsmemory.32
 .data          0x00000000c0077064        0x0 acpica/rsmisc.32
 .data          0x00000000c0077064        0x0 acpica/rsserial.32
 .data          0x00000000c0077064        0x0 acpica/rsutils.32
 .data          0x00000000c0077064        0x0 acpica/rsxface.32
 .data          0x00000000c0077064        0x0 acpica/tbdata.32
 *fill*         0x00000000c0077064       0x1c 
 .data          0x00000000c0077080       0x80 acpica/tbfadt.32
 .data          0x00000000c0077100        0x0 acpica/tbfind.32
 .data          0x00000000c0077100        0x0 acpica/tbinstal.32
 .data          0x00000000c0077100        0x0 acpica/tbprint.32
 .data          0x00000000c0077100        0x0 acpica/tbutils.32
 .data          0x00000000c0077100        0x0 acpica/tbxface.32
 .data          0x00000000c0077100        0x0 acpica/tbxfload.32
 .data          0x00000000c0077100        0x0 acpica/tbxfroot.32
 .data          0x00000000c0077100        0x0 acpica/utaddress.32
 .data          0x00000000c0077100        0x0 acpica/utalloc.32
 .data          0x00000000c0077100        0x0 acpica/utascii.32
 .data          0x00000000c0077100        0x0 acpica/utbuffer.32
 .data          0x00000000c0077100        0x0 acpica/utcache.32
 .data          0x00000000c0077100        0x0 acpica/utclib.32
 .data          0x00000000c0077100        0x0 acpica/utcopy.32
 .data          0x00000000c0077100        0x0 acpica/utdebug.32
 .data          0x00000000c0077100      0x14c acpica/utdecode.32
                0x00000000c0077220                AcpiGbl_RegionTypes
 .data          0x00000000c007724c        0x0 acpica/utdelete.32
 .data          0x00000000c007724c        0x0 acpica/uterror.32
 .data          0x00000000c007724c        0x0 acpica/uteval.32
 .data          0x00000000c007724c        0x0 acpica/utexcep.32
 *fill*         0x00000000c007724c       0x14 
 .data          0x00000000c0077260       0xda acpica/utglobal.32
                0x00000000c0077260                AcpiGbl_FixedEventInfo
                0x00000000c0077280                AcpiGbl_BitRegisterInfo
                0x00000000c00772d0                AcpiGbl_HighestDstateNames
                0x00000000c00772e0                AcpiGbl_LowestDstateNames
                0x00000000c00772f4                AcpiGbl_SleepStateNames
                0x00000000c007730c                AcpiGbl_DbOutputFlags
                0x00000000c007730d                AcpiGbl_EarlyInitialization
                0x00000000c007730e                AcpiGbl_Shutdown
                0x00000000c0077310                AcpiGbl_FadtIndex
                0x00000000c0077314                AcpiGbl_XFacsIndex
                0x00000000c0077318                AcpiGbl_FacsIndex
                0x00000000c007731c                AcpiGbl_DsdtIndex
                0x00000000c0077320                AcpiDbgLayer
                0x00000000c0077324                AcpiDbgLevel
                0x00000000c0077328                AcpiGbl_TraceDbgLayer
                0x00000000c007732c                AcpiGbl_TraceDbgLevel
                0x00000000c0077330                AcpiGbl_MaxLoopIterations
                0x00000000c0077334                AcpiGbl_RuntimeNamespaceOverride
                0x00000000c0077335                AcpiGbl_Use32BitFacsAddresses
                0x00000000c0077336                AcpiGbl_EnableTableValidation
                0x00000000c0077337                AcpiGbl_UseDefaultRegisterWidths
                0x00000000c0077338                AcpiGbl_CreateOsiMethod
                0x00000000c0077339                AcpiGbl_AutoSerializeMethods
 .data          0x00000000c007733a        0x0 acpica/uthex.32
 .data          0x00000000c007733a        0x0 acpica/utids.32
 .data          0x00000000c007733a        0x0 acpica/utinit.32
 .data          0x00000000c007733a        0x0 acpica/utlock.32
 .data          0x00000000c007733a        0x0 acpica/utmath.32
 .data          0x00000000c007733a        0x0 acpica/utmisc.32
 .data          0x00000000c007733a        0x0 acpica/utmutex.32
 .data          0x00000000c007733a        0x0 acpica/utnonansi.32
 .data          0x00000000c007733a        0x0 acpica/utobject.32
 *fill*         0x00000000c007733a        0x6 
 .data          0x00000000c0077340      0x138 acpica/utosi.32
 .data          0x00000000c0077478        0x0 acpica/utownerid.32
 .data          0x00000000c0077478       0x14 acpica/utpredef.32
 .data          0x00000000c007748c        0x0 acpica/utprint.32
 .data          0x00000000c007748c        0x0 acpica/utresdecode.32
 .data          0x00000000c007748c        0x0 acpica/utresrc.32
 .data          0x00000000c007748c        0x0 acpica/utstate.32
 .data          0x00000000c007748c        0x0 acpica/utstring.32
 .data          0x00000000c007748c        0x0 acpica/utstrsuppt.32
 .data          0x00000000c007748c        0x0 acpica/utstrtoul64.32
 .data          0x00000000c007748c        0x0 acpica/uttrack.32
 .data          0x00000000c007748c        0x0 acpica/utuuid.32
 .data          0x00000000c007748c        0x0 acpica/utxface.32
 .data          0x00000000c007748c        0x0 acpica/utxferror.32
 .data          0x00000000c007748c        0x0 acpica/utxfinit.32
 .data          0x00000000c007748c        0x0 acpica/utxfmutex.32
 .data          0x00000000c007748c        0x0 core/malloc.32
 .data          0x00000000c007748c        0x0 libk/string.32
 .data          0x00000000c007748c        0x0 fs/fat/diskio.32
 .data          0x00000000c007748c        0x0 fs/fat/ff.32
 .data          0x00000000c007748c        0x0 fs/fat/ffsystem.32
 .data          0x00000000c007748c        0x0 fs/fat/ffunicode.32
 .data          0x00000000c007748c        0x0 hal/libresample/samplerate.32
 .data          0x00000000c007748c        0x0 hal/libresample/src_linear.32
 .data          0x00000000c007748c        0x0 hal/libresample/src_sinc.32
 .data          0x00000000c007748c        0x0 hal/libresample/src_zoh.32
 .data          0x00000000c007748c        0x0 acpica/osl.32
 .data          0x00000000c007748c        0x0 core/computer.32
 .data          0x00000000c007748c        0x0 core/elf.32
 .data          0x00000000c007748c        0x0 core/gdt.32
 .data          0x00000000c007748c        0x0 core/idle.32
 .data          0x00000000c007748c        0x0 core/idt.32
 .data          0x00000000c007748c        0x0 core/kconsole.32
 .data          0x00000000c007748c        0x4 core/kheap.32
 .data          0x00000000c0077490        0x0 core/main.32
 .data          0x00000000c0077490        0x4 core/physmgr.32
                0x00000000c0077490                PhysMem::bitmap
 .data          0x00000000c0077494        0x0 core/pipe.32
 .data          0x00000000c0077494        0x4 core/prcssthr.32
                0x00000000c0077494                nextPID
 .data          0x00000000c0077498        0x0 core/syscalls.32
 *fill*         0x00000000c0077498        0x8 
 .data          0x00000000c00774a0       0x60 core/terminal.32
                0x00000000c00774a0                VgaText::hiddenOut
                0x00000000c00774c0                ansiToVGAMappings
 .data          0x00000000c0077500        0x0 core/tss.32
 .data          0x00000000c0077500        0x4 core/unixfile.32
                0x00000000c0077500                UnixFile::nextFd
 .data          0x00000000c0077504        0x8 core/virtmgr.32
                0x00000000c0077504                VirtMem::pageAllocPtr
                0x00000000c0077508                VirtMem::bitmap
 .data          0x00000000c007750c        0x4 coreobjs/c++.32
                0x00000000c007750c                __stack_chk_guard
 .data          0x00000000c0077510        0x0 debugger/debug.32
 .data          0x00000000c0077510        0x0 fs/vfs.32
 .data          0x00000000c0077510        0x0 hal/bus.32
 .data          0x00000000c0077510        0x0 hal/buzzer.32
 .data          0x00000000c0077510        0x0 hal/clock.32
 .data          0x00000000c0077510        0x0 hal/device.32
 .data          0x00000000c0077510        0x0 hal/diskctrl.32
 .data          0x00000000c0077510        0x0 hal/diskphys.32
 .data          0x00000000c0077510        0x0 hal/fpu.32
 *fill*         0x00000000c0077510       0x10 
 .data          0x00000000c0077520      0x2a0 hal/intctrl.32
                0x00000000c0077520                exceptionNames
 .data          0x00000000c00777c0        0x0 hal/keybrd.32
 .data          0x00000000c00777c0        0x0 hal/logidisk.32
 .data          0x00000000c00777c0        0x0 hal/partition.32
 .data          0x00000000c00777c0        0x0 hal/timer.32
 .data          0x00000000c00777c0        0x0 hal/vcache.32
 .data          0x00000000c00777c0       0x10 hw/acpi.32
                0x00000000c00777c0                legacyIRQRemaps
 *fill*         0x00000000c00777d0       0x10 
 .data          0x00000000c00777e0      0x2a4 hw/cpu.32
                0x00000000c00777e0                cpuNameList
                0x00000000c0077a80                lastCode
 .data          0x00000000c0077a84        0x0 hw/ports.32
 .data          0x00000000c0077a84        0x0 registry/registry.32
 .data          0x00000000c0077a84        0x0 syscalls/sc_exit.32
 .data          0x00000000c0077a84        0x0 syscalls/sc_sbrk.32
 .data          0x00000000c0077a84        0x0 syscalls/sc_yield.32
 .data          0x00000000c0077a84        0x0 vm86/vm8086.32
 .data          0x00000000c0077a84        0x0 fs/fat/vfslink.32
 .data          0x00000000c0077a84        0x0 fs/iso9660/vfslink.32
 .data          0x00000000c0077a84        0x0 hal/sound/sndchannel.32
 .data          0x00000000c0077a84        0x0 hal/sound/sndhw.32
 .data          0x00000000c0077a84        0x1 hw/audio/sb16.32
 .data          0x00000000c0077a85        0x0 hw/bus/isa.32
 .data          0x00000000c0077a85        0x0 hw/bus/pci.32
 .data          0x00000000c0077a85        0x0 hw/bus/ps2.32
 .data          0x00000000c0077a85        0x0 hw/bus/ps2port.32
 .data          0x00000000c0077a85        0x0 hw/buzzer/pcspk.32
 .data          0x00000000c0077a85        0x0 hw/clock/rtc.32
 .data          0x00000000c0077a85        0x0 hw/diskctrl/ide.32
 .data          0x00000000c0077a85        0x0 hw/diskphys/ata.32
 .data          0x00000000c0077a85        0x0 hw/diskphys/atapi.32
 .data          0x00000000c0077a85        0x0 hw/dma/isadma.32
 .data          0x00000000c0077a85        0x0 hw/fpu/avx.32
 .data          0x00000000c0077a85        0x0 hw/fpu/mmx.32
 .data          0x00000000c0077a85        0x0 hw/fpu/sse.32
 .data          0x00000000c0077a85        0x0 hw/fpu/x87.32
 .data          0x00000000c0077a85        0x0 hw/intctrl/apic.32
 .data          0x00000000c0077a85        0x0 hw/intctrl/pic.32
 .data          0x00000000c0077a85        0x0 hw/keybrd/ps2key.32
 .data          0x00000000c0077a85        0x0 hw/timer/apictimer.32
 .data          0x00000000c0077a85        0x0 hw/timer/pit.32
 .data          0x00000000c0077a85        0x0 /cygdrive/d/Users/Alex/Desktop/Toolchain/Output/bin/../lib/gcc/i386-banana/8.1.0/crtend.o
 .data          0x00000000c0077a85        0x0 crtn.32
 .data          0x00000000c0077a85        0x0 /cygdrive/d/Users/Alex/Desktop/Toolchain/Output/bin/../lib/gcc/i386-banana/8.1.0/libgcc.a(_divdi3.o)
 .data          0x00000000c0077a85        0x0 /cygdrive/d/Users/Alex/Desktop/Toolchain/Output/bin/../lib/gcc/i386-banana/8.1.0/libgcc.a(_moddi3.o)
 .data          0x00000000c0077a85        0x0 /cygdrive/d/Users/Alex/Desktop/Toolchain/Output/bin/../lib/gcc/i386-banana/8.1.0/libgcc.a(_divmoddi4.o)
 .data          0x00000000c0077a85        0x0 /cygdrive/d/Users/Alex/Desktop/Toolchain/Output/bin/../lib/gcc/i386-banana/8.1.0/libgcc.a(_udivdi3.o)
 .data          0x00000000c0077a85        0x0 /cygdrive/d/Users/Alex/Desktop/Toolchain/Output/bin/../lib/gcc/i386-banana/8.1.0/libgcc.a(_umoddi3.o)
 .data          0x00000000c0077a85        0x0 D:/Users/Alex/Desktop/Banana/kernel/libk/libm32.a(s_fabs.c.o)
 .data          0x00000000c0077a85        0x0 D:/Users/Alex/Desktop/Banana/kernel/libk/libm32.a(s_lrint.S.o)
 .data          0x00000000c0077a85        0x0 D:/Users/Alex/Desktop/Banana/kernel/libk/libm32.a(s_lrintf.S.o)
 *(.gnu.linkonce.d*)

.got            0x00000000c0077a88        0x0
 .got           0x00000000c0077a88        0x0 D:/Users/Alex/Desktop/Banana/kernel/boot.32

.got.plt        0x00000000c0077a88        0x0
 .got.plt       0x00000000c0077a88        0x0 D:/Users/Alex/Desktop/Banana/kernel/boot.32

.igot.plt       0x00000000c0077a88        0x0
 .igot.plt      0x00000000c0077a88        0x0 D:/Users/Alex/Desktop/Banana/kernel/boot.32

.tm_clone_table
                0x00000000c0077a88        0x0
 .tm_clone_table
                0x00000000c0077a88        0x0 /cygdrive/d/Users/Alex/Desktop/Toolchain/Output/bin/../lib/gcc/i386-banana/8.1.0/crtbegin.o
 .tm_clone_table
                0x00000000c0077a88        0x0 /cygdrive/d/Users/Alex/Desktop/Toolchain/Output/bin/../lib/gcc/i386-banana/8.1.0/crtend.o

.eh_frame       0x00000000c0077a85      0x1e3
 *(.eh_frame)
 *fill*         0x00000000c0077a85        0x3 
 .eh_frame      0x00000000c0077a88        0x0 /cygdrive/d/Users/Alex/Desktop/Toolchain/Output/bin/../lib/gcc/i386-banana/8.1.0/crtbegin.o
 .eh_frame      0x00000000c0077a88        0x0 /cygdrive/d/Users/Alex/Desktop/Toolchain/Output/bin/../lib/gcc/i386-banana/8.1.0/crtend.o
                                          0x4 (size before relaxing)
 .eh_frame      0x00000000c0077a88       0x58 /cygdrive/d/Users/Alex/Desktop/Toolchain/Output/bin/../lib/gcc/i386-banana/8.1.0/libgcc.a(_divdi3.o)
 .eh_frame      0x00000000c0077ae0       0x40 /cygdrive/d/Users/Alex/Desktop/Toolchain/Output/bin/../lib/gcc/i386-banana/8.1.0/libgcc.a(_moddi3.o)
                                         0x58 (size before relaxing)
 .eh_frame      0x00000000c0077b20       0x40 /cygdrive/d/Users/Alex/Desktop/Toolchain/Output/bin/../lib/gcc/i386-banana/8.1.0/libgcc.a(_divmoddi4.o)
                                         0x58 (size before relaxing)
 .eh_frame      0x00000000c0077b60       0x6c /cygdrive/d/Users/Alex/Desktop/Toolchain/Output/bin/../lib/gcc/i386-banana/8.1.0/libgcc.a(_udivdi3.o)
                                         0x84 (size before relaxing)
 .eh_frame      0x00000000c0077bcc       0x84 /cygdrive/d/Users/Alex/Desktop/Toolchain/Output/bin/../lib/gcc/i386-banana/8.1.0/libgcc.a(_umoddi3.o)
                                         0x9c (size before relaxing)
 .eh_frame      0x00000000c0077c50       0x18 D:/Users/Alex/Desktop/Banana/kernel/libk/libm32.a(s_fabs.c.o)
                                         0x30 (size before relaxing)

.rel.dyn        0x00000000c0077c68        0x0
 .rel.got       0x00000000c0077c68        0x0 D:/Users/Alex/Desktop/Banana/kernel/boot.32
 .rel.iplt      0x00000000c0077c68        0x0 D:/Users/Alex/Desktop/Banana/kernel/boot.32
 .rel.text      0x00000000c0077c68        0x0 D:/Users/Alex/Desktop/Banana/kernel/boot.32
 .rel.data      0x00000000c0077c68        0x0 D:/Users/Alex/Desktop/Banana/kernel/boot.32
 .rel.text._ZN8ComputerD2Ev
                0x00000000c0077c68        0x0 D:/Users/Alex/Desktop/Banana/kernel/boot.32
 .rel.text._ZN8ComputerD0Ev
                0x00000000c0077c68        0x0 D:/Users/Alex/Desktop/Banana/kernel/boot.32
 .rel.rodata._ZTV8Computer
                0x00000000c0077c68        0x0 D:/Users/Alex/Desktop/Banana/kernel/boot.32
 .rel.text._ZN10LinkedListI8UnixFileE10addElementEPS0_
                0x00000000c0077c68        0x0 D:/Users/Alex/Desktop/Banana/kernel/boot.32
 .rel.text._ZN16DriverlessDeviceD2Ev
                0x00000000c0077c68        0x0 D:/Users/Alex/Desktop/Banana/kernel/boot.32
 .rel.text._ZN16DriverlessDeviceD0Ev
                0x00000000c0077c68        0x0 D:/Users/Alex/Desktop/Banana/kernel/boot.32
 .rel.rodata._ZTV16DriverlessDevice
                0x00000000c0077c68        0x0 D:/Users/Alex/Desktop/Banana/kernel/boot.32
 .rel.text._ZN4ACPID2Ev
                0x00000000c0077c68        0x0 D:/Users/Alex/Desktop/Banana/kernel/boot.32
 .rel.text._ZN4ACPID0Ev
                0x00000000c0077c68        0x0 D:/Users/Alex/Desktop/Banana/kernel/boot.32
 .rel.rodata._ZTV4ACPI
                0x00000000c0077c68        0x0 D:/Users/Alex/Desktop/Banana/kernel/boot.32
 .rel.text._ZN3CPUD2Ev
                0x00000000c0077c68        0x0 D:/Users/Alex/Desktop/Banana/kernel/boot.32
 .rel.text._ZN3CPUD0Ev
                0x00000000c0077c68        0x0 D:/Users/Alex/Desktop/Banana/kernel/boot.32
 .rel.rodata._ZTV3CPU
                0x00000000c0077c68        0x0 D:/Users/Alex/Desktop/Banana/kernel/boot.32
 .rel.text._ZN14SoundBlaster16D2Ev
                0x00000000c0077c68        0x0 D:/Users/Alex/Desktop/Banana/kernel/boot.32
 .rel.text._ZN14SoundBlaster16D0Ev
                0x00000000c0077c68        0x0 D:/Users/Alex/Desktop/Banana/kernel/boot.32
 .rel.rodata._ZTV14SoundBlaster16
                0x00000000c0077c68        0x0 D:/Users/Alex/Desktop/Banana/kernel/boot.32
 .rel.text._ZN3ISAD2Ev
                0x00000000c0077c68        0x0 D:/Users/Alex/Desktop/Banana/kernel/boot.32
 .rel.text._ZN3ISAD0Ev
                0x00000000c0077c68        0x0 D:/Users/Alex/Desktop/Banana/kernel/boot.32
 .rel.rodata._ZTV3ISA
                0x00000000c0077c68        0x0 D:/Users/Alex/Desktop/Banana/kernel/boot.32
 .rel.text._ZN3PCID2Ev
                0x00000000c0077c68        0x0 D:/Users/Alex/Desktop/Banana/kernel/boot.32
 .rel.text._ZN3PCID0Ev
                0x00000000c0077c68        0x0 D:/Users/Alex/Desktop/Banana/kernel/boot.32
 .rel.rodata._ZTV3PCI
                0x00000000c0077c68        0x0 D:/Users/Alex/Desktop/Banana/kernel/boot.32
 .rel.text._ZN3PS2D2Ev
                0x00000000c0077c68        0x0 D:/Users/Alex/Desktop/Banana/kernel/boot.32
 .rel.text._ZN3PS2D0Ev
                0x00000000c0077c68        0x0 D:/Users/Alex/Desktop/Banana/kernel/boot.32
 .rel.rodata._ZTV3PS2
                0x00000000c0077c68        0x0 D:/Users/Alex/Desktop/Banana/kernel/boot.32
 .rel.text._ZN7PS2PortD2Ev
                0x00000000c0077c68        0x0 D:/Users/Alex/Desktop/Banana/kernel/boot.32
 .rel.text._ZN7PS2PortD0Ev
                0x00000000c0077c68        0x0 D:/Users/Alex/Desktop/Banana/kernel/boot.32
 .rel.rodata._ZTV7PS2Port
                0x00000000c0077c68        0x0 D:/Users/Alex/Desktop/Banana/kernel/boot.32
 .rel.text._ZN4BeepD2Ev
                0x00000000c0077c68        0x0 D:/Users/Alex/Desktop/Banana/kernel/boot.32
 .rel.text._ZN4BeepD0Ev
                0x00000000c0077c68        0x0 D:/Users/Alex/Desktop/Banana/kernel/boot.32
 .rel.rodata._ZTV4Beep
                0x00000000c0077c68        0x0 D:/Users/Alex/Desktop/Banana/kernel/boot.32
 .rel.text._ZN3IDED2Ev
                0x00000000c0077c68        0x0 D:/Users/Alex/Desktop/Banana/kernel/boot.32
 .rel.text._ZN3IDED0Ev
                0x00000000c0077c68        0x0 D:/Users/Alex/Desktop/Banana/kernel/boot.32
 .rel.rodata._ZTV3IDE
                0x00000000c0077c68        0x0 D:/Users/Alex/Desktop/Banana/kernel/boot.32
 .rel.text._ZN3ATAD2Ev
                0x00000000c0077c68        0x0 D:/Users/Alex/Desktop/Banana/kernel/boot.32
 .rel.text._ZN3ATAD0Ev
                0x00000000c0077c68        0x0 D:/Users/Alex/Desktop/Banana/kernel/boot.32
 .rel.rodata._ZTV3ATA
                0x00000000c0077c68        0x0 D:/Users/Alex/Desktop/Banana/kernel/boot.32
 .rel.text._ZN5ATAPID2Ev
                0x00000000c0077c68        0x0 D:/Users/Alex/Desktop/Banana/kernel/boot.32
 .rel.text._ZN5ATAPID0Ev
                0x00000000c0077c68        0x0 D:/Users/Alex/Desktop/Banana/kernel/boot.32
 .rel.rodata._ZTV5ATAPI
                0x00000000c0077c68        0x0 D:/Users/Alex/Desktop/Banana/kernel/boot.32
 .rel.text._ZN3DMAD2Ev
                0x00000000c0077c68        0x0 D:/Users/Alex/Desktop/Banana/kernel/boot.32
 .rel.text._ZN3DMAD0Ev
                0x00000000c0077c68        0x0 D:/Users/Alex/Desktop/Banana/kernel/boot.32
 .rel.rodata._ZTV3DMA
                0x00000000c0077c68        0x0 D:/Users/Alex/Desktop/Banana/kernel/boot.32
 .rel.text._ZN3AVXD2Ev
                0x00000000c0077c68        0x0 D:/Users/Alex/Desktop/Banana/kernel/boot.32
 .rel.text._ZN3AVXD0Ev
                0x00000000c0077c68        0x0 D:/Users/Alex/Desktop/Banana/kernel/boot.32
 .rel.rodata._ZTV3AVX
                0x00000000c0077c68        0x0 D:/Users/Alex/Desktop/Banana/kernel/boot.32
 .rel.text._ZN3MMXD2Ev
                0x00000000c0077c68        0x0 D:/Users/Alex/Desktop/Banana/kernel/boot.32
 .rel.text._ZN3MMXD0Ev
                0x00000000c0077c68        0x0 D:/Users/Alex/Desktop/Banana/kernel/boot.32
 .rel.rodata._ZTV3MMX
                0x00000000c0077c68        0x0 D:/Users/Alex/Desktop/Banana/kernel/boot.32
 .rel.text._ZN3SSED2Ev
                0x00000000c0077c68        0x0 D:/Users/Alex/Desktop/Banana/kernel/boot.32
 .rel.text._ZN3SSED0Ev
                0x00000000c0077c68        0x0 D:/Users/Alex/Desktop/Banana/kernel/boot.32
 .rel.rodata._ZTV3SSE
                0x00000000c0077c68        0x0 D:/Users/Alex/Desktop/Banana/kernel/boot.32
 .rel.text._ZN3x87D2Ev
                0x00000000c0077c68        0x0 D:/Users/Alex/Desktop/Banana/kernel/boot.32
 .rel.text._ZN3x87D0Ev
                0x00000000c0077c68        0x0 D:/Users/Alex/Desktop/Banana/kernel/boot.32
 .rel.rodata._ZTV3x87
                0x00000000c0077c68        0x0 D:/Users/Alex/Desktop/Banana/kernel/boot.32
 .rel.text._ZN6IOAPICD2Ev
                0x00000000c0077c68        0x0 D:/Users/Alex/Desktop/Banana/kernel/boot.32
 .rel.text._ZN6IOAPICD0Ev
                0x00000000c0077c68        0x0 D:/Users/Alex/Desktop/Banana/kernel/boot.32
 .rel.text._ZN4APICD2Ev
                0x00000000c0077c68        0x0 D:/Users/Alex/Desktop/Banana/kernel/boot.32
 .rel.text._ZN4APICD0Ev
                0x00000000c0077c68        0x0 D:/Users/Alex/Desktop/Banana/kernel/boot.32
 .rel.rodata._ZTV4APIC
                0x00000000c0077c68        0x0 D:/Users/Alex/Desktop/Banana/kernel/boot.32
 .rel.rodata._ZTV6IOAPIC
                0x00000000c0077c68        0x0 D:/Users/Alex/Desktop/Banana/kernel/boot.32
 .rel.text._ZN3PICD2Ev
                0x00000000c0077c68        0x0 D:/Users/Alex/Desktop/Banana/kernel/boot.32
 .rel.text._ZN3PICD0Ev
                0x00000000c0077c68        0x0 D:/Users/Alex/Desktop/Banana/kernel/boot.32
 .rel.rodata._ZTV3PIC
                0x00000000c0077c68        0x0 D:/Users/Alex/Desktop/Banana/kernel/boot.32
 .rel.text._ZN9APICTimerD2Ev
                0x00000000c0077c68        0x0 D:/Users/Alex/Desktop/Banana/kernel/boot.32
 .rel.text._ZN9APICTimerD0Ev
                0x00000000c0077c68        0x0 D:/Users/Alex/Desktop/Banana/kernel/boot.32
 .rel.rodata._ZTV9APICTimer
                0x00000000c0077c68        0x0 D:/Users/Alex/Desktop/Banana/kernel/boot.32
 .rel.text._ZN3PITD2Ev
                0x00000000c0077c68        0x0 D:/Users/Alex/Desktop/Banana/kernel/boot.32
 .rel.text._ZN3PITD0Ev
                0x00000000c0077c68        0x0 D:/Users/Alex/Desktop/Banana/kernel/boot.32
 .rel.rodata._ZTV3PIT
                0x00000000c0077c68        0x0 D:/Users/Alex/Desktop/Banana/kernel/boot.32

.bss            0x00000000c0077c68    0x13a60
                0x00000000c0077c68                sbss = .
 *(COMMON)
 *fill*         0x00000000c0077c68       0x18 
 COMMON         0x00000000c0077c80      0x5a4 acpica/utglobal.32
                0x00000000c0077c80                AcpiGbl_StateCache
                0x00000000c0077ca0                AcpiGbl_OwnerIdMask
                0x00000000c0077ea0                AcpiGbl_StepToNextCall
                0x00000000c0077ea4                AcpiGbl_RootTableList
                0x00000000c0077eb4                AcpiGbl_FadtGpeDevice
                0x00000000c0077eb8                AcpiGbl_GpeXruptListHead
                0x00000000c0077ebc                AcpiGbl_GlobalLockHandle
                0x00000000c0077ec0                AcpiGbl_RootNodeStruct
                0x00000000c0077edc                AcpiGbl_FACS
                0x00000000c0077ee0                AcpiGbl_AllGpesInitialized
                0x00000000c0077ee4                AcpiGbl_GlobalLockMutex
                0x00000000c0077ee8                AcpiGbl_IntegerByteWidth
                0x00000000c0077eea                AcpiGbl_Pm1EnableRegisterSave
                0x00000000c0077eec                AcpiGbl_NsLookupCount
                0x00000000c0077ef0                AcpiCurrentGpeCount
                0x00000000c0077ef4                AcpiGbl_IntegerBitWidth
                0x00000000c0077ef8                AcpiGbl_NamespaceCache
                0x00000000c0077efc                AcpiGbl_TableHandler
                0x00000000c0077f00                AcpiGbl_HardwareLock
                0x00000000c0077f20                AcpiGbl_FixedEventHandlers
                0x00000000c0077f48                AcpiSciCount
                0x00000000c0077f4c                AcpiGbl_DSDT
                0x00000000c0077f50                AcpiGbl_GlobalNotify
                0x00000000c0077f60                AcpiGbl_GlobalLockSemaphore
                0x00000000c0077f64                AcpiGbl_SystemAwakeAndRunning
                0x00000000c0077f68                AcpiGbl_InterfaceHandler
                0x00000000c0077f6c                AcpiGbl_EventsInitialized
                0x00000000c0077f70                AcpiGbl_SupportedInterfaces
                0x00000000c0077f74                AcpiGbl_GpeLock
                0x00000000c0077f78                AcpiGbl_SleepTypeB
                0x00000000c0077f7c                AcpiGbl_InitHandler
                0x00000000c0077f80                AcpiGbl_GlobalLockAcquired
                0x00000000c0077f84                AcpiGbl_XPm1bEnable
                0x00000000c0077fa0                AcpiGbl_OriginalDsdtHeader
                0x00000000c0077fc4                AcpiGbl_ReferenceCountLock
                0x00000000c0077fc8                AcpiGpeCount
                0x00000000c0077fcc                AcpiGbl_TableHandlerContext
                0x00000000c0077fd0                AcpiGbl_XPm1aStatus
                0x00000000c0077fdc                AcpiGbl_OriginalMode
                0x00000000c0077fe0                AcpiGbl_CmSingleStep
                0x00000000c0077fe4                AcpiGbl_GlobalEventHandlerContext
                0x00000000c0077fe8                AcpiGbl_PsFindCount
                0x00000000c0077fec                AcpiFixedEventCount
                0x00000000c0078000                AcpiGbl_AcpiHardwarePresent
                0x00000000c0078020                AcpiGbl_MutexInfo
                0x00000000c0078080                AcpiGbl_RootNode
                0x00000000c0078084                AcpiGbl_AddressRangeList
                0x00000000c00780a0                AcpiGbl_FADT
                0x00000000c00781b4                AcpiGbl_IntegerNybbleWidth
                0x00000000c00781b8                AcpiGbl_XPm1aEnable
                0x00000000c00781c4                AcpiGbl_OperandCache
                0x00000000c00781c8                AcpiGbl_SciHandlerList
                0x00000000c00781cc                AcpiGbl_OriginalDbgLayer
                0x00000000c00781d0                AcpiGbl_PsNodeExtCache
                0x00000000c00781d4                AcpiGbl_GlobalLockPendingLock
                0x00000000c00781d8                AcpiGbl_DebuggerConfiguration
                0x00000000c00781dc                AcpiGbl_OriginalDbgLevel
                0x00000000c00781e0                AcpiGbl_GlobalLockPending
                0x00000000c00781e4                AcpiGbl_PsNodeCache
                0x00000000c00781e8                AcpiGbl_SleepTypeA
                0x00000000c00781ec                AcpiGbl_GpeFadtBlocks
                0x00000000c00781f4                AcpiMethodCount
                0x00000000c00781f8                AcpiGbl_ExceptionHandler
                0x00000000c00781fc                AcpiGbl_NamespaceRwLock
                0x00000000c0078208                AcpiGbl_GlobalEventHandler
                0x00000000c007820c                AcpiGbl_CurrentWalkList
                0x00000000c0078210                AcpiGbl_OsiMutex
                0x00000000c0078214                AcpiGbl_GlobalLockPresent
                0x00000000c0078215                AcpiGbl_NextOwnerIdOffset
                0x00000000c0078216                AcpiGbl_LastOwnerIdIndex
                0x00000000c0078218                AcpiGbl_XPm1bStatus
 *(.bss)
 .bss           0x00000000c0078224        0x0 crti.32
 .bss           0x00000000c0078224       0x20 /cygdrive/d/Users/Alex/Desktop/Toolchain/Output/bin/../lib/gcc/i386-banana/8.1.0/crtbegin.o
 .bss           0x00000000c0078244        0x0 acpica/dsargs.32
 .bss           0x00000000c0078244        0x0 acpica/dscontrol.32
 .bss           0x00000000c0078244        0x0 acpica/dsdebug.32
 .bss           0x00000000c0078244        0x0 acpica/dsfield.32
 .bss           0x00000000c0078244        0x0 acpica/dsinit.32
 .bss           0x00000000c0078244        0x0 acpica/dsmethod.32
 .bss           0x00000000c0078244        0x0 acpica/dsmthdat.32
 .bss           0x00000000c0078244        0x0 acpica/dsobject.32
 .bss           0x00000000c0078244        0x0 acpica/dsopcode.32
 .bss           0x00000000c0078244        0x0 acpica/dspkginit.32
 .bss           0x00000000c0078244        0x0 acpica/dsutils.32
 .bss           0x00000000c0078244        0x0 acpica/dswexec.32
 .bss           0x00000000c0078244        0x0 acpica/dswload.32
 .bss           0x00000000c0078244        0x0 acpica/dswload2.32
 .bss           0x00000000c0078244        0x0 acpica/dswscope.32
 .bss           0x00000000c0078244        0x0 acpica/dswstate.32
 .bss           0x00000000c0078244        0x0 acpica/evevent.32
 .bss           0x00000000c0078244        0x0 acpica/evglock.32
 .bss           0x00000000c0078244        0x0 acpica/evgpe.32
 .bss           0x00000000c0078244        0x0 acpica/evgpeblk.32
 .bss           0x00000000c0078244        0x0 acpica/evgpeinit.32
 .bss           0x00000000c0078244        0x0 acpica/evgpeutil.32
 .bss           0x00000000c0078244        0x0 acpica/evhandler.32
 .bss           0x00000000c0078244        0x0 acpica/evmisc.32
 .bss           0x00000000c0078244        0x0 acpica/evregion.32
 .bss           0x00000000c0078244        0x0 acpica/evrgnini.32
 .bss           0x00000000c0078244        0x0 acpica/evsci.32
 .bss           0x00000000c0078244        0x0 acpica/evxface.32
 .bss           0x00000000c0078244        0x0 acpica/evxfevnt.32
 .bss           0x00000000c0078244        0x0 acpica/evxfgpe.32
 .bss           0x00000000c0078244        0x0 acpica/evxfregn.32
 .bss           0x00000000c0078244        0x0 acpica/exconcat.32
 .bss           0x00000000c0078244        0x0 acpica/exconfig.32
 .bss           0x00000000c0078244        0x0 acpica/exconvrt.32
 .bss           0x00000000c0078244        0x0 acpica/excreate.32
 .bss           0x00000000c0078244        0x0 acpica/exdebug.32
 .bss           0x00000000c0078244        0x0 acpica/exdump.32
 .bss           0x00000000c0078244        0x0 acpica/exfield.32
 .bss           0x00000000c0078244        0x0 acpica/exfldio.32
 .bss           0x00000000c0078244        0x0 acpica/exmisc.32
 .bss           0x00000000c0078244        0x0 acpica/exmutex.32
 .bss           0x00000000c0078244        0x0 acpica/exnames.32
 .bss           0x00000000c0078244        0x0 acpica/exoparg1.32
 .bss           0x00000000c0078244        0x0 acpica/exoparg2.32
 .bss           0x00000000c0078244        0x0 acpica/exoparg3.32
 .bss           0x00000000c0078244        0x0 acpica/exoparg6.32
 .bss           0x00000000c0078244        0x0 acpica/exprep.32
 .bss           0x00000000c0078244        0x0 acpica/exregion.32
 .bss           0x00000000c0078244        0x0 acpica/exresnte.32
 .bss           0x00000000c0078244        0x0 acpica/exresolv.32
 .bss           0x00000000c0078244        0x0 acpica/exresop.32
 .bss           0x00000000c0078244        0x0 acpica/exserial.32
 .bss           0x00000000c0078244        0x0 acpica/exstore.32
 .bss           0x00000000c0078244        0x0 acpica/exstoren.32
 .bss           0x00000000c0078244        0x0 acpica/exstorob.32
 .bss           0x00000000c0078244        0x0 acpica/exsystem.32
 .bss           0x00000000c0078244        0x4 acpica/extrace.32
 .bss           0x00000000c0078248        0x0 acpica/exutils.32
 .bss           0x00000000c0078248        0x0 acpica/hwacpi.32
 .bss           0x00000000c0078248        0x0 acpica/hwesleep.32
 .bss           0x00000000c0078248        0x0 acpica/hwgpe.32
 .bss           0x00000000c0078248        0x0 acpica/hwpci.32
 .bss           0x00000000c0078248        0x0 acpica/hwregs.32
 .bss           0x00000000c0078248        0x0 acpica/hwsleep.32
 .bss           0x00000000c0078248        0x0 acpica/hwtimer.32
 .bss           0x00000000c0078248        0x0 acpica/hwvalid.32
 .bss           0x00000000c0078248        0x0 acpica/hwxface.32
 .bss           0x00000000c0078248        0x0 acpica/hwxfsleep.32
 .bss           0x00000000c0078248        0x0 acpica/nsaccess.32
 .bss           0x00000000c0078248        0x0 acpica/nsalloc.32
 .bss           0x00000000c0078248        0x0 acpica/nsarguments.32
 .bss           0x00000000c0078248        0x0 acpica/nsconvert.32
 .bss           0x00000000c0078248        0x0 acpica/nsdump.32
 .bss           0x00000000c0078248        0x0 acpica/nsdumpdv.32
 .bss           0x00000000c0078248        0x0 acpica/nseval.32
 .bss           0x00000000c0078248        0x0 acpica/nsinit.32
 .bss           0x00000000c0078248        0x0 acpica/nsload.32
 .bss           0x00000000c0078248        0x0 acpica/nsnames.32
 .bss           0x00000000c0078248        0x0 acpica/nsobject.32
 .bss           0x00000000c0078248        0x0 acpica/nsparse.32
 .bss           0x00000000c0078248        0x0 acpica/nspredef.32
 .bss           0x00000000c0078248        0x0 acpica/nsprepkg.32
 .bss           0x00000000c0078248        0x0 acpica/nsrepair.32
 .bss           0x00000000c0078248        0x0 acpica/nsrepair2.32
 .bss           0x00000000c0078248        0x0 acpica/nssearch.32
 .bss           0x00000000c0078248        0x0 acpica/nsutils.32
 .bss           0x00000000c0078248        0x0 acpica/nswalk.32
 .bss           0x00000000c0078248        0x0 acpica/nsxfeval.32
 .bss           0x00000000c0078248        0x0 acpica/nsxfname.32
 .bss           0x00000000c0078248        0x0 acpica/nsxfobj.32
 .bss           0x00000000c0078248        0x0 acpica/psargs.32
 .bss           0x00000000c0078248        0x0 acpica/psloop.32
 .bss           0x00000000c0078248        0x0 acpica/psobject.32
 .bss           0x00000000c0078248        0x0 acpica/psopcode.32
 .bss           0x00000000c0078248        0x0 acpica/psopinfo.32
 .bss           0x00000000c0078248        0x0 acpica/psparse.32
 .bss           0x00000000c0078248        0x0 acpica/psscope.32
 .bss           0x00000000c0078248        0x0 acpica/pstree.32
 .bss           0x00000000c0078248        0x0 acpica/psutils.32
 .bss           0x00000000c0078248        0x0 acpica/pswalk.32
 .bss           0x00000000c0078248        0x0 acpica/psxface.32
 .bss           0x00000000c0078248        0x0 acpica/rsaddr.32
 .bss           0x00000000c0078248        0x0 acpica/rscalc.32
 .bss           0x00000000c0078248        0x0 acpica/rscreate.32
 .bss           0x00000000c0078248        0x0 acpica/rsdump.32
 .bss           0x00000000c0078248        0x0 acpica/rsdumpinfo.32
 .bss           0x00000000c0078248        0x0 acpica/rsinfo.32
 .bss           0x00000000c0078248        0x0 acpica/rsio.32
 .bss           0x00000000c0078248        0x0 acpica/rsirq.32
 .bss           0x00000000c0078248        0x0 acpica/rslist.32
 .bss           0x00000000c0078248        0x0 acpica/rsmemory.32
 .bss           0x00000000c0078248        0x0 acpica/rsmisc.32
 .bss           0x00000000c0078248        0x0 acpica/rsserial.32
 .bss           0x00000000c0078248        0x0 acpica/rsutils.32
 .bss           0x00000000c0078248        0x0 acpica/rsxface.32
 .bss           0x00000000c0078248        0x0 acpica/tbdata.32
 .bss           0x00000000c0078248        0x0 acpica/tbfadt.32
 .bss           0x00000000c0078248        0x0 acpica/tbfind.32
 .bss           0x00000000c0078248        0x0 acpica/tbinstal.32
 .bss           0x00000000c0078248        0x0 acpica/tbprint.32
 .bss           0x00000000c0078248        0x0 acpica/tbutils.32
 .bss           0x00000000c0078248        0x0 acpica/tbxface.32
 .bss           0x00000000c0078248        0x0 acpica/tbxfload.32
 .bss           0x00000000c0078248        0x0 acpica/tbxfroot.32
 .bss           0x00000000c0078248        0x0 acpica/utaddress.32
 .bss           0x00000000c0078248        0x0 acpica/utalloc.32
 .bss           0x00000000c0078248        0x0 acpica/utascii.32
 .bss           0x00000000c0078248        0x0 acpica/utbuffer.32
 .bss           0x00000000c0078248        0x0 acpica/utcache.32
 .bss           0x00000000c0078248        0x4 acpica/utclib.32
 .bss           0x00000000c007824c        0x0 acpica/utcopy.32
 .bss           0x00000000c007824c        0x0 acpica/utdebug.32
 .bss           0x00000000c007824c        0x0 acpica/utdecode.32
 .bss           0x00000000c007824c        0x0 acpica/utdelete.32
 .bss           0x00000000c007824c        0x0 acpica/uterror.32
 .bss           0x00000000c007824c        0x0 acpica/uteval.32
 .bss           0x00000000c007824c        0x0 acpica/utexcep.32
 .bss           0x00000000c007824c       0x2b acpica/utglobal.32
                0x00000000c007824c                AcpiGbl_LastListHead
                0x00000000c0078250                AcpiGbl_CaptureComments
                0x00000000c0078254                AcpiGbl_CurrentScope
                0x00000000c0078258                AcpiGbl_NamespaceInitialized
                0x00000000c007825c                AcpiGbl_StartupFlags
                0x00000000c0078260                AcpiGbl_DisplayDebugTimer
                0x00000000c0078264                AcpiGbl_TraceMethodName
                0x00000000c0078268                AcpiGbl_TraceFlags
                0x00000000c007826c                AcpiGbl_IgnorePackageResolutionErrors
                0x00000000c007826d                AcpiGbl_ReducedHardware
                0x00000000c007826e                AcpiGbl_OsiData
                0x00000000c007826f                AcpiGbl_DisableSsdtTableInstall
                0x00000000c0078270                AcpiGbl_DisableAutoRepair
                0x00000000c0078271                AcpiGbl_TruncateIoAddresses
                0x00000000c0078272                AcpiGbl_Use32BitFadtAddresses
                0x00000000c0078273                AcpiGbl_DoNotUseXsdt
                0x00000000c0078274                AcpiGbl_CopyDsdtLocally
                0x00000000c0078275                AcpiGbl_EnableAmlDebugObject
                0x00000000c0078276                AcpiGbl_EnableInterpreterSlack
 .bss           0x00000000c0078277        0x0 acpica/uthex.32
 .bss           0x00000000c0078277        0x0 acpica/utids.32
 .bss           0x00000000c0078277        0x0 acpica/utinit.32
 .bss           0x00000000c0078277        0x0 acpica/utlock.32
 .bss           0x00000000c0078277        0x0 acpica/utmath.32
 .bss           0x00000000c0078277        0x0 acpica/utmisc.32
 .bss           0x00000000c0078277        0x0 acpica/utmutex.32
 .bss           0x00000000c0078277        0x0 acpica/utnonansi.32
 .bss           0x00000000c0078277        0x0 acpica/utobject.32
 .bss           0x00000000c0078277        0x0 acpica/utosi.32
 .bss           0x00000000c0078277        0x0 acpica/utownerid.32
 .bss           0x00000000c0078277        0x0 acpica/utpredef.32
 .bss           0x00000000c0078277        0x0 acpica/utprint.32
 .bss           0x00000000c0078277        0x0 acpica/utresdecode.32
 .bss           0x00000000c0078277        0x0 acpica/utresrc.32
 .bss           0x00000000c0078277        0x0 acpica/utstate.32
 .bss           0x00000000c0078277        0x0 acpica/utstring.32
 .bss           0x00000000c0078277        0x0 acpica/utstrsuppt.32
 .bss           0x00000000c0078277        0x0 acpica/utstrtoul64.32
 .bss           0x00000000c0078277        0x0 acpica/uttrack.32
 .bss           0x00000000c0078277        0x0 acpica/utuuid.32
 .bss           0x00000000c0078277        0x0 acpica/utxface.32
 .bss           0x00000000c0078277        0x0 acpica/utxferror.32
 .bss           0x00000000c0078277        0x0 acpica/utxfinit.32
 .bss           0x00000000c0078277        0x0 acpica/utxfmutex.32
 *fill*         0x00000000c0078277        0x9 
 .bss           0x00000000c0078280      0x378 core/malloc.32
 .bss           0x00000000c00785f8        0x0 libk/string.32
 .bss           0x00000000c00785f8        0x0 fs/fat/diskio.32
 *fill*         0x00000000c00785f8        0x8 
 .bss           0x00000000c0078600       0x88 fs/fat/ff.32
 .bss           0x00000000c0078688        0x0 fs/fat/ffsystem.32
 .bss           0x00000000c0078688        0x0 fs/fat/ffunicode.32
 .bss           0x00000000c0078688        0x0 hal/libresample/samplerate.32
 .bss           0x00000000c0078688        0x0 hal/libresample/src_linear.32
 .bss           0x00000000c0078688        0x0 hal/libresample/src_sinc.32
 .bss           0x00000000c0078688        0x0 hal/libresample/src_zoh.32
 .bss           0x00000000c0078688        0x0 acpica/osl.32
 .bss           0x00000000c0078688        0x6 core/computer.32
                0x00000000c0078688                computer
                0x00000000c007868c                preemptionOn
                0x00000000c007868d                schedulingOn
 *fill*         0x00000000c007868e       0x12 
 .bss           0x00000000c00786a0      0x184 core/elf.32
                0x00000000c00786a0                kernelSymbols
                0x00000000c0078720                kernelStringTable
                0x00000000c00787a0                kernelSymbolTable
                0x00000000c0078820                nextDLLSymbolIndex
 .bss           0x00000000c0078824        0x6 core/gdt.32
                0x00000000c0078824                gdtDescr
 .bss           0x00000000c007882a        0x0 core/idle.32
 *fill*         0x00000000c007882a        0x2 
 .bss           0x00000000c007882c        0x6 core/idt.32
                0x00000000c007882c                idtDescr
 .bss           0x00000000c0078832        0x1 core/kconsole.32
                0x00000000c0078832                kernelInPanic
 .bss           0x00000000c0078833        0x0 core/kheap.32
 *fill*         0x00000000c0078833        0x1 
 .bss           0x00000000c0078834        0x4 core/main.32
                0x00000000c0078834                sysBootSettings
 *fill*         0x00000000c0078838        0x8 
 .bss           0x00000000c0078840       0x50 core/physmgr.32
                0x00000000c0078840                PhysMem::currentPagePointer
                0x00000000c0078844                PhysMem::highestMem
                0x00000000c0078848                PhysMem::oldPercent
                0x00000000c007884c                PhysMem::usedPages
                0x00000000c0078850                PhysMem::usablePages
                0x00000000c0078860                PhysMem::dmaUsage
 .bss           0x00000000c0078890        0x0 core/pipe.32
 .bss           0x00000000c0078890       0x68 core/prcssthr.32
                0x00000000c0078890                cleanerThread
                0x00000000c0078894                weNeedTheCleanerToNotBlock
                0x00000000c0078898                xxxx
                0x00000000c007889c                retValLockStuff
                0x00000000c00788a0                retValSchedLock
                0x00000000c00788a4                lockStuffLock
                0x00000000c00788a8                schedulerLock
                0x00000000c00788ac                taskSwitchesPostponedFlag
                0x00000000c00788b0                postponeTaskSwitchesCounter
                0x00000000c00788b4                irqDisableCounter
                0x00000000c00788b8                terminatedTaskList
                0x00000000c00788c4                sleepingTaskList
                0x00000000c00788d0                taskList
                0x00000000c00788dc                kernelProcess
 *fill*         0x00000000c00788f8        0x8 
 .bss           0x00000000c0078900      0x200 core/syscalls.32
                0x00000000c0078900                systemCallHandlers
 .bss           0x00000000c0078b00       0x29 core/terminal.32
                0x00000000c0078b00                textModeImplementation
                0x00000000c0078b20                terminalCycle
                0x00000000c0078b24                activeTerminal
                0x00000000c0078b28                VgaText::graphicMode
 .bss           0x00000000c0078b29        0x0 core/tss.32
 *fill*         0x00000000c0078b29        0x3 
 .bss           0x00000000c0078b2c       0x10 core/unixfile.32
                0x00000000c0078b2c                initialFilesAdded
                0x00000000c0078b30                unixFileLinkedList
 .bss           0x00000000c0078b3c        0x4 core/virtmgr.32
                0x00000000c0078b3c                firstVAS
 .bss           0x00000000c0078b40        0x0 coreobjs/c++.32
 .bss           0x00000000c0078b40        0x0 debugger/debug.32
 .bss           0x00000000c0078b40        0x4 fs/vfs.32
                0x00000000c0078b40                installedFilesystems
 .bss           0x00000000c0078b44        0x0 hal/bus.32
 .bss           0x00000000c0078b44        0x4 hal/buzzer.32
                0x00000000c0078b44                systemBuzzer
 .bss           0x00000000c0078b48        0x8 hal/clock.32
                0x00000000c0078b48                dstOn
                0x00000000c0078b49                timezoneHalfHourOffset
                0x00000000c0078b4c                timezoneHourOffset
 .bss           0x00000000c0078b50        0x0 hal/device.32
 .bss           0x00000000c0078b50        0x0 hal/diskctrl.32
 .bss           0x00000000c0078b50        0x0 hal/diskphys.32
 .bss           0x00000000c0078b50        0x0 hal/fpu.32
 .bss           0x00000000c0078b50       0x1c hal/intctrl.32
                0x00000000c0078b50                pf5
                0x00000000c0078b54                pf4
                0x00000000c0078b58                pf3
                0x00000000c0078b5c                pf2
                0x00000000c0078b60                pf1
                0x00000000c0078b64                pf0
                0x00000000c0078b68                gpFaultIntercept
 *fill*         0x00000000c0078b6c       0x14 
 .bss           0x00000000c0078b80      0x425 hal/keybrd.32
                0x00000000c0078b80                keyboardWaitingTaskList
                0x00000000c0078b84                keyboardSetupYet
                0x00000000c0078ba0                keystates
 *fill*         0x00000000c0078fa5       0x1b 
 .bss           0x00000000c0078fc0       0x88 hal/logidisk.32
                0x00000000c0078fc0                diskAssignments
                0x00000000c0078fe0                disks
 .bss           0x00000000c0079048        0x0 hal/partition.32
 .bss           0x00000000c0079048        0x8 hal/timer.32
                0x00000000c0079048                nanoSinceBoot
 .bss           0x00000000c0079050        0x0 hal/vcache.32
 *fill*         0x00000000c0079050       0x10 
 .bss           0x00000000c0079060      0x4e0 hw/acpi.32
                0x00000000c0079060                systemSleepFunction
                0x00000000c0079064                systemResetFunction
                0x00000000c0079068                systemShutdownFunction
                0x00000000c007906c                wait
                0x00000000c0079080                currentACPIWalkPath
                0x00000000c0079180                nextACPITable
                0x00000000c00791a0                acpiTables
                0x00000000c00793a0                usingXSDT
                0x00000000c00793a4                MADTpointer
                0x00000000c00793a8                RSDTpointer
                0x00000000c00793ac                RSDPpointer
                0x00000000c00793b0                ioapicDiscoveryNumber
                0x00000000c00793c0                ioapicFoundInMADT
                0x00000000c00793e0                ioapicAddresses
                0x00000000c0079460                ioapicGSIBase
                0x00000000c00794e0                processorDiscoveryNumber
                0x00000000c0079500                matchingAPICID
                0x00000000c0079520                processorID
 .bss           0x00000000c0079540       0x10 hw/cpu.32
                0x00000000c0079540                lastD
                0x00000000c0079544                lastC
                0x00000000c0079548                lastB
                0x00000000c007954c                lastA
 .bss           0x00000000c0079550        0x0 hw/ports.32
 .bss           0x00000000c0079550        0x0 registry/registry.32
 .bss           0x00000000c0079550        0x0 syscalls/sc_exit.32
 .bss           0x00000000c0079550        0x0 syscalls/sc_sbrk.32
 .bss           0x00000000c0079550        0x0 syscalls/sc_yield.32
 .bss           0x00000000c0079550        0x0 vm86/vm8086.32
 *fill*         0x00000000c0079550       0x10 
 .bss           0x00000000c0079560       0xf0 fs/fat/vfslink.32
                0x00000000c0079560                FAT::fats
                0x00000000c0079580                FAT::vfsToFatRemaps
                0x00000000c0079600                fatToVFSRemaps
 .bss           0x00000000c0079650        0x0 fs/iso9660/vfslink.32
 .bss           0x00000000c0079650        0x0 hal/sound/sndchannel.32
 .bss           0x00000000c0079650        0x0 hal/sound/sndhw.32
 *fill*         0x00000000c0079650       0x10 
 .bss           0x00000000c0079660    0x12000 hw/audio/sb16.32
                0x00000000c0079660                outputBuffer
                0x00000000c0081660                tempBuffer
                0x00000000c0089660                buf2
                0x00000000c008a660                buf
 .bss           0x00000000c008b660        0x5 hw/bus/isa.32
                0x00000000c008b660                isaDMAController
 .bss           0x00000000c008b665        0x0 hw/bus/pci.32
 .bss           0x00000000c008b665        0x0 hw/bus/ps2.32
 .bss           0x00000000c008b665        0x0 hw/bus/ps2port.32
 .bss           0x00000000c008b665        0x0 hw/buzzer/pcspk.32
 *fill*         0x00000000c008b665        0x1 
 .bss           0x00000000c008b666        0x2 hw/clock/rtc.32
 .bss           0x00000000c008b668        0x0 hw/diskctrl/ide.32
 .bss           0x00000000c008b668        0x8 hw/diskphys/ata.32
                0x00000000c008b668                ataSectorsWritten
                0x00000000c008b66c                ataSectorsRead
 .bss           0x00000000c008b670        0x0 hw/diskphys/atapi.32
 .bss           0x00000000c008b670        0x0 hw/dma/isadma.32
 .bss           0x00000000c008b670        0x0 hw/fpu/avx.32
 .bss           0x00000000c008b670        0x0 hw/fpu/mmx.32
 .bss           0x00000000c008b670        0x0 hw/fpu/sse.32
 .bss           0x00000000c008b670        0x0 hw/fpu/x87.32
 *fill*         0x00000000c008b670       0x10 
 .bss           0x00000000c008b680       0x41 hw/intctrl/apic.32
                0x00000000c008b680                noOfIOAPICs
                0x00000000c008b6a0                ioapics
                0x00000000c008b6c0                IOAPICsSetupYet
 .bss           0x00000000c008b6c1        0x0 hw/intctrl/pic.32
 .bss           0x00000000c008b6c1        0x0 hw/keybrd/ps2key.32
 .bss           0x00000000c008b6c1        0x0 hw/timer/apictimer.32
 *fill*         0x00000000c008b6c1        0x3 
 .bss           0x00000000c008b6c4        0x4 hw/timer/pit.32
                0x00000000c008b6c4                pitFreq
 .bss           0x00000000c008b6c8        0x0 /cygdrive/d/Users/Alex/Desktop/Toolchain/Output/bin/../lib/gcc/i386-banana/8.1.0/crtend.o
 .bss           0x00000000c008b6c8        0x0 crtn.32
 .bss           0x00000000c008b6c8        0x0 /cygdrive/d/Users/Alex/Desktop/Toolchain/Output/bin/../lib/gcc/i386-banana/8.1.0/libgcc.a(_divdi3.o)
 .bss           0x00000000c008b6c8        0x0 /cygdrive/d/Users/Alex/Desktop/Toolchain/Output/bin/../lib/gcc/i386-banana/8.1.0/libgcc.a(_moddi3.o)
 .bss           0x00000000c008b6c8        0x0 /cygdrive/d/Users/Alex/Desktop/Toolchain/Output/bin/../lib/gcc/i386-banana/8.1.0/libgcc.a(_divmoddi4.o)
 .bss           0x00000000c008b6c8        0x0 /cygdrive/d/Users/Alex/Desktop/Toolchain/Output/bin/../lib/gcc/i386-banana/8.1.0/libgcc.a(_udivdi3.o)
 .bss           0x00000000c008b6c8        0x0 /cygdrive/d/Users/Alex/Desktop/Toolchain/Output/bin/../lib/gcc/i386-banana/8.1.0/libgcc.a(_umoddi3.o)
 .bss           0x00000000c008b6c8        0x0 D:/Users/Alex/Desktop/Banana/kernel/libk/libm32.a(s_fabs.c.o)
 .bss           0x00000000c008b6c8        0x0 D:/Users/Alex/Desktop/Banana/kernel/libk/libm32.a(s_lrint.S.o)
 .bss           0x00000000c008b6c8        0x0 D:/Users/Alex/Desktop/Banana/kernel/libk/libm32.a(s_lrintf.S.o)
 *(.bootstrap_stack)
 *(.gnu.linkonce.b*)
                0x00000000c008b6c8                ebss = .

/DISCARD/
 *(.comment)
                0x00000000c009f128                . = (. + SIZEOF (.bss))
OUTPUT(D:/Users/Alex/Desktop/Banana/kernel/KERNEL32.EXE elf32-i386)

.debug_info     0x0000000000000000     0x42bf
 .debug_info    0x0000000000000000      0xd63 /cygdrive/d/Users/Alex/Desktop/Toolchain/Output/bin/../lib/gcc/i386-banana/8.1.0/libgcc.a(_divdi3.o)
 .debug_info    0x0000000000000d63      0xd63 /cygdrive/d/Users/Alex/Desktop/Toolchain/Output/bin/../lib/gcc/i386-banana/8.1.0/libgcc.a(_moddi3.o)
 .debug_info    0x0000000000001ac6      0xda0 /cygdrive/d/Users/Alex/Desktop/Toolchain/Output/bin/../lib/gcc/i386-banana/8.1.0/libgcc.a(_divmoddi4.o)
 .debug_info    0x0000000000002866      0xd25 /cygdrive/d/Users/Alex/Desktop/Toolchain/Output/bin/../lib/gcc/i386-banana/8.1.0/libgcc.a(_udivdi3.o)
 .debug_info    0x000000000000358b      0xd34 /cygdrive/d/Users/Alex/Desktop/Toolchain/Output/bin/../lib/gcc/i386-banana/8.1.0/libgcc.a(_umoddi3.o)

.debug_abbrev   0x0000000000000000      0xb85
 .debug_abbrev  0x0000000000000000      0x255 /cygdrive/d/Users/Alex/Desktop/Toolchain/Output/bin/../lib/gcc/i386-banana/8.1.0/libgcc.a(_divdi3.o)
 .debug_abbrev  0x0000000000000255      0x255 /cygdrive/d/Users/Alex/Desktop/Toolchain/Output/bin/../lib/gcc/i386-banana/8.1.0/libgcc.a(_moddi3.o)
 .debug_abbrev  0x00000000000004aa      0x255 /cygdrive/d/Users/Alex/Desktop/Toolchain/Output/bin/../lib/gcc/i386-banana/8.1.0/libgcc.a(_divmoddi4.o)
 .debug_abbrev  0x00000000000006ff      0x23a /cygdrive/d/Users/Alex/Desktop/Toolchain/Output/bin/../lib/gcc/i386-banana/8.1.0/libgcc.a(_udivdi3.o)
 .debug_abbrev  0x0000000000000939      0x24c /cygdrive/d/Users/Alex/Desktop/Toolchain/Output/bin/../lib/gcc/i386-banana/8.1.0/libgcc.a(_umoddi3.o)

.debug_loc      0x0000000000000000     0x1d79
 .debug_loc     0x0000000000000000      0x3b0 /cygdrive/d/Users/Alex/Desktop/Toolchain/Output/bin/../lib/gcc/i386-banana/8.1.0/libgcc.a(_divdi3.o)
 .debug_loc     0x00000000000003b0      0x48d /cygdrive/d/Users/Alex/Desktop/Toolchain/Output/bin/../lib/gcc/i386-banana/8.1.0/libgcc.a(_moddi3.o)
 .debug_loc     0x000000000000083d      0x62c /cygdrive/d/Users/Alex/Desktop/Toolchain/Output/bin/../lib/gcc/i386-banana/8.1.0/libgcc.a(_divmoddi4.o)
 .debug_loc     0x0000000000000e69      0x79c /cygdrive/d/Users/Alex/Desktop/Toolchain/Output/bin/../lib/gcc/i386-banana/8.1.0/libgcc.a(_udivdi3.o)
 .debug_loc     0x0000000000001605      0x774 /cygdrive/d/Users/Alex/Desktop/Toolchain/Output/bin/../lib/gcc/i386-banana/8.1.0/libgcc.a(_umoddi3.o)

.debug_aranges  0x0000000000000000       0xa0
 .debug_aranges
                0x0000000000000000       0x20 /cygdrive/d/Users/Alex/Desktop/Toolchain/Output/bin/../lib/gcc/i386-banana/8.1.0/libgcc.a(_divdi3.o)
 .debug_aranges
                0x0000000000000020       0x20 /cygdrive/d/Users/Alex/Desktop/Toolchain/Output/bin/../lib/gcc/i386-banana/8.1.0/libgcc.a(_moddi3.o)
 .debug_aranges
                0x0000000000000040       0x20 /cygdrive/d/Users/Alex/Desktop/Toolchain/Output/bin/../lib/gcc/i386-banana/8.1.0/libgcc.a(_divmoddi4.o)
 .debug_aranges
                0x0000000000000060       0x20 /cygdrive/d/Users/Alex/Desktop/Toolchain/Output/bin/../lib/gcc/i386-banana/8.1.0/libgcc.a(_udivdi3.o)
 .debug_aranges
                0x0000000000000080       0x20 /cygdrive/d/Users/Alex/Desktop/Toolchain/Output/bin/../lib/gcc/i386-banana/8.1.0/libgcc.a(_umoddi3.o)

.debug_ranges   0x0000000000000000       0xb8
 .debug_ranges  0x0000000000000000       0x20 /cygdrive/d/Users/Alex/Desktop/Toolchain/Output/bin/../lib/gcc/i386-banana/8.1.0/libgcc.a(_divdi3.o)
 .debug_ranges  0x0000000000000020       0x20 /cygdrive/d/Users/Alex/Desktop/Toolchain/Output/bin/../lib/gcc/i386-banana/8.1.0/libgcc.a(_moddi3.o)
 .debug_ranges  0x0000000000000040       0x20 /cygdrive/d/Users/Alex/Desktop/Toolchain/Output/bin/../lib/gcc/i386-banana/8.1.0/libgcc.a(_divmoddi4.o)
 .debug_ranges  0x0000000000000060       0x28 /cygdrive/d/Users/Alex/Desktop/Toolchain/Output/bin/../lib/gcc/i386-banana/8.1.0/libgcc.a(_udivdi3.o)
 .debug_ranges  0x0000000000000088       0x30 /cygdrive/d/Users/Alex/Desktop/Toolchain/Output/bin/../lib/gcc/i386-banana/8.1.0/libgcc.a(_umoddi3.o)

.debug_line     0x0000000000000000      0xf62
 .debug_line    0x0000000000000000      0x2f9 /cygdrive/d/Users/Alex/Desktop/Toolchain/Output/bin/../lib/gcc/i386-banana/8.1.0/libgcc.a(_divdi3.o)
 .debug_line    0x00000000000002f9      0x333 /cygdrive/d/Users/Alex/Desktop/Toolchain/Output/bin/../lib/gcc/i386-banana/8.1.0/libgcc.a(_moddi3.o)
 .debug_line    0x000000000000062c      0x370 /cygdrive/d/Users/Alex/Desktop/Toolchain/Output/bin/../lib/gcc/i386-banana/8.1.0/libgcc.a(_divmoddi4.o)
 .debug_line    0x000000000000099c      0x2c5 /cygdrive/d/Users/Alex/Desktop/Toolchain/Output/bin/../lib/gcc/i386-banana/8.1.0/libgcc.a(_udivdi3.o)
 .debug_line    0x0000000000000c61      0x301 /cygdrive/d/Users/Alex/Desktop/Toolchain/Output/bin/../lib/gcc/i386-banana/8.1.0/libgcc.a(_umoddi3.o)

.debug_str      0x0000000000000000      0xba3
 .debug_str     0x0000000000000000      0xb7a /cygdrive/d/Users/Alex/Desktop/Toolchain/Output/bin/../lib/gcc/i386-banana/8.1.0/libgcc.a(_divdi3.o)
                                        0xc28 (size before relaxing)
 .debug_str     0x0000000000000b7a        0x9 /cygdrive/d/Users/Alex/Desktop/Toolchain/Output/bin/../lib/gcc/i386-banana/8.1.0/libgcc.a(_moddi3.o)
                                        0xc28 (size before relaxing)
 .debug_str     0x0000000000000b83        0xc /cygdrive/d/Users/Alex/Desktop/Toolchain/Output/bin/../lib/gcc/i386-banana/8.1.0/libgcc.a(_divmoddi4.o)
                                        0xc2b (size before relaxing)
 .debug_str     0x0000000000000b8f        0xa /cygdrive/d/Users/Alex/Desktop/Toolchain/Output/bin/../lib/gcc/i386-banana/8.1.0/libgcc.a(_udivdi3.o)
                                        0xc29 (size before relaxing)
 .debug_str     0x0000000000000b99        0xa /cygdrive/d/Users/Alex/Desktop/Toolchain/Output/bin/../lib/gcc/i386-banana/8.1.0/libgcc.a(_umoddi3.o)
                                        0xc29 (size before relaxing)

.note.GNU-stack
                0x0000000000000000        0x0
 .note.GNU-stack
                0x0000000000000000        0x0 D:/Users/Alex/Desktop/Banana/kernel/libk/libm32.a(s_lrint.S.o)
 .note.GNU-stack
                0x0000000000000000        0x0 D:/Users/Alex/Desktop/Banana/kernel/libk/libm32.a(s_lrintf.S.o)
