
packages/banana/32/0001/newgui.exe:     file format elf32-i386


Disassembly of section .text:

10000000 <.text>:
10000000:	55                   	push   ebp
10000001:	89 e5                	mov    ebp,esp
10000003:	83 ec 28             	sub    esp,0x28
10000006:	e8 be 00 00 00       	call   0x100000c9
1000000b:	e8 c5 ce 00 00       	call   0x1000ced5
10000010:	6a 00                	push   0x0
10000012:	6a 00                	push   0x0
10000014:	6a 00                	push   0x0
10000016:	6a 19                	push   0x19
10000018:	e8 17 ce 00 00       	call   0x1000ce34
1000001d:	83 c4 10             	add    esp,0x10
10000020:	89 45 f0             	mov    DWORD PTR [ebp-0x10],eax
10000023:	8b 45 f0             	mov    eax,DWORD PTR [ebp-0x10]
10000026:	83 c0 02             	add    eax,0x2
10000029:	c1 e0 02             	shl    eax,0x2
1000002c:	83 ec 0c             	sub    esp,0xc
1000002f:	50                   	push   eax
10000030:	e8 2f 97 00 00       	call   0x10009764
10000035:	83 c4 10             	add    esp,0x10
10000038:	89 45 ec             	mov    DWORD PTR [ebp-0x14],eax
1000003b:	c7 45 f4 00 00 00 00 	mov    DWORD PTR [ebp-0xc],0x0
10000042:	eb 55                	jmp    0x10000099
10000044:	83 ec 08             	sub    esp,0x8
10000047:	6a 01                	push   0x1
10000049:	68 00 02 00 00       	push   0x200
1000004e:	e8 b5 80 00 00       	call   0x10008108
10000053:	83 c4 10             	add    esp,0x10
10000056:	89 c2                	mov    edx,eax
10000058:	8b 45 f4             	mov    eax,DWORD PTR [ebp-0xc]
1000005b:	8d 0c 85 00 00 00 00 	lea    ecx,[eax*4+0x0]
10000062:	8b 45 ec             	mov    eax,DWORD PTR [ebp-0x14]
10000065:	01 c8                	add    eax,ecx
10000067:	89 10                	mov    DWORD PTR [eax],edx
10000069:	8b 45 f4             	mov    eax,DWORD PTR [ebp-0xc]
1000006c:	8d 14 85 00 00 00 00 	lea    edx,[eax*4+0x0]
10000073:	8b 45 ec             	mov    eax,DWORD PTR [ebp-0x14]
10000076:	01 d0                	add    eax,edx
10000078:	8b 00                	mov    eax,DWORD PTR [eax]
1000007a:	89 c2                	mov    edx,eax
1000007c:	8b 45 f4             	mov    eax,DWORD PTR [ebp-0xc]
1000007f:	52                   	push   edx
10000080:	6a 00                	push   0x0
10000082:	50                   	push   eax
10000083:	6a 1a                	push   0x1a
10000085:	e8 aa cd 00 00       	call   0x1000ce34
1000008a:	83 c4 10             	add    esp,0x10
1000008d:	89 45 e8             	mov    DWORD PTR [ebp-0x18],eax
10000090:	83 7d e8 00          	cmp    DWORD PTR [ebp-0x18],0x0
10000094:	75 0d                	jne    0x100000a3
10000096:	ff 45 f4             	inc    DWORD PTR [ebp-0xc]
10000099:	8b 45 f4             	mov    eax,DWORD PTR [ebp-0xc]
1000009c:	3b 45 f0             	cmp    eax,DWORD PTR [ebp-0x10]
1000009f:	7c a3                	jl     0x10000044
100000a1:	eb 01                	jmp    0x100000a4
100000a3:	90                   	nop
100000a4:	83 ec 08             	sub    esp,0x8
100000a7:	ff 75 ec             	push   DWORD PTR [ebp-0x14]
100000aa:	ff 75 f0             	push   DWORD PTR [ebp-0x10]
100000ad:	e8 7f 73 01 00       	call   0x10017431
100000b2:	83 c4 10             	add    esp,0x10
100000b5:	89 45 e4             	mov    DWORD PTR [ebp-0x1c],eax
100000b8:	83 ec 0c             	sub    esp,0xc
100000bb:	ff 75 e4             	push   DWORD PTR [ebp-0x1c]
100000be:	e8 3d 81 00 00       	call   0x10008200
100000c3:	83 c4 10             	add    esp,0x10
100000c6:	90                   	nop
100000c7:	c9                   	leave  
100000c8:	c3                   	ret    
100000c9:	55                   	push   ebp
100000ca:	89 e5                	mov    ebp,esp
100000cc:	83 ec 18             	sub    esp,0x18
100000cf:	c7 45 f4 00 00 00 00 	mov    DWORD PTR [ebp-0xc],0x0
100000d6:	eb 13                	jmp    0x100000eb
100000d8:	83 ec 08             	sub    esp,0x8
100000db:	6a 00                	push   0x0
100000dd:	ff 75 f4             	push   DWORD PTR [ebp-0xc]
100000e0:	e8 66 d4 00 00       	call   0x1000d54b
100000e5:	83 c4 10             	add    esp,0x10
100000e8:	ff 45 f4             	inc    DWORD PTR [ebp-0xc]
100000eb:	83 7d f4 10          	cmp    DWORD PTR [ebp-0xc],0x10
100000ef:	7e e7                	jle    0x100000d8
100000f1:	90                   	nop
100000f2:	c9                   	leave  
100000f3:	c3                   	ret    
100000f4:	b8 3c 90 01 10       	mov    eax,0x1001903c
100000f9:	3d 3c 90 01 10       	cmp    eax,0x1001903c
100000fe:	74 1c                	je     0x1000011c
10000100:	b8 00 00 00 00       	mov    eax,0x0
10000105:	85 c0                	test   eax,eax
10000107:	74 13                	je     0x1000011c
10000109:	55                   	push   ebp
1000010a:	89 e5                	mov    ebp,esp
1000010c:	83 ec 14             	sub    esp,0x14
1000010f:	68 3c 90 01 10       	push   0x1001903c
10000114:	ff d0                	call   eax
10000116:	83 c4 10             	add    esp,0x10
10000119:	c9                   	leave  
1000011a:	c3                   	ret    
1000011b:	90                   	nop
1000011c:	c3                   	ret    
1000011d:	8d 76 00             	lea    esi,[esi+0x0]
10000120:	b8 3c 90 01 10       	mov    eax,0x1001903c
10000125:	2d 3c 90 01 10       	sub    eax,0x1001903c
1000012a:	c1 f8 02             	sar    eax,0x2
1000012d:	89 c2                	mov    edx,eax
1000012f:	c1 ea 1f             	shr    edx,0x1f
10000132:	01 d0                	add    eax,edx
10000134:	d1 f8                	sar    eax,1
10000136:	74 1c                	je     0x10000154
10000138:	ba 00 00 00 00       	mov    edx,0x0
1000013d:	85 d2                	test   edx,edx
1000013f:	74 13                	je     0x10000154
10000141:	55                   	push   ebp
10000142:	89 e5                	mov    ebp,esp
10000144:	83 ec 10             	sub    esp,0x10
10000147:	50                   	push   eax
10000148:	68 3c 90 01 10       	push   0x1001903c
1000014d:	ff d2                	call   edx
1000014f:	83 c4 10             	add    esp,0x10
10000152:	c9                   	leave  
10000153:	c3                   	ret    
10000154:	c3                   	ret    
10000155:	8d 76 00             	lea    esi,[esi+0x0]
10000158:	80 3d 30 b2 01 10 00 	cmp    BYTE PTR ds:0x1001b230,0x0
1000015f:	75 63                	jne    0x100001c4
10000161:	55                   	push   ebp
10000162:	89 e5                	mov    ebp,esp
10000164:	56                   	push   esi
10000165:	53                   	push   ebx
10000166:	bb 38 90 01 10       	mov    ebx,0x10019038
1000016b:	81 eb 34 90 01 10    	sub    ebx,0x10019034
10000171:	c1 fb 02             	sar    ebx,0x2
10000174:	4b                   	dec    ebx
10000175:	be 34 90 01 10       	mov    esi,0x10019034
1000017a:	a1 34 b2 01 10       	mov    eax,ds:0x1001b234
1000017f:	39 d8                	cmp    eax,ebx
10000181:	73 13                	jae    0x10000196
10000183:	90                   	nop
10000184:	40                   	inc    eax
10000185:	a3 34 b2 01 10       	mov    ds:0x1001b234,eax
1000018a:	ff 14 86             	call   DWORD PTR [esi+eax*4]
1000018d:	a1 34 b2 01 10       	mov    eax,ds:0x1001b234
10000192:	39 d8                	cmp    eax,ebx
10000194:	72 ee                	jb     0x10000184
10000196:	e8 59 ff ff ff       	call   0x100000f4
1000019b:	b8 00 00 00 00       	mov    eax,0x0
100001a0:	85 c0                	test   eax,eax
100001a2:	74 10                	je     0x100001b4
100001a4:	83 ec 0c             	sub    esp,0xc
100001a7:	68 58 d0 01 10       	push   0x1001d058
100001ac:	e8 4f fe ff ef       	call   0x0
100001b1:	83 c4 10             	add    esp,0x10
100001b4:	c6 05 30 b2 01 10 01 	mov    BYTE PTR ds:0x1001b230,0x1
100001bb:	8d 65 f8             	lea    esp,[ebp-0x8]
100001be:	5b                   	pop    ebx
100001bf:	5e                   	pop    esi
100001c0:	5d                   	pop    ebp
100001c1:	c3                   	ret    
100001c2:	66 90                	xchg   ax,ax
100001c4:	c3                   	ret    
100001c5:	8d 76 00             	lea    esi,[esi+0x0]
100001c8:	b8 00 00 00 00       	mov    eax,0x0
100001cd:	85 c0                	test   eax,eax
100001cf:	74 1f                	je     0x100001f0
100001d1:	55                   	push   ebp
100001d2:	89 e5                	mov    ebp,esp
100001d4:	83 ec 10             	sub    esp,0x10
100001d7:	68 38 b2 01 10       	push   0x1001b238
100001dc:	68 58 d0 01 10       	push   0x1001d058
100001e1:	e8 1a fe ff ef       	call   0x0
100001e6:	83 c4 10             	add    esp,0x10
100001e9:	c9                   	leave  
100001ea:	e9 31 ff ff ff       	jmp    0x10000120
100001ef:	90                   	nop
100001f0:	e9 2b ff ff ff       	jmp    0x10000120
100001f5:	c6 05 08 80 01 10 01 	mov    BYTE PTR ds:0x10018008,0x1
100001fc:	c3                   	ret    
100001fd:	55                   	push   ebp
100001fe:	89 e5                	mov    ebp,esp
10000200:	57                   	push   edi
10000201:	53                   	push   ebx
10000202:	50                   	push   eax
10000203:	50                   	push   eax
10000204:	68 d0 64 01 10       	push   0x100164d0
10000209:	68 d3 64 01 10       	push   0x100164d3
1000020e:	e8 55 87 00 00       	call   0x10008968
10000213:	89 c3                	mov    ebx,eax
10000215:	5a                   	pop    edx
10000216:	ff 35 f0 c9 01 10    	push   DWORD PTR ds:0x1001c9f0
1000021c:	e8 8b 5e 00 00       	call   0x100060ac
10000221:	89 c7                	mov    edi,eax
10000223:	83 c9 ff             	or     ecx,0xffffffff
10000226:	31 c0                	xor    eax,eax
10000228:	f2 ae                	repnz scas al,BYTE PTR es:[edi]
1000022a:	89 ca                	mov    edx,ecx
1000022c:	f7 d2                	not    edx
1000022e:	8d 7a ff             	lea    edi,[edx-0x1]
10000231:	59                   	pop    ecx
10000232:	ff 35 f0 c9 01 10    	push   DWORD PTR ds:0x1001c9f0
10000238:	e8 6f 5e 00 00       	call   0x100060ac
1000023d:	53                   	push   ebx
1000023e:	6a 01                	push   0x1
10000240:	57                   	push   edi
10000241:	50                   	push   eax
10000242:	e8 ad 93 00 00       	call   0x100095f4
10000247:	83 c4 14             	add    esp,0x14
1000024a:	53                   	push   ebx
1000024b:	e8 d0 80 00 00       	call   0x10008320
10000250:	31 c0                	xor    eax,eax
10000252:	8d 65 f8             	lea    esp,[ebp-0x8]
10000255:	5b                   	pop    ebx
10000256:	5f                   	pop    edi
10000257:	5d                   	pop    ebp
10000258:	c3                   	ret    
10000259:	55                   	push   ebp
1000025a:	89 e5                	mov    ebp,esp
1000025c:	57                   	push   edi
1000025d:	56                   	push   esi
1000025e:	53                   	push   ebx
1000025f:	83 ec 48             	sub    esp,0x48
10000262:	8b 7d 08             	mov    edi,DWORD PTR [ebp+0x8]
10000265:	57                   	push   edi
10000266:	e8 41 5e 00 00       	call   0x100060ac
1000026b:	89 45 c8             	mov    DWORD PTR [ebp-0x38],eax
1000026e:	a1 18 80 01 10       	mov    eax,ds:0x10018018
10000273:	8d 50 01             	lea    edx,[eax+0x1]
10000276:	83 c4 10             	add    esp,0x10
10000279:	3b 55 0c             	cmp    edx,DWORD PTR [ebp+0xc]
1000027c:	75 03                	jne    0x10000281
1000027e:	40                   	inc    eax
1000027f:	75 2c                	jne    0x100002ad
10000281:	c7 05 18 80 01 10 00 00 00 00 	mov    DWORD PTR ds:0x10018018,0x0
1000028b:	c7 05 f4 c9 01 10 00 00 00 00 	mov    DWORD PTR ds:0x1001c9f4,0x0
10000295:	c6 05 fd c9 01 10 00 	mov    BYTE PTR ds:0x1001c9fd,0x0
1000029c:	c6 05 fc c9 01 10 00 	mov    BYTE PTR ds:0x1001c9fc,0x0
100002a3:	c7 05 f8 c9 01 10 00 00 00 00 	mov    DWORD PTR ds:0x1001c9f8,0x0
100002ad:	56                   	push   esi
100002ae:	56                   	push   esi
100002af:	0f b6 05 fd c9 01 10 	movzx  eax,BYTE PTR ds:0x1001c9fd
100002b6:	50                   	push   eax
100002b7:	57                   	push   edi
100002b8:	e8 cf 5c 00 00       	call   0x10005f8c
100002bd:	58                   	pop    eax
100002be:	5a                   	pop    edx
100002bf:	ff 35 f8 c9 01 10    	push   DWORD PTR ds:0x1001c9f8
100002c5:	57                   	push   edi
100002c6:	e8 63 5c 00 00       	call   0x10005f2e
100002cb:	59                   	pop    ecx
100002cc:	5b                   	pop    ebx
100002cd:	0f b6 05 fc c9 01 10 	movzx  eax,BYTE PTR ds:0x1001c9fc
100002d4:	50                   	push   eax
100002d5:	57                   	push   edi
100002d6:	e8 81 5c 00 00       	call   0x10005f5c
100002db:	a1 f8 c9 01 10       	mov    eax,ds:0x1001c9f8
100002e0:	89 45 d0             	mov    DWORD PTR [ebp-0x30],eax
100002e3:	a0 fc c9 01 10       	mov    al,ds:0x1001c9fc
100002e8:	88 45 d6             	mov    BYTE PTR [ebp-0x2a],al
100002eb:	a0 fd c9 01 10       	mov    al,ds:0x1001c9fd
100002f0:	88 45 d7             	mov    BYTE PTR [ebp-0x29],al
100002f3:	8b 35 f4 c9 01 10    	mov    esi,DWORD PTR ds:0x1001c9f4
100002f9:	a1 18 80 01 10       	mov    eax,ds:0x10018018
100002fe:	89 45 e4             	mov    DWORD PTR [ebp-0x1c],eax
10000301:	83 c4 10             	add    esp,0x10
10000304:	31 db                	xor    ebx,ebx
10000306:	c6 45 d5 00          	mov    BYTE PTR [ebp-0x2b],0x0
1000030a:	c6 45 d4 00          	mov    BYTE PTR [ebp-0x2c],0x0
1000030e:	c6 45 cf 00          	mov    BYTE PTR [ebp-0x31],0x0
10000312:	31 d2                	xor    edx,edx
10000314:	8b 45 c8             	mov    eax,DWORD PTR [ebp-0x38]
10000317:	03 45 e4             	add    eax,DWORD PTR [ebp-0x1c]
1000031a:	89 45 e0             	mov    DWORD PTR [ebp-0x20],eax
1000031d:	8a 00                	mov    al,BYTE PTR [eax]
1000031f:	84 c0                	test   al,al
10000321:	0f 84 90 01 00 00    	je     0x100004b7
10000327:	3c 7e                	cmp    al,0x7e
10000329:	0f 85 d6 00 00 00    	jne    0x10000405
1000032f:	31 c0                	xor    eax,eax
10000331:	c7 45 d8 00 00 00 00 	mov    DWORD PTR [ebp-0x28],0x0
10000338:	c7 45 dc 00 00 00 00 	mov    DWORD PTR [ebp-0x24],0x0
1000033f:	8b 55 d8             	mov    edx,DWORD PTR [ebp-0x28]
10000342:	8b 4d dc             	mov    ecx,DWORD PTR [ebp-0x24]
10000345:	0f a4 d1 07          	shld   ecx,edx,0x7
10000349:	c1 e2 07             	shl    edx,0x7
1000034c:	89 55 c0             	mov    DWORD PTR [ebp-0x40],edx
1000034f:	89 4d c4             	mov    DWORD PTR [ebp-0x3c],ecx
10000352:	8b 4d e0             	mov    ecx,DWORD PTR [ebp-0x20]
10000355:	8a 54 01 01          	mov    dl,BYTE PTR [ecx+eax*1+0x1]
10000359:	83 e2 7f             	and    edx,0x7f
1000035c:	0b 55 c0             	or     edx,DWORD PTR [ebp-0x40]
1000035f:	89 55 d8             	mov    DWORD PTR [ebp-0x28],edx
10000362:	8b 4d c4             	mov    ecx,DWORD PTR [ebp-0x3c]
10000365:	89 4d dc             	mov    DWORD PTR [ebp-0x24],ecx
10000368:	40                   	inc    eax
10000369:	83 f8 06             	cmp    eax,0x6
1000036c:	75 d1                	jne    0x1000033f
1000036e:	8b 45 d8             	mov    eax,DWORD PTR [ebp-0x28]
10000371:	8b 55 dc             	mov    edx,DWORD PTR [ebp-0x24]
10000374:	0f ac d0 0c          	shrd   eax,edx,0xc
10000378:	c1 ea 0c             	shr    edx,0xc
1000037b:	89 45 e0             	mov    DWORD PTR [ebp-0x20],eax
1000037e:	8b 4d d8             	mov    ecx,DWORD PTR [ebp-0x28]
10000381:	66 81 e1 ff 03       	and    cx,0x3ff
10000386:	75 0d                	jne    0x10000395
10000388:	88 45 d7             	mov    BYTE PTR [ebp-0x29],al
1000038b:	80 65 d7 01          	and    BYTE PTR [ebp-0x29],0x1
1000038f:	c6 45 cf 01          	mov    BYTE PTR [ebp-0x31],0x1
10000393:	eb 67                	jmp    0x100003fc
10000395:	66 83 f9 02          	cmp    cx,0x2
10000399:	75 0d                	jne    0x100003a8
1000039b:	88 45 d6             	mov    BYTE PTR [ebp-0x2a],al
1000039e:	80 65 d6 01          	and    BYTE PTR [ebp-0x2a],0x1
100003a2:	c6 45 d4 01          	mov    BYTE PTR [ebp-0x2c],0x1
100003a6:	eb 54                	jmp    0x100003fc
100003a8:	89 c8                	mov    eax,ecx
100003aa:	66 48                	dec    ax
100003ac:	75 11                	jne    0x100003bf
100003ae:	8b 45 e0             	mov    eax,DWORD PTR [ebp-0x20]
100003b1:	25 ff ff ff 00       	and    eax,0xffffff
100003b6:	89 45 d0             	mov    DWORD PTR [ebp-0x30],eax
100003b9:	c6 45 d5 01          	mov    BYTE PTR [ebp-0x2b],0x1
100003bd:	eb 3d                	jmp    0x100003fc
100003bf:	66 83 f9 03          	cmp    cx,0x3
100003c3:	75 37                	jne    0x100003fc
100003c5:	83 7d e0 01          	cmp    DWORD PTR [ebp-0x20],0x1
100003c9:	74 1b                	je     0x100003e6
100003cb:	83 7d e0 03          	cmp    DWORD PTR [ebp-0x20],0x3
100003cf:	74 1e                	je     0x100003ef
100003d1:	83 7d e0 00          	cmp    DWORD PTR [ebp-0x20],0x0
100003d5:	74 21                	je     0x100003f8
100003d7:	83 7d e0 02          	cmp    DWORD PTR [ebp-0x20],0x2
100003db:	75 1f                	jne    0x100003fc
100003dd:	b3 01                	mov    bl,0x1
100003df:	be 01 00 00 00       	mov    esi,0x1
100003e4:	eb 16                	jmp    0x100003fc
100003e6:	b3 01                	mov    bl,0x1
100003e8:	be 02 00 00 00       	mov    esi,0x2
100003ed:	eb 0d                	jmp    0x100003fc
100003ef:	b3 01                	mov    bl,0x1
100003f1:	be 03 00 00 00       	mov    esi,0x3
100003f6:	eb 04                	jmp    0x100003fc
100003f8:	b3 01                	mov    bl,0x1
100003fa:	31 f6                	xor    esi,esi
100003fc:	83 45 e4 07          	add    DWORD PTR [ebp-0x1c],0x7
10000400:	e9 a8 00 00 00       	jmp    0x100004ad
10000405:	8b 45 e4             	mov    eax,DWORD PTR [ebp-0x1c]
10000408:	39 45 0c             	cmp    DWORD PTR [ebp+0xc],eax
1000040b:	0f 85 9c 00 00 00    	jne    0x100004ad
10000411:	84 d2                	test   dl,dl
10000413:	74 08                	je     0x1000041d
10000415:	8b 45 0c             	mov    eax,DWORD PTR [ebp+0xc]
10000418:	a3 18 80 01 10       	mov    ds:0x10018018,eax
1000041d:	80 7d cf 00          	cmp    BYTE PTR [ebp-0x31],0x0
10000421:	74 08                	je     0x1000042b
10000423:	8a 45 d7             	mov    al,BYTE PTR [ebp-0x29]
10000426:	a2 fd c9 01 10       	mov    ds:0x1001c9fd,al
1000042b:	80 7d d4 00          	cmp    BYTE PTR [ebp-0x2c],0x0
1000042f:	74 08                	je     0x10000439
10000431:	8a 45 d6             	mov    al,BYTE PTR [ebp-0x2a]
10000434:	a2 fc c9 01 10       	mov    ds:0x1001c9fc,al
10000439:	80 7d d5 00          	cmp    BYTE PTR [ebp-0x2b],0x0
1000043d:	74 08                	je     0x10000447
1000043f:	8b 45 d0             	mov    eax,DWORD PTR [ebp-0x30]
10000442:	a3 f8 c9 01 10       	mov    ds:0x1001c9f8,eax
10000447:	84 db                	test   bl,bl
10000449:	74 06                	je     0x10000451
1000044b:	89 35 f4 c9 01 10    	mov    DWORD PTR ds:0x1001c9f4,esi
10000451:	83 ec 0c             	sub    esp,0xc
10000454:	57                   	push   edi
10000455:	e8 3e 3d 00 00       	call   0x10004198
1000045a:	58                   	pop    eax
1000045b:	5a                   	pop    edx
1000045c:	0f b6 05 fd c9 01 10 	movzx  eax,BYTE PTR ds:0x1001c9fd
10000463:	50                   	push   eax
10000464:	57                   	push   edi
10000465:	e8 22 5b 00 00       	call   0x10005f8c
1000046a:	59                   	pop    ecx
1000046b:	5b                   	pop    ebx
1000046c:	ff 35 f8 c9 01 10    	push   DWORD PTR ds:0x1001c9f8
10000472:	57                   	push   edi
10000473:	e8 b6 5a 00 00       	call   0x10005f2e
10000478:	5e                   	pop    esi
10000479:	58                   	pop    eax
1000047a:	0f b6 05 fc c9 01 10 	movzx  eax,BYTE PTR ds:0x1001c9fc
10000481:	50                   	push   eax
10000482:	57                   	push   edi
10000483:	e8 d4 5a 00 00       	call   0x10005f5c
10000488:	58                   	pop    eax
10000489:	5a                   	pop    edx
1000048a:	ff 35 f4 c9 01 10    	push   DWORD PTR ds:0x1001c9f4
10000490:	57                   	push   edi
10000491:	e8 e8 5b 00 00       	call   0x1000607e
10000496:	59                   	pop    ecx
10000497:	5b                   	pop    ebx
10000498:	6a 01                	push   0x1
1000049a:	57                   	push   edi
1000049b:	e8 12 3d 00 00       	call   0x100041b2
100004a0:	89 3c 24             	mov    DWORD PTR [esp],edi
100004a3:	e8 9c 3c 00 00       	call   0x10004144
100004a8:	83 c4 10             	add    esp,0x10
100004ab:	eb 4a                	jmp    0x100004f7
100004ad:	ff 45 e4             	inc    DWORD PTR [ebp-0x1c]
100004b0:	b2 01                	mov    dl,0x1
100004b2:	e9 5d fe ff ff       	jmp    0x10000314
100004b7:	84 d2                	test   dl,dl
100004b9:	74 08                	je     0x100004c3
100004bb:	8b 45 e4             	mov    eax,DWORD PTR [ebp-0x1c]
100004be:	a3 18 80 01 10       	mov    ds:0x10018018,eax
100004c3:	80 7d cf 00          	cmp    BYTE PTR [ebp-0x31],0x0
100004c7:	74 08                	je     0x100004d1
100004c9:	8a 45 d7             	mov    al,BYTE PTR [ebp-0x29]
100004cc:	a2 fd c9 01 10       	mov    ds:0x1001c9fd,al
100004d1:	80 7d d4 00          	cmp    BYTE PTR [ebp-0x2c],0x0
100004d5:	74 08                	je     0x100004df
100004d7:	8a 45 d6             	mov    al,BYTE PTR [ebp-0x2a]
100004da:	a2 fc c9 01 10       	mov    ds:0x1001c9fc,al
100004df:	80 7d d5 00          	cmp    BYTE PTR [ebp-0x2b],0x0
100004e3:	74 08                	je     0x100004ed
100004e5:	8b 45 d0             	mov    eax,DWORD PTR [ebp-0x30]
100004e8:	a3 f8 c9 01 10       	mov    ds:0x1001c9f8,eax
100004ed:	84 db                	test   bl,bl
100004ef:	74 06                	je     0x100004f7
100004f1:	89 35 f4 c9 01 10    	mov    DWORD PTR ds:0x1001c9f4,esi
100004f7:	31 c0                	xor    eax,eax
100004f9:	8d 65 f4             	lea    esp,[ebp-0xc]
100004fc:	5b                   	pop    ebx
100004fd:	5e                   	pop    esi
100004fe:	5f                   	pop    edi
100004ff:	5d                   	pop    ebp
10000500:	c3                   	ret    
10000501:	55                   	push   ebp
10000502:	89 e5                	mov    ebp,esp
10000504:	83 ec 14             	sub    esp,0x14
10000507:	ff 75 08             	push   DWORD PTR [ebp+0x8]
1000050a:	e8 6f 31 00 00       	call   0x1000367e
1000050f:	31 c0                	xor    eax,eax
10000511:	c9                   	leave  
10000512:	c3                   	ret    
10000513:	55                   	push   ebp
10000514:	89 e5                	mov    ebp,esp
10000516:	56                   	push   esi
10000517:	53                   	push   ebx
10000518:	83 ec 14             	sub    esp,0x14
1000051b:	8b 4d 0c             	mov    ecx,DWORD PTR [ebp+0xc]
1000051e:	31 db                	xor    ebx,ebx
10000520:	0f a4 cb 0c          	shld   ebx,ecx,0xc
10000524:	c1 e1 0c             	shl    ecx,0xc
10000527:	0f b7 75 08          	movzx  esi,WORD PTR [ebp+0x8]
1000052b:	09 ce                	or     esi,ecx
1000052d:	89 f0                	mov    eax,esi
1000052f:	89 da                	mov    edx,ebx
10000531:	c6 45 ec 7e          	mov    BYTE PTR [ebp-0x14],0x7e
10000535:	89 d9                	mov    ecx,ebx
10000537:	c1 e9 03             	shr    ecx,0x3
1000053a:	83 c9 80             	or     ecx,0xffffff80
1000053d:	88 4d ed             	mov    BYTE PTR [ebp-0x13],cl
10000540:	89 f1                	mov    ecx,esi
10000542:	0f ac d9 1c          	shrd   ecx,ebx,0x1c
10000546:	c1 eb 1c             	shr    ebx,0x1c
10000549:	83 c9 80             	or     ecx,0xffffff80
1000054c:	88 4d ee             	mov    BYTE PTR [ebp-0x12],cl
1000054f:	89 f1                	mov    ecx,esi
10000551:	89 d3                	mov    ebx,edx
10000553:	0f ac d9 15          	shrd   ecx,ebx,0x15
10000557:	c1 eb 15             	shr    ebx,0x15
1000055a:	83 c9 80             	or     ecx,0xffffff80
1000055d:	88 4d ef             	mov    BYTE PTR [ebp-0x11],cl
10000560:	89 f1                	mov    ecx,esi
10000562:	89 d3                	mov    ebx,edx
10000564:	0f ac d9 0e          	shrd   ecx,ebx,0xe
10000568:	c1 eb 0e             	shr    ebx,0xe
1000056b:	83 c9 80             	or     ecx,0xffffff80
1000056e:	88 4d f0             	mov    BYTE PTR [ebp-0x10],cl
10000571:	89 f1                	mov    ecx,esi
10000573:	89 d3                	mov    ebx,edx
10000575:	0f ac d9 07          	shrd   ecx,ebx,0x7
10000579:	c1 eb 07             	shr    ebx,0x7
1000057c:	83 c9 80             	or     ecx,0xffffff80
1000057f:	88 4d f1             	mov    BYTE PTR [ebp-0xf],cl
10000582:	83 c8 80             	or     eax,0xffffff80
10000585:	88 45 f2             	mov    BYTE PTR [ebp-0xe],al
10000588:	66 c7 45 f3 7f 00    	mov    WORD PTR [ebp-0xd],0x7f
1000058e:	8d 45 ec             	lea    eax,[ebp-0x14]
10000591:	50                   	push   eax
10000592:	ff 75 14             	push   DWORD PTR [ebp+0x14]
10000595:	ff 75 10             	push   DWORD PTR [ebp+0x10]
10000598:	e8 5f 4d 00 00       	call   0x100052fc
1000059d:	83 c4 10             	add    esp,0x10
100005a0:	8d 65 f8             	lea    esp,[ebp-0x8]
100005a3:	5b                   	pop    ebx
100005a4:	5e                   	pop    esi
100005a5:	5d                   	pop    ebp
100005a6:	c3                   	ret    
100005a7:	55                   	push   ebp
100005a8:	89 e5                	mov    ebp,esp
100005aa:	83 ec 14             	sub    esp,0x14
100005ad:	ff 35 f0 c9 01 10    	push   DWORD PTR ds:0x1001c9f0
100005b3:	e8 22 59 00 00       	call   0x10005eda
100005b8:	50                   	push   eax
100005b9:	ff 35 f0 c9 01 10    	push   DWORD PTR ds:0x1001c9f0
100005bf:	6a 00                	push   0x0
100005c1:	6a 03                	push   0x3
100005c3:	e8 4b ff ff ff       	call   0x10000513
100005c8:	31 c0                	xor    eax,eax
100005ca:	c9                   	leave  
100005cb:	c3                   	ret    
100005cc:	55                   	push   ebp
100005cd:	89 e5                	mov    ebp,esp
100005cf:	83 ec 14             	sub    esp,0x14
100005d2:	ff 35 f0 c9 01 10    	push   DWORD PTR ds:0x1001c9f0
100005d8:	e8 fd 58 00 00       	call   0x10005eda
100005dd:	50                   	push   eax
100005de:	ff 35 f0 c9 01 10    	push   DWORD PTR ds:0x1001c9f0
100005e4:	6a 01                	push   0x1
100005e6:	6a 03                	push   0x3
100005e8:	e8 26 ff ff ff       	call   0x10000513
100005ed:	31 c0                	xor    eax,eax
100005ef:	c9                   	leave  
100005f0:	c3                   	ret    
100005f1:	55                   	push   ebp
100005f2:	89 e5                	mov    ebp,esp
100005f4:	83 ec 14             	sub    esp,0x14
100005f7:	ff 35 f0 c9 01 10    	push   DWORD PTR ds:0x1001c9f0
100005fd:	e8 d8 58 00 00       	call   0x10005eda
10000602:	50                   	push   eax
10000603:	ff 35 f0 c9 01 10    	push   DWORD PTR ds:0x1001c9f0
10000609:	6a 02                	push   0x2
1000060b:	6a 03                	push   0x3
1000060d:	e8 01 ff ff ff       	call   0x10000513
10000612:	31 c0                	xor    eax,eax
10000614:	c9                   	leave  
10000615:	c3                   	ret    
10000616:	55                   	push   ebp
10000617:	89 e5                	mov    ebp,esp
10000619:	83 ec 14             	sub    esp,0x14
1000061c:	ff 35 f0 c9 01 10    	push   DWORD PTR ds:0x1001c9f0
10000622:	e8 b3 58 00 00       	call   0x10005eda
10000627:	50                   	push   eax
10000628:	ff 35 f0 c9 01 10    	push   DWORD PTR ds:0x1001c9f0
1000062e:	6a 03                	push   0x3
10000630:	6a 03                	push   0x3
10000632:	e8 dc fe ff ff       	call   0x10000513
10000637:	31 c0                	xor    eax,eax
10000639:	c9                   	leave  
1000063a:	c3                   	ret    
1000063b:	55                   	push   ebp
1000063c:	89 e5                	mov    ebp,esp
1000063e:	53                   	push   ebx
1000063f:	83 ec 10             	sub    esp,0x10
10000642:	ff 35 f0 c9 01 10    	push   DWORD PTR ds:0x1001c9f0
10000648:	e8 81 58 00 00       	call   0x10005ece
1000064d:	89 c3                	mov    ebx,eax
1000064f:	58                   	pop    eax
10000650:	ff 35 f0 c9 01 10    	push   DWORD PTR ds:0x1001c9f0
10000656:	e8 7f 58 00 00       	call   0x10005eda
1000065b:	83 c4 10             	add    esp,0x10
1000065e:	39 c3                	cmp    ebx,eax
10000660:	74 27                	je     0x10000689
10000662:	7e 02                	jle    0x10000666
10000664:	89 c3                	mov    ebx,eax
10000666:	50                   	push   eax
10000667:	ff 35 f0 c9 01 10    	push   DWORD PTR ds:0x1001c9f0
1000066d:	6a 00                	push   0x0
1000066f:	6a 00                	push   0x0
10000671:	e8 9d fe ff ff       	call   0x10000513
10000676:	53                   	push   ebx
10000677:	ff 35 f0 c9 01 10    	push   DWORD PTR ds:0x1001c9f0
1000067d:	6a 01                	push   0x1
1000067f:	6a 00                	push   0x0
10000681:	e8 8d fe ff ff       	call   0x10000513
10000686:	83 c4 20             	add    esp,0x20
10000689:	31 c0                	xor    eax,eax
1000068b:	8b 5d fc             	mov    ebx,DWORD PTR [ebp-0x4]
1000068e:	c9                   	leave  
1000068f:	c3                   	ret    
10000690:	55                   	push   ebp
10000691:	89 e5                	mov    ebp,esp
10000693:	53                   	push   ebx
10000694:	83 ec 10             	sub    esp,0x10
10000697:	ff 35 f0 c9 01 10    	push   DWORD PTR ds:0x1001c9f0
1000069d:	e8 2c 58 00 00       	call   0x10005ece
100006a2:	89 c3                	mov    ebx,eax
100006a4:	58                   	pop    eax
100006a5:	ff 35 f0 c9 01 10    	push   DWORD PTR ds:0x1001c9f0
100006ab:	e8 2a 58 00 00       	call   0x10005eda
100006b0:	83 c4 10             	add    esp,0x10
100006b3:	39 c3                	cmp    ebx,eax
100006b5:	74 27                	je     0x100006de
100006b7:	7e 02                	jle    0x100006bb
100006b9:	89 c3                	mov    ebx,eax
100006bb:	50                   	push   eax
100006bc:	ff 35 f0 c9 01 10    	push   DWORD PTR ds:0x1001c9f0
100006c2:	6a 00                	push   0x0
100006c4:	6a 02                	push   0x2
100006c6:	e8 48 fe ff ff       	call   0x10000513
100006cb:	53                   	push   ebx
100006cc:	ff 35 f0 c9 01 10    	push   DWORD PTR ds:0x1001c9f0
100006d2:	6a 01                	push   0x1
100006d4:	6a 02                	push   0x2
100006d6:	e8 38 fe ff ff       	call   0x10000513
100006db:	83 c4 20             	add    esp,0x20
100006de:	31 c0                	xor    eax,eax
100006e0:	8b 5d fc             	mov    ebx,DWORD PTR [ebp-0x4]
100006e3:	c9                   	leave  
100006e4:	c3                   	ret    
100006e5:	55                   	push   ebp
100006e6:	89 e5                	mov    ebp,esp
100006e8:	53                   	push   ebx
100006e9:	8b 4d 08             	mov    ecx,DWORD PTR [ebp+0x8]
100006ec:	8b 55 0c             	mov    edx,DWORD PTR [ebp+0xc]
100006ef:	89 c8                	mov    eax,ecx
100006f1:	c1 e8 1f             	shr    eax,0x1f
100006f4:	89 d3                	mov    ebx,edx
100006f6:	c1 eb 1f             	shr    ebx,0x1f
100006f9:	08 d8                	or     al,bl
100006fb:	75 1c                	jne    0x10000719
100006fd:	39 0d 10 80 01 10    	cmp    DWORD PTR ds:0x10018010,ecx
10000703:	7e 16                	jle    0x1000071b
10000705:	39 15 0c 80 01 10    	cmp    DWORD PTR ds:0x1001800c,edx
1000070b:	7e 0e                	jle    0x1000071b
1000070d:	6b d2 1e             	imul   edx,edx,0x1e
10000710:	8a 84 11 40 b8 01 10 	mov    al,BYTE PTR [ecx+edx*1+0x1001b840]
10000717:	eb 02                	jmp    0x1000071b
10000719:	31 c0                	xor    eax,eax
1000071b:	5b                   	pop    ebx
1000071c:	5d                   	pop    ebp
1000071d:	c3                   	ret    
1000071e:	55                   	push   ebp
1000071f:	89 e5                	mov    ebp,esp
10000721:	56                   	push   esi
10000722:	53                   	push   ebx
10000723:	e8 d4 99 00 00       	call   0x1000a0fc
10000728:	99                   	cdq    
10000729:	f7 3d 10 80 01 10    	idiv   DWORD PTR ds:0x10018010
1000072f:	89 d6                	mov    esi,edx
10000731:	e8 c6 99 00 00       	call   0x1000a0fc
10000736:	99                   	cdq    
10000737:	f7 3d 0c 80 01 10    	idiv   DWORD PTR ds:0x1001800c
1000073d:	89 d3                	mov    ebx,edx
1000073f:	50                   	push   eax
10000740:	50                   	push   eax
10000741:	52                   	push   edx
10000742:	56                   	push   esi
10000743:	e8 9d ff ff ff       	call   0x100006e5
10000748:	83 c4 10             	add    esp,0x10
1000074b:	84 c0                	test   al,al
1000074d:	75 d4                	jne    0x10000723
1000074f:	6b db 1e             	imul   ebx,ebx,0x1e
10000752:	c6 84 1e 40 b8 01 10 01 	mov    BYTE PTR [esi+ebx*1+0x1001b840],0x1
1000075a:	8d 65 f8             	lea    esp,[ebp-0x8]
1000075d:	5b                   	pop    ebx
1000075e:	5e                   	pop    esi
1000075f:	5d                   	pop    ebp
10000760:	c3                   	ret    
10000761:	55                   	push   ebp
10000762:	89 e5                	mov    ebp,esp
10000764:	57                   	push   edi
10000765:	56                   	push   esi
10000766:	53                   	push   ebx
10000767:	8b 35 0c 80 01 10    	mov    esi,DWORD PTR ds:0x1001800c
1000076d:	a1 10 80 01 10       	mov    eax,ds:0x10018010
10000772:	31 db                	xor    ebx,ebx
10000774:	31 c9                	xor    ecx,ecx
10000776:	39 ce                	cmp    esi,ecx
10000778:	7e 22                	jle    0x1000079c
1000077a:	31 d2                	xor    edx,edx
1000077c:	39 d0                	cmp    eax,edx
1000077e:	7e 16                	jle    0x10000796
10000780:	8b 7d 08             	mov    edi,DWORD PTR [ebp+0x8]
10000783:	39 bc 93 e0 bb 01 10 	cmp    DWORD PTR [ebx+edx*4+0x1001bbe0],edi
1000078a:	75 07                	jne    0x10000793
1000078c:	0f af c1             	imul   eax,ecx
1000078f:	01 d0                	add    eax,edx
10000791:	eb 0c                	jmp    0x1000079f
10000793:	42                   	inc    edx
10000794:	eb e6                	jmp    0x1000077c
10000796:	41                   	inc    ecx
10000797:	83 c3 78             	add    ebx,0x78
1000079a:	eb da                	jmp    0x10000776
1000079c:	83 c8 ff             	or     eax,0xffffffff
1000079f:	5b                   	pop    ebx
100007a0:	5e                   	pop    esi
100007a1:	5f                   	pop    edi
100007a2:	5d                   	pop    ebp
100007a3:	c3                   	ret    
100007a4:	55                   	push   ebp
100007a5:	89 e5                	mov    ebp,esp
100007a7:	53                   	push   ebx
100007a8:	53                   	push   ebx
100007a9:	8b 45 0c             	mov    eax,DWORD PTR [ebp+0xc]
100007ac:	80 3d 88 b4 01 10 00 	cmp    BYTE PTR ds:0x1001b488,0x0
100007b3:	0f 85 af 00 00 00    	jne    0x10000868
100007b9:	80 3d 08 80 01 10 00 	cmp    BYTE PTR ds:0x10018008,0x0
100007c0:	0f 84 a2 00 00 00    	je     0x10000868
100007c6:	c6 05 08 80 01 10 00 	mov    BYTE PTR ds:0x10018008,0x0
100007cd:	83 ec 0c             	sub    esp,0xc
100007d0:	50                   	push   eax
100007d1:	e8 8b ff ff ff       	call   0x10000761
100007d6:	83 c4 10             	add    esp,0x10
100007d9:	99                   	cdq    
100007da:	f7 3d 10 80 01 10    	idiv   DWORD PTR ds:0x10018010
100007e0:	6b c0 1e             	imul   eax,eax,0x1e
100007e3:	8d 8c 02 a0 b4 01 10 	lea    ecx,[edx+eax*1+0x1001b4a0]
100007ea:	8a 19                	mov    bl,BYTE PTR [ecx]
100007ec:	84 db                	test   bl,bl
100007ee:	75 1c                	jne    0x1000080c
100007f0:	c6 01 02             	mov    BYTE PTR [ecx],0x2
100007f3:	51                   	push   ecx
100007f4:	6a 00                	push   0x0
100007f6:	68 df 64 01 10       	push   0x100164df
100007fb:	8d 1c 10             	lea    ebx,[eax+edx*1]
100007fe:	ff 34 9d e0 bb 01 10 	push   DWORD PTR [ebx*4+0x1001bbe0]
10000805:	e8 c2 30 00 00       	call   0x100038cc
1000080a:	eb 3f                	jmp    0x1000084b
1000080c:	80 fb 02             	cmp    bl,0x2
1000080f:	75 21                	jne    0x10000832
10000811:	c6 01 01             	mov    BYTE PTR [ecx],0x1
10000814:	83 ec 0c             	sub    esp,0xc
10000817:	8d 1c 10             	lea    ebx,[eax+edx*1]
1000081a:	ff 34 9d e0 bb 01 10 	push   DWORD PTR [ebx*4+0x1001bbe0]
10000821:	e8 ea 30 00 00       	call   0x10003910
10000826:	83 c4 10             	add    esp,0x10
10000829:	c7 45 0c fc 64 01 10 	mov    DWORD PTR [ebp+0xc],0x100164fc
10000830:	eb 23                	jmp    0x10000855
10000832:	fe cb                	dec    bl
10000834:	75 32                	jne    0x10000868
10000836:	c6 01 00             	mov    BYTE PTR [ecx],0x0
10000839:	83 ec 0c             	sub    esp,0xc
1000083c:	8d 1c 10             	lea    ebx,[eax+edx*1]
1000083f:	ff 34 9d e0 bb 01 10 	push   DWORD PTR [ebx*4+0x1001bbe0]
10000846:	e8 c5 30 00 00       	call   0x10003910
1000084b:	83 c4 10             	add    esp,0x10
1000084e:	c7 45 0c fe 66 01 10 	mov    DWORD PTR [ebp+0xc],0x100166fe
10000855:	8b 04 9d e0 bb 01 10 	mov    eax,DWORD PTR [ebx*4+0x1001bbe0]
1000085c:	89 45 08             	mov    DWORD PTR [ebp+0x8],eax
1000085f:	8b 5d fc             	mov    ebx,DWORD PTR [ebp-0x4]
10000862:	c9                   	leave  
10000863:	e9 b4 2e 00 00       	jmp    0x1000371c
10000868:	8b 5d fc             	mov    ebx,DWORD PTR [ebp-0x4]
1000086b:	c9                   	leave  
1000086c:	c3                   	ret    
1000086d:	55                   	push   ebp
1000086e:	89 e5                	mov    ebp,esp
10000870:	57                   	push   edi
10000871:	56                   	push   esi
10000872:	53                   	push   ebx
10000873:	83 ec 24             	sub    esp,0x24
10000876:	8b 75 08             	mov    esi,DWORD PTR [ebp+0x8]
10000879:	8b 7d 0c             	mov    edi,DWORD PTR [ebp+0xc]
1000087c:	8d 56 ff             	lea    edx,[esi-0x1]
1000087f:	57                   	push   edi
10000880:	52                   	push   edx
10000881:	89 55 dc             	mov    DWORD PTR [ebp-0x24],edx
10000884:	e8 5c fe ff ff       	call   0x100006e5
10000889:	5a                   	pop    edx
1000088a:	59                   	pop    ecx
1000088b:	0f b6 d8             	movzx  ebx,al
1000088e:	8d 46 01             	lea    eax,[esi+0x1]
10000891:	89 45 e4             	mov    DWORD PTR [ebp-0x1c],eax
10000894:	57                   	push   edi
10000895:	50                   	push   eax
10000896:	e8 4a fe ff ff       	call   0x100006e5
1000089b:	5a                   	pop    edx
1000089c:	59                   	pop    ecx
1000089d:	0f b6 c0             	movzx  eax,al
100008a0:	01 d8                	add    eax,ebx
100008a2:	89 45 e0             	mov    DWORD PTR [ebp-0x20],eax
100008a5:	8d 5f 01             	lea    ebx,[edi+0x1]
100008a8:	53                   	push   ebx
100008a9:	56                   	push   esi
100008aa:	e8 36 fe ff ff       	call   0x100006e5
100008af:	5a                   	pop    edx
100008b0:	59                   	pop    ecx
100008b1:	0f b6 c0             	movzx  eax,al
100008b4:	03 45 e0             	add    eax,DWORD PTR [ebp-0x20]
100008b7:	89 45 e0             	mov    DWORD PTR [ebp-0x20],eax
100008ba:	4f                   	dec    edi
100008bb:	57                   	push   edi
100008bc:	56                   	push   esi
100008bd:	e8 23 fe ff ff       	call   0x100006e5
100008c2:	5e                   	pop    esi
100008c3:	5a                   	pop    edx
100008c4:	0f b6 f0             	movzx  esi,al
100008c7:	03 75 e0             	add    esi,DWORD PTR [ebp-0x20]
100008ca:	53                   	push   ebx
100008cb:	8b 55 dc             	mov    edx,DWORD PTR [ebp-0x24]
100008ce:	52                   	push   edx
100008cf:	89 55 e0             	mov    DWORD PTR [ebp-0x20],edx
100008d2:	e8 0e fe ff ff       	call   0x100006e5
100008d7:	59                   	pop    ecx
100008d8:	5a                   	pop    edx
100008d9:	0f b6 c0             	movzx  eax,al
100008dc:	01 c6                	add    esi,eax
100008de:	53                   	push   ebx
100008df:	ff 75 e4             	push   DWORD PTR [ebp-0x1c]
100008e2:	e8 fe fd ff ff       	call   0x100006e5
100008e7:	59                   	pop    ecx
100008e8:	5b                   	pop    ebx
100008e9:	0f b6 d8             	movzx  ebx,al
100008ec:	01 f3                	add    ebx,esi
100008ee:	57                   	push   edi
100008ef:	8b 55 e0             	mov    edx,DWORD PTR [ebp-0x20]
100008f2:	52                   	push   edx
100008f3:	e8 ed fd ff ff       	call   0x100006e5
100008f8:	5e                   	pop    esi
100008f9:	5a                   	pop    edx
100008fa:	0f b6 c0             	movzx  eax,al
100008fd:	01 c3                	add    ebx,eax
100008ff:	57                   	push   edi
10000900:	ff 75 e4             	push   DWORD PTR [ebp-0x1c]
10000903:	e8 dd fd ff ff       	call   0x100006e5
10000908:	83 c4 10             	add    esp,0x10
1000090b:	0f b6 c0             	movzx  eax,al
1000090e:	01 d8                	add    eax,ebx
10000910:	8d 65 f4             	lea    esp,[ebp-0xc]
10000913:	5b                   	pop    ebx
10000914:	5e                   	pop    esi
10000915:	5f                   	pop    edi
10000916:	5d                   	pop    ebp
10000917:	c3                   	ret    
10000918:	55                   	push   ebp
10000919:	89 e5                	mov    ebp,esp
1000091b:	57                   	push   edi
1000091c:	56                   	push   esi
1000091d:	53                   	push   ebx
1000091e:	83 ec 4c             	sub    esp,0x4c
10000921:	8b 7d 08             	mov    edi,DWORD PTR [ebp+0x8]
10000924:	8b 75 0c             	mov    esi,DWORD PTR [ebp+0xc]
10000927:	85 ff                	test   edi,edi
10000929:	0f 88 0e 02 00 00    	js     0x10000b3d
1000092f:	85 f6                	test   esi,esi
10000931:	0f 88 06 02 00 00    	js     0x10000b3d
10000937:	39 3d 10 80 01 10    	cmp    DWORD PTR ds:0x10018010,edi
1000093d:	0f 8e fa 01 00 00    	jle    0x10000b3d
10000943:	39 35 0c 80 01 10    	cmp    DWORD PTR ds:0x1001800c,esi
10000949:	0f 8e ee 01 00 00    	jle    0x10000b3d
1000094f:	6b c6 1e             	imul   eax,esi,0x1e
10000952:	89 45 b4             	mov    DWORD PTR [ebp-0x4c],eax
10000955:	8d 9c 07 a0 b4 01 10 	lea    ebx,[edi+eax*1+0x1001b4a0]
1000095c:	8a 03                	mov    al,BYTE PTR [ebx]
1000095e:	83 e8 03             	sub    eax,0x3
10000961:	3c 01                	cmp    al,0x1
10000963:	0f 86 d4 01 00 00    	jbe    0x10000b3d
10000969:	50                   	push   eax
1000096a:	50                   	push   eax
1000096b:	56                   	push   esi
1000096c:	57                   	push   edi
1000096d:	e8 73 fd ff ff       	call   0x100006e5
10000972:	83 c4 10             	add    esp,0x10
10000975:	84 c0                	test   al,al
10000977:	0f 84 b1 00 00 00    	je     0x10000a2e
1000097d:	80 3d 14 80 01 10 00 	cmp    BYTE PTR ds:0x10018014,0x0
10000984:	74 15                	je     0x1000099b
10000986:	e8 93 fd ff ff       	call   0x1000071e
1000098b:	6b c6 1e             	imul   eax,esi,0x1e
1000098e:	c6 84 07 40 b8 01 10 00 	mov    BYTE PTR [edi+eax*1+0x1001b840],0x0
10000996:	e9 93 00 00 00       	jmp    0x10000a2e
1000099b:	50                   	push   eax
1000099c:	50                   	push   eax
1000099d:	68 fe 66 01 10       	push   0x100166fe
100009a2:	03 7d b4             	add    edi,DWORD PTR [ebp-0x4c]
100009a5:	ff 34 bd e0 bb 01 10 	push   DWORD PTR [edi*4+0x1001bbe0]
100009ac:	e8 6b 2d 00 00       	call   0x1000371c
100009b1:	83 c4 0c             	add    esp,0xc
100009b4:	6a 00                	push   0x0
100009b6:	68 fe 64 01 10       	push   0x100164fe
100009bb:	ff 34 bd e0 bb 01 10 	push   DWORD PTR [edi*4+0x1001bbe0]
100009c2:	e8 05 2f 00 00       	call   0x100038cc
100009c7:	c6 03 04             	mov    BYTE PTR [ebx],0x4
100009ca:	c6 05 88 b4 01 10 01 	mov    BYTE PTR ds:0x1001b488,0x1
100009d1:	83 c4 10             	add    esp,0x10
100009d4:	31 f6                	xor    esi,esi
100009d6:	39 35 0c 80 01 10    	cmp    DWORD PTR ds:0x1001800c,esi
100009dc:	0f 8e 5b 01 00 00    	jle    0x10000b3d
100009e2:	6b de 1e             	imul   ebx,esi,0x1e
100009e5:	31 ff                	xor    edi,edi
100009e7:	39 3d 10 80 01 10    	cmp    DWORD PTR ds:0x10018010,edi
100009ed:	7e 3c                	jle    0x10000a2b
100009ef:	8a 83 a0 b4 01 10    	mov    al,BYTE PTR [ebx+0x1001b4a0]
100009f5:	80 bb 40 b8 01 10 00 	cmp    BYTE PTR [ebx+0x1001b840],0x0
100009fc:	74 0e                	je     0x10000a0c
100009fe:	3c 01                	cmp    al,0x1
10000a00:	77 25                	ja     0x10000a27
10000a02:	50                   	push   eax
10000a03:	6a 00                	push   0x0
10000a05:	68 1b 65 01 10       	push   0x1001651b
10000a0a:	eb 0c                	jmp    0x10000a18
10000a0c:	3c 02                	cmp    al,0x2
10000a0e:	75 17                	jne    0x10000a27
10000a10:	50                   	push   eax
10000a11:	6a 00                	push   0x0
10000a13:	68 39 65 01 10       	push   0x10016539
10000a18:	ff 34 9d e0 bb 01 10 	push   DWORD PTR [ebx*4+0x1001bbe0]
10000a1f:	e8 a8 2e 00 00       	call   0x100038cc
10000a24:	83 c4 10             	add    esp,0x10
10000a27:	47                   	inc    edi
10000a28:	43                   	inc    ebx
10000a29:	eb bc                	jmp    0x100009e7
10000a2b:	46                   	inc    esi
10000a2c:	eb a8                	jmp    0x100009d6
10000a2e:	c6 05 14 80 01 10 00 	mov    BYTE PTR ds:0x10018014,0x0
10000a35:	6b de 1e             	imul   ebx,esi,0x1e
10000a38:	c6 84 1f a0 b4 01 10 03 	mov    BYTE PTR [edi+ebx*1+0x1001b4a0],0x3
10000a40:	51                   	push   ecx
10000a41:	51                   	push   ecx
10000a42:	56                   	push   esi
10000a43:	57                   	push   edi
10000a44:	e8 24 fe ff ff       	call   0x1000086d
10000a49:	83 c4 10             	add    esp,0x10
10000a4c:	89 c2                	mov    edx,eax
10000a4e:	85 c0                	test   eax,eax
10000a50:	8d 1c 3b             	lea    ebx,[ebx+edi*1]
10000a53:	0f 85 8e 00 00 00    	jne    0x10000ae7
10000a59:	83 ec 0c             	sub    esp,0xc
10000a5c:	ff 34 9d e0 bb 01 10 	push   DWORD PTR [ebx*4+0x1001bbe0]
10000a63:	e8 a8 2e 00 00       	call   0x10003910
10000a68:	59                   	pop    ecx
10000a69:	58                   	pop    eax
10000a6a:	68 57 65 01 10       	push   0x10016557
10000a6f:	ff 34 9d e0 bb 01 10 	push   DWORD PTR [ebx*4+0x1001bbe0]
10000a76:	e8 a1 2c 00 00       	call   0x1000371c
10000a7b:	8d 47 ff             	lea    eax,[edi-0x1]
10000a7e:	5a                   	pop    edx
10000a7f:	59                   	pop    ecx
10000a80:	56                   	push   esi
10000a81:	50                   	push   eax
10000a82:	89 45 ac             	mov    DWORD PTR [ebp-0x54],eax
10000a85:	e8 8e fe ff ff       	call   0x10000918
10000a8a:	8d 5f 01             	lea    ebx,[edi+0x1]
10000a8d:	58                   	pop    eax
10000a8e:	5a                   	pop    edx
10000a8f:	56                   	push   esi
10000a90:	53                   	push   ebx
10000a91:	e8 82 fe ff ff       	call   0x10000918
10000a96:	8d 56 01             	lea    edx,[esi+0x1]
10000a99:	59                   	pop    ecx
10000a9a:	58                   	pop    eax
10000a9b:	52                   	push   edx
10000a9c:	89 55 b4             	mov    DWORD PTR [ebp-0x4c],edx
10000a9f:	57                   	push   edi
10000aa0:	e8 73 fe ff ff       	call   0x10000918
10000aa5:	4e                   	dec    esi
10000aa6:	58                   	pop    eax
10000aa7:	5a                   	pop    edx
10000aa8:	56                   	push   esi
10000aa9:	57                   	push   edi
10000aaa:	e8 69 fe ff ff       	call   0x10000918
10000aaf:	59                   	pop    ecx
10000ab0:	5f                   	pop    edi
10000ab1:	8b 55 b4             	mov    edx,DWORD PTR [ebp-0x4c]
10000ab4:	52                   	push   edx
10000ab5:	89 55 b0             	mov    DWORD PTR [ebp-0x50],edx
10000ab8:	8b 45 ac             	mov    eax,DWORD PTR [ebp-0x54]
10000abb:	50                   	push   eax
10000abc:	89 45 b4             	mov    DWORD PTR [ebp-0x4c],eax
10000abf:	e8 54 fe ff ff       	call   0x10000918
10000ac4:	58                   	pop    eax
10000ac5:	5a                   	pop    edx
10000ac6:	8b 55 b0             	mov    edx,DWORD PTR [ebp-0x50]
10000ac9:	52                   	push   edx
10000aca:	53                   	push   ebx
10000acb:	e8 48 fe ff ff       	call   0x10000918
10000ad0:	59                   	pop    ecx
10000ad1:	5f                   	pop    edi
10000ad2:	56                   	push   esi
10000ad3:	8b 45 b4             	mov    eax,DWORD PTR [ebp-0x4c]
10000ad6:	50                   	push   eax
10000ad7:	e8 3c fe ff ff       	call   0x10000918
10000adc:	58                   	pop    eax
10000add:	5a                   	pop    edx
10000ade:	56                   	push   esi
10000adf:	53                   	push   ebx
10000ae0:	e8 33 fe ff ff       	call   0x10000918
10000ae5:	eb 53                	jmp    0x10000b3a
10000ae7:	8d 7d c8             	lea    edi,[ebp-0x38]
10000aea:	be c0 69 01 10       	mov    esi,0x100169c0
10000aef:	b9 08 00 00 00       	mov    ecx,0x8
10000af4:	f3 a5                	rep movs DWORD PTR es:[edi],DWORD PTR ds:[esi]
10000af6:	50                   	push   eax
10000af7:	52                   	push   edx
10000af8:	89 55 b4             	mov    DWORD PTR [ebp-0x4c],edx
10000afb:	68 59 65 01 10       	push   0x10016559
10000b00:	8d 75 c3             	lea    esi,[ebp-0x3d]
10000b03:	56                   	push   esi
10000b04:	e8 03 9f 00 00       	call   0x1000aa0c
10000b09:	5a                   	pop    edx
10000b0a:	ff 34 9d e0 bb 01 10 	push   DWORD PTR [ebx*4+0x1001bbe0]
10000b11:	e8 fa 2d 00 00       	call   0x10003910
10000b16:	59                   	pop    ecx
10000b17:	5f                   	pop    edi
10000b18:	8b 55 b4             	mov    edx,DWORD PTR [ebp-0x4c]
10000b1b:	ff 74 95 c4          	push   DWORD PTR [ebp+edx*4-0x3c]
10000b1f:	ff 34 9d e0 bb 01 10 	push   DWORD PTR [ebx*4+0x1001bbe0]
10000b26:	e8 6b 28 00 00       	call   0x10003396
10000b2b:	58                   	pop    eax
10000b2c:	5a                   	pop    edx
10000b2d:	56                   	push   esi
10000b2e:	ff 34 9d e0 bb 01 10 	push   DWORD PTR [ebx*4+0x1001bbe0]
10000b35:	e8 e2 2b 00 00       	call   0x1000371c
10000b3a:	83 c4 10             	add    esp,0x10
10000b3d:	8d 65 f4             	lea    esp,[ebp-0xc]
10000b40:	5b                   	pop    ebx
10000b41:	5e                   	pop    esi
10000b42:	5f                   	pop    edi
10000b43:	5d                   	pop    ebp
10000b44:	c3                   	ret    
10000b45:	80 3d 88 b4 01 10 00 	cmp    BYTE PTR ds:0x1001b488,0x0
10000b4c:	0f 85 8f 00 00 00    	jne    0x10000be1
10000b52:	55                   	push   ebp
10000b53:	89 e5                	mov    ebp,esp
10000b55:	57                   	push   edi
10000b56:	56                   	push   esi
10000b57:	53                   	push   ebx
10000b58:	83 ec 18             	sub    esp,0x18
10000b5b:	ff 75 08             	push   DWORD PTR [ebp+0x8]
10000b5e:	e8 fe fb ff ff       	call   0x10000761
10000b63:	83 c4 10             	add    esp,0x10
10000b66:	99                   	cdq    
10000b67:	f7 3d 10 80 01 10    	idiv   DWORD PTR ds:0x10018010
10000b6d:	6b c8 1e             	imul   ecx,eax,0x1e
10000b70:	80 bc 0a a0 b4 01 10 02 	cmp    BYTE PTR [edx+ecx*1+0x1001b4a0],0x2
10000b78:	74 5d                	je     0x10000bd7
10000b7a:	51                   	push   ecx
10000b7b:	51                   	push   ecx
10000b7c:	50                   	push   eax
10000b7d:	52                   	push   edx
10000b7e:	e8 95 fd ff ff       	call   0x10000918
10000b83:	8b 35 0c 80 01 10    	mov    esi,DWORD PTR ds:0x1001800c
10000b89:	8b 3d 10 80 01 10    	mov    edi,DWORD PTR ds:0x10018010
10000b8f:	83 c4 10             	add    esp,0x10
10000b92:	b3 01                	mov    bl,0x1
10000b94:	31 c0                	xor    eax,eax
10000b96:	39 c6                	cmp    esi,eax
10000b98:	7e 24                	jle    0x10000bbe
10000b9a:	6b d0 1e             	imul   edx,eax,0x1e
10000b9d:	31 c9                	xor    ecx,ecx
10000b9f:	39 cf                	cmp    edi,ecx
10000ba1:	7e 18                	jle    0x10000bbb
10000ba3:	80 ba a0 b4 01 10 03 	cmp    BYTE PTR [edx+0x1001b4a0],0x3
10000baa:	74 09                	je     0x10000bb5
10000bac:	80 ba 40 b8 01 10 00 	cmp    BYTE PTR [edx+0x1001b840],0x0
10000bb3:	74 04                	je     0x10000bb9
10000bb5:	41                   	inc    ecx
10000bb6:	42                   	inc    edx
10000bb7:	eb e6                	jmp    0x10000b9f
10000bb9:	31 db                	xor    ebx,ebx
10000bbb:	40                   	inc    eax
10000bbc:	eb d8                	jmp    0x10000b96
10000bbe:	84 db                	test   bl,bl
10000bc0:	74 15                	je     0x10000bd7
10000bc2:	50                   	push   eax
10000bc3:	50                   	push   eax
10000bc4:	68 5c 65 01 10       	push   0x1001655c
10000bc9:	ff 35 84 b4 01 10    	push   DWORD PTR ds:0x1001b484
10000bcf:	e8 4c 58 00 00       	call   0x10006420
10000bd4:	83 c4 10             	add    esp,0x10
10000bd7:	31 c0                	xor    eax,eax
10000bd9:	8d 65 f4             	lea    esp,[ebp-0xc]
10000bdc:	5b                   	pop    ebx
10000bdd:	5e                   	pop    esi
10000bde:	5f                   	pop    edi
10000bdf:	5d                   	pop    ebp
10000be0:	c3                   	ret    
10000be1:	31 c0                	xor    eax,eax
10000be3:	c3                   	ret    
10000be4:	55                   	push   ebp
10000be5:	89 e5                	mov    ebp,esp
10000be7:	57                   	push   edi
10000be8:	56                   	push   esi
10000be9:	53                   	push   ebx
10000bea:	83 ec 1c             	sub    esp,0x1c
10000bed:	8b 5d 08             	mov    ebx,DWORD PTR [ebp+0x8]
10000bf0:	8b 45 0c             	mov    eax,DWORD PTR [ebp+0xc]
10000bf3:	89 45 e0             	mov    DWORD PTR [ebp-0x20],eax
10000bf6:	be e0 bb 01 10       	mov    esi,0x1001bbe0
10000bfb:	89 f7                	mov    edi,esi
10000bfd:	c7 45 e4 00 00 00 00 	mov    DWORD PTR [ebp-0x1c],0x0
10000c04:	8b 17                	mov    edx,DWORD PTR [edi]
10000c06:	85 d2                	test   edx,edx
10000c08:	74 39                	je     0x10000c43
10000c0a:	51                   	push   ecx
10000c0b:	51                   	push   ecx
10000c0c:	52                   	push   edx
10000c0d:	ff 35 84 b4 01 10    	push   DWORD PTR ds:0x1001b484
10000c13:	e8 64 60 00 00       	call   0x10006c7c
10000c18:	8b 17                	mov    edx,DWORD PTR [edi]
10000c1a:	83 c4 10             	add    esp,0x10
10000c1d:	85 d2                	test   edx,edx
10000c1f:	74 1c                	je     0x10000c3d
10000c21:	83 ec 0c             	sub    esp,0xc
10000c24:	52                   	push   edx
10000c25:	89 55 dc             	mov    DWORD PTR [ebp-0x24],edx
10000c28:	e8 41 2d 00 00       	call   0x1000396e
10000c2d:	58                   	pop    eax
10000c2e:	5a                   	pop    edx
10000c2f:	6a 5c                	push   0x5c
10000c31:	8b 55 dc             	mov    edx,DWORD PTR [ebp-0x24]
10000c34:	52                   	push   edx
10000c35:	e8 be 55 00 00       	call   0x100061f8
10000c3a:	83 c4 10             	add    esp,0x10
10000c3d:	c7 07 00 00 00 00    	mov    DWORD PTR [edi],0x0
10000c43:	ff 45 e4             	inc    DWORD PTR [ebp-0x1c]
10000c46:	83 c7 04             	add    edi,0x4
10000c49:	83 7d e4 1e          	cmp    DWORD PTR [ebp-0x1c],0x1e
10000c4d:	75 b5                	jne    0x10000c04
10000c4f:	83 c6 78             	add    esi,0x78
10000c52:	81 fe f0 c9 01 10    	cmp    esi,0x1001c9f0
10000c58:	75 a1                	jne    0x10000bfb
10000c5a:	89 1d 10 80 01 10    	mov    DWORD PTR ds:0x10018010,ebx
10000c60:	8b 45 e0             	mov    eax,DWORD PTR [ebp-0x20]
10000c63:	a3 0c 80 01 10       	mov    ds:0x1001800c,eax
10000c68:	c6 05 88 b4 01 10 00 	mov    BYTE PTR ds:0x1001b488,0x0
10000c6f:	c6 05 08 80 01 10 01 	mov    BYTE PTR ds:0x10018008,0x1
10000c76:	0f af d8             	imul   ebx,eax
10000c79:	6b c3 0a             	imul   eax,ebx,0xa
10000c7c:	b9 40 00 00 00       	mov    ecx,0x40
10000c81:	99                   	cdq    
10000c82:	f7 f9                	idiv   ecx
10000c84:	89 45 e4             	mov    DWORD PTR [ebp-0x1c],eax
10000c87:	e8 44 75 00 00       	call   0x100081d0
10000c8c:	83 ec 0c             	sub    esp,0xc
10000c8f:	50                   	push   eax
10000c90:	e8 4b 94 00 00       	call   0x1000a0e0
10000c95:	c6 05 14 80 01 10 01 	mov    BYTE PTR ds:0x10018014,0x1
10000c9c:	83 c4 10             	add    esp,0x10
10000c9f:	31 d2                	xor    edx,edx
10000ca1:	39 15 0c 80 01 10    	cmp    DWORD PTR ds:0x1001800c,edx
10000ca7:	0f 8e e7 00 00 00    	jle    0x10000d94
10000cad:	6b fa 19             	imul   edi,edx,0x19
10000cb0:	83 c7 5a             	add    edi,0x5a
10000cb3:	6b da 1e             	imul   ebx,edx,0x1e
10000cb6:	31 f6                	xor    esi,esi
10000cb8:	39 35 10 80 01 10    	cmp    DWORD PTR ds:0x10018010,esi
10000cbe:	0f 8e ca 00 00 00    	jle    0x10000d8e
10000cc4:	89 55 dc             	mov    DWORD PTR [ebp-0x24],edx
10000cc7:	c6 83 40 b8 01 10 00 	mov    BYTE PTR [ebx+0x1001b840],0x0
10000cce:	c6 83 a0 b4 01 10 00 	mov    BYTE PTR [ebx+0x1001b4a0],0x0
10000cd5:	83 ec 0c             	sub    esp,0xc
10000cd8:	6a 5c                	push   0x5c
10000cda:	e8 bf 54 00 00       	call   0x1000619e
10000cdf:	6a 02                	push   0x2
10000ce1:	68 57 72 01 10       	push   0x10017257
10000ce6:	ff 35 84 b4 01 10    	push   DWORD PTR ds:0x1001b484
10000cec:	6a 19                	push   0x19
10000cee:	6a 19                	push   0x19
10000cf0:	57                   	push   edi
10000cf1:	6b ce 19             	imul   ecx,esi,0x19
10000cf4:	83 c1 1e             	add    ecx,0x1e
10000cf7:	51                   	push   ecx
10000cf8:	50                   	push   eax
10000cf9:	89 45 e0             	mov    DWORD PTR [ebp-0x20],eax
10000cfc:	e8 91 27 00 00       	call   0x10003492
10000d01:	8b 45 e0             	mov    eax,DWORD PTR [ebp-0x20]
10000d04:	89 04 9d e0 bb 01 10 	mov    DWORD PTR [ebx*4+0x1001bbe0],eax
10000d0b:	83 c4 24             	add    esp,0x24
10000d0e:	50                   	push   eax
10000d0f:	e8 84 34 00 00       	call   0x10004198
10000d14:	58                   	pop    eax
10000d15:	5a                   	pop    edx
10000d16:	68 45 0b 00 10       	push   0x10000b45
10000d1b:	ff 34 9d e0 bb 01 10 	push   DWORD PTR [ebx*4+0x1001bbe0]
10000d22:	e8 d3 2a 00 00       	call   0x100037fa
10000d27:	59                   	pop    ecx
10000d28:	58                   	pop    eax
10000d29:	6a 01                	push   0x1
10000d2b:	ff 34 9d e0 bb 01 10 	push   DWORD PTR [ebx*4+0x1001bbe0]
10000d32:	e8 e1 28 00 00       	call   0x10003618
10000d37:	58                   	pop    eax
10000d38:	5a                   	pop    edx
10000d39:	68 a4 07 00 10       	push   0x100007a4
10000d3e:	ff 34 9d e0 bb 01 10 	push   DWORD PTR [ebx*4+0x1001bbe0]
10000d45:	e8 a6 34 00 00       	call   0x100041f0
10000d4a:	59                   	pop    ecx
10000d4b:	58                   	pop    eax
10000d4c:	68 f5 01 00 10       	push   0x100001f5
10000d51:	ff 34 9d e0 bb 01 10 	push   DWORD PTR [ebx*4+0x1001bbe0]
10000d58:	e8 a5 34 00 00       	call   0x10004202
10000d5d:	58                   	pop    eax
10000d5e:	5a                   	pop    edx
10000d5f:	ff 34 9d e0 bb 01 10 	push   DWORD PTR [ebx*4+0x1001bbe0]
10000d66:	ff 35 84 b4 01 10    	push   DWORD PTR ds:0x1001b484
10000d6c:	e8 dd 5e 00 00       	call   0x10006c4e
10000d71:	59                   	pop    ecx
10000d72:	58                   	pop    eax
10000d73:	6a 01                	push   0x1
10000d75:	ff 34 9d e0 bb 01 10 	push   DWORD PTR [ebx*4+0x1001bbe0]
10000d7c:	e8 31 34 00 00       	call   0x100041b2
10000d81:	46                   	inc    esi
10000d82:	43                   	inc    ebx
10000d83:	83 c4 10             	add    esp,0x10
10000d86:	8b 55 dc             	mov    edx,DWORD PTR [ebp-0x24]
10000d89:	e9 2a ff ff ff       	jmp    0x10000cb8
10000d8e:	42                   	inc    edx
10000d8f:	e9 0d ff ff ff       	jmp    0x10000ca1
10000d94:	31 db                	xor    ebx,ebx
10000d96:	39 5d e4             	cmp    DWORD PTR [ebp-0x1c],ebx
10000d99:	7c 08                	jl     0x10000da3
10000d9b:	e8 7e f9 ff ff       	call   0x1000071e
10000da0:	43                   	inc    ebx
10000da1:	eb f3                	jmp    0x10000d96
10000da3:	a1 84 b4 01 10       	mov    eax,ds:0x1001b484
10000da8:	89 45 08             	mov    DWORD PTR [ebp+0x8],eax
10000dab:	8d 65 f4             	lea    esp,[ebp-0xc]
10000dae:	5b                   	pop    ebx
10000daf:	5e                   	pop    esi
10000db0:	5f                   	pop    edi
10000db1:	5d                   	pop    ebp
10000db2:	e9 d3 5d 00 00       	jmp    0x10006b8a
10000db7:	55                   	push   ebp
10000db8:	89 e5                	mov    ebp,esp
10000dba:	83 ec 10             	sub    esp,0x10
10000dbd:	6a 0a                	push   0xa
10000dbf:	6a 0a                	push   0xa
10000dc1:	e8 1e fe ff ff       	call   0x10000be4
10000dc6:	31 c0                	xor    eax,eax
10000dc8:	c9                   	leave  
10000dc9:	c3                   	ret    
10000dca:	55                   	push   ebp
10000dcb:	89 e5                	mov    ebp,esp
10000dcd:	83 ec 10             	sub    esp,0x10
10000dd0:	6a 0f                	push   0xf
10000dd2:	6a 0f                	push   0xf
10000dd4:	e8 0b fe ff ff       	call   0x10000be4
10000dd9:	31 c0                	xor    eax,eax
10000ddb:	c9                   	leave  
10000ddc:	c3                   	ret    
10000ddd:	55                   	push   ebp
10000dde:	89 e5                	mov    ebp,esp
10000de0:	83 ec 10             	sub    esp,0x10
10000de3:	6a 0f                	push   0xf
10000de5:	6a 19                	push   0x19
10000de7:	e8 f8 fd ff ff       	call   0x10000be4
10000dec:	31 c0                	xor    eax,eax
10000dee:	c9                   	leave  
10000def:	c3                   	ret    
10000df0:	55                   	push   ebp
10000df1:	89 e5                	mov    ebp,esp
10000df3:	57                   	push   edi
10000df4:	56                   	push   esi
10000df5:	53                   	push   ebx
10000df6:	83 ec 18             	sub    esp,0x18
10000df9:	68 00 01 00 00       	push   0x100
10000dfe:	e8 9b 53 00 00       	call   0x1000619e
10000e03:	89 c3                	mov    ebx,eax
10000e05:	c7 04 24 ff ff ff ff 	mov    DWORD PTR [esp],0xffffffff
10000e0c:	68 c2 01 00 00       	push   0x1c2
10000e11:	68 ee 02 00 00       	push   0x2ee
10000e16:	68 68 65 01 10       	push   0x10016568
10000e1b:	50                   	push   eax
10000e1c:	e8 a5 56 00 00       	call   0x100064c6
10000e21:	89 1d 84 b4 01 10    	mov    DWORD PTR ds:0x1001b484,ebx
10000e27:	83 c4 20             	add    esp,0x20
10000e2a:	31 c0                	xor    eax,eax
10000e2c:	31 d2                	xor    edx,edx
10000e2e:	c7 84 90 e0 bb 01 10 00 00 00 00 	mov    DWORD PTR [eax+edx*4+0x1001bbe0],0x0
10000e39:	42                   	inc    edx
10000e3a:	83 fa 1e             	cmp    edx,0x1e
10000e3d:	75 ef                	jne    0x10000e2e
10000e3f:	83 c0 78             	add    eax,0x78
10000e42:	3d 10 0e 00 00       	cmp    eax,0xe10
10000e47:	75 e3                	jne    0x10000e2c
10000e49:	83 ec 0c             	sub    esp,0xc
10000e4c:	6a 5c                	push   0x5c
10000e4e:	e8 4b 53 00 00       	call   0x1000619e
10000e53:	89 c7                	mov    edi,eax
10000e55:	6a 02                	push   0x2
10000e57:	68 74 65 01 10       	push   0x10016574
10000e5c:	ff 35 84 b4 01 10    	push   DWORD PTR ds:0x1001b484
10000e62:	6a 1c                	push   0x1c
10000e64:	6a 50                	push   0x50
10000e66:	6a 1e                	push   0x1e
10000e68:	6a 1e                	push   0x1e
10000e6a:	50                   	push   eax
10000e6b:	e8 22 26 00 00       	call   0x10003492
10000e70:	83 c4 24             	add    esp,0x24
10000e73:	6a 5c                	push   0x5c
10000e75:	e8 24 53 00 00       	call   0x1000619e
10000e7a:	89 c6                	mov    esi,eax
10000e7c:	6a 02                	push   0x2
10000e7e:	68 79 65 01 10       	push   0x10016579
10000e83:	ff 35 84 b4 01 10    	push   DWORD PTR ds:0x1001b484
10000e89:	6a 1c                	push   0x1c
10000e8b:	6a 50                	push   0x50
10000e8d:	6a 1e                	push   0x1e
10000e8f:	68 82 00 00 00       	push   0x82
10000e94:	50                   	push   eax
10000e95:	e8 f8 25 00 00       	call   0x10003492
10000e9a:	83 c4 24             	add    esp,0x24
10000e9d:	6a 5c                	push   0x5c
10000e9f:	e8 fa 52 00 00       	call   0x1000619e
10000ea4:	89 c3                	mov    ebx,eax
10000ea6:	6a 02                	push   0x2
10000ea8:	68 80 65 01 10       	push   0x10016580
10000ead:	ff 35 84 b4 01 10    	push   DWORD PTR ds:0x1001b484
10000eb3:	6a 1c                	push   0x1c
10000eb5:	6a 50                	push   0x50
10000eb7:	6a 1e                	push   0x1e
10000eb9:	68 e6 00 00 00       	push   0xe6
10000ebe:	50                   	push   eax
10000ebf:	e8 ce 25 00 00       	call   0x10003492
10000ec4:	83 c4 28             	add    esp,0x28
10000ec7:	68 b7 0d 00 10       	push   0x10000db7
10000ecc:	57                   	push   edi
10000ecd:	e8 28 29 00 00       	call   0x100037fa
10000ed2:	58                   	pop    eax
10000ed3:	5a                   	pop    edx
10000ed4:	68 ca 0d 00 10       	push   0x10000dca
10000ed9:	56                   	push   esi
10000eda:	e8 1b 29 00 00       	call   0x100037fa
10000edf:	59                   	pop    ecx
10000ee0:	58                   	pop    eax
10000ee1:	68 dd 0d 00 10       	push   0x10000ddd
10000ee6:	53                   	push   ebx
10000ee7:	e8 0e 29 00 00       	call   0x100037fa
10000eec:	58                   	pop    eax
10000eed:	5a                   	pop    edx
10000eee:	57                   	push   edi
10000eef:	ff 35 84 b4 01 10    	push   DWORD PTR ds:0x1001b484
10000ef5:	e8 54 5d 00 00       	call   0x10006c4e
10000efa:	59                   	pop    ecx
10000efb:	5f                   	pop    edi
10000efc:	56                   	push   esi
10000efd:	ff 35 84 b4 01 10    	push   DWORD PTR ds:0x1001b484
10000f03:	e8 46 5d 00 00       	call   0x10006c4e
10000f08:	58                   	pop    eax
10000f09:	5a                   	pop    edx
10000f0a:	53                   	push   ebx
10000f0b:	ff 35 84 b4 01 10    	push   DWORD PTR ds:0x1001b484
10000f11:	e8 38 5d 00 00       	call   0x10006c4e
10000f16:	83 c4 10             	add    esp,0x10
10000f19:	8d 65 f4             	lea    esp,[ebp-0xc]
10000f1c:	5b                   	pop    ebx
10000f1d:	5e                   	pop    esi
10000f1e:	5f                   	pop    edi
10000f1f:	5d                   	pop    ebp
10000f20:	c3                   	ret    
10000f21:	55                   	push   ebp
10000f22:	89 e5                	mov    ebp,esp
10000f24:	57                   	push   edi
10000f25:	56                   	push   esi
10000f26:	53                   	push   ebx
10000f27:	8b 5d 08             	mov    ebx,DWORD PTR [ebp+0x8]
10000f2a:	89 d8                	mov    eax,ebx
10000f2c:	c1 e8 10             	shr    eax,0x10
10000f2f:	0f b6 c0             	movzx  eax,al
10000f32:	0f b6 cf             	movzx  ecx,bh
10000f35:	0f b6 db             	movzx  ebx,bl
10000f38:	83 c0 28             	add    eax,0x28
10000f3b:	8d 04 40             	lea    eax,[eax+eax*2]
10000f3e:	83 c1 14             	add    ecx,0x14
10000f41:	6b c9 07             	imul   ecx,ecx,0x7
10000f44:	83 c3 28             	add    ebx,0x28
10000f47:	8d 1c 5b             	lea    ebx,[ebx+ebx*2]
10000f4a:	be ff 00 00 00       	mov    esi,0xff
10000f4f:	99                   	cdq    
10000f50:	f7 fe                	idiv   esi
10000f52:	c1 e0 05             	shl    eax,0x5
10000f55:	89 c7                	mov    edi,eax
10000f57:	89 c8                	mov    eax,ecx
10000f59:	99                   	cdq    
10000f5a:	f7 fe                	idiv   esi
10000f5c:	89 c1                	mov    ecx,eax
10000f5e:	c1 e1 02             	shl    ecx,0x2
10000f61:	09 f9                	or     ecx,edi
10000f63:	89 d8                	mov    eax,ebx
10000f65:	99                   	cdq    
10000f66:	f7 fe                	idiv   esi
10000f68:	09 c8                	or     eax,ecx
10000f6a:	5b                   	pop    ebx
10000f6b:	5e                   	pop    esi
10000f6c:	5f                   	pop    edi
10000f6d:	5d                   	pop    ebp
10000f6e:	c3                   	ret    
10000f6f:	55                   	push   ebp
10000f70:	89 e5                	mov    ebp,esp
10000f72:	57                   	push   edi
10000f73:	56                   	push   esi
10000f74:	53                   	push   ebx
10000f75:	83 ec 5c             	sub    esp,0x5c
10000f78:	31 c0                	xor    eax,eax
10000f7a:	c7 04 85 80 b2 01 10 00 00 00 00 	mov    DWORD PTR [eax*4+0x1001b280],0x0
10000f85:	40                   	inc    eax
10000f86:	3d 80 00 00 00       	cmp    eax,0x80
10000f8b:	75 ed                	jne    0x10000f7a
10000f8d:	c7 05 80 b2 01 10 80 80 80 00 	mov    DWORD PTR ds:0x1001b280,0x808080
10000f97:	c7 05 84 b2 01 10 c0 c0 c0 00 	mov    DWORD PTR ds:0x1001b284,0xc0c0c0
10000fa1:	68 80 b2 01 10       	push   0x1001b280
10000fa6:	6a 01                	push   0x1
10000fa8:	6a 0b                	push   0xb
10000faa:	6a 2f                	push   0x2f
10000fac:	e8 83 be 00 00       	call   0x1000ce34
10000fb1:	89 c2                	mov    edx,eax
10000fb3:	c1 ea 10             	shr    edx,0x10
10000fb6:	89 15 64 b2 01 10    	mov    DWORD PTR ds:0x1001b264,edx
10000fbc:	0f b7 c0             	movzx  eax,ax
10000fbf:	a3 60 b2 01 10       	mov    ds:0x1001b260,eax
10000fc4:	0f af c2             	imul   eax,edx
10000fc7:	89 04 24             	mov    DWORD PTR [esp],eax
10000fca:	e8 95 87 00 00       	call   0x10009764
10000fcf:	a3 80 b4 01 10       	mov    ds:0x1001b480,eax
10000fd4:	c7 04 24 10 00 00 00 	mov    DWORD PTR [esp],0x10
10000fdb:	e8 be 51 00 00       	call   0x1000619e
10000fe0:	89 c3                	mov    ebx,eax
10000fe2:	58                   	pop    eax
10000fe3:	5a                   	pop    edx
10000fe4:	68 85 65 01 10       	push   0x10016585
10000fe9:	53                   	push   ebx
10000fea:	e8 75 2f 00 00       	call   0x10003f64
10000fef:	83 c4 10             	add    esp,0x10
10000ff2:	c7 45 c0 00 00 00 00 	mov    DWORD PTR [ebp-0x40],0x0
10000ff9:	c7 45 a0 00 00 00 00 	mov    DWORD PTR [ebp-0x60],0x0
10001000:	8b 45 c0             	mov    eax,DWORD PTR [ebp-0x40]
10001003:	39 05 60 b2 01 10    	cmp    DWORD PTR ds:0x1001b260,eax
10001009:	0f 8e ad 01 00 00    	jle    0x100011bc
1000100f:	c7 45 c4 00 00 00 00 	mov    DWORD PTR [ebp-0x3c],0x0
10001016:	8b 45 a0             	mov    eax,DWORD PTR [ebp-0x60]
10001019:	03 45 c4             	add    eax,DWORD PTR [ebp-0x3c]
1000101c:	89 45 9c             	mov    DWORD PTR [ebp-0x64],eax
1000101f:	8b 0d 64 b2 01 10    	mov    ecx,DWORD PTR ds:0x1001b264
10001025:	a1 60 b2 01 10       	mov    eax,ds:0x1001b260
1000102a:	89 45 bc             	mov    DWORD PTR [ebp-0x44],eax
1000102d:	3b 4d c4             	cmp    ecx,DWORD PTR [ebp-0x3c]
10001030:	0f 8e 78 01 00 00    	jle    0x100011ae
10001036:	8b 45 c4             	mov    eax,DWORD PTR [ebp-0x3c]
10001039:	0f af 03             	imul   eax,DWORD PTR [ebx]
1000103c:	99                   	cdq    
1000103d:	f7 f9                	idiv   ecx
1000103f:	89 55 b4             	mov    DWORD PTR [ebp-0x4c],edx
10001042:	89 c6                	mov    esi,eax
10001044:	8b 45 c0             	mov    eax,DWORD PTR [ebp-0x40]
10001047:	0f af 43 04          	imul   eax,DWORD PTR [ebx+0x4]
1000104b:	99                   	cdq    
1000104c:	f7 7d bc             	idiv   DWORD PTR [ebp-0x44]
1000104f:	89 55 98             	mov    DWORD PTR [ebp-0x68],edx
10001052:	8b 53 08             	mov    edx,DWORD PTR [ebx+0x8]
10001055:	0f af 03             	imul   eax,DWORD PTR [ebx]
10001058:	89 45 b8             	mov    DWORD PTR [ebp-0x48],eax
1000105b:	8d 3c 30             	lea    edi,[eax+esi*1]
1000105e:	8b 04 ba             	mov    eax,DWORD PTR [edx+edi*4]
10001061:	89 45 b0             	mov    DWORD PTR [ebp-0x50],eax
10001064:	8b 44 ba 04          	mov    eax,DWORD PTR [edx+edi*4+0x4]
10001068:	89 45 ac             	mov    DWORD PTR [ebp-0x54],eax
1000106b:	8b 45 b8             	mov    eax,DWORD PTR [ebp-0x48]
1000106e:	03 03                	add    eax,DWORD PTR [ebx]
10001070:	01 c6                	add    esi,eax
10001072:	8b 04 b2             	mov    eax,DWORD PTR [edx+esi*4]
10001075:	89 45 a8             	mov    DWORD PTR [ebp-0x58],eax
10001078:	8b 44 b2 04          	mov    eax,DWORD PTR [edx+esi*4+0x4]
1000107c:	89 45 a4             	mov    DWORD PTR [ebp-0x5c],eax
1000107f:	8b 45 b4             	mov    eax,DWORD PTR [ebp-0x4c]
10001082:	c1 e0 08             	shl    eax,0x8
10001085:	99                   	cdq    
10001086:	f7 f9                	idiv   ecx
10001088:	89 c6                	mov    esi,eax
1000108a:	89 c8                	mov    eax,ecx
1000108c:	2b 45 b4             	sub    eax,DWORD PTR [ebp-0x4c]
1000108f:	c1 e0 08             	shl    eax,0x8
10001092:	99                   	cdq    
10001093:	f7 f9                	idiv   ecx
10001095:	89 c7                	mov    edi,eax
10001097:	8b 45 98             	mov    eax,DWORD PTR [ebp-0x68]
1000109a:	c1 e0 08             	shl    eax,0x8
1000109d:	99                   	cdq    
1000109e:	f7 7d bc             	idiv   DWORD PTR [ebp-0x44]
100010a1:	89 c1                	mov    ecx,eax
100010a3:	8b 45 bc             	mov    eax,DWORD PTR [ebp-0x44]
100010a6:	2b 45 98             	sub    eax,DWORD PTR [ebp-0x68]
100010a9:	c1 e0 08             	shl    eax,0x8
100010ac:	99                   	cdq    
100010ad:	f7 7d bc             	idiv   DWORD PTR [ebp-0x44]
100010b0:	8d 14 07             	lea    edx,[edi+eax*1]
100010b3:	89 55 bc             	mov    DWORD PTR [ebp-0x44],edx
100010b6:	01 f0                	add    eax,esi
100010b8:	89 45 b8             	mov    DWORD PTR [ebp-0x48],eax
100010bb:	8d 04 0f             	lea    eax,[edi+ecx*1]
100010be:	89 45 b4             	mov    DWORD PTR [ebp-0x4c],eax
100010c1:	01 ce                	add    esi,ecx
100010c3:	8b 45 9c             	mov    eax,DWORD PTR [ebp-0x64]
100010c6:	03 05 80 b4 01 10    	add    eax,DWORD PTR ds:0x1001b480
100010cc:	89 45 9c             	mov    DWORD PTR [ebp-0x64],eax
100010cf:	57                   	push   edi
100010d0:	57                   	push   edi
100010d1:	8b 45 c0             	mov    eax,DWORD PTR [ebp-0x40]
100010d4:	03 45 c4             	add    eax,DWORD PTR [ebp-0x3c]
100010d7:	83 e0 01             	and    eax,0x1
100010da:	50                   	push   eax
100010db:	8b 4d b0             	mov    ecx,DWORD PTR [ebp-0x50]
100010de:	c1 e9 10             	shr    ecx,0x10
100010e1:	0f b6 f9             	movzx  edi,cl
100010e4:	0f af fa             	imul   edi,edx
100010e7:	89 f9                	mov    ecx,edi
100010e9:	8b 45 ac             	mov    eax,DWORD PTR [ebp-0x54]
100010ec:	c1 e8 10             	shr    eax,0x10
100010ef:	0f b6 f8             	movzx  edi,al
100010f2:	8b 45 b8             	mov    eax,DWORD PTR [ebp-0x48]
100010f5:	0f af c7             	imul   eax,edi
100010f8:	8d 3c 01             	lea    edi,[ecx+eax*1]
100010fb:	8b 45 a8             	mov    eax,DWORD PTR [ebp-0x58]
100010fe:	c1 e8 10             	shr    eax,0x10
10001101:	0f b6 c0             	movzx  eax,al
10001104:	0f af 45 b4          	imul   eax,DWORD PTR [ebp-0x4c]
10001108:	8d 14 07             	lea    edx,[edi+eax*1]
1000110b:	8b 45 a4             	mov    eax,DWORD PTR [ebp-0x5c]
1000110e:	c1 e8 10             	shr    eax,0x10
10001111:	0f b6 c0             	movzx  eax,al
10001114:	0f af c6             	imul   eax,esi
10001117:	01 d0                	add    eax,edx
10001119:	bf 00 04 00 00       	mov    edi,0x400
1000111e:	99                   	cdq    
1000111f:	f7 ff                	idiv   edi
10001121:	c1 e0 10             	shl    eax,0x10
10001124:	89 c1                	mov    ecx,eax
10001126:	8b 45 b0             	mov    eax,DWORD PTR [ebp-0x50]
10001129:	0f b6 d4             	movzx  edx,ah
1000112c:	0f af 55 bc          	imul   edx,DWORD PTR [ebp-0x44]
10001130:	8b 45 ac             	mov    eax,DWORD PTR [ebp-0x54]
10001133:	0f b6 fc             	movzx  edi,ah
10001136:	8b 45 b8             	mov    eax,DWORD PTR [ebp-0x48]
10001139:	0f af c7             	imul   eax,edi
1000113c:	8d 3c 02             	lea    edi,[edx+eax*1]
1000113f:	8b 45 a8             	mov    eax,DWORD PTR [ebp-0x58]
10001142:	0f b6 c4             	movzx  eax,ah
10001145:	0f af 45 b4          	imul   eax,DWORD PTR [ebp-0x4c]
10001149:	8d 14 07             	lea    edx,[edi+eax*1]
1000114c:	8b 45 a4             	mov    eax,DWORD PTR [ebp-0x5c]
1000114f:	0f b6 c4             	movzx  eax,ah
10001152:	0f af c6             	imul   eax,esi
10001155:	01 d0                	add    eax,edx
10001157:	bf 00 04 00 00       	mov    edi,0x400
1000115c:	99                   	cdq    
1000115d:	f7 ff                	idiv   edi
1000115f:	c1 e0 08             	shl    eax,0x8
10001162:	09 c1                	or     ecx,eax
10001164:	89 cf                	mov    edi,ecx
10001166:	0f b6 45 b0          	movzx  eax,BYTE PTR [ebp-0x50]
1000116a:	8b 4d bc             	mov    ecx,DWORD PTR [ebp-0x44]
1000116d:	0f af c8             	imul   ecx,eax
10001170:	0f b6 45 ac          	movzx  eax,BYTE PTR [ebp-0x54]
10001174:	0f af 45 b8          	imul   eax,DWORD PTR [ebp-0x48]
10001178:	01 c8                	add    eax,ecx
1000117a:	0f b6 55 a8          	movzx  edx,BYTE PTR [ebp-0x58]
1000117e:	0f af 55 b4          	imul   edx,DWORD PTR [ebp-0x4c]
10001182:	01 c2                	add    edx,eax
10001184:	0f b6 45 a4          	movzx  eax,BYTE PTR [ebp-0x5c]
10001188:	0f af f0             	imul   esi,eax
1000118b:	8d 04 32             	lea    eax,[edx+esi*1]
1000118e:	be 00 04 00 00       	mov    esi,0x400
10001193:	99                   	cdq    
10001194:	f7 fe                	idiv   esi
10001196:	09 f8                	or     eax,edi
10001198:	50                   	push   eax
10001199:	e8 83 fd ff ff       	call   0x10000f21
1000119e:	83 c4 10             	add    esp,0x10
100011a1:	8b 75 9c             	mov    esi,DWORD PTR [ebp-0x64]
100011a4:	88 06                	mov    BYTE PTR [esi],al
100011a6:	ff 45 c4             	inc    DWORD PTR [ebp-0x3c]
100011a9:	e9 68 fe ff ff       	jmp    0x10001016
100011ae:	ff 45 c0             	inc    DWORD PTR [ebp-0x40]
100011b1:	8b 45 9c             	mov    eax,DWORD PTR [ebp-0x64]
100011b4:	89 45 a0             	mov    DWORD PTR [ebp-0x60],eax
100011b7:	e9 44 fe ff ff       	jmp    0x10001000
100011bc:	83 ec 0c             	sub    esp,0xc
100011bf:	53                   	push   ebx
100011c0:	e8 79 2d 00 00       	call   0x10003f3e
100011c5:	5f                   	pop    edi
100011c6:	58                   	pop    eax
100011c7:	6a 10                	push   0x10
100011c9:	53                   	push   ebx
100011ca:	e8 29 50 00 00       	call   0x100061f8
100011cf:	c7 04 24 10 00 00 00 	mov    DWORD PTR [esp],0x10
100011d6:	e8 c3 4f 00 00       	call   0x1000619e
100011db:	89 45 c0             	mov    DWORD PTR [ebp-0x40],eax
100011de:	5a                   	pop    edx
100011df:	59                   	pop    ecx
100011e0:	68 a0 65 01 10       	push   0x100165a0
100011e5:	50                   	push   eax
100011e6:	e8 79 2d 00 00       	call   0x10003f64
100011eb:	c7 04 24 10 00 00 00 	mov    DWORD PTR [esp],0x10
100011f2:	e8 a7 4f 00 00       	call   0x1000619e
100011f7:	89 45 bc             	mov    DWORD PTR [ebp-0x44],eax
100011fa:	5b                   	pop    ebx
100011fb:	5e                   	pop    esi
100011fc:	68 c2 65 01 10       	push   0x100165c2
10001201:	50                   	push   eax
10001202:	e8 5d 2d 00 00       	call   0x10003f64
10001207:	c7 04 24 10 00 00 00 	mov    DWORD PTR [esp],0x10
1000120e:	e8 8b 4f 00 00       	call   0x1000619e
10001213:	89 45 b8             	mov    DWORD PTR [ebp-0x48],eax
10001216:	5f                   	pop    edi
10001217:	5a                   	pop    edx
10001218:	68 e2 65 01 10       	push   0x100165e2
1000121d:	50                   	push   eax
1000121e:	e8 41 2d 00 00       	call   0x10003f64
10001223:	c7 04 24 10 00 00 00 	mov    DWORD PTR [esp],0x10
1000122a:	e8 6f 4f 00 00       	call   0x1000619e
1000122f:	89 45 c4             	mov    DWORD PTR [ebp-0x3c],eax
10001232:	59                   	pop    ecx
10001233:	5b                   	pop    ebx
10001234:	68 02 66 01 10       	push   0x10016602
10001239:	50                   	push   eax
1000123a:	e8 25 2d 00 00       	call   0x10003f64
1000123f:	8b 1d 60 b2 01 10    	mov    ebx,DWORD PTR ds:0x1001b260
10001245:	8b 35 04 80 01 10    	mov    esi,DWORD PTR ds:0x10018004
1000124b:	c7 04 24 21 66 01 10 	mov    DWORD PTR [esp],0x10016621
10001252:	e8 4b c3 00 00       	call   0x1000d5a2
10001257:	89 45 b4             	mov    DWORD PTR [ebp-0x4c],eax
1000125a:	83 c4 10             	add    esp,0x10
1000125d:	85 c0                	test   eax,eax
1000125f:	0f 84 47 01 00 00    	je     0x100013ac
10001265:	29 f3                	sub    ebx,esi
10001267:	8d 43 f0             	lea    eax,[ebx-0x10]
1000126a:	b9 40 00 00 00       	mov    ecx,0x40
1000126f:	99                   	cdq    
10001270:	f7 f9                	idiv   ecx
10001272:	89 45 a8             	mov    DWORD PTR [ebp-0x58],eax
10001275:	c7 45 b0 00 00 00 00 	mov    DWORD PTR [ebp-0x50],0x0
1000127c:	83 ec 0c             	sub    esp,0xc
1000127f:	ff 75 b4             	push   DWORD PTR [ebp-0x4c]
10001282:	e8 68 c3 00 00       	call   0x1000d5ef
10001287:	89 c6                	mov    esi,eax
10001289:	83 c4 10             	add    esp,0x10
1000128c:	85 c0                	test   eax,eax
1000128e:	0f 84 0a 01 00 00    	je     0x1000139e
10001294:	31 c0                	xor    eax,eax
10001296:	83 ca ff             	or     edx,0xffffffff
10001299:	8a 4c 06 10          	mov    cl,BYTE PTR [esi+eax*1+0x10]
1000129d:	84 c9                	test   cl,cl
1000129f:	74 0a                	je     0x100012ab
100012a1:	80 f9 2e             	cmp    cl,0x2e
100012a4:	75 02                	jne    0x100012a8
100012a6:	89 c2                	mov    edx,eax
100012a8:	40                   	inc    eax
100012a9:	eb ee                	jmp    0x10001299
100012ab:	8d 5d c8             	lea    ebx,[ebp-0x38]
100012ae:	b9 08 00 00 00       	mov    ecx,0x8
100012b3:	31 c0                	xor    eax,eax
100012b5:	89 df                	mov    edi,ebx
100012b7:	f3 ab                	rep stos DWORD PTR es:[edi],eax
100012b9:	83 fa ff             	cmp    edx,0xffffffff
100012bc:	74 16                	je     0x100012d4
100012be:	01 f2                	add    edx,esi
100012c0:	8a 4c 02 11          	mov    cl,BYTE PTR [edx+eax*1+0x11]
100012c4:	83 f8 1f             	cmp    eax,0x1f
100012c7:	74 0b                	je     0x100012d4
100012c9:	84 c9                	test   cl,cl
100012cb:	74 07                	je     0x100012d4
100012cd:	40                   	inc    eax
100012ce:	88 4c 05 c7          	mov    BYTE PTR [ebp+eax*1-0x39],cl
100012d2:	eb ec                	jmp    0x100012c0
100012d4:	8b 45 b0             	mov    eax,DWORD PTR [ebp-0x50]
100012d7:	99                   	cdq    
100012d8:	f7 7d a8             	idiv   DWORD PTR [ebp-0x58]
100012db:	c1 e0 06             	shl    eax,0x6
100012de:	83 c0 19             	add    eax,0x19
100012e1:	89 45 ac             	mov    DWORD PTR [ebp-0x54],eax
100012e4:	c1 e2 06             	shl    edx,0x6
100012e7:	8d 7a 0a             	lea    edi,[edx+0xa]
100012ea:	8b 5d c0             	mov    ebx,DWORD PTR [ebp-0x40]
100012ed:	f6 46 0c 02          	test   BYTE PTR [esi+0xc],0x2
100012f1:	75 48                	jne    0x1000133b
100012f3:	56                   	push   esi
100012f4:	56                   	push   esi
100012f5:	8d 75 c8             	lea    esi,[ebp-0x38]
100012f8:	56                   	push   esi
100012f9:	68 32 66 01 10       	push   0x10016632
100012fe:	e8 55 98 00 00       	call   0x1000ab58
10001303:	83 c4 10             	add    esp,0x10
10001306:	8b 5d bc             	mov    ebx,DWORD PTR [ebp-0x44]
10001309:	85 c0                	test   eax,eax
1000130b:	74 2e                	je     0x1000133b
1000130d:	53                   	push   ebx
1000130e:	53                   	push   ebx
1000130f:	56                   	push   esi
10001310:	68 36 66 01 10       	push   0x10016636
10001315:	e8 3e 98 00 00       	call   0x1000ab58
1000131a:	83 c4 10             	add    esp,0x10
1000131d:	8b 5d c4             	mov    ebx,DWORD PTR [ebp-0x3c]
10001320:	85 c0                	test   eax,eax
10001322:	74 17                	je     0x1000133b
10001324:	51                   	push   ecx
10001325:	51                   	push   ecx
10001326:	56                   	push   esi
10001327:	68 3a 66 01 10       	push   0x1001663a
1000132c:	e8 27 98 00 00       	call   0x1000ab58
10001331:	83 c4 10             	add    esp,0x10
10001334:	85 c0                	test   eax,eax
10001336:	74 03                	je     0x1000133b
10001338:	8b 5d b8             	mov    ebx,DWORD PTR [ebp-0x48]
1000133b:	89 fa                	mov    edx,edi
1000133d:	31 c9                	xor    ecx,ecx
1000133f:	39 4b 04             	cmp    DWORD PTR [ebx+0x4],ecx
10001342:	7e 52                	jle    0x10001396
10001344:	31 ff                	xor    edi,edi
10001346:	8b 03                	mov    eax,DWORD PTR [ebx]
10001348:	39 f8                	cmp    eax,edi
1000134a:	7e 46                	jle    0x10001392
1000134c:	0f af c1             	imul   eax,ecx
1000134f:	01 f8                	add    eax,edi
10001351:	8b 73 08             	mov    esi,DWORD PTR [ebx+0x8]
10001354:	8b 04 86             	mov    eax,DWORD PTR [esi+eax*4]
10001357:	85 c0                	test   eax,eax
10001359:	74 34                	je     0x1000138f
1000135b:	89 4d a0             	mov    DWORD PTR [ebp-0x60],ecx
1000135e:	89 d6                	mov    esi,edx
10001360:	89 55 a4             	mov    DWORD PTR [ebp-0x5c],edx
10001363:	0f af 35 64 b2 01 10 	imul   esi,DWORD PTR ds:0x1001b264
1000136a:	03 75 ac             	add    esi,DWORD PTR [ebp-0x54]
1000136d:	01 fe                	add    esi,edi
1000136f:	03 35 80 b4 01 10    	add    esi,DWORD PTR ds:0x1001b480
10001375:	52                   	push   edx
10001376:	52                   	push   edx
10001377:	6a 00                	push   0x0
10001379:	25 ff ff ff 00       	and    eax,0xffffff
1000137e:	50                   	push   eax
1000137f:	e8 9d fb ff ff       	call   0x10000f21
10001384:	83 c4 10             	add    esp,0x10
10001387:	88 06                	mov    BYTE PTR [esi],al
10001389:	8b 4d a0             	mov    ecx,DWORD PTR [ebp-0x60]
1000138c:	8b 55 a4             	mov    edx,DWORD PTR [ebp-0x5c]
1000138f:	47                   	inc    edi
10001390:	eb b4                	jmp    0x10001346
10001392:	41                   	inc    ecx
10001393:	42                   	inc    edx
10001394:	eb a9                	jmp    0x1000133f
10001396:	ff 45 b0             	inc    DWORD PTR [ebp-0x50]
10001399:	e9 de fe ff ff       	jmp    0x1000127c
1000139e:	83 ec 0c             	sub    esp,0xc
100013a1:	ff 75 b4             	push   DWORD PTR [ebp-0x4c]
100013a4:	e8 a1 c2 00 00       	call   0x1000d64a
100013a9:	83 c4 10             	add    esp,0x10
100013ac:	a1 60 b2 01 10       	mov    eax,ds:0x1001b260
100013b1:	2b 05 04 80 01 10    	sub    eax,DWORD PTR ds:0x10018004
100013b7:	39 05 60 b2 01 10    	cmp    DWORD PTR ds:0x1001b260,eax
100013bd:	7e 3f                	jle    0x100013fe
100013bf:	31 db                	xor    ebx,ebx
100013c1:	8b 35 64 b2 01 10    	mov    esi,DWORD PTR ds:0x1001b264
100013c7:	8b 0d 60 b2 01 10    	mov    ecx,DWORD PTR ds:0x1001b260
100013cd:	39 de                	cmp    esi,ebx
100013cf:	7e 2a                	jle    0x100013fb
100013d1:	2b 0d 04 80 01 10    	sub    ecx,DWORD PTR ds:0x10018004
100013d7:	b2 80                	mov    dl,0x80
100013d9:	39 c1                	cmp    ecx,eax
100013db:	74 0d                	je     0x100013ea
100013dd:	41                   	inc    ecx
100013de:	39 c1                	cmp    ecx,eax
100013e0:	0f 94 c2             	sete   dl
100013e3:	4a                   	dec    edx
100013e4:	83 e2 02             	and    edx,0x2
100013e7:	83 c2 7f             	add    edx,0x7f
100013ea:	0f af f0             	imul   esi,eax
100013ed:	8b 0d 80 b4 01 10    	mov    ecx,DWORD PTR ds:0x1001b480
100013f3:	01 d9                	add    ecx,ebx
100013f5:	88 14 31             	mov    BYTE PTR [ecx+esi*1],dl
100013f8:	43                   	inc    ebx
100013f9:	eb c6                	jmp    0x100013c1
100013fb:	40                   	inc    eax
100013fc:	eb b9                	jmp    0x100013b7
100013fe:	83 ec 0c             	sub    esp,0xc
10001401:	ff 75 c4             	push   DWORD PTR [ebp-0x3c]
10001404:	e8 35 2b 00 00       	call   0x10003f3e
10001409:	58                   	pop    eax
1000140a:	5a                   	pop    edx
1000140b:	6a 10                	push   0x10
1000140d:	ff 75 c4             	push   DWORD PTR [ebp-0x3c]
10001410:	e8 e3 4d 00 00       	call   0x100061f8
10001415:	59                   	pop    ecx
10001416:	ff 75 c0             	push   DWORD PTR [ebp-0x40]
10001419:	e8 20 2b 00 00       	call   0x10003f3e
1000141e:	5b                   	pop    ebx
1000141f:	5e                   	pop    esi
10001420:	6a 10                	push   0x10
10001422:	ff 75 c0             	push   DWORD PTR [ebp-0x40]
10001425:	e8 ce 4d 00 00       	call   0x100061f8
1000142a:	5f                   	pop    edi
1000142b:	ff 75 bc             	push   DWORD PTR [ebp-0x44]
1000142e:	e8 0b 2b 00 00       	call   0x10003f3e
10001433:	58                   	pop    eax
10001434:	5a                   	pop    edx
10001435:	6a 10                	push   0x10
10001437:	ff 75 bc             	push   DWORD PTR [ebp-0x44]
1000143a:	e8 b9 4d 00 00       	call   0x100061f8
1000143f:	59                   	pop    ecx
10001440:	ff 75 b8             	push   DWORD PTR [ebp-0x48]
10001443:	e8 f6 2a 00 00       	call   0x10003f3e
10001448:	5b                   	pop    ebx
10001449:	5e                   	pop    esi
1000144a:	6a 10                	push   0x10
1000144c:	ff 75 b8             	push   DWORD PTR [ebp-0x48]
1000144f:	e8 a4 4d 00 00       	call   0x100061f8
10001454:	ff 35 80 b4 01 10    	push   DWORD PTR ds:0x1001b480
1000145a:	6a 00                	push   0x0
1000145c:	6a 0b                	push   0xb
1000145e:	6a 2f                	push   0x2f
10001460:	e8 cf b9 00 00       	call   0x1000ce34
10001465:	83 c4 20             	add    esp,0x20
10001468:	8d 65 f4             	lea    esp,[ebp-0xc]
1000146b:	5b                   	pop    ebx
1000146c:	5e                   	pop    esi
1000146d:	5f                   	pop    edi
1000146e:	5d                   	pop    ebp
1000146f:	c3                   	ret    
10001470:	55                   	push   ebp
10001471:	89 e5                	mov    ebp,esp
10001473:	83 ec 10             	sub    esp,0x10
10001476:	c7 45 fc 00 00 00 00 	mov    DWORD PTR [ebp-0x4],0x0
1000147d:	eb 61                	jmp    0x100014e0
1000147f:	8b 45 fc             	mov    eax,DWORD PTR [ebp-0x4]
10001482:	c1 e0 04             	shl    eax,0x4
10001485:	05 00 a0 01 10       	add    eax,0x1001a000
1000148a:	c7 00 00 00 00 ff    	mov    DWORD PTR [eax],0xff000000
10001490:	8b 45 fc             	mov    eax,DWORD PTR [ebp-0x4]
10001493:	c1 e0 04             	shl    eax,0x4
10001496:	05 04 a0 01 10       	add    eax,0x1001a004
1000149b:	c7 00 ff ff ff ff    	mov    DWORD PTR [eax],0xffffffff
100014a1:	8b 45 fc             	mov    eax,DWORD PTR [ebp-0x4]
100014a4:	c1 e0 04             	shl    eax,0x4
100014a7:	05 00 a0 01 10       	add    eax,0x1001a000
100014ac:	8a 50 0f             	mov    dl,BYTE PTR [eax+0xf]
100014af:	83 e2 f0             	and    edx,0xfffffff0
100014b2:	83 ca 01             	or     edx,0x1
100014b5:	88 50 0f             	mov    BYTE PTR [eax+0xf],dl
100014b8:	8b 45 fc             	mov    eax,DWORD PTR [ebp-0x4]
100014bb:	c1 e0 04             	shl    eax,0x4
100014be:	05 00 a0 01 10       	add    eax,0x1001a000
100014c3:	8a 50 0f             	mov    dl,BYTE PTR [eax+0xf]
100014c6:	83 e2 0f             	and    edx,0xf
100014c9:	83 ca 10             	or     edx,0x10
100014cc:	88 50 0f             	mov    BYTE PTR [eax+0xf],dl
100014cf:	8b 45 fc             	mov    eax,DWORD PTR [ebp-0x4]
100014d2:	c1 e0 04             	shl    eax,0x4
100014d5:	05 08 a0 01 10       	add    eax,0x1001a008
100014da:	c6 00 ff             	mov    BYTE PTR [eax],0xff
100014dd:	ff 45 fc             	inc    DWORD PTR [ebp-0x4]
100014e0:	83 7d fc 0f          	cmp    DWORD PTR [ebp-0x4],0xf
100014e4:	7e 99                	jle    0x1000147f
100014e6:	c7 05 10 a0 01 10 55 55 55 00 	mov    DWORD PTR ds:0x1001a010,0x555555
100014f0:	c7 05 20 a0 01 10 80 80 80 00 	mov    DWORD PTR ds:0x1001a020,0x808080
100014fa:	c7 05 30 a0 01 10 aa aa aa 00 	mov    DWORD PTR ds:0x1001a030,0xaaaaaa
10001504:	c7 05 40 a0 01 10 ff ff ff 00 	mov    DWORD PTR ds:0x1001a040,0xffffff
1000150e:	c6 05 68 a0 01 10 01 	mov    BYTE PTR ds:0x1001a068,0x1
10001515:	c6 05 69 a0 01 10 08 	mov    BYTE PTR ds:0x1001a069,0x8
1000151c:	c6 05 6a a0 01 10 04 	mov    BYTE PTR ds:0x1001a06a,0x4
10001523:	c6 05 6b a0 01 10 02 	mov    BYTE PTR ds:0x1001a06b,0x2
1000152a:	a0 6f a0 01 10       	mov    al,ds:0x1001a06f
1000152f:	83 e0 f0             	and    eax,0xfffffff0
10001532:	83 c8 04             	or     eax,0x4
10001535:	a2 6f a0 01 10       	mov    ds:0x1001a06f,al
1000153a:	a0 6f a0 01 10       	mov    al,ds:0x1001a06f
1000153f:	83 e0 0f             	and    eax,0xf
10001542:	83 c8 40             	or     eax,0x40
10001545:	a2 6f a0 01 10       	mov    ds:0x1001a06f,al
1000154a:	c6 05 78 a0 01 10 01 	mov    BYTE PTR ds:0x1001a078,0x1
10001551:	c6 05 79 a0 01 10 02 	mov    BYTE PTR ds:0x1001a079,0x2
10001558:	c6 05 7a a0 01 10 04 	mov    BYTE PTR ds:0x1001a07a,0x4
1000155f:	c6 05 7b a0 01 10 08 	mov    BYTE PTR ds:0x1001a07b,0x8
10001566:	a0 7f a0 01 10       	mov    al,ds:0x1001a07f
1000156b:	83 e0 f0             	and    eax,0xfffffff0
1000156e:	83 c8 04             	or     eax,0x4
10001571:	a2 7f a0 01 10       	mov    ds:0x1001a07f,al
10001576:	a0 7f a0 01 10       	mov    al,ds:0x1001a07f
1000157b:	83 e0 0f             	and    eax,0xf
1000157e:	83 c8 40             	or     eax,0x40
10001581:	a2 7f a0 01 10       	mov    ds:0x1001a07f,al
10001586:	c6 05 88 a0 01 10 01 	mov    BYTE PTR ds:0x1001a088,0x1
1000158d:	c6 05 89 a0 01 10 01 	mov    BYTE PTR ds:0x1001a089,0x1
10001594:	c6 05 8a a0 01 10 01 	mov    BYTE PTR ds:0x1001a08a,0x1
1000159b:	c6 05 8b a0 01 10 0f 	mov    BYTE PTR ds:0x1001a08b,0xf
100015a2:	a0 8f a0 01 10       	mov    al,ds:0x1001a08f
100015a7:	83 e0 f0             	and    eax,0xfffffff0
100015aa:	83 c8 04             	or     eax,0x4
100015ad:	a2 8f a0 01 10       	mov    ds:0x1001a08f,al
100015b2:	a0 8f a0 01 10       	mov    al,ds:0x1001a08f
100015b7:	83 e0 0f             	and    eax,0xf
100015ba:	83 c8 40             	or     eax,0x40
100015bd:	a2 8f a0 01 10       	mov    ds:0x1001a08f,al
100015c2:	c6 05 98 a0 01 10 08 	mov    BYTE PTR ds:0x1001a098,0x8
100015c9:	c6 05 99 a0 01 10 14 	mov    BYTE PTR ds:0x1001a099,0x14
100015d0:	c6 05 9a a0 01 10 22 	mov    BYTE PTR ds:0x1001a09a,0x22
100015d7:	c6 05 9b a0 01 10 01 	mov    BYTE PTR ds:0x1001a09b,0x1
100015de:	c6 05 9c a0 01 10 22 	mov    BYTE PTR ds:0x1001a09c,0x22
100015e5:	c6 05 9d a0 01 10 14 	mov    BYTE PTR ds:0x1001a09d,0x14
100015ec:	a0 9f a0 01 10       	mov    al,ds:0x1001a09f
100015f1:	83 e0 f0             	and    eax,0xfffffff0
100015f4:	83 c8 06             	or     eax,0x6
100015f7:	a2 9f a0 01 10       	mov    ds:0x1001a09f,al
100015fc:	a0 9f a0 01 10       	mov    al,ds:0x1001a09f
10001601:	83 e0 0f             	and    eax,0xf
10001604:	83 c8 60             	or     eax,0x60
10001607:	a2 9f a0 01 10       	mov    ds:0x1001a09f,al
1000160c:	c6 05 a8 a0 01 10 00 	mov    BYTE PTR ds:0x1001a0a8,0x0
10001613:	c6 05 a9 a0 01 10 00 	mov    BYTE PTR ds:0x1001a0a9,0x0
1000161a:	c6 05 aa a0 01 10 00 	mov    BYTE PTR ds:0x1001a0aa,0x0
10001621:	c6 05 ab a0 01 10 01 	mov    BYTE PTR ds:0x1001a0ab,0x1
10001628:	a0 af a0 01 10       	mov    al,ds:0x1001a0af
1000162d:	83 e0 0f             	and    eax,0xf
10001630:	83 c8 40             	or     eax,0x40
10001633:	a2 af a0 01 10       	mov    ds:0x1001a0af,al
10001638:	c6 05 b8 a0 01 10 02 	mov    BYTE PTR ds:0x1001a0b8,0x2
1000163f:	a0 bf a0 01 10       	mov    al,ds:0x1001a0bf
10001644:	83 e0 f0             	and    eax,0xfffffff0
10001647:	83 c8 04             	or     eax,0x4
1000164a:	a2 bf a0 01 10       	mov    ds:0x1001a0bf,al
1000164f:	c6 05 c8 a0 01 10 02 	mov    BYTE PTR ds:0x1001a0c8,0x2
10001656:	c6 05 c9 a0 01 10 01 	mov    BYTE PTR ds:0x1001a0c9,0x1
1000165d:	a0 cf a0 01 10       	mov    al,ds:0x1001a0cf
10001662:	83 e0 f0             	and    eax,0xfffffff0
10001665:	83 c8 02             	or     eax,0x2
10001668:	a2 cf a0 01 10       	mov    ds:0x1001a0cf,al
1000166d:	a0 cf a0 01 10       	mov    al,ds:0x1001a0cf
10001672:	83 e0 0f             	and    eax,0xf
10001675:	83 c8 20             	or     eax,0x20
10001678:	a2 cf a0 01 10       	mov    ds:0x1001a0cf,al
1000167d:	c6 05 d8 a0 01 10 02 	mov    BYTE PTR ds:0x1001a0d8,0x2
10001684:	c6 05 d9 a0 01 10 00 	mov    BYTE PTR ds:0x1001a0d9,0x0
1000168b:	a0 df a0 01 10       	mov    al,ds:0x1001a0df
10001690:	83 e0 f0             	and    eax,0xfffffff0
10001693:	83 c8 02             	or     eax,0x2
10001696:	a2 df a0 01 10       	mov    ds:0x1001a0df,al
1000169b:	a0 df a0 01 10       	mov    al,ds:0x1001a0df
100016a0:	83 e0 0f             	and    eax,0xf
100016a3:	83 c8 20             	or     eax,0x20
100016a6:	a2 df a0 01 10       	mov    ds:0x1001a0df,al
100016ab:	c6 05 e8 a0 01 10 03 	mov    BYTE PTR ds:0x1001a0e8,0x3
100016b2:	c6 05 e9 a0 01 10 02 	mov    BYTE PTR ds:0x1001a0e9,0x2
100016b9:	a0 ef a0 01 10       	mov    al,ds:0x1001a0ef
100016be:	83 e0 f0             	and    eax,0xfffffff0
100016c1:	83 c8 02             	or     eax,0x2
100016c4:	a2 ef a0 01 10       	mov    ds:0x1001a0ef,al
100016c9:	a0 ef a0 01 10       	mov    al,ds:0x1001a0ef
100016ce:	83 e0 0f             	and    eax,0xf
100016d1:	83 c8 20             	or     eax,0x20
100016d4:	a2 ef a0 01 10       	mov    ds:0x1001a0ef,al
100016d9:	c6 05 f8 a0 01 10 0c 	mov    BYTE PTR ds:0x1001a0f8,0xc
100016e0:	c6 05 f9 a0 01 10 0c 	mov    BYTE PTR ds:0x1001a0f9,0xc
100016e7:	c6 05 fa a0 01 10 03 	mov    BYTE PTR ds:0x1001a0fa,0x3
100016ee:	c6 05 fb a0 01 10 03 	mov    BYTE PTR ds:0x1001a0fb,0x3
100016f5:	a0 ff a0 01 10       	mov    al,ds:0x1001a0ff
100016fa:	83 e0 f0             	and    eax,0xfffffff0
100016fd:	83 c8 04             	or     eax,0x4
10001700:	a2 ff a0 01 10       	mov    ds:0x1001a0ff,al
10001705:	a0 ff a0 01 10       	mov    al,ds:0x1001a0ff
1000170a:	83 e0 0f             	and    eax,0xf
1000170d:	83 c8 40             	or     eax,0x40
10001710:	a2 ff a0 01 10       	mov    ds:0x1001a0ff,al
10001715:	90                   	nop
10001716:	c9                   	leave  
10001717:	c3                   	ret    
10001718:	55                   	push   ebp
10001719:	89 e5                	mov    ebp,esp
1000171b:	57                   	push   edi
1000171c:	56                   	push   esi
1000171d:	53                   	push   ebx
1000171e:	83 ec 10             	sub    esp,0x10
10001721:	a1 00 ca 01 10       	mov    eax,ds:0x1001ca00
10001726:	8d 50 01             	lea    edx,[eax+0x1]
10001729:	89 15 00 ca 01 10    	mov    DWORD PTR ds:0x1001ca00,edx
1000172f:	89 45 f0             	mov    DWORD PTR [ebp-0x10],eax
10001732:	8b 45 f0             	mov    eax,DWORD PTR [ebp-0x10]
10001735:	c1 e0 04             	shl    eax,0x4
10001738:	05 00 a0 01 10       	add    eax,0x1001a000
1000173d:	89 c2                	mov    edx,eax
1000173f:	8d 5d 08             	lea    ebx,[ebp+0x8]
10001742:	b8 04 00 00 00       	mov    eax,0x4
10001747:	89 d7                	mov    edi,edx
10001749:	89 de                	mov    esi,ebx
1000174b:	89 c1                	mov    ecx,eax
1000174d:	f3 a5                	rep movs DWORD PTR es:[edi],DWORD PTR ds:[esi]
1000174f:	8b 45 f0             	mov    eax,DWORD PTR [ebp-0x10]
10001752:	0d 00 00 00 e0       	or     eax,0xe0000000
10001757:	83 c4 10             	add    esp,0x10
1000175a:	5b                   	pop    ebx
1000175b:	5e                   	pop    esi
1000175c:	5f                   	pop    edi
1000175d:	5d                   	pop    ebp
1000175e:	c3                   	ret    
1000175f:	55                   	push   ebp
10001760:	89 e5                	mov    ebp,esp
10001762:	57                   	push   edi
10001763:	56                   	push   esi
10001764:	53                   	push   ebx
10001765:	83 ec 10             	sub    esp,0x10
10001768:	a1 00 ca 01 10       	mov    eax,ds:0x1001ca00
1000176d:	8d 50 01             	lea    edx,[eax+0x1]
10001770:	89 15 00 ca 01 10    	mov    DWORD PTR ds:0x1001ca00,edx
10001776:	89 45 f0             	mov    DWORD PTR [ebp-0x10],eax
10001779:	8b 45 08             	mov    eax,DWORD PTR [ebp+0x8]
1000177c:	0f b6 c0             	movzx  eax,al
1000177f:	8b 55 f0             	mov    edx,DWORD PTR [ebp-0x10]
10001782:	c1 e2 04             	shl    edx,0x4
10001785:	81 c2 00 a0 01 10    	add    edx,0x1001a000
1000178b:	c1 e0 04             	shl    eax,0x4
1000178e:	05 00 a0 01 10       	add    eax,0x1001a000
10001793:	89 c3                	mov    ebx,eax
10001795:	b8 04 00 00 00       	mov    eax,0x4
1000179a:	89 d7                	mov    edi,edx
1000179c:	89 de                	mov    esi,ebx
1000179e:	89 c1                	mov    ecx,eax
100017a0:	f3 a5                	rep movs DWORD PTR es:[edi],DWORD PTR ds:[esi]
100017a2:	8b 45 f0             	mov    eax,DWORD PTR [ebp-0x10]
100017a5:	0d 00 00 00 e0       	or     eax,0xe0000000
100017aa:	83 c4 10             	add    esp,0x10
100017ad:	5b                   	pop    ebx
100017ae:	5e                   	pop    esi
100017af:	5f                   	pop    edi
100017b0:	5d                   	pop    ebp
100017b1:	c3                   	ret    
100017b2:	55                   	push   ebp
100017b3:	89 e5                	mov    ebp,esp
100017b5:	81 7d 08 0f 00 00 e0 	cmp    DWORD PTR [ebp+0x8],0xe000000f
100017bc:	5d                   	pop    ebp
100017bd:	c3                   	ret    
100017be:	55                   	push   ebp
100017bf:	89 e5                	mov    ebp,esp
100017c1:	57                   	push   edi
100017c2:	56                   	push   esi
100017c3:	53                   	push   ebx
100017c4:	83 ec 20             	sub    esp,0x20
100017c7:	8b 45 08             	mov    eax,DWORD PTR [ebp+0x8]
100017ca:	0f b6 c0             	movzx  eax,al
100017cd:	c1 e0 04             	shl    eax,0x4
100017d0:	8d 90 00 a0 01 10    	lea    edx,[eax+0x1001a000]
100017d6:	8d 45 dc             	lea    eax,[ebp-0x24]
100017d9:	89 d3                	mov    ebx,edx
100017db:	ba 04 00 00 00       	mov    edx,0x4
100017e0:	89 c7                	mov    edi,eax
100017e2:	89 de                	mov    esi,ebx
100017e4:	89 d1                	mov    ecx,edx
100017e6:	f3 a5                	rep movs DWORD PTR es:[edi],DWORD PTR ds:[esi]
100017e8:	8a 45 eb             	mov    al,BYTE PTR [ebp-0x15]
100017eb:	83 e0 0f             	and    eax,0xf
100017ee:	0f b6 c8             	movzx  ecx,al
100017f1:	8b 45 0c             	mov    eax,DWORD PTR [ebp+0xc]
100017f4:	99                   	cdq    
100017f5:	f7 f9                	idiv   ecx
100017f7:	89 55 f0             	mov    DWORD PTR [ebp-0x10],edx
100017fa:	8a 45 eb             	mov    al,BYTE PTR [ebp-0x15]
100017fd:	c0 e8 04             	shr    al,0x4
10001800:	0f b6 c8             	movzx  ecx,al
10001803:	8b 45 10             	mov    eax,DWORD PTR [ebp+0x10]
10001806:	99                   	cdq    
10001807:	f7 f9                	idiv   ecx
10001809:	89 55 ec             	mov    DWORD PTR [ebp-0x14],edx
1000180c:	8d 55 e4             	lea    edx,[ebp-0x1c]
1000180f:	8b 45 ec             	mov    eax,DWORD PTR [ebp-0x14]
10001812:	01 d0                	add    eax,edx
10001814:	8a 00                	mov    al,BYTE PTR [eax]
10001816:	0f b6 d0             	movzx  edx,al
10001819:	8b 45 f0             	mov    eax,DWORD PTR [ebp-0x10]
1000181c:	88 c1                	mov    cl,al
1000181e:	d3 fa                	sar    edx,cl
10001820:	89 d0                	mov    eax,edx
10001822:	83 e0 01             	and    eax,0x1
10001825:	85 c0                	test   eax,eax
10001827:	74 05                	je     0x1000182e
10001829:	8b 45 dc             	mov    eax,DWORD PTR [ebp-0x24]
1000182c:	eb 03                	jmp    0x10001831
1000182e:	8b 45 e0             	mov    eax,DWORD PTR [ebp-0x20]
10001831:	83 c4 20             	add    esp,0x20
10001834:	5b                   	pop    ebx
10001835:	5e                   	pop    esi
10001836:	5f                   	pop    edi
10001837:	5d                   	pop    ebp
10001838:	c3                   	ret    
10001839:	55                   	push   ebp
1000183a:	89 e5                	mov    ebp,esp
1000183c:	83 ec 28             	sub    esp,0x28
1000183f:	8b 55 08             	mov    edx,DWORD PTR [ebp+0x8]
10001842:	8b 45 0c             	mov    eax,DWORD PTR [ebp+0xc]
10001845:	66 89 55 e4          	mov    WORD PTR [ebp-0x1c],dx
10001849:	66 89 45 e0          	mov    WORD PTR [ebp-0x20],ax
1000184d:	83 ec 0c             	sub    esp,0xc
10001850:	68 48 02 00 00       	push   0x248
10001855:	e8 0a 7f 00 00       	call   0x10009764
1000185a:	83 c4 10             	add    esp,0x10
1000185d:	89 45 f4             	mov    DWORD PTR [ebp-0xc],eax
10001860:	83 7d f4 00          	cmp    DWORD PTR [ebp-0xc],0x0
10001864:	75 05                	jne    0x1000186b
10001866:	8b 45 f4             	mov    eax,DWORD PTR [ebp-0xc]
10001869:	eb 6b                	jmp    0x100018d6
1000186b:	e8 68 0c 00 00       	call   0x100024d8
10001870:	89 c2                	mov    edx,eax
10001872:	8b 45 f4             	mov    eax,DWORD PTR [ebp-0xc]
10001875:	89 50 10             	mov    DWORD PTR [eax+0x10],edx
10001878:	8b 45 f4             	mov    eax,DWORD PTR [ebp-0xc]
1000187b:	8b 40 10             	mov    eax,DWORD PTR [eax+0x10]
1000187e:	85 c0                	test   eax,eax
10001880:	75 15                	jne    0x10001897
10001882:	83 ec 0c             	sub    esp,0xc
10001885:	ff 75 f4             	push   DWORD PTR [ebp-0xc]
10001888:	e8 ef 7e 00 00       	call   0x1000977c
1000188d:	83 c4 10             	add    esp,0x10
10001890:	b8 00 00 00 00       	mov    eax,0x0
10001895:	eb 3f                	jmp    0x100018d6
10001897:	8b 55 f4             	mov    edx,DWORD PTR [ebp-0xc]
1000189a:	8b 45 e4             	mov    eax,DWORD PTR [ebp-0x1c]
1000189d:	66 89 42 04          	mov    WORD PTR [edx+0x4],ax
100018a1:	8b 55 f4             	mov    edx,DWORD PTR [ebp-0xc]
100018a4:	8b 45 e0             	mov    eax,DWORD PTR [ebp-0x20]
100018a7:	66 89 42 06          	mov    WORD PTR [edx+0x6],ax
100018ab:	8b 45 f4             	mov    eax,DWORD PTR [ebp-0xc]
100018ae:	8b 55 10             	mov    edx,DWORD PTR [ebp+0x10]
100018b1:	89 10                	mov    DWORD PTR [eax],edx
100018b3:	8b 45 f4             	mov    eax,DWORD PTR [ebp-0xc]
100018b6:	c6 40 14 00          	mov    BYTE PTR [eax+0x14],0x0
100018ba:	8b 45 f4             	mov    eax,DWORD PTR [ebp-0xc]
100018bd:	83 c0 15             	add    eax,0x15
100018c0:	83 ec 04             	sub    esp,0x4
100018c3:	68 30 02 00 00       	push   0x230
100018c8:	6a 00                	push   0x0
100018ca:	50                   	push   eax
100018cb:	e8 3d 87 00 00       	call   0x1000a00d
100018d0:	83 c4 10             	add    esp,0x10
100018d3:	8b 45 f4             	mov    eax,DWORD PTR [ebp-0xc]
100018d6:	c9                   	leave  
100018d7:	c3                   	ret    
100018d8:	55                   	push   ebp
100018d9:	89 e5                	mov    ebp,esp
100018db:	53                   	push   ebx
100018dc:	83 ec 20             	sub    esp,0x20
100018df:	8b 55 0c             	mov    edx,DWORD PTR [ebp+0xc]
100018e2:	8b 45 14             	mov    eax,DWORD PTR [ebp+0x14]
100018e5:	01 d0                	add    eax,edx
100018e7:	89 45 f4             	mov    DWORD PTR [ebp-0xc],eax
100018ea:	8b 55 10             	mov    edx,DWORD PTR [ebp+0x10]
100018ed:	8b 45 18             	mov    eax,DWORD PTR [ebp+0x18]
100018f0:	01 d0                	add    eax,edx
100018f2:	89 45 f0             	mov    DWORD PTR [ebp-0x10],eax
100018f5:	8b 45 08             	mov    eax,DWORD PTR [ebp+0x8]
100018f8:	8b 40 08             	mov    eax,DWORD PTR [eax+0x8]
100018fb:	01 45 0c             	add    DWORD PTR [ebp+0xc],eax
100018fe:	8b 45 08             	mov    eax,DWORD PTR [ebp+0x8]
10001901:	8b 40 0c             	mov    eax,DWORD PTR [eax+0xc]
10001904:	01 45 10             	add    DWORD PTR [ebp+0x10],eax
10001907:	8b 45 08             	mov    eax,DWORD PTR [ebp+0x8]
1000190a:	8b 40 08             	mov    eax,DWORD PTR [eax+0x8]
1000190d:	01 45 f4             	add    DWORD PTR [ebp-0xc],eax
10001910:	8b 45 08             	mov    eax,DWORD PTR [ebp+0x8]
10001913:	8b 40 0c             	mov    eax,DWORD PTR [eax+0xc]
10001916:	01 45 f0             	add    DWORD PTR [ebp-0x10],eax
10001919:	8b 45 1c             	mov    eax,DWORD PTR [ebp+0x1c]
1000191c:	8b 40 04             	mov    eax,DWORD PTR [eax+0x4]
1000191f:	39 45 0c             	cmp    DWORD PTR [ebp+0xc],eax
10001922:	7d 09                	jge    0x1000192d
10001924:	8b 45 1c             	mov    eax,DWORD PTR [ebp+0x1c]
10001927:	8b 40 04             	mov    eax,DWORD PTR [eax+0x4]
1000192a:	89 45 0c             	mov    DWORD PTR [ebp+0xc],eax
1000192d:	8b 45 1c             	mov    eax,DWORD PTR [ebp+0x1c]
10001930:	8b 00                	mov    eax,DWORD PTR [eax]
10001932:	39 45 10             	cmp    DWORD PTR [ebp+0x10],eax
10001935:	7d 08                	jge    0x1000193f
10001937:	8b 45 1c             	mov    eax,DWORD PTR [ebp+0x1c]
1000193a:	8b 00                	mov    eax,DWORD PTR [eax]
1000193c:	89 45 10             	mov    DWORD PTR [ebp+0x10],eax
1000193f:	8b 45 1c             	mov    eax,DWORD PTR [ebp+0x1c]
10001942:	8b 40 0c             	mov    eax,DWORD PTR [eax+0xc]
10001945:	40                   	inc    eax
10001946:	39 45 f4             	cmp    DWORD PTR [ebp-0xc],eax
10001949:	7e 0a                	jle    0x10001955
1000194b:	8b 45 1c             	mov    eax,DWORD PTR [ebp+0x1c]
1000194e:	8b 40 0c             	mov    eax,DWORD PTR [eax+0xc]
10001951:	40                   	inc    eax
10001952:	89 45 f4             	mov    DWORD PTR [ebp-0xc],eax
10001955:	8b 45 1c             	mov    eax,DWORD PTR [ebp+0x1c]
10001958:	8b 40 08             	mov    eax,DWORD PTR [eax+0x8]
1000195b:	40                   	inc    eax
1000195c:	39 45 f0             	cmp    DWORD PTR [ebp-0x10],eax
1000195f:	7e 0a                	jle    0x1000196b
10001961:	8b 45 1c             	mov    eax,DWORD PTR [ebp+0x1c]
10001964:	8b 40 08             	mov    eax,DWORD PTR [eax+0x8]
10001967:	40                   	inc    eax
10001968:	89 45 f0             	mov    DWORD PTR [ebp-0x10],eax
1000196b:	8b 45 20             	mov    eax,DWORD PTR [ebp+0x20]
1000196e:	c1 e8 1c             	shr    eax,0x1c
10001971:	83 f8 0e             	cmp    eax,0xe
10001974:	0f 85 19 01 00 00    	jne    0x10001a93
1000197a:	e9 89 00 00 00       	jmp    0x10001a08
1000197f:	8b 45 08             	mov    eax,DWORD PTR [ebp+0x8]
10001982:	89 45 ec             	mov    DWORD PTR [ebp-0x14],eax
10001985:	8b 45 10             	mov    eax,DWORD PTR [ebp+0x10]
10001988:	89 45 e8             	mov    DWORD PTR [ebp-0x18],eax
1000198b:	8b 45 e8             	mov    eax,DWORD PTR [ebp-0x18]
1000198e:	c1 f8 03             	sar    eax,0x3
10001991:	89 c2                	mov    edx,eax
10001993:	8b 45 ec             	mov    eax,DWORD PTR [ebp-0x14]
10001996:	8a 44 10 15          	mov    al,BYTE PTR [eax+edx*1+0x15]
1000199a:	88 c2                	mov    dl,al
1000199c:	8b 45 e8             	mov    eax,DWORD PTR [ebp-0x18]
1000199f:	83 e0 07             	and    eax,0x7
100019a2:	bb 01 00 00 00       	mov    ebx,0x1
100019a7:	88 c1                	mov    cl,al
100019a9:	d3 e3                	shl    ebx,cl
100019ab:	89 d8                	mov    eax,ebx
100019ad:	88 d1                	mov    cl,dl
100019af:	09 c1                	or     ecx,eax
100019b1:	8b 45 e8             	mov    eax,DWORD PTR [ebp-0x18]
100019b4:	c1 f8 03             	sar    eax,0x3
100019b7:	89 c2                	mov    edx,eax
100019b9:	8b 45 ec             	mov    eax,DWORD PTR [ebp-0x14]
100019bc:	88 4c 10 15          	mov    BYTE PTR [eax+edx*1+0x15],cl
100019c0:	8b 45 0c             	mov    eax,DWORD PTR [ebp+0xc]
100019c3:	89 45 f8             	mov    DWORD PTR [ebp-0x8],eax
100019c6:	eb 35                	jmp    0x100019fd
100019c8:	8b 45 08             	mov    eax,DWORD PTR [ebp+0x8]
100019cb:	8b 10                	mov    edx,DWORD PTR [eax]
100019cd:	8b 45 08             	mov    eax,DWORD PTR [ebp+0x8]
100019d0:	8b 40 04             	mov    eax,DWORD PTR [eax+0x4]
100019d3:	0f b7 c0             	movzx  eax,ax
100019d6:	0f af 45 10          	imul   eax,DWORD PTR [ebp+0x10]
100019da:	89 c1                	mov    ecx,eax
100019dc:	8b 45 f8             	mov    eax,DWORD PTR [ebp-0x8]
100019df:	01 c8                	add    eax,ecx
100019e1:	c1 e0 02             	shl    eax,0x2
100019e4:	8d 1c 02             	lea    ebx,[edx+eax*1]
100019e7:	ff 75 10             	push   DWORD PTR [ebp+0x10]
100019ea:	ff 75 f8             	push   DWORD PTR [ebp-0x8]
100019ed:	ff 75 20             	push   DWORD PTR [ebp+0x20]
100019f0:	e8 c9 fd ff ff       	call   0x100017be
100019f5:	83 c4 0c             	add    esp,0xc
100019f8:	89 03                	mov    DWORD PTR [ebx],eax
100019fa:	ff 45 f8             	inc    DWORD PTR [ebp-0x8]
100019fd:	8b 45 f8             	mov    eax,DWORD PTR [ebp-0x8]
10001a00:	3b 45 f4             	cmp    eax,DWORD PTR [ebp-0xc]
10001a03:	7c c3                	jl     0x100019c8
10001a05:	ff 45 10             	inc    DWORD PTR [ebp+0x10]
10001a08:	8b 45 10             	mov    eax,DWORD PTR [ebp+0x10]
10001a0b:	3b 45 f0             	cmp    eax,DWORD PTR [ebp-0x10]
10001a0e:	0f 8c 6b ff ff ff    	jl     0x1000197f
10001a14:	e9 86 00 00 00       	jmp    0x10001a9f
10001a19:	8b 45 08             	mov    eax,DWORD PTR [ebp+0x8]
10001a1c:	89 45 e4             	mov    DWORD PTR [ebp-0x1c],eax
10001a1f:	8b 45 10             	mov    eax,DWORD PTR [ebp+0x10]
10001a22:	89 45 e0             	mov    DWORD PTR [ebp-0x20],eax
10001a25:	8b 45 e0             	mov    eax,DWORD PTR [ebp-0x20]
10001a28:	c1 f8 03             	sar    eax,0x3
10001a2b:	89 c2                	mov    edx,eax
10001a2d:	8b 45 e4             	mov    eax,DWORD PTR [ebp-0x1c]
10001a30:	8a 44 10 15          	mov    al,BYTE PTR [eax+edx*1+0x15]
10001a34:	88 c2                	mov    dl,al
10001a36:	8b 45 e0             	mov    eax,DWORD PTR [ebp-0x20]
10001a39:	83 e0 07             	and    eax,0x7
10001a3c:	bb 01 00 00 00       	mov    ebx,0x1
10001a41:	88 c1                	mov    cl,al
10001a43:	d3 e3                	shl    ebx,cl
10001a45:	89 d8                	mov    eax,ebx
10001a47:	88 d1                	mov    cl,dl
10001a49:	09 c1                	or     ecx,eax
10001a4b:	8b 45 e0             	mov    eax,DWORD PTR [ebp-0x20]
10001a4e:	c1 f8 03             	sar    eax,0x3
10001a51:	89 c2                	mov    edx,eax
10001a53:	8b 45 e4             	mov    eax,DWORD PTR [ebp-0x1c]
10001a56:	88 4c 10 15          	mov    BYTE PTR [eax+edx*1+0x15],cl
10001a5a:	8b 45 0c             	mov    eax,DWORD PTR [ebp+0xc]
10001a5d:	89 45 f8             	mov    DWORD PTR [ebp-0x8],eax
10001a60:	eb 26                	jmp    0x10001a88
10001a62:	8b 45 08             	mov    eax,DWORD PTR [ebp+0x8]
10001a65:	8b 10                	mov    edx,DWORD PTR [eax]
10001a67:	8b 45 08             	mov    eax,DWORD PTR [ebp+0x8]
10001a6a:	8b 40 04             	mov    eax,DWORD PTR [eax+0x4]
10001a6d:	0f b7 c0             	movzx  eax,ax
10001a70:	0f af 45 10          	imul   eax,DWORD PTR [ebp+0x10]
10001a74:	89 c1                	mov    ecx,eax
10001a76:	8b 45 f8             	mov    eax,DWORD PTR [ebp-0x8]
10001a79:	01 c8                	add    eax,ecx
10001a7b:	c1 e0 02             	shl    eax,0x2
10001a7e:	01 c2                	add    edx,eax
10001a80:	8b 45 20             	mov    eax,DWORD PTR [ebp+0x20]
10001a83:	89 02                	mov    DWORD PTR [edx],eax
10001a85:	ff 45 f8             	inc    DWORD PTR [ebp-0x8]
10001a88:	8b 45 f8             	mov    eax,DWORD PTR [ebp-0x8]
10001a8b:	3b 45 f4             	cmp    eax,DWORD PTR [ebp-0xc]
10001a8e:	7c d2                	jl     0x10001a62
10001a90:	ff 45 10             	inc    DWORD PTR [ebp+0x10]
10001a93:	8b 45 10             	mov    eax,DWORD PTR [ebp+0x10]
10001a96:	3b 45 f0             	cmp    eax,DWORD PTR [ebp-0x10]
10001a99:	0f 8c 7a ff ff ff    	jl     0x10001a19
10001a9f:	90                   	nop
10001aa0:	8b 5d fc             	mov    ebx,DWORD PTR [ebp-0x4]
10001aa3:	c9                   	leave  
10001aa4:	c3                   	ret    
10001aa5:	55                   	push   ebp
10001aa6:	89 e5                	mov    ebp,esp
10001aa8:	83 ec 28             	sub    esp,0x28
10001aab:	8b 55 0c             	mov    edx,DWORD PTR [ebp+0xc]
10001aae:	8b 45 14             	mov    eax,DWORD PTR [ebp+0x14]
10001ab1:	01 d0                	add    eax,edx
10001ab3:	89 45 f4             	mov    DWORD PTR [ebp-0xc],eax
10001ab6:	8b 55 10             	mov    edx,DWORD PTR [ebp+0x10]
10001ab9:	8b 45 18             	mov    eax,DWORD PTR [ebp+0x18]
10001abc:	01 d0                	add    eax,edx
10001abe:	89 45 f0             	mov    DWORD PTR [ebp-0x10],eax
10001ac1:	8b 45 08             	mov    eax,DWORD PTR [ebp+0x8]
10001ac4:	8b 40 04             	mov    eax,DWORD PTR [eax+0x4]
10001ac7:	0f b7 c0             	movzx  eax,ax
10001aca:	39 45 f4             	cmp    DWORD PTR [ebp-0xc],eax
10001acd:	7e 0c                	jle    0x10001adb
10001acf:	8b 45 08             	mov    eax,DWORD PTR [ebp+0x8]
10001ad2:	8b 40 04             	mov    eax,DWORD PTR [eax+0x4]
10001ad5:	0f b7 c0             	movzx  eax,ax
10001ad8:	89 45 f4             	mov    DWORD PTR [ebp-0xc],eax
10001adb:	8b 45 08             	mov    eax,DWORD PTR [ebp+0x8]
10001ade:	66 8b 40 06          	mov    ax,WORD PTR [eax+0x6]
10001ae2:	0f b7 c0             	movzx  eax,ax
10001ae5:	39 45 f0             	cmp    DWORD PTR [ebp-0x10],eax
10001ae8:	7e 0d                	jle    0x10001af7
10001aea:	8b 45 08             	mov    eax,DWORD PTR [ebp+0x8]
10001aed:	66 8b 40 06          	mov    ax,WORD PTR [eax+0x6]
10001af1:	0f b7 c0             	movzx  eax,ax
10001af4:	89 45 f0             	mov    DWORD PTR [ebp-0x10],eax
10001af7:	83 7d 0c 00          	cmp    DWORD PTR [ebp+0xc],0x0
10001afb:	79 07                	jns    0x10001b04
10001afd:	c7 45 0c 00 00 00 00 	mov    DWORD PTR [ebp+0xc],0x0
10001b04:	83 7d 10 00          	cmp    DWORD PTR [ebp+0x10],0x0
10001b08:	79 07                	jns    0x10001b11
10001b0a:	c7 45 10 00 00 00 00 	mov    DWORD PTR [ebp+0x10],0x0
10001b11:	8b 45 f4             	mov    eax,DWORD PTR [ebp-0xc]
10001b14:	2b 45 0c             	sub    eax,DWORD PTR [ebp+0xc]
10001b17:	89 45 14             	mov    DWORD PTR [ebp+0x14],eax
10001b1a:	8b 45 f0             	mov    eax,DWORD PTR [ebp-0x10]
10001b1d:	2b 45 10             	sub    eax,DWORD PTR [ebp+0x10]
10001b20:	89 45 18             	mov    DWORD PTR [ebp+0x18],eax
10001b23:	8b 45 08             	mov    eax,DWORD PTR [ebp+0x8]
10001b26:	8b 40 10             	mov    eax,DWORD PTR [eax+0x10]
10001b29:	8b 00                	mov    eax,DWORD PTR [eax]
10001b2b:	85 c0                	test   eax,eax
10001b2d:	74 56                	je     0x10001b85
10001b2f:	c7 45 ec 00 00 00 00 	mov    DWORD PTR [ebp-0x14],0x0
10001b36:	eb 3c                	jmp    0x10001b74
10001b38:	8b 55 ec             	mov    edx,DWORD PTR [ebp-0x14]
10001b3b:	8b 45 08             	mov    eax,DWORD PTR [ebp+0x8]
10001b3e:	8b 40 10             	mov    eax,DWORD PTR [eax+0x10]
10001b41:	83 ec 08             	sub    esp,0x8
10001b44:	52                   	push   edx
10001b45:	50                   	push   eax
10001b46:	e8 43 0a 00 00       	call   0x1000258e
10001b4b:	83 c4 10             	add    esp,0x10
10001b4e:	89 45 e8             	mov    DWORD PTR [ebp-0x18],eax
10001b51:	83 ec 04             	sub    esp,0x4
10001b54:	ff 75 1c             	push   DWORD PTR [ebp+0x1c]
10001b57:	ff 75 e8             	push   DWORD PTR [ebp-0x18]
10001b5a:	ff 75 18             	push   DWORD PTR [ebp+0x18]
10001b5d:	ff 75 14             	push   DWORD PTR [ebp+0x14]
10001b60:	ff 75 10             	push   DWORD PTR [ebp+0x10]
10001b63:	ff 75 0c             	push   DWORD PTR [ebp+0xc]
10001b66:	ff 75 08             	push   DWORD PTR [ebp+0x8]
10001b69:	e8 6a fd ff ff       	call   0x100018d8
10001b6e:	83 c4 20             	add    esp,0x20
10001b71:	ff 45 ec             	inc    DWORD PTR [ebp-0x14]
10001b74:	8b 45 08             	mov    eax,DWORD PTR [ebp+0x8]
10001b77:	8b 40 10             	mov    eax,DWORD PTR [eax+0x10]
10001b7a:	8b 10                	mov    edx,DWORD PTR [eax]
10001b7c:	8b 45 ec             	mov    eax,DWORD PTR [ebp-0x14]
10001b7f:	39 c2                	cmp    edx,eax
10001b81:	77 b5                	ja     0x10001b38
10001b83:	eb 54                	jmp    0x10001bd9
10001b85:	8b 45 08             	mov    eax,DWORD PTR [ebp+0x8]
10001b88:	8a 40 14             	mov    al,BYTE PTR [eax+0x14]
10001b8b:	84 c0                	test   al,al
10001b8d:	75 4a                	jne    0x10001bd9
10001b8f:	c7 45 d8 00 00 00 00 	mov    DWORD PTR [ebp-0x28],0x0
10001b96:	c7 45 dc 00 00 00 00 	mov    DWORD PTR [ebp-0x24],0x0
10001b9d:	8b 45 08             	mov    eax,DWORD PTR [ebp+0x8]
10001ba0:	66 8b 40 06          	mov    ax,WORD PTR [eax+0x6]
10001ba4:	0f b7 c0             	movzx  eax,ax
10001ba7:	48                   	dec    eax
10001ba8:	89 45 e0             	mov    DWORD PTR [ebp-0x20],eax
10001bab:	8b 45 08             	mov    eax,DWORD PTR [ebp+0x8]
10001bae:	8b 40 04             	mov    eax,DWORD PTR [eax+0x4]
10001bb1:	0f b7 c0             	movzx  eax,ax
10001bb4:	48                   	dec    eax
10001bb5:	89 45 e4             	mov    DWORD PTR [ebp-0x1c],eax
10001bb8:	83 ec 04             	sub    esp,0x4
10001bbb:	ff 75 1c             	push   DWORD PTR [ebp+0x1c]
10001bbe:	8d 45 d8             	lea    eax,[ebp-0x28]
10001bc1:	50                   	push   eax
10001bc2:	ff 75 18             	push   DWORD PTR [ebp+0x18]
10001bc5:	ff 75 14             	push   DWORD PTR [ebp+0x14]
10001bc8:	ff 75 10             	push   DWORD PTR [ebp+0x10]
10001bcb:	ff 75 0c             	push   DWORD PTR [ebp+0xc]
10001bce:	ff 75 08             	push   DWORD PTR [ebp+0x8]
10001bd1:	e8 02 fd ff ff       	call   0x100018d8
10001bd6:	83 c4 20             	add    esp,0x20
10001bd9:	90                   	nop
10001bda:	c9                   	leave  
10001bdb:	c3                   	ret    
10001bdc:	55                   	push   ebp
10001bdd:	89 e5                	mov    ebp,esp
10001bdf:	83 ec 08             	sub    esp,0x8
10001be2:	83 ec 08             	sub    esp,0x8
10001be5:	ff 75 18             	push   DWORD PTR [ebp+0x18]
10001be8:	6a 01                	push   0x1
10001bea:	ff 75 14             	push   DWORD PTR [ebp+0x14]
10001bed:	ff 75 10             	push   DWORD PTR [ebp+0x10]
10001bf0:	ff 75 0c             	push   DWORD PTR [ebp+0xc]
10001bf3:	ff 75 08             	push   DWORD PTR [ebp+0x8]
10001bf6:	e8 aa fe ff ff       	call   0x10001aa5
10001bfb:	83 c4 20             	add    esp,0x20
10001bfe:	90                   	nop
10001bff:	c9                   	leave  
10001c00:	c3                   	ret    
10001c01:	55                   	push   ebp
10001c02:	89 e5                	mov    ebp,esp
10001c04:	83 ec 08             	sub    esp,0x8
10001c07:	83 ec 08             	sub    esp,0x8
10001c0a:	ff 75 18             	push   DWORD PTR [ebp+0x18]
10001c0d:	ff 75 14             	push   DWORD PTR [ebp+0x14]
10001c10:	6a 01                	push   0x1
10001c12:	ff 75 10             	push   DWORD PTR [ebp+0x10]
10001c15:	ff 75 0c             	push   DWORD PTR [ebp+0xc]
10001c18:	ff 75 08             	push   DWORD PTR [ebp+0x8]
10001c1b:	e8 85 fe ff ff       	call   0x10001aa5
10001c20:	83 c4 20             	add    esp,0x20
10001c23:	90                   	nop
10001c24:	c9                   	leave  
10001c25:	c3                   	ret    
10001c26:	55                   	push   ebp
10001c27:	89 e5                	mov    ebp,esp
10001c29:	53                   	push   ebx
10001c2a:	83 ec 04             	sub    esp,0x4
10001c2d:	83 ec 0c             	sub    esp,0xc
10001c30:	ff 75 1c             	push   DWORD PTR [ebp+0x1c]
10001c33:	ff 75 14             	push   DWORD PTR [ebp+0x14]
10001c36:	ff 75 10             	push   DWORD PTR [ebp+0x10]
10001c39:	ff 75 0c             	push   DWORD PTR [ebp+0xc]
10001c3c:	ff 75 08             	push   DWORD PTR [ebp+0x8]
10001c3f:	e8 98 ff ff ff       	call   0x10001bdc
10001c44:	83 c4 20             	add    esp,0x20
10001c47:	8b 45 18             	mov    eax,DWORD PTR [ebp+0x18]
10001c4a:	8d 50 fe             	lea    edx,[eax-0x2]
10001c4d:	8b 45 10             	mov    eax,DWORD PTR [ebp+0x10]
10001c50:	40                   	inc    eax
10001c51:	83 ec 0c             	sub    esp,0xc
10001c54:	ff 75 1c             	push   DWORD PTR [ebp+0x1c]
10001c57:	52                   	push   edx
10001c58:	50                   	push   eax
10001c59:	ff 75 0c             	push   DWORD PTR [ebp+0xc]
10001c5c:	ff 75 08             	push   DWORD PTR [ebp+0x8]
10001c5f:	e8 9d ff ff ff       	call   0x10001c01
10001c64:	83 c4 20             	add    esp,0x20
10001c67:	8b 55 10             	mov    edx,DWORD PTR [ebp+0x10]
10001c6a:	8b 45 18             	mov    eax,DWORD PTR [ebp+0x18]
10001c6d:	01 d0                	add    eax,edx
10001c6f:	48                   	dec    eax
10001c70:	83 ec 0c             	sub    esp,0xc
10001c73:	ff 75 1c             	push   DWORD PTR [ebp+0x1c]
10001c76:	ff 75 14             	push   DWORD PTR [ebp+0x14]
10001c79:	50                   	push   eax
10001c7a:	ff 75 0c             	push   DWORD PTR [ebp+0xc]
10001c7d:	ff 75 08             	push   DWORD PTR [ebp+0x8]
10001c80:	e8 57 ff ff ff       	call   0x10001bdc
10001c85:	83 c4 20             	add    esp,0x20
10001c88:	8b 45 18             	mov    eax,DWORD PTR [ebp+0x18]
10001c8b:	8d 48 fe             	lea    ecx,[eax-0x2]
10001c8e:	8b 45 10             	mov    eax,DWORD PTR [ebp+0x10]
10001c91:	8d 50 01             	lea    edx,[eax+0x1]
10001c94:	8b 5d 0c             	mov    ebx,DWORD PTR [ebp+0xc]
10001c97:	8b 45 14             	mov    eax,DWORD PTR [ebp+0x14]
10001c9a:	01 d8                	add    eax,ebx
10001c9c:	48                   	dec    eax
10001c9d:	83 ec 0c             	sub    esp,0xc
10001ca0:	ff 75 1c             	push   DWORD PTR [ebp+0x1c]
10001ca3:	51                   	push   ecx
10001ca4:	52                   	push   edx
10001ca5:	50                   	push   eax
10001ca6:	ff 75 08             	push   DWORD PTR [ebp+0x8]
10001ca9:	e8 53 ff ff ff       	call   0x10001c01
10001cae:	83 c4 20             	add    esp,0x20
10001cb1:	90                   	nop
10001cb2:	8b 5d fc             	mov    ebx,DWORD PTR [ebp-0x4]
10001cb5:	c9                   	leave  
10001cb6:	c3                   	ret    
10001cb7:	55                   	push   ebp
10001cb8:	89 e5                	mov    ebp,esp
10001cba:	83 ec 18             	sub    esp,0x18
10001cbd:	8b 45 08             	mov    eax,DWORD PTR [ebp+0x8]
10001cc0:	c6 40 14 01          	mov    BYTE PTR [eax+0x14],0x1
10001cc4:	e8 0f 08 00 00       	call   0x100024d8
10001cc9:	89 45 f0             	mov    DWORD PTR [ebp-0x10],eax
10001ccc:	83 7d f0 00          	cmp    DWORD PTR [ebp-0x10],0x0
10001cd0:	0f 84 b8 00 00 00    	je     0x10001d8e
10001cd6:	c7 45 f4 00 00 00 00 	mov    DWORD PTR [ebp-0xc],0x0
10001cdd:	eb 47                	jmp    0x10001d26
10001cdf:	8b 55 f4             	mov    edx,DWORD PTR [ebp-0xc]
10001ce2:	8b 45 08             	mov    eax,DWORD PTR [ebp+0x8]
10001ce5:	8b 40 10             	mov    eax,DWORD PTR [eax+0x10]
10001ce8:	83 ec 08             	sub    esp,0x8
10001ceb:	52                   	push   edx
10001cec:	50                   	push   eax
10001ced:	e8 9c 08 00 00       	call   0x1000258e
10001cf2:	83 c4 10             	add    esp,0x10
10001cf5:	89 45 ec             	mov    DWORD PTR [ebp-0x14],eax
10001cf8:	83 ec 08             	sub    esp,0x8
10001cfb:	ff 75 0c             	push   DWORD PTR [ebp+0xc]
10001cfe:	ff 75 ec             	push   DWORD PTR [ebp-0x14]
10001d01:	e8 e2 0c 00 00       	call   0x100029e8
10001d06:	83 c4 10             	add    esp,0x10
10001d09:	89 45 e8             	mov    DWORD PTR [ebp-0x18],eax
10001d0c:	83 7d e8 00          	cmp    DWORD PTR [ebp-0x18],0x0
10001d10:	74 11                	je     0x10001d23
10001d12:	83 ec 08             	sub    esp,0x8
10001d15:	ff 75 e8             	push   DWORD PTR [ebp-0x18]
10001d18:	ff 75 f0             	push   DWORD PTR [ebp-0x10]
10001d1b:	e8 f1 07 00 00       	call   0x10002511
10001d20:	83 c4 10             	add    esp,0x10
10001d23:	ff 45 f4             	inc    DWORD PTR [ebp-0xc]
10001d26:	8b 45 08             	mov    eax,DWORD PTR [ebp+0x8]
10001d29:	8b 40 10             	mov    eax,DWORD PTR [eax+0x10]
10001d2c:	8b 10                	mov    edx,DWORD PTR [eax]
10001d2e:	8b 45 f4             	mov    eax,DWORD PTR [ebp-0xc]
10001d31:	39 c2                	cmp    edx,eax
10001d33:	77 aa                	ja     0x10001cdf
10001d35:	eb 20                	jmp    0x10001d57
10001d37:	8b 45 08             	mov    eax,DWORD PTR [ebp+0x8]
10001d3a:	8b 40 10             	mov    eax,DWORD PTR [eax+0x10]
10001d3d:	83 ec 08             	sub    esp,0x8
10001d40:	6a 00                	push   0x0
10001d42:	50                   	push   eax
10001d43:	e8 a6 08 00 00       	call   0x100025ee
10001d48:	83 c4 10             	add    esp,0x10
10001d4b:	83 ec 0c             	sub    esp,0xc
10001d4e:	50                   	push   eax
10001d4f:	e8 28 7a 00 00       	call   0x1000977c
10001d54:	83 c4 10             	add    esp,0x10
10001d57:	8b 45 08             	mov    eax,DWORD PTR [ebp+0x8]
10001d5a:	8b 40 10             	mov    eax,DWORD PTR [eax+0x10]
10001d5d:	8b 00                	mov    eax,DWORD PTR [eax]
10001d5f:	85 c0                	test   eax,eax
10001d61:	75 d4                	jne    0x10001d37
10001d63:	8b 45 08             	mov    eax,DWORD PTR [ebp+0x8]
10001d66:	8b 40 10             	mov    eax,DWORD PTR [eax+0x10]
10001d69:	83 ec 0c             	sub    esp,0xc
10001d6c:	50                   	push   eax
10001d6d:	e8 0a 7a 00 00       	call   0x1000977c
10001d72:	83 c4 10             	add    esp,0x10
10001d75:	8b 45 08             	mov    eax,DWORD PTR [ebp+0x8]
10001d78:	8b 55 f0             	mov    edx,DWORD PTR [ebp-0x10]
10001d7b:	89 50 10             	mov    DWORD PTR [eax+0x10],edx
10001d7e:	83 ec 0c             	sub    esp,0xc
10001d81:	ff 75 0c             	push   DWORD PTR [ebp+0xc]
10001d84:	e8 f3 79 00 00       	call   0x1000977c
10001d89:	83 c4 10             	add    esp,0x10
10001d8c:	eb 01                	jmp    0x10001d8f
10001d8e:	90                   	nop
10001d8f:	c9                   	leave  
10001d90:	c3                   	ret    
10001d91:	55                   	push   ebp
10001d92:	89 e5                	mov    ebp,esp
10001d94:	83 ec 18             	sub    esp,0x18
10001d97:	8b 45 08             	mov    eax,DWORD PTR [ebp+0x8]
10001d9a:	c6 40 14 01          	mov    BYTE PTR [eax+0x14],0x1
10001d9e:	c7 45 f4 00 00 00 00 	mov    DWORD PTR [ebp-0xc],0x0
10001da5:	e9 df 00 00 00       	jmp    0x10001e89
10001daa:	8b 55 f4             	mov    edx,DWORD PTR [ebp-0xc]
10001dad:	8b 45 08             	mov    eax,DWORD PTR [ebp+0x8]
10001db0:	8b 40 10             	mov    eax,DWORD PTR [eax+0x10]
10001db3:	83 ec 08             	sub    esp,0x8
10001db6:	52                   	push   edx
10001db7:	50                   	push   eax
10001db8:	e8 d1 07 00 00       	call   0x1000258e
10001dbd:	83 c4 10             	add    esp,0x10
10001dc0:	89 45 f0             	mov    DWORD PTR [ebp-0x10],eax
10001dc3:	8b 45 f0             	mov    eax,DWORD PTR [ebp-0x10]
10001dc6:	8b 50 04             	mov    edx,DWORD PTR [eax+0x4]
10001dc9:	8b 45 0c             	mov    eax,DWORD PTR [ebp+0xc]
10001dcc:	8b 40 0c             	mov    eax,DWORD PTR [eax+0xc]
10001dcf:	39 c2                	cmp    edx,eax
10001dd1:	7f 2e                	jg     0x10001e01
10001dd3:	8b 45 f0             	mov    eax,DWORD PTR [ebp-0x10]
10001dd6:	8b 50 0c             	mov    edx,DWORD PTR [eax+0xc]
10001dd9:	8b 45 0c             	mov    eax,DWORD PTR [ebp+0xc]
10001ddc:	8b 40 04             	mov    eax,DWORD PTR [eax+0x4]
10001ddf:	39 c2                	cmp    edx,eax
10001de1:	7c 1e                	jl     0x10001e01
10001de3:	8b 45 f0             	mov    eax,DWORD PTR [ebp-0x10]
10001de6:	8b 10                	mov    edx,DWORD PTR [eax]
10001de8:	8b 45 0c             	mov    eax,DWORD PTR [ebp+0xc]
10001deb:	8b 40 08             	mov    eax,DWORD PTR [eax+0x8]
10001dee:	39 c2                	cmp    edx,eax
10001df0:	7f 0f                	jg     0x10001e01
10001df2:	8b 45 f0             	mov    eax,DWORD PTR [ebp-0x10]
10001df5:	8b 50 08             	mov    edx,DWORD PTR [eax+0x8]
10001df8:	8b 45 0c             	mov    eax,DWORD PTR [ebp+0xc]
10001dfb:	8b 00                	mov    eax,DWORD PTR [eax]
10001dfd:	39 c2                	cmp    edx,eax
10001dff:	7d 08                	jge    0x10001e09
10001e01:	ff 45 f4             	inc    DWORD PTR [ebp-0xc]
10001e04:	e9 80 00 00 00       	jmp    0x10001e89
10001e09:	8b 55 f4             	mov    edx,DWORD PTR [ebp-0xc]
10001e0c:	8b 45 08             	mov    eax,DWORD PTR [ebp+0x8]
10001e0f:	8b 40 10             	mov    eax,DWORD PTR [eax+0x10]
10001e12:	83 ec 08             	sub    esp,0x8
10001e15:	52                   	push   edx
10001e16:	50                   	push   eax
10001e17:	e8 d2 07 00 00       	call   0x100025ee
10001e1c:	83 c4 10             	add    esp,0x10
10001e1f:	83 ec 08             	sub    esp,0x8
10001e22:	ff 75 0c             	push   DWORD PTR [ebp+0xc]
10001e25:	ff 75 f0             	push   DWORD PTR [ebp-0x10]
10001e28:	e8 14 09 00 00       	call   0x10002741
10001e2d:	83 c4 10             	add    esp,0x10
10001e30:	89 45 ec             	mov    DWORD PTR [ebp-0x14],eax
10001e33:	83 ec 0c             	sub    esp,0xc
10001e36:	ff 75 f0             	push   DWORD PTR [ebp-0x10]
10001e39:	e8 3e 79 00 00       	call   0x1000977c
10001e3e:	83 c4 10             	add    esp,0x10
10001e41:	eb 28                	jmp    0x10001e6b
10001e43:	83 ec 08             	sub    esp,0x8
10001e46:	6a 00                	push   0x0
10001e48:	ff 75 ec             	push   DWORD PTR [ebp-0x14]
10001e4b:	e8 9e 07 00 00       	call   0x100025ee
10001e50:	83 c4 10             	add    esp,0x10
10001e53:	89 45 f0             	mov    DWORD PTR [ebp-0x10],eax
10001e56:	8b 45 08             	mov    eax,DWORD PTR [ebp+0x8]
10001e59:	8b 40 10             	mov    eax,DWORD PTR [eax+0x10]
10001e5c:	83 ec 08             	sub    esp,0x8
10001e5f:	ff 75 f0             	push   DWORD PTR [ebp-0x10]
10001e62:	50                   	push   eax
10001e63:	e8 a9 06 00 00       	call   0x10002511
10001e68:	83 c4 10             	add    esp,0x10
10001e6b:	8b 45 ec             	mov    eax,DWORD PTR [ebp-0x14]
10001e6e:	8b 00                	mov    eax,DWORD PTR [eax]
10001e70:	85 c0                	test   eax,eax
10001e72:	75 cf                	jne    0x10001e43
10001e74:	83 ec 0c             	sub    esp,0xc
10001e77:	ff 75 ec             	push   DWORD PTR [ebp-0x14]
10001e7a:	e8 fd 78 00 00       	call   0x1000977c
10001e7f:	83 c4 10             	add    esp,0x10
10001e82:	c7 45 f4 00 00 00 00 	mov    DWORD PTR [ebp-0xc],0x0
10001e89:	8b 45 08             	mov    eax,DWORD PTR [ebp+0x8]
10001e8c:	8b 40 10             	mov    eax,DWORD PTR [eax+0x10]
10001e8f:	8b 10                	mov    edx,DWORD PTR [eax]
10001e91:	8b 45 f4             	mov    eax,DWORD PTR [ebp-0xc]
10001e94:	39 c2                	cmp    edx,eax
10001e96:	0f 87 0e ff ff ff    	ja     0x10001daa
10001e9c:	90                   	nop
10001e9d:	c9                   	leave  
10001e9e:	c3                   	ret    
10001e9f:	55                   	push   ebp
10001ea0:	89 e5                	mov    ebp,esp
10001ea2:	83 ec 08             	sub    esp,0x8
10001ea5:	83 ec 08             	sub    esp,0x8
10001ea8:	ff 75 0c             	push   DWORD PTR [ebp+0xc]
10001eab:	ff 75 08             	push   DWORD PTR [ebp+0x8]
10001eae:	e8 de fe ff ff       	call   0x10001d91
10001eb3:	83 c4 10             	add    esp,0x10
10001eb6:	8b 45 08             	mov    eax,DWORD PTR [ebp+0x8]
10001eb9:	8b 40 10             	mov    eax,DWORD PTR [eax+0x10]
10001ebc:	83 ec 08             	sub    esp,0x8
10001ebf:	ff 75 0c             	push   DWORD PTR [ebp+0xc]
10001ec2:	50                   	push   eax
10001ec3:	e8 49 06 00 00       	call   0x10002511
10001ec8:	83 c4 10             	add    esp,0x10
10001ecb:	90                   	nop
10001ecc:	c9                   	leave  
10001ecd:	c3                   	ret    
10001ece:	55                   	push   ebp
10001ecf:	89 e5                	mov    ebp,esp
10001ed1:	83 ec 18             	sub    esp,0x18
10001ed4:	8b 45 08             	mov    eax,DWORD PTR [ebp+0x8]
10001ed7:	c6 40 14 00          	mov    BYTE PTR [eax+0x14],0x0
10001edb:	eb 25                	jmp    0x10001f02
10001edd:	8b 45 08             	mov    eax,DWORD PTR [ebp+0x8]
10001ee0:	8b 40 10             	mov    eax,DWORD PTR [eax+0x10]
10001ee3:	83 ec 08             	sub    esp,0x8
10001ee6:	6a 00                	push   0x0
10001ee8:	50                   	push   eax
10001ee9:	e8 00 07 00 00       	call   0x100025ee
10001eee:	83 c4 10             	add    esp,0x10
10001ef1:	89 45 f4             	mov    DWORD PTR [ebp-0xc],eax
10001ef4:	83 ec 0c             	sub    esp,0xc
10001ef7:	ff 75 f4             	push   DWORD PTR [ebp-0xc]
10001efa:	e8 7d 78 00 00       	call   0x1000977c
10001eff:	83 c4 10             	add    esp,0x10
10001f02:	8b 45 08             	mov    eax,DWORD PTR [ebp+0x8]
10001f05:	8b 40 10             	mov    eax,DWORD PTR [eax+0x10]
10001f08:	8b 00                	mov    eax,DWORD PTR [eax]
10001f0a:	85 c0                	test   eax,eax
10001f0c:	75 cf                	jne    0x10001edd
10001f0e:	90                   	nop
10001f0f:	c9                   	leave  
10001f10:	c3                   	ret    
10001f11:	55                   	push   ebp
10001f12:	89 e5                	mov    ebp,esp
10001f14:	53                   	push   ebx
10001f15:	83 ec 20             	sub    esp,0x20
10001f18:	c7 45 f8 00 00 00 00 	mov    DWORD PTR [ebp-0x8],0x0
10001f1f:	e9 c9 00 00 00       	jmp    0x10001fed
10001f24:	8b 45 08             	mov    eax,DWORD PTR [ebp+0x8]
10001f27:	89 45 e4             	mov    DWORD PTR [ebp-0x1c],eax
10001f2a:	8b 45 10             	mov    eax,DWORD PTR [ebp+0x10]
10001f2d:	89 45 e0             	mov    DWORD PTR [ebp-0x20],eax
10001f30:	8b 45 e0             	mov    eax,DWORD PTR [ebp-0x20]
10001f33:	c1 f8 03             	sar    eax,0x3
10001f36:	89 c2                	mov    edx,eax
10001f38:	8b 45 e4             	mov    eax,DWORD PTR [ebp-0x1c]
10001f3b:	8a 44 10 15          	mov    al,BYTE PTR [eax+edx*1+0x15]
10001f3f:	88 c2                	mov    dl,al
10001f41:	8b 45 e0             	mov    eax,DWORD PTR [ebp-0x20]
10001f44:	83 e0 07             	and    eax,0x7
10001f47:	bb 01 00 00 00       	mov    ebx,0x1
10001f4c:	88 c1                	mov    cl,al
10001f4e:	d3 e3                	shl    ebx,cl
10001f50:	89 d8                	mov    eax,ebx
10001f52:	88 d1                	mov    cl,dl
10001f54:	09 c1                	or     ecx,eax
10001f56:	8b 45 e0             	mov    eax,DWORD PTR [ebp-0x20]
10001f59:	c1 f8 03             	sar    eax,0x3
10001f5c:	89 c2                	mov    edx,eax
10001f5e:	8b 45 e4             	mov    eax,DWORD PTR [ebp-0x1c]
10001f61:	88 4c 10 15          	mov    BYTE PTR [eax+edx*1+0x15],cl
10001f65:	8b 45 0c             	mov    eax,DWORD PTR [ebp+0xc]
10001f68:	89 45 f4             	mov    DWORD PTR [ebp-0xc],eax
10001f6b:	8b 55 18             	mov    edx,DWORD PTR [ebp+0x18]
10001f6e:	8b 45 f8             	mov    eax,DWORD PTR [ebp-0x8]
10001f71:	01 d0                	add    eax,edx
10001f73:	0f af 45 24          	imul   eax,DWORD PTR [ebp+0x24]
10001f77:	89 c2                	mov    edx,eax
10001f79:	8b 45 14             	mov    eax,DWORD PTR [ebp+0x14]
10001f7c:	01 d0                	add    eax,edx
10001f7e:	8d 14 85 00 00 00 00 	lea    edx,[eax*4+0x0]
10001f85:	8b 45 28             	mov    eax,DWORD PTR [ebp+0x28]
10001f88:	01 d0                	add    eax,edx
10001f8a:	89 45 f0             	mov    DWORD PTR [ebp-0x10],eax
10001f8d:	c7 45 ec 00 00 00 00 	mov    DWORD PTR [ebp-0x14],0x0
10001f94:	eb 49                	jmp    0x10001fdf
10001f96:	8b 45 f0             	mov    eax,DWORD PTR [ebp-0x10]
10001f99:	8d 50 04             	lea    edx,[eax+0x4]
10001f9c:	89 55 f0             	mov    DWORD PTR [ebp-0x10],edx
10001f9f:	8b 00                	mov    eax,DWORD PTR [eax]
10001fa1:	89 45 e8             	mov    DWORD PTR [ebp-0x18],eax
10001fa4:	83 7d e8 00          	cmp    DWORD PTR [ebp-0x18],0x0
10001fa8:	74 2f                	je     0x10001fd9
10001faa:	83 7d e8 00          	cmp    DWORD PTR [ebp-0x18],0x0
10001fae:	74 29                	je     0x10001fd9
10001fb0:	8b 45 08             	mov    eax,DWORD PTR [ebp+0x8]
10001fb3:	8b 10                	mov    edx,DWORD PTR [eax]
10001fb5:	8b 45 08             	mov    eax,DWORD PTR [ebp+0x8]
10001fb8:	8b 40 04             	mov    eax,DWORD PTR [eax+0x4]
10001fbb:	0f b7 c0             	movzx  eax,ax
10001fbe:	0f af 45 10          	imul   eax,DWORD PTR [ebp+0x10]
10001fc2:	89 c1                	mov    ecx,eax
10001fc4:	8b 45 f4             	mov    eax,DWORD PTR [ebp-0xc]
10001fc7:	01 c8                	add    eax,ecx
10001fc9:	c1 e0 02             	shl    eax,0x2
10001fcc:	01 d0                	add    eax,edx
10001fce:	8b 55 e8             	mov    edx,DWORD PTR [ebp-0x18]
10001fd1:	81 e2 ff ff ff 00    	and    edx,0xffffff
10001fd7:	89 10                	mov    DWORD PTR [eax],edx
10001fd9:	ff 45 f4             	inc    DWORD PTR [ebp-0xc]
10001fdc:	ff 45 ec             	inc    DWORD PTR [ebp-0x14]
10001fdf:	8b 45 ec             	mov    eax,DWORD PTR [ebp-0x14]
10001fe2:	3b 45 1c             	cmp    eax,DWORD PTR [ebp+0x1c]
10001fe5:	7c af                	jl     0x10001f96
10001fe7:	ff 45 10             	inc    DWORD PTR [ebp+0x10]
10001fea:	ff 45 f8             	inc    DWORD PTR [ebp-0x8]
10001fed:	8b 45 f8             	mov    eax,DWORD PTR [ebp-0x8]
10001ff0:	3b 45 20             	cmp    eax,DWORD PTR [ebp+0x20]
10001ff3:	0f 8c 2b ff ff ff    	jl     0x10001f24
10001ff9:	90                   	nop
10001ffa:	83 c4 20             	add    esp,0x20
10001ffd:	5b                   	pop    ebx
10001ffe:	5d                   	pop    ebp
10001fff:	c3                   	ret    
10002000:	55                   	push   ebp
10002001:	89 e5                	mov    ebp,esp
10002003:	56                   	push   esi
10002004:	53                   	push   ebx
10002005:	83 ec 10             	sub    esp,0x10
10002008:	c7 45 f4 00 00 00 00 	mov    DWORD PTR [ebp-0xc],0x0
1000200f:	c7 45 f0 00 00 00 00 	mov    DWORD PTR [ebp-0x10],0x0
10002016:	8b 45 18             	mov    eax,DWORD PTR [ebp+0x18]
10002019:	89 45 ec             	mov    DWORD PTR [ebp-0x14],eax
1000201c:	8b 45 1c             	mov    eax,DWORD PTR [ebp+0x1c]
1000201f:	89 45 e8             	mov    DWORD PTR [ebp-0x18],eax
10002022:	8b 45 08             	mov    eax,DWORD PTR [ebp+0x8]
10002025:	8b 40 08             	mov    eax,DWORD PTR [eax+0x8]
10002028:	01 45 10             	add    DWORD PTR [ebp+0x10],eax
1000202b:	8b 45 08             	mov    eax,DWORD PTR [ebp+0x8]
1000202e:	8b 40 0c             	mov    eax,DWORD PTR [eax+0xc]
10002031:	01 45 14             	add    DWORD PTR [ebp+0x14],eax
10002034:	8b 45 20             	mov    eax,DWORD PTR [ebp+0x20]
10002037:	8b 40 0c             	mov    eax,DWORD PTR [eax+0xc]
1000203a:	39 45 10             	cmp    DWORD PTR [ebp+0x10],eax
1000203d:	0f 8f df 00 00 00    	jg     0x10002122
10002043:	8b 55 10             	mov    edx,DWORD PTR [ebp+0x10]
10002046:	8b 45 ec             	mov    eax,DWORD PTR [ebp-0x14]
10002049:	01 c2                	add    edx,eax
1000204b:	8b 45 20             	mov    eax,DWORD PTR [ebp+0x20]
1000204e:	8b 40 04             	mov    eax,DWORD PTR [eax+0x4]
10002051:	39 c2                	cmp    edx,eax
10002053:	0f 8e c9 00 00 00    	jle    0x10002122
10002059:	8b 45 20             	mov    eax,DWORD PTR [ebp+0x20]
1000205c:	8b 40 08             	mov    eax,DWORD PTR [eax+0x8]
1000205f:	39 45 14             	cmp    DWORD PTR [ebp+0x14],eax
10002062:	0f 8f ba 00 00 00    	jg     0x10002122
10002068:	8b 55 14             	mov    edx,DWORD PTR [ebp+0x14]
1000206b:	8b 45 e8             	mov    eax,DWORD PTR [ebp-0x18]
1000206e:	01 c2                	add    edx,eax
10002070:	8b 45 20             	mov    eax,DWORD PTR [ebp+0x20]
10002073:	8b 00                	mov    eax,DWORD PTR [eax]
10002075:	39 c2                	cmp    edx,eax
10002077:	0f 8e a5 00 00 00    	jle    0x10002122
1000207d:	8b 45 20             	mov    eax,DWORD PTR [ebp+0x20]
10002080:	8b 40 04             	mov    eax,DWORD PTR [eax+0x4]
10002083:	39 45 10             	cmp    DWORD PTR [ebp+0x10],eax
10002086:	7d 0c                	jge    0x10002094
10002088:	8b 45 20             	mov    eax,DWORD PTR [ebp+0x20]
1000208b:	8b 40 04             	mov    eax,DWORD PTR [eax+0x4]
1000208e:	2b 45 10             	sub    eax,DWORD PTR [ebp+0x10]
10002091:	89 45 f4             	mov    DWORD PTR [ebp-0xc],eax
10002094:	8b 55 10             	mov    edx,DWORD PTR [ebp+0x10]
10002097:	8b 45 ec             	mov    eax,DWORD PTR [ebp-0x14]
1000209a:	01 c2                	add    edx,eax
1000209c:	8b 45 20             	mov    eax,DWORD PTR [ebp+0x20]
1000209f:	8b 40 0c             	mov    eax,DWORD PTR [eax+0xc]
100020a2:	39 c2                	cmp    edx,eax
100020a4:	7e 0d                	jle    0x100020b3
100020a6:	8b 45 20             	mov    eax,DWORD PTR [ebp+0x20]
100020a9:	8b 40 0c             	mov    eax,DWORD PTR [eax+0xc]
100020ac:	2b 45 10             	sub    eax,DWORD PTR [ebp+0x10]
100020af:	40                   	inc    eax
100020b0:	89 45 ec             	mov    DWORD PTR [ebp-0x14],eax
100020b3:	8b 45 20             	mov    eax,DWORD PTR [ebp+0x20]
100020b6:	8b 00                	mov    eax,DWORD PTR [eax]
100020b8:	39 45 14             	cmp    DWORD PTR [ebp+0x14],eax
100020bb:	7d 0b                	jge    0x100020c8
100020bd:	8b 45 20             	mov    eax,DWORD PTR [ebp+0x20]
100020c0:	8b 00                	mov    eax,DWORD PTR [eax]
100020c2:	2b 45 14             	sub    eax,DWORD PTR [ebp+0x14]
100020c5:	89 45 f0             	mov    DWORD PTR [ebp-0x10],eax
100020c8:	8b 55 14             	mov    edx,DWORD PTR [ebp+0x14]
100020cb:	8b 45 e8             	mov    eax,DWORD PTR [ebp-0x18]
100020ce:	01 c2                	add    edx,eax
100020d0:	8b 45 20             	mov    eax,DWORD PTR [ebp+0x20]
100020d3:	8b 40 08             	mov    eax,DWORD PTR [eax+0x8]
100020d6:	39 c2                	cmp    edx,eax
100020d8:	7e 0d                	jle    0x100020e7
100020da:	8b 45 20             	mov    eax,DWORD PTR [ebp+0x20]
100020dd:	8b 40 08             	mov    eax,DWORD PTR [eax+0x8]
100020e0:	2b 45 14             	sub    eax,DWORD PTR [ebp+0x14]
100020e3:	40                   	inc    eax
100020e4:	89 45 e8             	mov    DWORD PTR [ebp-0x18],eax
100020e7:	8b 45 e8             	mov    eax,DWORD PTR [ebp-0x18]
100020ea:	2b 45 f0             	sub    eax,DWORD PTR [ebp-0x10]
100020ed:	89 c2                	mov    edx,eax
100020ef:	8b 45 ec             	mov    eax,DWORD PTR [ebp-0x14]
100020f2:	2b 45 f4             	sub    eax,DWORD PTR [ebp-0xc]
100020f5:	8b 5d 14             	mov    ebx,DWORD PTR [ebp+0x14]
100020f8:	8b 4d f0             	mov    ecx,DWORD PTR [ebp-0x10]
100020fb:	01 cb                	add    ebx,ecx
100020fd:	8b 75 10             	mov    esi,DWORD PTR [ebp+0x10]
10002100:	8b 4d f4             	mov    ecx,DWORD PTR [ebp-0xc]
10002103:	01 f1                	add    ecx,esi
10002105:	ff 75 0c             	push   DWORD PTR [ebp+0xc]
10002108:	ff 75 18             	push   DWORD PTR [ebp+0x18]
1000210b:	52                   	push   edx
1000210c:	50                   	push   eax
1000210d:	ff 75 f0             	push   DWORD PTR [ebp-0x10]
10002110:	ff 75 f4             	push   DWORD PTR [ebp-0xc]
10002113:	53                   	push   ebx
10002114:	51                   	push   ecx
10002115:	ff 75 08             	push   DWORD PTR [ebp+0x8]
10002118:	e8 f4 fd ff ff       	call   0x10001f11
1000211d:	83 c4 24             	add    esp,0x24
10002120:	eb 01                	jmp    0x10002123
10002122:	90                   	nop
10002123:	8d 65 f8             	lea    esp,[ebp-0x8]
10002126:	5b                   	pop    ebx
10002127:	5e                   	pop    esi
10002128:	5d                   	pop    ebp
10002129:	c3                   	ret    
1000212a:	55                   	push   ebp
1000212b:	89 e5                	mov    ebp,esp
1000212d:	53                   	push   ebx
1000212e:	83 ec 34             	sub    esp,0x34
10002131:	8b 45 0c             	mov    eax,DWORD PTR [ebp+0xc]
10002134:	88 45 c8             	mov    BYTE PTR [ebp-0x38],al
10002137:	c7 45 f0 00 00 00 00 	mov    DWORD PTR [ebp-0x10],0x0
1000213e:	c7 45 ec 00 00 00 00 	mov    DWORD PTR [ebp-0x14],0x0
10002145:	c7 45 e8 08 00 00 00 	mov    DWORD PTR [ebp-0x18],0x8
1000214c:	c7 45 e4 0c 00 00 00 	mov    DWORD PTR [ebp-0x1c],0xc
10002153:	8b 45 08             	mov    eax,DWORD PTR [ebp+0x8]
10002156:	8b 40 08             	mov    eax,DWORD PTR [eax+0x8]
10002159:	01 45 10             	add    DWORD PTR [ebp+0x10],eax
1000215c:	8b 45 08             	mov    eax,DWORD PTR [ebp+0x8]
1000215f:	8b 40 0c             	mov    eax,DWORD PTR [eax+0xc]
10002162:	01 45 14             	add    DWORD PTR [ebp+0x14],eax
10002165:	80 65 c8 7f          	and    BYTE PTR [ebp-0x38],0x7f
10002169:	8b 45 1c             	mov    eax,DWORD PTR [ebp+0x1c]
1000216c:	8b 40 0c             	mov    eax,DWORD PTR [eax+0xc]
1000216f:	39 45 10             	cmp    DWORD PTR [ebp+0x10],eax
10002172:	0f 8f 6f 01 00 00    	jg     0x100022e7
10002178:	8b 45 10             	mov    eax,DWORD PTR [ebp+0x10]
1000217b:	8d 50 07             	lea    edx,[eax+0x7]
1000217e:	8b 45 1c             	mov    eax,DWORD PTR [ebp+0x1c]
10002181:	8b 40 04             	mov    eax,DWORD PTR [eax+0x4]
10002184:	39 c2                	cmp    edx,eax
10002186:	0f 8c 5b 01 00 00    	jl     0x100022e7
1000218c:	8b 45 1c             	mov    eax,DWORD PTR [ebp+0x1c]
1000218f:	8b 40 08             	mov    eax,DWORD PTR [eax+0x8]
10002192:	39 45 14             	cmp    DWORD PTR [ebp+0x14],eax
10002195:	0f 8f 4c 01 00 00    	jg     0x100022e7
1000219b:	8b 45 14             	mov    eax,DWORD PTR [ebp+0x14]
1000219e:	8d 50 0b             	lea    edx,[eax+0xb]
100021a1:	8b 45 1c             	mov    eax,DWORD PTR [ebp+0x1c]
100021a4:	8b 00                	mov    eax,DWORD PTR [eax]
100021a6:	39 c2                	cmp    edx,eax
100021a8:	0f 8c 39 01 00 00    	jl     0x100022e7
100021ae:	8b 45 1c             	mov    eax,DWORD PTR [ebp+0x1c]
100021b1:	8b 40 04             	mov    eax,DWORD PTR [eax+0x4]
100021b4:	39 45 10             	cmp    DWORD PTR [ebp+0x10],eax
100021b7:	7d 0c                	jge    0x100021c5
100021b9:	8b 45 1c             	mov    eax,DWORD PTR [ebp+0x1c]
100021bc:	8b 40 04             	mov    eax,DWORD PTR [eax+0x4]
100021bf:	2b 45 10             	sub    eax,DWORD PTR [ebp+0x10]
100021c2:	89 45 f0             	mov    DWORD PTR [ebp-0x10],eax
100021c5:	8b 45 10             	mov    eax,DWORD PTR [ebp+0x10]
100021c8:	8d 50 07             	lea    edx,[eax+0x7]
100021cb:	8b 45 1c             	mov    eax,DWORD PTR [ebp+0x1c]
100021ce:	8b 40 0c             	mov    eax,DWORD PTR [eax+0xc]
100021d1:	39 c2                	cmp    edx,eax
100021d3:	7c 0d                	jl     0x100021e2
100021d5:	8b 45 1c             	mov    eax,DWORD PTR [ebp+0x1c]
100021d8:	8b 40 0c             	mov    eax,DWORD PTR [eax+0xc]
100021db:	2b 45 10             	sub    eax,DWORD PTR [ebp+0x10]
100021de:	40                   	inc    eax
100021df:	89 45 e8             	mov    DWORD PTR [ebp-0x18],eax
100021e2:	8b 45 1c             	mov    eax,DWORD PTR [ebp+0x1c]
100021e5:	8b 00                	mov    eax,DWORD PTR [eax]
100021e7:	39 45 14             	cmp    DWORD PTR [ebp+0x14],eax
100021ea:	7d 0b                	jge    0x100021f7
100021ec:	8b 45 1c             	mov    eax,DWORD PTR [ebp+0x1c]
100021ef:	8b 00                	mov    eax,DWORD PTR [eax]
100021f1:	2b 45 14             	sub    eax,DWORD PTR [ebp+0x14]
100021f4:	89 45 ec             	mov    DWORD PTR [ebp-0x14],eax
100021f7:	8b 45 14             	mov    eax,DWORD PTR [ebp+0x14]
100021fa:	8d 50 0b             	lea    edx,[eax+0xb]
100021fd:	8b 45 1c             	mov    eax,DWORD PTR [ebp+0x1c]
10002200:	8b 40 08             	mov    eax,DWORD PTR [eax+0x8]
10002203:	39 c2                	cmp    edx,eax
10002205:	7c 0d                	jl     0x10002214
10002207:	8b 45 1c             	mov    eax,DWORD PTR [ebp+0x1c]
1000220a:	8b 40 08             	mov    eax,DWORD PTR [eax+0x8]
1000220d:	2b 45 14             	sub    eax,DWORD PTR [ebp+0x14]
10002210:	40                   	inc    eax
10002211:	89 45 e4             	mov    DWORD PTR [ebp-0x1c],eax
10002214:	8b 45 ec             	mov    eax,DWORD PTR [ebp-0x14]
10002217:	89 45 f4             	mov    DWORD PTR [ebp-0xc],eax
1000221a:	e9 ba 00 00 00       	jmp    0x100022d9
1000221f:	8b 55 f4             	mov    edx,DWORD PTR [ebp-0xc]
10002222:	8b 45 14             	mov    eax,DWORD PTR [ebp+0x14]
10002225:	01 c2                	add    edx,eax
10002227:	8b 45 08             	mov    eax,DWORD PTR [ebp+0x8]
1000222a:	89 45 dc             	mov    DWORD PTR [ebp-0x24],eax
1000222d:	89 55 d8             	mov    DWORD PTR [ebp-0x28],edx
10002230:	8b 45 d8             	mov    eax,DWORD PTR [ebp-0x28]
10002233:	c1 f8 03             	sar    eax,0x3
10002236:	89 c2                	mov    edx,eax
10002238:	8b 45 dc             	mov    eax,DWORD PTR [ebp-0x24]
1000223b:	8a 44 10 15          	mov    al,BYTE PTR [eax+edx*1+0x15]
1000223f:	88 c2                	mov    dl,al
10002241:	8b 45 d8             	mov    eax,DWORD PTR [ebp-0x28]
10002244:	83 e0 07             	and    eax,0x7
10002247:	bb 01 00 00 00       	mov    ebx,0x1
1000224c:	88 c1                	mov    cl,al
1000224e:	d3 e3                	shl    ebx,cl
10002250:	89 d8                	mov    eax,ebx
10002252:	88 d1                	mov    cl,dl
10002254:	09 c1                	or     ecx,eax
10002256:	8b 45 d8             	mov    eax,DWORD PTR [ebp-0x28]
10002259:	c1 f8 03             	sar    eax,0x3
1000225c:	89 c2                	mov    edx,eax
1000225e:	8b 45 dc             	mov    eax,DWORD PTR [ebp-0x24]
10002261:	88 4c 10 15          	mov    BYTE PTR [eax+edx*1+0x15],cl
10002265:	8b 45 f4             	mov    eax,DWORD PTR [ebp-0xc]
10002268:	c1 e0 07             	shl    eax,0x7
1000226b:	89 c2                	mov    edx,eax
1000226d:	0f be 45 c8          	movsx  eax,BYTE PTR [ebp-0x38]
10002271:	01 d0                	add    eax,edx
10002273:	8a 80 20 80 01 10    	mov    al,BYTE PTR [eax+0x10018020]
10002279:	88 45 e3             	mov    BYTE PTR [ebp-0x1d],al
1000227c:	0f b6 55 e3          	movzx  edx,BYTE PTR [ebp-0x1d]
10002280:	8b 45 f0             	mov    eax,DWORD PTR [ebp-0x10]
10002283:	88 c1                	mov    cl,al
10002285:	d3 e2                	shl    edx,cl
10002287:	89 d0                	mov    eax,edx
10002289:	88 45 e3             	mov    BYTE PTR [ebp-0x1d],al
1000228c:	8b 45 f0             	mov    eax,DWORD PTR [ebp-0x10]
1000228f:	89 45 f8             	mov    DWORD PTR [ebp-0x8],eax
10002292:	eb 3a                	jmp    0x100022ce
10002294:	8a 45 e3             	mov    al,BYTE PTR [ebp-0x1d]
10002297:	84 c0                	test   al,al
10002299:	79 2d                	jns    0x100022c8
1000229b:	8b 45 08             	mov    eax,DWORD PTR [ebp+0x8]
1000229e:	8b 10                	mov    edx,DWORD PTR [eax]
100022a0:	8b 4d f4             	mov    ecx,DWORD PTR [ebp-0xc]
100022a3:	8b 45 14             	mov    eax,DWORD PTR [ebp+0x14]
100022a6:	01 c1                	add    ecx,eax
100022a8:	8b 45 08             	mov    eax,DWORD PTR [ebp+0x8]
100022ab:	8b 40 04             	mov    eax,DWORD PTR [eax+0x4]
100022ae:	0f b7 c0             	movzx  eax,ax
100022b1:	0f af c1             	imul   eax,ecx
100022b4:	8b 5d f8             	mov    ebx,DWORD PTR [ebp-0x8]
100022b7:	8b 4d 10             	mov    ecx,DWORD PTR [ebp+0x10]
100022ba:	01 d9                	add    ecx,ebx
100022bc:	01 c8                	add    eax,ecx
100022be:	c1 e0 02             	shl    eax,0x2
100022c1:	01 c2                	add    edx,eax
100022c3:	8b 45 18             	mov    eax,DWORD PTR [ebp+0x18]
100022c6:	89 02                	mov    DWORD PTR [edx],eax
100022c8:	d0 65 e3             	shl    BYTE PTR [ebp-0x1d],1
100022cb:	ff 45 f8             	inc    DWORD PTR [ebp-0x8]
100022ce:	8b 45 f8             	mov    eax,DWORD PTR [ebp-0x8]
100022d1:	3b 45 e8             	cmp    eax,DWORD PTR [ebp-0x18]
100022d4:	7c be                	jl     0x10002294
100022d6:	ff 45 f4             	inc    DWORD PTR [ebp-0xc]
100022d9:	8b 45 f4             	mov    eax,DWORD PTR [ebp-0xc]
100022dc:	3b 45 e4             	cmp    eax,DWORD PTR [ebp-0x1c]
100022df:	0f 8c 3a ff ff ff    	jl     0x1000221f
100022e5:	eb 01                	jmp    0x100022e8
100022e7:	90                   	nop
100022e8:	83 c4 34             	add    esp,0x34
100022eb:	5b                   	pop    ebx
100022ec:	5d                   	pop    ebp
100022ed:	c3                   	ret    
100022ee:	55                   	push   ebp
100022ef:	89 e5                	mov    ebp,esp
100022f1:	83 ec 38             	sub    esp,0x38
100022f4:	8b 45 0c             	mov    eax,DWORD PTR [ebp+0xc]
100022f7:	88 45 d4             	mov    BYTE PTR [ebp-0x2c],al
100022fa:	8b 45 08             	mov    eax,DWORD PTR [ebp+0x8]
100022fd:	8b 40 10             	mov    eax,DWORD PTR [eax+0x10]
10002300:	8b 00                	mov    eax,DWORD PTR [eax]
10002302:	85 c0                	test   eax,eax
10002304:	74 55                	je     0x1000235b
10002306:	c7 45 f4 00 00 00 00 	mov    DWORD PTR [ebp-0xc],0x0
1000230d:	eb 3b                	jmp    0x1000234a
1000230f:	8b 55 f4             	mov    edx,DWORD PTR [ebp-0xc]
10002312:	8b 45 08             	mov    eax,DWORD PTR [ebp+0x8]
10002315:	8b 40 10             	mov    eax,DWORD PTR [eax+0x10]
10002318:	83 ec 08             	sub    esp,0x8
1000231b:	52                   	push   edx
1000231c:	50                   	push   eax
1000231d:	e8 6c 02 00 00       	call   0x1000258e
10002322:	83 c4 10             	add    esp,0x10
10002325:	89 45 f0             	mov    DWORD PTR [ebp-0x10],eax
10002328:	0f be 45 d4          	movsx  eax,BYTE PTR [ebp-0x2c]
1000232c:	83 ec 08             	sub    esp,0x8
1000232f:	ff 75 f0             	push   DWORD PTR [ebp-0x10]
10002332:	ff 75 18             	push   DWORD PTR [ebp+0x18]
10002335:	ff 75 14             	push   DWORD PTR [ebp+0x14]
10002338:	ff 75 10             	push   DWORD PTR [ebp+0x10]
1000233b:	50                   	push   eax
1000233c:	ff 75 08             	push   DWORD PTR [ebp+0x8]
1000233f:	e8 e6 fd ff ff       	call   0x1000212a
10002344:	83 c4 20             	add    esp,0x20
10002347:	ff 45 f4             	inc    DWORD PTR [ebp-0xc]
1000234a:	8b 45 08             	mov    eax,DWORD PTR [ebp+0x8]
1000234d:	8b 40 10             	mov    eax,DWORD PTR [eax+0x10]
10002350:	8b 10                	mov    edx,DWORD PTR [eax]
10002352:	8b 45 f4             	mov    eax,DWORD PTR [ebp-0xc]
10002355:	39 c2                	cmp    edx,eax
10002357:	77 b6                	ja     0x1000230f
10002359:	eb 53                	jmp    0x100023ae
1000235b:	8b 45 08             	mov    eax,DWORD PTR [ebp+0x8]
1000235e:	8a 40 14             	mov    al,BYTE PTR [eax+0x14]
10002361:	84 c0                	test   al,al
10002363:	75 49                	jne    0x100023ae
10002365:	c7 45 e0 00 00 00 00 	mov    DWORD PTR [ebp-0x20],0x0
1000236c:	c7 45 e4 00 00 00 00 	mov    DWORD PTR [ebp-0x1c],0x0
10002373:	8b 45 08             	mov    eax,DWORD PTR [ebp+0x8]
10002376:	66 8b 40 06          	mov    ax,WORD PTR [eax+0x6]
1000237a:	0f b7 c0             	movzx  eax,ax
1000237d:	48                   	dec    eax
1000237e:	89 45 e8             	mov    DWORD PTR [ebp-0x18],eax
10002381:	8b 45 08             	mov    eax,DWORD PTR [ebp+0x8]
10002384:	8b 40 04             	mov    eax,DWORD PTR [eax+0x4]
10002387:	0f b7 c0             	movzx  eax,ax
1000238a:	48                   	dec    eax
1000238b:	89 45 ec             	mov    DWORD PTR [ebp-0x14],eax
1000238e:	0f be 45 d4          	movsx  eax,BYTE PTR [ebp-0x2c]
10002392:	83 ec 08             	sub    esp,0x8
10002395:	8d 55 e0             	lea    edx,[ebp-0x20]
10002398:	52                   	push   edx
10002399:	ff 75 18             	push   DWORD PTR [ebp+0x18]
1000239c:	ff 75 14             	push   DWORD PTR [ebp+0x14]
1000239f:	ff 75 10             	push   DWORD PTR [ebp+0x10]
100023a2:	50                   	push   eax
100023a3:	ff 75 08             	push   DWORD PTR [ebp+0x8]
100023a6:	e8 7f fd ff ff       	call   0x1000212a
100023ab:	83 c4 20             	add    esp,0x20
100023ae:	90                   	nop
100023af:	c9                   	leave  
100023b0:	c3                   	ret    
100023b1:	55                   	push   ebp
100023b2:	89 e5                	mov    ebp,esp
100023b4:	83 ec 28             	sub    esp,0x28
100023b7:	8b 45 08             	mov    eax,DWORD PTR [ebp+0x8]
100023ba:	8b 40 10             	mov    eax,DWORD PTR [eax+0x10]
100023bd:	8b 00                	mov    eax,DWORD PTR [eax]
100023bf:	85 c0                	test   eax,eax
100023c1:	74 56                	je     0x10002419
100023c3:	c7 45 f4 00 00 00 00 	mov    DWORD PTR [ebp-0xc],0x0
100023ca:	eb 3c                	jmp    0x10002408
100023cc:	8b 55 f4             	mov    edx,DWORD PTR [ebp-0xc]
100023cf:	8b 45 08             	mov    eax,DWORD PTR [ebp+0x8]
100023d2:	8b 40 10             	mov    eax,DWORD PTR [eax+0x10]
100023d5:	83 ec 08             	sub    esp,0x8
100023d8:	52                   	push   edx
100023d9:	50                   	push   eax
100023da:	e8 af 01 00 00       	call   0x1000258e
100023df:	83 c4 10             	add    esp,0x10
100023e2:	89 45 f0             	mov    DWORD PTR [ebp-0x10],eax
100023e5:	83 ec 04             	sub    esp,0x4
100023e8:	ff 75 f0             	push   DWORD PTR [ebp-0x10]
100023eb:	ff 75 1c             	push   DWORD PTR [ebp+0x1c]
100023ee:	ff 75 18             	push   DWORD PTR [ebp+0x18]
100023f1:	ff 75 14             	push   DWORD PTR [ebp+0x14]
100023f4:	ff 75 10             	push   DWORD PTR [ebp+0x10]
100023f7:	ff 75 0c             	push   DWORD PTR [ebp+0xc]
100023fa:	ff 75 08             	push   DWORD PTR [ebp+0x8]
100023fd:	e8 fe fb ff ff       	call   0x10002000
10002402:	83 c4 20             	add    esp,0x20
10002405:	ff 45 f4             	inc    DWORD PTR [ebp-0xc]
10002408:	8b 45 08             	mov    eax,DWORD PTR [ebp+0x8]
1000240b:	8b 40 10             	mov    eax,DWORD PTR [eax+0x10]
1000240e:	8b 10                	mov    edx,DWORD PTR [eax]
10002410:	8b 45 f4             	mov    eax,DWORD PTR [ebp-0xc]
10002413:	39 c2                	cmp    edx,eax
10002415:	77 b5                	ja     0x100023cc
10002417:	eb 54                	jmp    0x1000246d
10002419:	8b 45 08             	mov    eax,DWORD PTR [ebp+0x8]
1000241c:	8a 40 14             	mov    al,BYTE PTR [eax+0x14]
1000241f:	84 c0                	test   al,al
10002421:	75 4a                	jne    0x1000246d
10002423:	c7 45 e0 00 00 00 00 	mov    DWORD PTR [ebp-0x20],0x0
1000242a:	c7 45 e4 00 00 00 00 	mov    DWORD PTR [ebp-0x1c],0x0
10002431:	8b 45 08             	mov    eax,DWORD PTR [ebp+0x8]
10002434:	66 8b 40 06          	mov    ax,WORD PTR [eax+0x6]
10002438:	0f b7 c0             	movzx  eax,ax
1000243b:	48                   	dec    eax
1000243c:	89 45 e8             	mov    DWORD PTR [ebp-0x18],eax
1000243f:	8b 45 08             	mov    eax,DWORD PTR [ebp+0x8]
10002442:	8b 40 04             	mov    eax,DWORD PTR [eax+0x4]
10002445:	0f b7 c0             	movzx  eax,ax
10002448:	48                   	dec    eax
10002449:	89 45 ec             	mov    DWORD PTR [ebp-0x14],eax
1000244c:	83 ec 04             	sub    esp,0x4
1000244f:	8d 45 e0             	lea    eax,[ebp-0x20]
10002452:	50                   	push   eax
10002453:	ff 75 1c             	push   DWORD PTR [ebp+0x1c]
10002456:	ff 75 18             	push   DWORD PTR [ebp+0x18]
10002459:	ff 75 14             	push   DWORD PTR [ebp+0x14]
1000245c:	ff 75 10             	push   DWORD PTR [ebp+0x10]
1000245f:	ff 75 0c             	push   DWORD PTR [ebp+0xc]
10002462:	ff 75 08             	push   DWORD PTR [ebp+0x8]
10002465:	e8 96 fb ff ff       	call   0x10002000
1000246a:	83 c4 20             	add    esp,0x20
1000246d:	90                   	nop
1000246e:	c9                   	leave  
1000246f:	c3                   	ret    
10002470:	55                   	push   ebp
10002471:	89 e5                	mov    ebp,esp
10002473:	83 ec 08             	sub    esp,0x8
10002476:	eb 2a                	jmp    0x100024a2
10002478:	8b 45 0c             	mov    eax,DWORD PTR [ebp+0xc]
1000247b:	8d 50 01             	lea    edx,[eax+0x1]
1000247e:	89 55 0c             	mov    DWORD PTR [ebp+0xc],edx
10002481:	8a 00                	mov    al,BYTE PTR [eax]
10002483:	0f be c0             	movsx  eax,al
10002486:	83 ec 0c             	sub    esp,0xc
10002489:	ff 75 18             	push   DWORD PTR [ebp+0x18]
1000248c:	ff 75 14             	push   DWORD PTR [ebp+0x14]
1000248f:	ff 75 10             	push   DWORD PTR [ebp+0x10]
10002492:	50                   	push   eax
10002493:	ff 75 08             	push   DWORD PTR [ebp+0x8]
10002496:	e8 53 fe ff ff       	call   0x100022ee
1000249b:	83 c4 20             	add    esp,0x20
1000249e:	83 45 10 08          	add    DWORD PTR [ebp+0x10],0x8
100024a2:	8b 45 0c             	mov    eax,DWORD PTR [ebp+0xc]
100024a5:	8a 00                	mov    al,BYTE PTR [eax]
100024a7:	84 c0                	test   al,al
100024a9:	75 cd                	jne    0x10002478
100024ab:	90                   	nop
100024ac:	c9                   	leave  
100024ad:	c3                   	ret    
100024ae:	55                   	push   ebp
100024af:	89 e5                	mov    ebp,esp
100024b1:	83 ec 08             	sub    esp,0x8
100024b4:	83 ec 0c             	sub    esp,0xc
100024b7:	ff 75 0c             	push   DWORD PTR [ebp+0xc]
100024ba:	e8 b1 87 00 00       	call   0x1000ac70
100024bf:	83 c4 10             	add    esp,0x10
100024c2:	c1 e0 03             	shl    eax,0x3
100024c5:	89 c2                	mov    edx,eax
100024c7:	8b 45 10             	mov    eax,DWORD PTR [ebp+0x10]
100024ca:	89 10                	mov    DWORD PTR [eax],edx
100024cc:	8b 45 14             	mov    eax,DWORD PTR [ebp+0x14]
100024cf:	c7 00 0c 00 00 00    	mov    DWORD PTR [eax],0xc
100024d5:	90                   	nop
100024d6:	c9                   	leave  
100024d7:	c3                   	ret    
100024d8:	55                   	push   ebp
100024d9:	89 e5                	mov    ebp,esp
100024db:	83 ec 18             	sub    esp,0x18
100024de:	83 ec 0c             	sub    esp,0xc
100024e1:	6a 08                	push   0x8
100024e3:	e8 7c 72 00 00       	call   0x10009764
100024e8:	83 c4 10             	add    esp,0x10
100024eb:	89 45 f4             	mov    DWORD PTR [ebp-0xc],eax
100024ee:	83 7d f4 00          	cmp    DWORD PTR [ebp-0xc],0x0
100024f2:	75 05                	jne    0x100024f9
100024f4:	8b 45 f4             	mov    eax,DWORD PTR [ebp-0xc]
100024f7:	eb 16                	jmp    0x1000250f
100024f9:	8b 45 f4             	mov    eax,DWORD PTR [ebp-0xc]
100024fc:	c7 00 00 00 00 00    	mov    DWORD PTR [eax],0x0
10002502:	8b 45 f4             	mov    eax,DWORD PTR [ebp-0xc]
10002505:	c7 40 04 00 00 00 00 	mov    DWORD PTR [eax+0x4],0x0
1000250c:	8b 45 f4             	mov    eax,DWORD PTR [ebp-0xc]
1000250f:	c9                   	leave  
10002510:	c3                   	ret    
10002511:	55                   	push   ebp
10002512:	89 e5                	mov    ebp,esp
10002514:	83 ec 18             	sub    esp,0x18
10002517:	83 ec 0c             	sub    esp,0xc
1000251a:	ff 75 0c             	push   DWORD PTR [ebp+0xc]
1000251d:	e8 94 01 00 00       	call   0x100026b6
10002522:	83 c4 10             	add    esp,0x10
10002525:	89 45 f0             	mov    DWORD PTR [ebp-0x10],eax
10002528:	83 7d f0 00          	cmp    DWORD PTR [ebp-0x10],0x0
1000252c:	75 07                	jne    0x10002535
1000252e:	b8 00 00 00 00       	mov    eax,0x0
10002533:	eb 57                	jmp    0x1000258c
10002535:	8b 45 08             	mov    eax,DWORD PTR [ebp+0x8]
10002538:	8b 40 04             	mov    eax,DWORD PTR [eax+0x4]
1000253b:	85 c0                	test   eax,eax
1000253d:	75 0b                	jne    0x1000254a
1000253f:	8b 45 08             	mov    eax,DWORD PTR [ebp+0x8]
10002542:	8b 55 f0             	mov    edx,DWORD PTR [ebp-0x10]
10002545:	89 50 04             	mov    DWORD PTR [eax+0x4],edx
10002548:	eb 30                	jmp    0x1000257a
1000254a:	8b 45 08             	mov    eax,DWORD PTR [ebp+0x8]
1000254d:	8b 40 04             	mov    eax,DWORD PTR [eax+0x4]
10002550:	89 45 f4             	mov    DWORD PTR [ebp-0xc],eax
10002553:	eb 09                	jmp    0x1000255e
10002555:	8b 45 f4             	mov    eax,DWORD PTR [ebp-0xc]
10002558:	8b 40 08             	mov    eax,DWORD PTR [eax+0x8]
1000255b:	89 45 f4             	mov    DWORD PTR [ebp-0xc],eax
1000255e:	8b 45 f4             	mov    eax,DWORD PTR [ebp-0xc]
10002561:	8b 40 08             	mov    eax,DWORD PTR [eax+0x8]
10002564:	85 c0                	test   eax,eax
10002566:	75 ed                	jne    0x10002555
10002568:	8b 45 f4             	mov    eax,DWORD PTR [ebp-0xc]
1000256b:	8b 55 f0             	mov    edx,DWORD PTR [ebp-0x10]
1000256e:	89 50 08             	mov    DWORD PTR [eax+0x8],edx
10002571:	8b 45 f0             	mov    eax,DWORD PTR [ebp-0x10]
10002574:	8b 55 f4             	mov    edx,DWORD PTR [ebp-0xc]
10002577:	89 50 04             	mov    DWORD PTR [eax+0x4],edx
1000257a:	8b 45 08             	mov    eax,DWORD PTR [ebp+0x8]
1000257d:	8b 00                	mov    eax,DWORD PTR [eax]
1000257f:	8d 50 01             	lea    edx,[eax+0x1]
10002582:	8b 45 08             	mov    eax,DWORD PTR [ebp+0x8]
10002585:	89 10                	mov    DWORD PTR [eax],edx
10002587:	b8 01 00 00 00       	mov    eax,0x1
1000258c:	c9                   	leave  
1000258d:	c3                   	ret    
1000258e:	55                   	push   ebp
1000258f:	89 e5                	mov    ebp,esp
10002591:	83 ec 10             	sub    esp,0x10
10002594:	8b 45 08             	mov    eax,DWORD PTR [ebp+0x8]
10002597:	8b 00                	mov    eax,DWORD PTR [eax]
10002599:	85 c0                	test   eax,eax
1000259b:	74 0a                	je     0x100025a7
1000259d:	8b 45 08             	mov    eax,DWORD PTR [ebp+0x8]
100025a0:	8b 00                	mov    eax,DWORD PTR [eax]
100025a2:	39 45 0c             	cmp    DWORD PTR [ebp+0xc],eax
100025a5:	72 07                	jb     0x100025ae
100025a7:	b8 00 00 00 00       	mov    eax,0x0
100025ac:	eb 3e                	jmp    0x100025ec
100025ae:	8b 45 08             	mov    eax,DWORD PTR [ebp+0x8]
100025b1:	8b 40 04             	mov    eax,DWORD PTR [eax+0x4]
100025b4:	89 45 fc             	mov    DWORD PTR [ebp-0x4],eax
100025b7:	c7 45 f8 00 00 00 00 	mov    DWORD PTR [ebp-0x8],0x0
100025be:	eb 0c                	jmp    0x100025cc
100025c0:	8b 45 fc             	mov    eax,DWORD PTR [ebp-0x4]
100025c3:	8b 40 08             	mov    eax,DWORD PTR [eax+0x8]
100025c6:	89 45 fc             	mov    DWORD PTR [ebp-0x4],eax
100025c9:	ff 45 f8             	inc    DWORD PTR [ebp-0x8]
100025cc:	8b 45 f8             	mov    eax,DWORD PTR [ebp-0x8]
100025cf:	3b 45 0c             	cmp    eax,DWORD PTR [ebp+0xc]
100025d2:	73 06                	jae    0x100025da
100025d4:	83 7d fc 00          	cmp    DWORD PTR [ebp-0x4],0x0
100025d8:	75 e6                	jne    0x100025c0
100025da:	83 7d fc 00          	cmp    DWORD PTR [ebp-0x4],0x0
100025de:	74 07                	je     0x100025e7
100025e0:	8b 45 fc             	mov    eax,DWORD PTR [ebp-0x4]
100025e3:	8b 00                	mov    eax,DWORD PTR [eax]
100025e5:	eb 05                	jmp    0x100025ec
100025e7:	b8 00 00 00 00       	mov    eax,0x0
100025ec:	c9                   	leave  
100025ed:	c3                   	ret    
100025ee:	55                   	push   ebp
100025ef:	89 e5                	mov    ebp,esp
100025f1:	83 ec 18             	sub    esp,0x18
100025f4:	8b 45 08             	mov    eax,DWORD PTR [ebp+0x8]
100025f7:	8b 00                	mov    eax,DWORD PTR [eax]
100025f9:	85 c0                	test   eax,eax
100025fb:	74 0a                	je     0x10002607
100025fd:	8b 45 08             	mov    eax,DWORD PTR [ebp+0x8]
10002600:	8b 00                	mov    eax,DWORD PTR [eax]
10002602:	39 45 0c             	cmp    DWORD PTR [ebp+0xc],eax
10002605:	72 0a                	jb     0x10002611
10002607:	b8 00 00 00 00       	mov    eax,0x0
1000260c:	e9 a3 00 00 00       	jmp    0x100026b4
10002611:	8b 45 08             	mov    eax,DWORD PTR [ebp+0x8]
10002614:	8b 40 04             	mov    eax,DWORD PTR [eax+0x4]
10002617:	89 45 f4             	mov    DWORD PTR [ebp-0xc],eax
1000261a:	c7 45 f0 00 00 00 00 	mov    DWORD PTR [ebp-0x10],0x0
10002621:	eb 0c                	jmp    0x1000262f
10002623:	8b 45 f4             	mov    eax,DWORD PTR [ebp-0xc]
10002626:	8b 40 08             	mov    eax,DWORD PTR [eax+0x8]
10002629:	89 45 f4             	mov    DWORD PTR [ebp-0xc],eax
1000262c:	ff 45 f0             	inc    DWORD PTR [ebp-0x10]
1000262f:	8b 45 f0             	mov    eax,DWORD PTR [ebp-0x10]
10002632:	3b 45 0c             	cmp    eax,DWORD PTR [ebp+0xc]
10002635:	73 06                	jae    0x1000263d
10002637:	83 7d f4 00          	cmp    DWORD PTR [ebp-0xc],0x0
1000263b:	75 e6                	jne    0x10002623
1000263d:	83 7d f4 00          	cmp    DWORD PTR [ebp-0xc],0x0
10002641:	75 07                	jne    0x1000264a
10002643:	b8 00 00 00 00       	mov    eax,0x0
10002648:	eb 6a                	jmp    0x100026b4
1000264a:	8b 45 f4             	mov    eax,DWORD PTR [ebp-0xc]
1000264d:	8b 00                	mov    eax,DWORD PTR [eax]
1000264f:	89 45 ec             	mov    DWORD PTR [ebp-0x14],eax
10002652:	8b 45 f4             	mov    eax,DWORD PTR [ebp-0xc]
10002655:	8b 40 04             	mov    eax,DWORD PTR [eax+0x4]
10002658:	85 c0                	test   eax,eax
1000265a:	74 0f                	je     0x1000266b
1000265c:	8b 45 f4             	mov    eax,DWORD PTR [ebp-0xc]
1000265f:	8b 40 04             	mov    eax,DWORD PTR [eax+0x4]
10002662:	8b 55 f4             	mov    edx,DWORD PTR [ebp-0xc]
10002665:	8b 52 08             	mov    edx,DWORD PTR [edx+0x8]
10002668:	89 50 08             	mov    DWORD PTR [eax+0x8],edx
1000266b:	8b 45 f4             	mov    eax,DWORD PTR [ebp-0xc]
1000266e:	8b 40 08             	mov    eax,DWORD PTR [eax+0x8]
10002671:	85 c0                	test   eax,eax
10002673:	74 0f                	je     0x10002684
10002675:	8b 45 f4             	mov    eax,DWORD PTR [ebp-0xc]
10002678:	8b 40 08             	mov    eax,DWORD PTR [eax+0x8]
1000267b:	8b 55 f4             	mov    edx,DWORD PTR [ebp-0xc]
1000267e:	8b 52 04             	mov    edx,DWORD PTR [edx+0x4]
10002681:	89 50 04             	mov    DWORD PTR [eax+0x4],edx
10002684:	83 7d 0c 00          	cmp    DWORD PTR [ebp+0xc],0x0
10002688:	75 0c                	jne    0x10002696
1000268a:	8b 45 f4             	mov    eax,DWORD PTR [ebp-0xc]
1000268d:	8b 50 08             	mov    edx,DWORD PTR [eax+0x8]
10002690:	8b 45 08             	mov    eax,DWORD PTR [ebp+0x8]
10002693:	89 50 04             	mov    DWORD PTR [eax+0x4],edx
10002696:	83 ec 0c             	sub    esp,0xc
10002699:	ff 75 f4             	push   DWORD PTR [ebp-0xc]
1000269c:	e8 db 70 00 00       	call   0x1000977c
100026a1:	83 c4 10             	add    esp,0x10
100026a4:	8b 45 08             	mov    eax,DWORD PTR [ebp+0x8]
100026a7:	8b 00                	mov    eax,DWORD PTR [eax]
100026a9:	8d 50 ff             	lea    edx,[eax-0x1]
100026ac:	8b 45 08             	mov    eax,DWORD PTR [ebp+0x8]
100026af:	89 10                	mov    DWORD PTR [eax],edx
100026b1:	8b 45 ec             	mov    eax,DWORD PTR [ebp-0x14]
100026b4:	c9                   	leave  
100026b5:	c3                   	ret    
100026b6:	55                   	push   ebp
100026b7:	89 e5                	mov    ebp,esp
100026b9:	83 ec 18             	sub    esp,0x18
100026bc:	83 ec 0c             	sub    esp,0xc
100026bf:	6a 0c                	push   0xc
100026c1:	e8 9e 70 00 00       	call   0x10009764
100026c6:	83 c4 10             	add    esp,0x10
100026c9:	89 45 f4             	mov    DWORD PTR [ebp-0xc],eax
100026cc:	83 7d f4 00          	cmp    DWORD PTR [ebp-0xc],0x0
100026d0:	75 05                	jne    0x100026d7
100026d2:	8b 45 f4             	mov    eax,DWORD PTR [ebp-0xc]
100026d5:	eb 1f                	jmp    0x100026f6
100026d7:	8b 45 f4             	mov    eax,DWORD PTR [ebp-0xc]
100026da:	c7 40 04 00 00 00 00 	mov    DWORD PTR [eax+0x4],0x0
100026e1:	8b 45 f4             	mov    eax,DWORD PTR [ebp-0xc]
100026e4:	c7 40 08 00 00 00 00 	mov    DWORD PTR [eax+0x8],0x0
100026eb:	8b 45 f4             	mov    eax,DWORD PTR [ebp-0xc]
100026ee:	8b 55 08             	mov    edx,DWORD PTR [ebp+0x8]
100026f1:	89 10                	mov    DWORD PTR [eax],edx
100026f3:	8b 45 f4             	mov    eax,DWORD PTR [ebp-0xc]
100026f6:	c9                   	leave  
100026f7:	c3                   	ret    
100026f8:	55                   	push   ebp
100026f9:	89 e5                	mov    ebp,esp
100026fb:	83 ec 18             	sub    esp,0x18
100026fe:	83 ec 0c             	sub    esp,0xc
10002701:	6a 10                	push   0x10
10002703:	e8 5c 70 00 00       	call   0x10009764
10002708:	83 c4 10             	add    esp,0x10
1000270b:	89 45 f4             	mov    DWORD PTR [ebp-0xc],eax
1000270e:	83 7d f4 00          	cmp    DWORD PTR [ebp-0xc],0x0
10002712:	75 05                	jne    0x10002719
10002714:	8b 45 f4             	mov    eax,DWORD PTR [ebp-0xc]
10002717:	eb 26                	jmp    0x1000273f
10002719:	8b 45 f4             	mov    eax,DWORD PTR [ebp-0xc]
1000271c:	8b 55 08             	mov    edx,DWORD PTR [ebp+0x8]
1000271f:	89 10                	mov    DWORD PTR [eax],edx
10002721:	8b 45 f4             	mov    eax,DWORD PTR [ebp-0xc]
10002724:	8b 55 0c             	mov    edx,DWORD PTR [ebp+0xc]
10002727:	89 50 04             	mov    DWORD PTR [eax+0x4],edx
1000272a:	8b 45 f4             	mov    eax,DWORD PTR [ebp-0xc]
1000272d:	8b 55 10             	mov    edx,DWORD PTR [ebp+0x10]
10002730:	89 50 08             	mov    DWORD PTR [eax+0x8],edx
10002733:	8b 45 f4             	mov    eax,DWORD PTR [ebp-0xc]
10002736:	8b 55 14             	mov    edx,DWORD PTR [ebp+0x14]
10002739:	89 50 0c             	mov    DWORD PTR [eax+0xc],edx
1000273c:	8b 45 f4             	mov    eax,DWORD PTR [ebp-0xc]
1000273f:	c9                   	leave  
10002740:	c3                   	ret    
10002741:	55                   	push   ebp
10002742:	89 e5                	mov    ebp,esp
10002744:	53                   	push   ebx
10002745:	83 ec 24             	sub    esp,0x24
10002748:	e8 8b fd ff ff       	call   0x100024d8
1000274d:	89 45 f0             	mov    DWORD PTR [ebp-0x10],eax
10002750:	83 7d f0 00          	cmp    DWORD PTR [ebp-0x10],0x0
10002754:	75 08                	jne    0x1000275e
10002756:	8b 45 f0             	mov    eax,DWORD PTR [ebp-0x10]
10002759:	e9 85 02 00 00       	jmp    0x100029e3
1000275e:	8b 45 08             	mov    eax,DWORD PTR [ebp+0x8]
10002761:	8b 00                	mov    eax,DWORD PTR [eax]
10002763:	89 45 e0             	mov    DWORD PTR [ebp-0x20],eax
10002766:	8b 45 08             	mov    eax,DWORD PTR [ebp+0x8]
10002769:	8b 40 04             	mov    eax,DWORD PTR [eax+0x4]
1000276c:	89 45 e4             	mov    DWORD PTR [ebp-0x1c],eax
1000276f:	8b 45 08             	mov    eax,DWORD PTR [ebp+0x8]
10002772:	8b 40 08             	mov    eax,DWORD PTR [eax+0x8]
10002775:	89 45 e8             	mov    DWORD PTR [ebp-0x18],eax
10002778:	8b 45 08             	mov    eax,DWORD PTR [ebp+0x8]
1000277b:	8b 40 0c             	mov    eax,DWORD PTR [eax+0xc]
1000277e:	89 45 ec             	mov    DWORD PTR [ebp-0x14],eax
10002781:	8b 45 0c             	mov    eax,DWORD PTR [ebp+0xc]
10002784:	8b 50 04             	mov    edx,DWORD PTR [eax+0x4]
10002787:	8b 45 e4             	mov    eax,DWORD PTR [ebp-0x1c]
1000278a:	39 c2                	cmp    edx,eax
1000278c:	7e 66                	jle    0x100027f4
1000278e:	8b 45 0c             	mov    eax,DWORD PTR [ebp+0xc]
10002791:	8b 50 04             	mov    edx,DWORD PTR [eax+0x4]
10002794:	8b 45 ec             	mov    eax,DWORD PTR [ebp-0x14]
10002797:	39 c2                	cmp    edx,eax
10002799:	7f 59                	jg     0x100027f4
1000279b:	8b 45 0c             	mov    eax,DWORD PTR [ebp+0xc]
1000279e:	8b 40 04             	mov    eax,DWORD PTR [eax+0x4]
100027a1:	8d 58 ff             	lea    ebx,[eax-0x1]
100027a4:	8b 4d e8             	mov    ecx,DWORD PTR [ebp-0x18]
100027a7:	8b 55 e4             	mov    edx,DWORD PTR [ebp-0x1c]
100027aa:	8b 45 e0             	mov    eax,DWORD PTR [ebp-0x20]
100027ad:	53                   	push   ebx
100027ae:	51                   	push   ecx
100027af:	52                   	push   edx
100027b0:	50                   	push   eax
100027b1:	e8 42 ff ff ff       	call   0x100026f8
100027b6:	83 c4 10             	add    esp,0x10
100027b9:	89 45 f4             	mov    DWORD PTR [ebp-0xc],eax
100027bc:	83 7d f4 00          	cmp    DWORD PTR [ebp-0xc],0x0
100027c0:	75 18                	jne    0x100027da
100027c2:	83 ec 0c             	sub    esp,0xc
100027c5:	ff 75 f0             	push   DWORD PTR [ebp-0x10]
100027c8:	e8 af 6f 00 00       	call   0x1000977c
100027cd:	83 c4 10             	add    esp,0x10
100027d0:	b8 00 00 00 00       	mov    eax,0x0
100027d5:	e9 09 02 00 00       	jmp    0x100029e3
100027da:	83 ec 08             	sub    esp,0x8
100027dd:	ff 75 f4             	push   DWORD PTR [ebp-0xc]
100027e0:	ff 75 f0             	push   DWORD PTR [ebp-0x10]
100027e3:	e8 29 fd ff ff       	call   0x10002511
100027e8:	83 c4 10             	add    esp,0x10
100027eb:	8b 45 0c             	mov    eax,DWORD PTR [ebp+0xc]
100027ee:	8b 40 04             	mov    eax,DWORD PTR [eax+0x4]
100027f1:	89 45 e4             	mov    DWORD PTR [ebp-0x1c],eax
100027f4:	8b 45 0c             	mov    eax,DWORD PTR [ebp+0xc]
100027f7:	8b 10                	mov    edx,DWORD PTR [eax]
100027f9:	8b 45 e0             	mov    eax,DWORD PTR [ebp-0x20]
100027fc:	39 c2                	cmp    edx,eax
100027fe:	0f 8e 93 00 00 00    	jle    0x10002897
10002804:	8b 45 0c             	mov    eax,DWORD PTR [ebp+0xc]
10002807:	8b 10                	mov    edx,DWORD PTR [eax]
10002809:	8b 45 e8             	mov    eax,DWORD PTR [ebp-0x18]
1000280c:	39 c2                	cmp    edx,eax
1000280e:	0f 8f 83 00 00 00    	jg     0x10002897
10002814:	8b 4d ec             	mov    ecx,DWORD PTR [ebp-0x14]
10002817:	8b 45 0c             	mov    eax,DWORD PTR [ebp+0xc]
1000281a:	8b 00                	mov    eax,DWORD PTR [eax]
1000281c:	8d 58 ff             	lea    ebx,[eax-0x1]
1000281f:	8b 55 e4             	mov    edx,DWORD PTR [ebp-0x1c]
10002822:	8b 45 e0             	mov    eax,DWORD PTR [ebp-0x20]
10002825:	51                   	push   ecx
10002826:	53                   	push   ebx
10002827:	52                   	push   edx
10002828:	50                   	push   eax
10002829:	e8 ca fe ff ff       	call   0x100026f8
1000282e:	83 c4 10             	add    esp,0x10
10002831:	89 45 f4             	mov    DWORD PTR [ebp-0xc],eax
10002834:	83 7d f4 00          	cmp    DWORD PTR [ebp-0xc],0x0
10002838:	75 44                	jne    0x1000287e
1000283a:	eb 21                	jmp    0x1000285d
1000283c:	83 ec 0c             	sub    esp,0xc
1000283f:	ff 75 f4             	push   DWORD PTR [ebp-0xc]
10002842:	e8 35 6f 00 00       	call   0x1000977c
10002847:	83 c4 10             	add    esp,0x10
1000284a:	83 ec 08             	sub    esp,0x8
1000284d:	6a 00                	push   0x0
1000284f:	ff 75 f0             	push   DWORD PTR [ebp-0x10]
10002852:	e8 97 fd ff ff       	call   0x100025ee
10002857:	83 c4 10             	add    esp,0x10
1000285a:	89 45 f4             	mov    DWORD PTR [ebp-0xc],eax
1000285d:	8b 45 f0             	mov    eax,DWORD PTR [ebp-0x10]
10002860:	8b 00                	mov    eax,DWORD PTR [eax]
10002862:	85 c0                	test   eax,eax
10002864:	75 d6                	jne    0x1000283c
10002866:	83 ec 0c             	sub    esp,0xc
10002869:	ff 75 f0             	push   DWORD PTR [ebp-0x10]
1000286c:	e8 0b 6f 00 00       	call   0x1000977c
10002871:	83 c4 10             	add    esp,0x10
10002874:	b8 00 00 00 00       	mov    eax,0x0
10002879:	e9 65 01 00 00       	jmp    0x100029e3
1000287e:	83 ec 08             	sub    esp,0x8
10002881:	ff 75 f4             	push   DWORD PTR [ebp-0xc]
10002884:	ff 75 f0             	push   DWORD PTR [ebp-0x10]
10002887:	e8 85 fc ff ff       	call   0x10002511
1000288c:	83 c4 10             	add    esp,0x10
1000288f:	8b 45 0c             	mov    eax,DWORD PTR [ebp+0xc]
10002892:	8b 00                	mov    eax,DWORD PTR [eax]
10002894:	89 45 e0             	mov    DWORD PTR [ebp-0x20],eax
10002897:	8b 45 0c             	mov    eax,DWORD PTR [ebp+0xc]
1000289a:	8b 50 0c             	mov    edx,DWORD PTR [eax+0xc]
1000289d:	8b 45 e4             	mov    eax,DWORD PTR [ebp-0x1c]
100028a0:	39 c2                	cmp    edx,eax
100028a2:	0f 8c 96 00 00 00    	jl     0x1000293e
100028a8:	8b 45 0c             	mov    eax,DWORD PTR [ebp+0xc]
100028ab:	8b 50 0c             	mov    edx,DWORD PTR [eax+0xc]
100028ae:	8b 45 ec             	mov    eax,DWORD PTR [ebp-0x14]
100028b1:	39 c2                	cmp    edx,eax
100028b3:	0f 8d 85 00 00 00    	jge    0x1000293e
100028b9:	8b 4d ec             	mov    ecx,DWORD PTR [ebp-0x14]
100028bc:	8b 55 e8             	mov    edx,DWORD PTR [ebp-0x18]
100028bf:	8b 45 0c             	mov    eax,DWORD PTR [ebp+0xc]
100028c2:	8b 40 0c             	mov    eax,DWORD PTR [eax+0xc]
100028c5:	8d 58 01             	lea    ebx,[eax+0x1]
100028c8:	8b 45 e0             	mov    eax,DWORD PTR [ebp-0x20]
100028cb:	51                   	push   ecx
100028cc:	52                   	push   edx
100028cd:	53                   	push   ebx
100028ce:	50                   	push   eax
100028cf:	e8 24 fe ff ff       	call   0x100026f8
100028d4:	83 c4 10             	add    esp,0x10
100028d7:	89 45 f4             	mov    DWORD PTR [ebp-0xc],eax
100028da:	83 7d f4 00          	cmp    DWORD PTR [ebp-0xc],0x0
100028de:	75 44                	jne    0x10002924
100028e0:	eb 21                	jmp    0x10002903
100028e2:	83 ec 0c             	sub    esp,0xc
100028e5:	ff 75 f4             	push   DWORD PTR [ebp-0xc]
100028e8:	e8 8f 6e 00 00       	call   0x1000977c
100028ed:	83 c4 10             	add    esp,0x10
100028f0:	83 ec 08             	sub    esp,0x8
100028f3:	6a 00                	push   0x0
100028f5:	ff 75 f0             	push   DWORD PTR [ebp-0x10]
100028f8:	e8 f1 fc ff ff       	call   0x100025ee
100028fd:	83 c4 10             	add    esp,0x10
10002900:	89 45 f4             	mov    DWORD PTR [ebp-0xc],eax
10002903:	8b 45 f0             	mov    eax,DWORD PTR [ebp-0x10]
10002906:	8b 00                	mov    eax,DWORD PTR [eax]
10002908:	85 c0                	test   eax,eax
1000290a:	75 d6                	jne    0x100028e2
1000290c:	83 ec 0c             	sub    esp,0xc
1000290f:	ff 75 f0             	push   DWORD PTR [ebp-0x10]
10002912:	e8 65 6e 00 00       	call   0x1000977c
10002917:	83 c4 10             	add    esp,0x10
1000291a:	b8 00 00 00 00       	mov    eax,0x0
1000291f:	e9 bf 00 00 00       	jmp    0x100029e3
10002924:	83 ec 08             	sub    esp,0x8
10002927:	ff 75 f4             	push   DWORD PTR [ebp-0xc]
1000292a:	ff 75 f0             	push   DWORD PTR [ebp-0x10]
1000292d:	e8 df fb ff ff       	call   0x10002511
10002932:	83 c4 10             	add    esp,0x10
10002935:	8b 45 0c             	mov    eax,DWORD PTR [ebp+0xc]
10002938:	8b 40 0c             	mov    eax,DWORD PTR [eax+0xc]
1000293b:	89 45 ec             	mov    DWORD PTR [ebp-0x14],eax
1000293e:	8b 45 0c             	mov    eax,DWORD PTR [ebp+0xc]
10002941:	8b 50 08             	mov    edx,DWORD PTR [eax+0x8]
10002944:	8b 45 e0             	mov    eax,DWORD PTR [ebp-0x20]
10002947:	39 c2                	cmp    edx,eax
10002949:	0f 8c 91 00 00 00    	jl     0x100029e0
1000294f:	8b 45 0c             	mov    eax,DWORD PTR [ebp+0xc]
10002952:	8b 50 08             	mov    edx,DWORD PTR [eax+0x8]
10002955:	8b 45 e8             	mov    eax,DWORD PTR [ebp-0x18]
10002958:	39 c2                	cmp    edx,eax
1000295a:	0f 8d 80 00 00 00    	jge    0x100029e0
10002960:	8b 4d ec             	mov    ecx,DWORD PTR [ebp-0x14]
10002963:	8b 55 e8             	mov    edx,DWORD PTR [ebp-0x18]
10002966:	8b 45 e4             	mov    eax,DWORD PTR [ebp-0x1c]
10002969:	8b 5d 0c             	mov    ebx,DWORD PTR [ebp+0xc]
1000296c:	8b 5b 08             	mov    ebx,DWORD PTR [ebx+0x8]
1000296f:	43                   	inc    ebx
10002970:	51                   	push   ecx
10002971:	52                   	push   edx
10002972:	50                   	push   eax
10002973:	53                   	push   ebx
10002974:	e8 7f fd ff ff       	call   0x100026f8
10002979:	83 c4 10             	add    esp,0x10
1000297c:	89 45 f4             	mov    DWORD PTR [ebp-0xc],eax
1000297f:	83 7d f4 00          	cmp    DWORD PTR [ebp-0xc],0x0
10002983:	75 41                	jne    0x100029c6
10002985:	eb 21                	jmp    0x100029a8
10002987:	83 ec 0c             	sub    esp,0xc
1000298a:	ff 75 f4             	push   DWORD PTR [ebp-0xc]
1000298d:	e8 ea 6d 00 00       	call   0x1000977c
10002992:	83 c4 10             	add    esp,0x10
10002995:	83 ec 08             	sub    esp,0x8
10002998:	6a 00                	push   0x0
1000299a:	ff 75 f0             	push   DWORD PTR [ebp-0x10]
1000299d:	e8 4c fc ff ff       	call   0x100025ee
100029a2:	83 c4 10             	add    esp,0x10
100029a5:	89 45 f4             	mov    DWORD PTR [ebp-0xc],eax
100029a8:	8b 45 f0             	mov    eax,DWORD PTR [ebp-0x10]
100029ab:	8b 00                	mov    eax,DWORD PTR [eax]
100029ad:	85 c0                	test   eax,eax
100029af:	75 d6                	jne    0x10002987
100029b1:	83 ec 0c             	sub    esp,0xc
100029b4:	ff 75 f0             	push   DWORD PTR [ebp-0x10]
100029b7:	e8 c0 6d 00 00       	call   0x1000977c
100029bc:	83 c4 10             	add    esp,0x10
100029bf:	b8 00 00 00 00       	mov    eax,0x0
100029c4:	eb 1d                	jmp    0x100029e3
100029c6:	83 ec 08             	sub    esp,0x8
100029c9:	ff 75 f4             	push   DWORD PTR [ebp-0xc]
100029cc:	ff 75 f0             	push   DWORD PTR [ebp-0x10]
100029cf:	e8 3d fb ff ff       	call   0x10002511
100029d4:	83 c4 10             	add    esp,0x10
100029d7:	8b 45 0c             	mov    eax,DWORD PTR [ebp+0xc]
100029da:	8b 40 08             	mov    eax,DWORD PTR [eax+0x8]
100029dd:	89 45 e8             	mov    DWORD PTR [ebp-0x18],eax
100029e0:	8b 45 f0             	mov    eax,DWORD PTR [ebp-0x10]
100029e3:	8b 5d fc             	mov    ebx,DWORD PTR [ebp-0x4]
100029e6:	c9                   	leave  
100029e7:	c3                   	ret    
100029e8:	55                   	push   ebp
100029e9:	89 e5                	mov    ebp,esp
100029eb:	53                   	push   ebx
100029ec:	83 ec 14             	sub    esp,0x14
100029ef:	8b 45 08             	mov    eax,DWORD PTR [ebp+0x8]
100029f2:	8b 50 04             	mov    edx,DWORD PTR [eax+0x4]
100029f5:	8b 45 0c             	mov    eax,DWORD PTR [ebp+0xc]
100029f8:	8b 40 0c             	mov    eax,DWORD PTR [eax+0xc]
100029fb:	39 c2                	cmp    edx,eax
100029fd:	7f 2e                	jg     0x10002a2d
100029ff:	8b 45 08             	mov    eax,DWORD PTR [ebp+0x8]
10002a02:	8b 50 0c             	mov    edx,DWORD PTR [eax+0xc]
10002a05:	8b 45 0c             	mov    eax,DWORD PTR [ebp+0xc]
10002a08:	8b 40 04             	mov    eax,DWORD PTR [eax+0x4]
10002a0b:	39 c2                	cmp    edx,eax
10002a0d:	7c 1e                	jl     0x10002a2d
10002a0f:	8b 45 08             	mov    eax,DWORD PTR [ebp+0x8]
10002a12:	8b 10                	mov    edx,DWORD PTR [eax]
10002a14:	8b 45 0c             	mov    eax,DWORD PTR [ebp+0xc]
10002a17:	8b 40 08             	mov    eax,DWORD PTR [eax+0x8]
10002a1a:	39 c2                	cmp    edx,eax
10002a1c:	7f 0f                	jg     0x10002a2d
10002a1e:	8b 45 08             	mov    eax,DWORD PTR [ebp+0x8]
10002a21:	8b 50 08             	mov    edx,DWORD PTR [eax+0x8]
10002a24:	8b 45 0c             	mov    eax,DWORD PTR [ebp+0xc]
10002a27:	8b 00                	mov    eax,DWORD PTR [eax]
10002a29:	39 c2                	cmp    edx,eax
10002a2b:	7d 0a                	jge    0x10002a37
10002a2d:	b8 00 00 00 00       	mov    eax,0x0
10002a32:	e9 e3 00 00 00       	jmp    0x10002b1a
10002a37:	8b 45 08             	mov    eax,DWORD PTR [ebp+0x8]
10002a3a:	8b 58 0c             	mov    ebx,DWORD PTR [eax+0xc]
10002a3d:	8b 45 08             	mov    eax,DWORD PTR [ebp+0x8]
10002a40:	8b 48 08             	mov    ecx,DWORD PTR [eax+0x8]
10002a43:	8b 45 08             	mov    eax,DWORD PTR [ebp+0x8]
10002a46:	8b 50 04             	mov    edx,DWORD PTR [eax+0x4]
10002a49:	8b 45 08             	mov    eax,DWORD PTR [ebp+0x8]
10002a4c:	8b 00                	mov    eax,DWORD PTR [eax]
10002a4e:	53                   	push   ebx
10002a4f:	51                   	push   ecx
10002a50:	52                   	push   edx
10002a51:	50                   	push   eax
10002a52:	e8 a1 fc ff ff       	call   0x100026f8
10002a57:	83 c4 10             	add    esp,0x10
10002a5a:	89 45 f4             	mov    DWORD PTR [ebp-0xc],eax
10002a5d:	83 7d f4 00          	cmp    DWORD PTR [ebp-0xc],0x0
10002a61:	75 0a                	jne    0x10002a6d
10002a63:	b8 00 00 00 00       	mov    eax,0x0
10002a68:	e9 ad 00 00 00       	jmp    0x10002b1a
10002a6d:	8b 45 0c             	mov    eax,DWORD PTR [ebp+0xc]
10002a70:	8b 50 04             	mov    edx,DWORD PTR [eax+0x4]
10002a73:	8b 45 f4             	mov    eax,DWORD PTR [ebp-0xc]
10002a76:	8b 40 04             	mov    eax,DWORD PTR [eax+0x4]
10002a79:	39 c2                	cmp    edx,eax
10002a7b:	7e 1c                	jle    0x10002a99
10002a7d:	8b 45 0c             	mov    eax,DWORD PTR [ebp+0xc]
10002a80:	8b 50 04             	mov    edx,DWORD PTR [eax+0x4]
10002a83:	8b 45 f4             	mov    eax,DWORD PTR [ebp-0xc]
10002a86:	8b 40 0c             	mov    eax,DWORD PTR [eax+0xc]
10002a89:	39 c2                	cmp    edx,eax
10002a8b:	7f 0c                	jg     0x10002a99
10002a8d:	8b 45 0c             	mov    eax,DWORD PTR [ebp+0xc]
10002a90:	8b 50 04             	mov    edx,DWORD PTR [eax+0x4]
10002a93:	8b 45 f4             	mov    eax,DWORD PTR [ebp-0xc]
10002a96:	89 50 04             	mov    DWORD PTR [eax+0x4],edx
10002a99:	8b 45 0c             	mov    eax,DWORD PTR [ebp+0xc]
10002a9c:	8b 10                	mov    edx,DWORD PTR [eax]
10002a9e:	8b 45 f4             	mov    eax,DWORD PTR [ebp-0xc]
10002aa1:	8b 00                	mov    eax,DWORD PTR [eax]
10002aa3:	39 c2                	cmp    edx,eax
10002aa5:	7e 19                	jle    0x10002ac0
10002aa7:	8b 45 0c             	mov    eax,DWORD PTR [ebp+0xc]
10002aaa:	8b 10                	mov    edx,DWORD PTR [eax]
10002aac:	8b 45 f4             	mov    eax,DWORD PTR [ebp-0xc]
10002aaf:	8b 40 08             	mov    eax,DWORD PTR [eax+0x8]
10002ab2:	39 c2                	cmp    edx,eax
10002ab4:	7f 0a                	jg     0x10002ac0
10002ab6:	8b 45 0c             	mov    eax,DWORD PTR [ebp+0xc]
10002ab9:	8b 10                	mov    edx,DWORD PTR [eax]
10002abb:	8b 45 f4             	mov    eax,DWORD PTR [ebp-0xc]
10002abe:	89 10                	mov    DWORD PTR [eax],edx
10002ac0:	8b 45 0c             	mov    eax,DWORD PTR [ebp+0xc]
10002ac3:	8b 50 0c             	mov    edx,DWORD PTR [eax+0xc]
10002ac6:	8b 45 f4             	mov    eax,DWORD PTR [ebp-0xc]
10002ac9:	8b 40 04             	mov    eax,DWORD PTR [eax+0x4]
10002acc:	39 c2                	cmp    edx,eax
10002ace:	7c 1c                	jl     0x10002aec
10002ad0:	8b 45 0c             	mov    eax,DWORD PTR [ebp+0xc]
10002ad3:	8b 50 0c             	mov    edx,DWORD PTR [eax+0xc]
10002ad6:	8b 45 f4             	mov    eax,DWORD PTR [ebp-0xc]
10002ad9:	8b 40 0c             	mov    eax,DWORD PTR [eax+0xc]
10002adc:	39 c2                	cmp    edx,eax
10002ade:	7d 0c                	jge    0x10002aec
10002ae0:	8b 45 0c             	mov    eax,DWORD PTR [ebp+0xc]
10002ae3:	8b 50 0c             	mov    edx,DWORD PTR [eax+0xc]
10002ae6:	8b 45 f4             	mov    eax,DWORD PTR [ebp-0xc]
10002ae9:	89 50 0c             	mov    DWORD PTR [eax+0xc],edx
10002aec:	8b 45 0c             	mov    eax,DWORD PTR [ebp+0xc]
10002aef:	8b 50 08             	mov    edx,DWORD PTR [eax+0x8]
10002af2:	8b 45 f4             	mov    eax,DWORD PTR [ebp-0xc]
10002af5:	8b 00                	mov    eax,DWORD PTR [eax]
10002af7:	39 c2                	cmp    edx,eax
10002af9:	7c 1c                	jl     0x10002b17
10002afb:	8b 45 0c             	mov    eax,DWORD PTR [ebp+0xc]
10002afe:	8b 50 08             	mov    edx,DWORD PTR [eax+0x8]
10002b01:	8b 45 f4             	mov    eax,DWORD PTR [ebp-0xc]
10002b04:	8b 40 08             	mov    eax,DWORD PTR [eax+0x8]
10002b07:	39 c2                	cmp    edx,eax
10002b09:	7d 0c                	jge    0x10002b17
10002b0b:	8b 45 0c             	mov    eax,DWORD PTR [ebp+0xc]
10002b0e:	8b 50 08             	mov    edx,DWORD PTR [eax+0x8]
10002b11:	8b 45 f4             	mov    eax,DWORD PTR [ebp-0xc]
10002b14:	89 50 08             	mov    DWORD PTR [eax+0x8],edx
10002b17:	8b 45 f4             	mov    eax,DWORD PTR [ebp-0xc]
10002b1a:	8b 5d fc             	mov    ebx,DWORD PTR [ebp-0x4]
10002b1d:	c9                   	leave  
10002b1e:	c3                   	ret    
10002b1f:	90                   	nop
10002b20:	55                   	push   ebp
10002b21:	89 e5                	mov    ebp,esp
10002b23:	57                   	push   edi
10002b24:	56                   	push   esi
10002b25:	53                   	push   ebx
10002b26:	83 ec 5c             	sub    esp,0x5c
10002b29:	8b 45 08             	mov    eax,DWORD PTR [ebp+0x8]
10002b2c:	89 45 d4             	mov    DWORD PTR [ebp-0x2c],eax
10002b2f:	8b 45 d4             	mov    eax,DWORD PTR [ebp-0x2c]
10002b32:	8a 40 26             	mov    al,BYTE PTR [eax+0x26]
10002b35:	84 c0                	test   al,al
10002b37:	0f 84 24 01 00 00    	je     0x10002c61
10002b3d:	8b 45 d4             	mov    eax,DWORD PTR [ebp-0x2c]
10002b40:	8a 40 24             	mov    al,BYTE PTR [eax+0x24]
10002b43:	84 c0                	test   al,al
10002b45:	0f 84 16 01 00 00    	je     0x10002c61
10002b4b:	8b 45 d4             	mov    eax,DWORD PTR [ebp-0x2c]
10002b4e:	8a 40 25             	mov    al,BYTE PTR [eax+0x25]
10002b51:	83 f0 01             	xor    eax,0x1
10002b54:	84 c0                	test   al,al
10002b56:	0f 84 05 01 00 00    	je     0x10002c61
10002b5c:	8b 45 d4             	mov    eax,DWORD PTR [ebp-0x2c]
10002b5f:	8b 40 2c             	mov    eax,DWORD PTR [eax+0x2c]
10002b62:	85 c0                	test   eax,eax
10002b64:	0f 84 c9 00 00 00    	je     0x10002c33
10002b6a:	85 c0                	test   eax,eax
10002b6c:	0f 88 e9 00 00 00    	js     0x10002c5b
10002b72:	83 f8 02             	cmp    eax,0x2
10002b75:	0f 8f e0 00 00 00    	jg     0x10002c5b
10002b7b:	8b 45 d4             	mov    eax,DWORD PTR [ebp-0x2c]
10002b7e:	8b 55 d4             	mov    edx,DWORD PTR [ebp-0x2c]
10002b81:	8b 4a 14             	mov    ecx,DWORD PTR [edx+0x14]
10002b84:	8b 55 d4             	mov    edx,DWORD PTR [ebp-0x2c]
10002b87:	8b 52 10             	mov    edx,DWORD PTR [edx+0x10]
10002b8a:	83 ec 08             	sub    esp,0x8
10002b8d:	68 d0 d0 d0 00       	push   0xd0d0d0
10002b92:	51                   	push   ecx
10002b93:	52                   	push   edx
10002b94:	6a 00                	push   0x0
10002b96:	6a 00                	push   0x0
10002b98:	50                   	push   eax
10002b99:	e8 d8 16 00 00       	call   0x10004276
10002b9e:	83 c4 20             	add    esp,0x20
10002ba1:	8b 45 d4             	mov    eax,DWORD PTR [ebp-0x2c]
10002ba4:	8b 55 d4             	mov    edx,DWORD PTR [ebp-0x2c]
10002ba7:	8b 52 10             	mov    edx,DWORD PTR [edx+0x10]
10002baa:	83 ec 08             	sub    esp,0x8
10002bad:	68 80 80 80 00       	push   0x808080
10002bb2:	6a 01                	push   0x1
10002bb4:	52                   	push   edx
10002bb5:	6a 00                	push   0x0
10002bb7:	6a 00                	push   0x0
10002bb9:	50                   	push   eax
10002bba:	e8 e3 16 00 00       	call   0x100042a2
10002bbf:	83 c4 20             	add    esp,0x20
10002bc2:	8b 45 d4             	mov    eax,DWORD PTR [ebp-0x2c]
10002bc5:	8b 55 d4             	mov    edx,DWORD PTR [ebp-0x2c]
10002bc8:	8b 52 14             	mov    edx,DWORD PTR [edx+0x14]
10002bcb:	83 ec 08             	sub    esp,0x8
10002bce:	68 80 80 80 00       	push   0x808080
10002bd3:	52                   	push   edx
10002bd4:	6a 01                	push   0x1
10002bd6:	6a 00                	push   0x0
10002bd8:	6a 00                	push   0x0
10002bda:	50                   	push   eax
10002bdb:	e8 c2 16 00 00       	call   0x100042a2
10002be0:	83 c4 20             	add    esp,0x20
10002be3:	8b 45 d4             	mov    eax,DWORD PTR [ebp-0x2c]
10002be6:	8b 55 d4             	mov    edx,DWORD PTR [ebp-0x2c]
10002be9:	8b 52 10             	mov    edx,DWORD PTR [edx+0x10]
10002bec:	8b 4d d4             	mov    ecx,DWORD PTR [ebp-0x2c]
10002bef:	8b 49 14             	mov    ecx,DWORD PTR [ecx+0x14]
10002bf2:	49                   	dec    ecx
10002bf3:	83 ec 08             	sub    esp,0x8
10002bf6:	68 ff ff ff 00       	push   0xffffff
10002bfb:	6a 01                	push   0x1
10002bfd:	52                   	push   edx
10002bfe:	51                   	push   ecx
10002bff:	6a 00                	push   0x0
10002c01:	50                   	push   eax
10002c02:	e8 9b 16 00 00       	call   0x100042a2
10002c07:	83 c4 20             	add    esp,0x20
10002c0a:	8b 45 d4             	mov    eax,DWORD PTR [ebp-0x2c]
10002c0d:	8b 55 d4             	mov    edx,DWORD PTR [ebp-0x2c]
10002c10:	8b 52 14             	mov    edx,DWORD PTR [edx+0x14]
10002c13:	8b 4d d4             	mov    ecx,DWORD PTR [ebp-0x2c]
10002c16:	8b 49 10             	mov    ecx,DWORD PTR [ecx+0x10]
10002c19:	49                   	dec    ecx
10002c1a:	83 ec 08             	sub    esp,0x8
10002c1d:	68 ff ff ff 00       	push   0xffffff
10002c22:	52                   	push   edx
10002c23:	6a 01                	push   0x1
10002c25:	6a 00                	push   0x0
10002c27:	51                   	push   ecx
10002c28:	50                   	push   eax
10002c29:	e8 74 16 00 00       	call   0x100042a2
10002c2e:	83 c4 20             	add    esp,0x20
10002c31:	eb 29                	jmp    0x10002c5c
10002c33:	8b 45 d4             	mov    eax,DWORD PTR [ebp-0x2c]
10002c36:	8b 55 d4             	mov    edx,DWORD PTR [ebp-0x2c]
10002c39:	8b 4a 14             	mov    ecx,DWORD PTR [edx+0x14]
10002c3c:	8b 55 d4             	mov    edx,DWORD PTR [ebp-0x2c]
10002c3f:	8b 52 10             	mov    edx,DWORD PTR [edx+0x10]
10002c42:	83 ec 08             	sub    esp,0x8
10002c45:	68 80 80 80 00       	push   0x808080
10002c4a:	51                   	push   ecx
10002c4b:	52                   	push   edx
10002c4c:	6a 00                	push   0x0
10002c4e:	6a 00                	push   0x0
10002c50:	50                   	push   eax
10002c51:	e8 20 16 00 00       	call   0x10004276
10002c56:	83 c4 20             	add    esp,0x20
10002c59:	eb 01                	jmp    0x10002c5c
10002c5b:	90                   	nop
10002c5c:	e9 9e 02 00 00       	jmp    0x10002eff
10002c61:	8b 45 d4             	mov    eax,DWORD PTR [ebp-0x2c]
10002c64:	8a 40 24             	mov    al,BYTE PTR [eax+0x24]
10002c67:	84 c0                	test   al,al
10002c69:	0f 84 68 01 00 00    	je     0x10002dd7
10002c6f:	8b 45 d4             	mov    eax,DWORD PTR [ebp-0x2c]
10002c72:	8a 40 25             	mov    al,BYTE PTR [eax+0x25]
10002c75:	83 f0 01             	xor    eax,0x1
10002c78:	84 c0                	test   al,al
10002c7a:	0f 84 57 01 00 00    	je     0x10002dd7
10002c80:	8b 45 d4             	mov    eax,DWORD PTR [ebp-0x2c]
10002c83:	8b 40 2c             	mov    eax,DWORD PTR [eax+0x2c]
10002c86:	85 c0                	test   eax,eax
10002c88:	0f 84 c9 00 00 00    	je     0x10002d57
10002c8e:	85 c0                	test   eax,eax
10002c90:	0f 88 3b 01 00 00    	js     0x10002dd1
10002c96:	83 f8 02             	cmp    eax,0x2
10002c99:	0f 8f 32 01 00 00    	jg     0x10002dd1
10002c9f:	8b 45 d4             	mov    eax,DWORD PTR [ebp-0x2c]
10002ca2:	8b 55 d4             	mov    edx,DWORD PTR [ebp-0x2c]
10002ca5:	8b 4a 14             	mov    ecx,DWORD PTR [edx+0x14]
10002ca8:	8b 55 d4             	mov    edx,DWORD PTR [ebp-0x2c]
10002cab:	8b 52 10             	mov    edx,DWORD PTR [edx+0x10]
10002cae:	83 ec 08             	sub    esp,0x8
10002cb1:	68 d0 d0 d0 00       	push   0xd0d0d0
10002cb6:	51                   	push   ecx
10002cb7:	52                   	push   edx
10002cb8:	6a 00                	push   0x0
10002cba:	6a 00                	push   0x0
10002cbc:	50                   	push   eax
10002cbd:	e8 b4 15 00 00       	call   0x10004276
10002cc2:	83 c4 20             	add    esp,0x20
10002cc5:	8b 45 d4             	mov    eax,DWORD PTR [ebp-0x2c]
10002cc8:	8b 55 d4             	mov    edx,DWORD PTR [ebp-0x2c]
10002ccb:	8b 52 10             	mov    edx,DWORD PTR [edx+0x10]
10002cce:	83 ec 08             	sub    esp,0x8
10002cd1:	68 ff ff ff 00       	push   0xffffff
10002cd6:	6a 01                	push   0x1
10002cd8:	52                   	push   edx
10002cd9:	6a 00                	push   0x0
10002cdb:	6a 00                	push   0x0
10002cdd:	50                   	push   eax
10002cde:	e8 bf 15 00 00       	call   0x100042a2
10002ce3:	83 c4 20             	add    esp,0x20
10002ce6:	8b 45 d4             	mov    eax,DWORD PTR [ebp-0x2c]
10002ce9:	8b 55 d4             	mov    edx,DWORD PTR [ebp-0x2c]
10002cec:	8b 52 14             	mov    edx,DWORD PTR [edx+0x14]
10002cef:	83 ec 08             	sub    esp,0x8
10002cf2:	68 ff ff ff 00       	push   0xffffff
10002cf7:	52                   	push   edx
10002cf8:	6a 01                	push   0x1
10002cfa:	6a 00                	push   0x0
10002cfc:	6a 00                	push   0x0
10002cfe:	50                   	push   eax
10002cff:	e8 9e 15 00 00       	call   0x100042a2
10002d04:	83 c4 20             	add    esp,0x20
10002d07:	8b 45 d4             	mov    eax,DWORD PTR [ebp-0x2c]
10002d0a:	8b 55 d4             	mov    edx,DWORD PTR [ebp-0x2c]
10002d0d:	8b 52 10             	mov    edx,DWORD PTR [edx+0x10]
10002d10:	8b 4d d4             	mov    ecx,DWORD PTR [ebp-0x2c]
10002d13:	8b 49 14             	mov    ecx,DWORD PTR [ecx+0x14]
10002d16:	49                   	dec    ecx
10002d17:	83 ec 08             	sub    esp,0x8
10002d1a:	68 80 80 80 00       	push   0x808080
10002d1f:	6a 01                	push   0x1
10002d21:	52                   	push   edx
10002d22:	51                   	push   ecx
10002d23:	6a 00                	push   0x0
10002d25:	50                   	push   eax
10002d26:	e8 77 15 00 00       	call   0x100042a2
10002d2b:	83 c4 20             	add    esp,0x20
10002d2e:	8b 45 d4             	mov    eax,DWORD PTR [ebp-0x2c]
10002d31:	8b 55 d4             	mov    edx,DWORD PTR [ebp-0x2c]
10002d34:	8b 52 14             	mov    edx,DWORD PTR [edx+0x14]
10002d37:	8b 4d d4             	mov    ecx,DWORD PTR [ebp-0x2c]
10002d3a:	8b 49 10             	mov    ecx,DWORD PTR [ecx+0x10]
10002d3d:	49                   	dec    ecx
10002d3e:	83 ec 08             	sub    esp,0x8
10002d41:	68 80 80 80 00       	push   0x808080
10002d46:	52                   	push   edx
10002d47:	6a 01                	push   0x1
10002d49:	6a 00                	push   0x0
10002d4b:	51                   	push   ecx
10002d4c:	50                   	push   eax
10002d4d:	e8 50 15 00 00       	call   0x100042a2
10002d52:	83 c4 20             	add    esp,0x20
10002d55:	eb 7b                	jmp    0x10002dd2
10002d57:	8b 45 d4             	mov    eax,DWORD PTR [ebp-0x2c]
10002d5a:	8b 55 d4             	mov    edx,DWORD PTR [ebp-0x2c]
10002d5d:	8b 4a 14             	mov    ecx,DWORD PTR [edx+0x14]
10002d60:	8b 55 d4             	mov    edx,DWORD PTR [ebp-0x2c]
10002d63:	8b 52 10             	mov    edx,DWORD PTR [edx+0x10]
10002d66:	83 ec 08             	sub    esp,0x8
10002d69:	68 aa aa aa 00       	push   0xaaaaaa
10002d6e:	51                   	push   ecx
10002d6f:	52                   	push   edx
10002d70:	6a 00                	push   0x0
10002d72:	6a 00                	push   0x0
10002d74:	50                   	push   eax
10002d75:	e8 fc 14 00 00       	call   0x10004276
10002d7a:	83 c4 20             	add    esp,0x20
10002d7d:	8b 45 d4             	mov    eax,DWORD PTR [ebp-0x2c]
10002d80:	8b 55 d4             	mov    edx,DWORD PTR [ebp-0x2c]
10002d83:	8b 4a 14             	mov    ecx,DWORD PTR [edx+0x14]
10002d86:	8b 55 d4             	mov    edx,DWORD PTR [ebp-0x2c]
10002d89:	8b 52 10             	mov    edx,DWORD PTR [edx+0x10]
10002d8c:	83 ec 08             	sub    esp,0x8
10002d8f:	68 80 80 80 00       	push   0x808080
10002d94:	51                   	push   ecx
10002d95:	52                   	push   edx
10002d96:	6a 00                	push   0x0
10002d98:	6a 00                	push   0x0
10002d9a:	50                   	push   eax
10002d9b:	e8 02 15 00 00       	call   0x100042a2
10002da0:	83 c4 20             	add    esp,0x20
10002da3:	8b 45 d4             	mov    eax,DWORD PTR [ebp-0x2c]
10002da6:	8b 55 d4             	mov    edx,DWORD PTR [ebp-0x2c]
10002da9:	8b 52 14             	mov    edx,DWORD PTR [edx+0x14]
10002dac:	8d 4a fe             	lea    ecx,[edx-0x2]
10002daf:	8b 55 d4             	mov    edx,DWORD PTR [ebp-0x2c]
10002db2:	8b 52 10             	mov    edx,DWORD PTR [edx+0x10]
10002db5:	83 ea 02             	sub    edx,0x2
10002db8:	83 ec 08             	sub    esp,0x8
10002dbb:	68 80 80 80 00       	push   0x808080
10002dc0:	51                   	push   ecx
10002dc1:	52                   	push   edx
10002dc2:	6a 01                	push   0x1
10002dc4:	6a 01                	push   0x1
10002dc6:	50                   	push   eax
10002dc7:	e8 d6 14 00 00       	call   0x100042a2
10002dcc:	83 c4 20             	add    esp,0x20
10002dcf:	eb 01                	jmp    0x10002dd2
10002dd1:	90                   	nop
10002dd2:	e9 28 01 00 00       	jmp    0x10002eff
10002dd7:	8b 45 d4             	mov    eax,DWORD PTR [ebp-0x2c]
10002dda:	8b 40 2c             	mov    eax,DWORD PTR [eax+0x2c]
10002ddd:	83 f8 01             	cmp    eax,0x1
10002de0:	0f 84 ca 00 00 00    	je     0x10002eb0
10002de6:	83 f8 02             	cmp    eax,0x2
10002de9:	74 0d                	je     0x10002df8
10002deb:	85 c0                	test   eax,eax
10002ded:	0f 84 e5 00 00 00    	je     0x10002ed8
10002df3:	e9 07 01 00 00       	jmp    0x10002eff
10002df8:	8b 45 d4             	mov    eax,DWORD PTR [ebp-0x2c]
10002dfb:	8b 55 d4             	mov    edx,DWORD PTR [ebp-0x2c]
10002dfe:	8b 4a 14             	mov    ecx,DWORD PTR [edx+0x14]
10002e01:	8b 55 d4             	mov    edx,DWORD PTR [ebp-0x2c]
10002e04:	8b 52 10             	mov    edx,DWORD PTR [edx+0x10]
10002e07:	83 ec 08             	sub    esp,0x8
10002e0a:	68 d0 d0 d0 00       	push   0xd0d0d0
10002e0f:	51                   	push   ecx
10002e10:	52                   	push   edx
10002e11:	6a 00                	push   0x0
10002e13:	6a 00                	push   0x0
10002e15:	50                   	push   eax
10002e16:	e8 5b 14 00 00       	call   0x10004276
10002e1b:	83 c4 20             	add    esp,0x20
10002e1e:	8b 45 d4             	mov    eax,DWORD PTR [ebp-0x2c]
10002e21:	8b 55 d4             	mov    edx,DWORD PTR [ebp-0x2c]
10002e24:	8b 52 10             	mov    edx,DWORD PTR [edx+0x10]
10002e27:	83 ec 08             	sub    esp,0x8
10002e2a:	68 ff ff ff 00       	push   0xffffff
10002e2f:	6a 01                	push   0x1
10002e31:	52                   	push   edx
10002e32:	6a 00                	push   0x0
10002e34:	6a 00                	push   0x0
10002e36:	50                   	push   eax
10002e37:	e8 66 14 00 00       	call   0x100042a2
10002e3c:	83 c4 20             	add    esp,0x20
10002e3f:	8b 45 d4             	mov    eax,DWORD PTR [ebp-0x2c]
10002e42:	8b 55 d4             	mov    edx,DWORD PTR [ebp-0x2c]
10002e45:	8b 52 14             	mov    edx,DWORD PTR [edx+0x14]
10002e48:	83 ec 08             	sub    esp,0x8
10002e4b:	68 ff ff ff 00       	push   0xffffff
10002e50:	52                   	push   edx
10002e51:	6a 01                	push   0x1
10002e53:	6a 00                	push   0x0
10002e55:	6a 00                	push   0x0
10002e57:	50                   	push   eax
10002e58:	e8 45 14 00 00       	call   0x100042a2
10002e5d:	83 c4 20             	add    esp,0x20
10002e60:	8b 45 d4             	mov    eax,DWORD PTR [ebp-0x2c]
10002e63:	8b 55 d4             	mov    edx,DWORD PTR [ebp-0x2c]
10002e66:	8b 52 10             	mov    edx,DWORD PTR [edx+0x10]
10002e69:	8b 4d d4             	mov    ecx,DWORD PTR [ebp-0x2c]
10002e6c:	8b 49 14             	mov    ecx,DWORD PTR [ecx+0x14]
10002e6f:	49                   	dec    ecx
10002e70:	83 ec 08             	sub    esp,0x8
10002e73:	68 80 80 80 00       	push   0x808080
10002e78:	6a 01                	push   0x1
10002e7a:	52                   	push   edx
10002e7b:	51                   	push   ecx
10002e7c:	6a 00                	push   0x0
10002e7e:	50                   	push   eax
10002e7f:	e8 1e 14 00 00       	call   0x100042a2
10002e84:	83 c4 20             	add    esp,0x20
10002e87:	8b 45 d4             	mov    eax,DWORD PTR [ebp-0x2c]
10002e8a:	8b 55 d4             	mov    edx,DWORD PTR [ebp-0x2c]
10002e8d:	8b 52 14             	mov    edx,DWORD PTR [edx+0x14]
10002e90:	8b 4d d4             	mov    ecx,DWORD PTR [ebp-0x2c]
10002e93:	8b 49 10             	mov    ecx,DWORD PTR [ecx+0x10]
10002e96:	49                   	dec    ecx
10002e97:	83 ec 08             	sub    esp,0x8
10002e9a:	68 80 80 80 00       	push   0x808080
10002e9f:	52                   	push   edx
10002ea0:	6a 01                	push   0x1
10002ea2:	6a 00                	push   0x0
10002ea4:	51                   	push   ecx
10002ea5:	50                   	push   eax
10002ea6:	e8 f7 13 00 00       	call   0x100042a2
10002eab:	83 c4 20             	add    esp,0x20
10002eae:	eb 4f                	jmp    0x10002eff
10002eb0:	8b 45 d4             	mov    eax,DWORD PTR [ebp-0x2c]
10002eb3:	8b 55 d4             	mov    edx,DWORD PTR [ebp-0x2c]
10002eb6:	8b 4a 14             	mov    ecx,DWORD PTR [edx+0x14]
10002eb9:	8b 55 d4             	mov    edx,DWORD PTR [ebp-0x2c]
10002ebc:	8b 52 10             	mov    edx,DWORD PTR [edx+0x10]
10002ebf:	83 ec 08             	sub    esp,0x8
10002ec2:	68 d0 d0 d0 00       	push   0xd0d0d0
10002ec7:	51                   	push   ecx
10002ec8:	52                   	push   edx
10002ec9:	6a 00                	push   0x0
10002ecb:	6a 00                	push   0x0
10002ecd:	50                   	push   eax
10002ece:	e8 a3 13 00 00       	call   0x10004276
10002ed3:	83 c4 20             	add    esp,0x20
10002ed6:	eb 27                	jmp    0x10002eff
10002ed8:	8b 45 d4             	mov    eax,DWORD PTR [ebp-0x2c]
10002edb:	8b 55 d4             	mov    edx,DWORD PTR [ebp-0x2c]
10002ede:	8b 4a 14             	mov    ecx,DWORD PTR [edx+0x14]
10002ee1:	8b 55 d4             	mov    edx,DWORD PTR [ebp-0x2c]
10002ee4:	8b 52 10             	mov    edx,DWORD PTR [edx+0x10]
10002ee7:	83 ec 08             	sub    esp,0x8
10002eea:	68 aa aa aa 00       	push   0xaaaaaa
10002eef:	51                   	push   ecx
10002ef0:	52                   	push   edx
10002ef1:	6a 00                	push   0x0
10002ef3:	6a 00                	push   0x0
10002ef5:	50                   	push   eax
10002ef6:	e8 7b 13 00 00       	call   0x10004276
10002efb:	83 c4 20             	add    esp,0x20
10002efe:	90                   	nop
10002eff:	8b 45 d4             	mov    eax,DWORD PTR [ebp-0x2c]
10002f02:	8b 40 48             	mov    eax,DWORD PTR [eax+0x48]
10002f05:	85 c0                	test   eax,eax
10002f07:	0f 84 5c 03 00 00    	je     0x10003269
10002f0d:	8b 45 d4             	mov    eax,DWORD PTR [ebp-0x2c]
10002f10:	8b 40 34             	mov    eax,DWORD PTR [eax+0x34]
10002f13:	83 f8 01             	cmp    eax,0x1
10002f16:	0f 84 4d 03 00 00    	je     0x10003269
10002f1c:	8b 45 d4             	mov    eax,DWORD PTR [ebp-0x2c]
10002f1f:	8b 40 34             	mov    eax,DWORD PTR [eax+0x34]
10002f22:	83 f8 02             	cmp    eax,0x2
10002f25:	74 16                	je     0x10002f3d
10002f27:	83 f8 03             	cmp    eax,0x3
10002f2a:	0f 84 53 01 00 00    	je     0x10003083
10002f30:	85 c0                	test   eax,eax
10002f32:	0f 84 98 02 00 00    	je     0x100031d0
10002f38:	e9 27 03 00 00       	jmp    0x10003264
10002f3d:	8b 45 d4             	mov    eax,DWORD PTR [ebp-0x2c]
10002f40:	8b 58 28             	mov    ebx,DWORD PTR [eax+0x28]
10002f43:	8b 45 d4             	mov    eax,DWORD PTR [ebp-0x2c]
10002f46:	83 ec 0c             	sub    esp,0xc
10002f49:	50                   	push   eax
10002f4a:	e8 f1 12 00 00       	call   0x10004240
10002f4f:	83 c4 10             	add    esp,0x10
10002f52:	8d 55 c0             	lea    edx,[ebp-0x40]
10002f55:	52                   	push   edx
10002f56:	8d 55 c4             	lea    edx,[ebp-0x3c]
10002f59:	52                   	push   edx
10002f5a:	53                   	push   ebx
10002f5b:	50                   	push   eax
10002f5c:	e8 4d f5 ff ff       	call   0x100024ae
10002f61:	83 c4 10             	add    esp,0x10
10002f64:	8b 45 d4             	mov    eax,DWORD PTR [ebp-0x2c]
10002f67:	8b 40 48             	mov    eax,DWORD PTR [eax+0x48]
10002f6a:	8b 10                	mov    edx,DWORD PTR [eax]
10002f6c:	8b 45 d4             	mov    eax,DWORD PTR [ebp-0x2c]
10002f6f:	8b 40 40             	mov    eax,DWORD PTR [eax+0x40]
10002f72:	01 c2                	add    edx,eax
10002f74:	8b 45 d4             	mov    eax,DWORD PTR [ebp-0x2c]
10002f77:	8b 40 44             	mov    eax,DWORD PTR [eax+0x44]
10002f7a:	01 c2                	add    edx,eax
10002f7c:	8b 45 c4             	mov    eax,DWORD PTR [ebp-0x3c]
10002f7f:	01 d0                	add    eax,edx
10002f81:	89 45 c4             	mov    DWORD PTR [ebp-0x3c],eax
10002f84:	8b 45 d4             	mov    eax,DWORD PTR [ebp-0x2c]
10002f87:	8b 50 10             	mov    edx,DWORD PTR [eax+0x10]
10002f8a:	8b 45 c4             	mov    eax,DWORD PTR [ebp-0x3c]
10002f8d:	29 c2                	sub    edx,eax
10002f8f:	89 d0                	mov    eax,edx
10002f91:	89 c2                	mov    edx,eax
10002f93:	c1 ea 1f             	shr    edx,0x1f
10002f96:	01 d0                	add    eax,edx
10002f98:	d1 f8                	sar    eax,1
10002f9a:	89 45 e4             	mov    DWORD PTR [ebp-0x1c],eax
10002f9d:	8b 45 d4             	mov    eax,DWORD PTR [ebp-0x2c]
10002fa0:	8b 40 38             	mov    eax,DWORD PTR [eax+0x38]
10002fa3:	83 f8 ff             	cmp    eax,0xffffffff
10002fa6:	74 09                	je     0x10002fb1
10002fa8:	8b 45 d4             	mov    eax,DWORD PTR [ebp-0x2c]
10002fab:	8b 40 38             	mov    eax,DWORD PTR [eax+0x38]
10002fae:	89 45 e4             	mov    DWORD PTR [ebp-0x1c],eax
10002fb1:	8b 45 d4             	mov    eax,DWORD PTR [ebp-0x2c]
10002fb4:	8b 40 48             	mov    eax,DWORD PTR [eax+0x48]
10002fb7:	8b 78 04             	mov    edi,DWORD PTR [eax+0x4]
10002fba:	8b 45 d4             	mov    eax,DWORD PTR [ebp-0x2c]
10002fbd:	8b 40 48             	mov    eax,DWORD PTR [eax+0x48]
10002fc0:	8b 30                	mov    esi,DWORD PTR [eax]
10002fc2:	8b 45 d4             	mov    eax,DWORD PTR [ebp-0x2c]
10002fc5:	8b 50 14             	mov    edx,DWORD PTR [eax+0x14]
10002fc8:	8b 45 d4             	mov    eax,DWORD PTR [ebp-0x2c]
10002fcb:	8b 40 48             	mov    eax,DWORD PTR [eax+0x48]
10002fce:	8b 40 04             	mov    eax,DWORD PTR [eax+0x4]
10002fd1:	29 c2                	sub    edx,eax
10002fd3:	89 d0                	mov    eax,edx
10002fd5:	89 c2                	mov    edx,eax
10002fd7:	c1 ea 1f             	shr    edx,0x1f
10002fda:	01 d0                	add    eax,edx
10002fdc:	d1 f8                	sar    eax,1
10002fde:	89 45 a4             	mov    DWORD PTR [ebp-0x5c],eax
10002fe1:	8b 45 d4             	mov    eax,DWORD PTR [ebp-0x2c]
10002fe4:	8b 40 48             	mov    eax,DWORD PTR [eax+0x48]
10002fe7:	8b 58 08             	mov    ebx,DWORD PTR [eax+0x8]
10002fea:	8b 45 d4             	mov    eax,DWORD PTR [ebp-0x2c]
10002fed:	83 ec 0c             	sub    esp,0xc
10002ff0:	50                   	push   eax
10002ff1:	e8 4a 12 00 00       	call   0x10004240
10002ff6:	83 c4 10             	add    esp,0x10
10002ff9:	83 ec 08             	sub    esp,0x8
10002ffc:	57                   	push   edi
10002ffd:	56                   	push   esi
10002ffe:	ff 75 a4             	push   DWORD PTR [ebp-0x5c]
10003001:	ff 75 e4             	push   DWORD PTR [ebp-0x1c]
10003004:	53                   	push   ebx
10003005:	50                   	push   eax
10003006:	e8 a6 f3 ff ff       	call   0x100023b1
1000300b:	83 c4 20             	add    esp,0x20
1000300e:	8b 45 d4             	mov    eax,DWORD PTR [ebp-0x2c]
10003011:	8b 50 44             	mov    edx,DWORD PTR [eax+0x44]
10003014:	8b 45 d4             	mov    eax,DWORD PTR [ebp-0x2c]
10003017:	8b 40 48             	mov    eax,DWORD PTR [eax+0x48]
1000301a:	8b 00                	mov    eax,DWORD PTR [eax]
1000301c:	01 d0                	add    eax,edx
1000301e:	01 45 e4             	add    DWORD PTR [ebp-0x1c],eax
10003021:	8b 45 d4             	mov    eax,DWORD PTR [ebp-0x2c]
10003024:	8b 40 3c             	mov    eax,DWORD PTR [eax+0x3c]
10003027:	83 f8 ff             	cmp    eax,0xffffffff
1000302a:	74 09                	je     0x10003035
1000302c:	8b 45 d4             	mov    eax,DWORD PTR [ebp-0x2c]
1000302f:	8b 40 3c             	mov    eax,DWORD PTR [eax+0x3c]
10003032:	89 45 e4             	mov    DWORD PTR [ebp-0x1c],eax
10003035:	8b 55 d4             	mov    edx,DWORD PTR [ebp-0x2c]
10003038:	8b 45 d4             	mov    eax,DWORD PTR [ebp-0x2c]
1000303b:	8b 48 28             	mov    ecx,DWORD PTR [eax+0x28]
1000303e:	8b 45 d4             	mov    eax,DWORD PTR [ebp-0x2c]
10003041:	8a 40 25             	mov    al,BYTE PTR [eax+0x25]
10003044:	84 c0                	test   al,al
10003046:	74 07                	je     0x1000304f
10003048:	b8 80 80 80 00       	mov    eax,0x808080
1000304d:	eb 06                	jmp    0x10003055
1000304f:	8b 45 d4             	mov    eax,DWORD PTR [ebp-0x2c]
10003052:	8b 40 50             	mov    eax,DWORD PTR [eax+0x50]
10003055:	8b 5d d4             	mov    ebx,DWORD PTR [ebp-0x2c]
10003058:	8b 73 14             	mov    esi,DWORD PTR [ebx+0x14]
1000305b:	8b 5d c0             	mov    ebx,DWORD PTR [ebp-0x40]
1000305e:	29 de                	sub    esi,ebx
10003060:	89 f3                	mov    ebx,esi
10003062:	89 de                	mov    esi,ebx
10003064:	c1 ee 1f             	shr    esi,0x1f
10003067:	01 f3                	add    ebx,esi
10003069:	d1 fb                	sar    ebx,1
1000306b:	83 ec 0c             	sub    esp,0xc
1000306e:	51                   	push   ecx
1000306f:	50                   	push   eax
10003070:	53                   	push   ebx
10003071:	ff 75 e4             	push   DWORD PTR [ebp-0x1c]
10003074:	52                   	push   edx
10003075:	e8 a4 12 00 00       	call   0x1000431e
1000307a:	83 c4 20             	add    esp,0x20
1000307d:	90                   	nop
1000307e:	e9 e1 01 00 00       	jmp    0x10003264
10003083:	8b 45 d4             	mov    eax,DWORD PTR [ebp-0x2c]
10003086:	8b 58 28             	mov    ebx,DWORD PTR [eax+0x28]
10003089:	8b 45 d4             	mov    eax,DWORD PTR [ebp-0x2c]
1000308c:	83 ec 0c             	sub    esp,0xc
1000308f:	50                   	push   eax
10003090:	e8 ab 11 00 00       	call   0x10004240
10003095:	83 c4 10             	add    esp,0x10
10003098:	8d 55 b8             	lea    edx,[ebp-0x48]
1000309b:	52                   	push   edx
1000309c:	8d 55 bc             	lea    edx,[ebp-0x44]
1000309f:	52                   	push   edx
100030a0:	53                   	push   ebx
100030a1:	50                   	push   eax
100030a2:	e8 07 f4 ff ff       	call   0x100024ae
100030a7:	83 c4 10             	add    esp,0x10
100030aa:	8b 45 d4             	mov    eax,DWORD PTR [ebp-0x2c]
100030ad:	8b 50 40             	mov    edx,DWORD PTR [eax+0x40]
100030b0:	8b 45 bc             	mov    eax,DWORD PTR [ebp-0x44]
100030b3:	01 d0                	add    eax,edx
100030b5:	89 45 bc             	mov    DWORD PTR [ebp-0x44],eax
100030b8:	8b 45 bc             	mov    eax,DWORD PTR [ebp-0x44]
100030bb:	89 45 d0             	mov    DWORD PTR [ebp-0x30],eax
100030be:	8b 45 d4             	mov    eax,DWORD PTR [ebp-0x2c]
100030c1:	8b 40 48             	mov    eax,DWORD PTR [eax+0x48]
100030c4:	8b 10                	mov    edx,DWORD PTR [eax]
100030c6:	8b 45 d4             	mov    eax,DWORD PTR [ebp-0x2c]
100030c9:	8b 40 44             	mov    eax,DWORD PTR [eax+0x44]
100030cc:	01 c2                	add    edx,eax
100030ce:	8b 45 bc             	mov    eax,DWORD PTR [ebp-0x44]
100030d1:	01 d0                	add    eax,edx
100030d3:	89 45 bc             	mov    DWORD PTR [ebp-0x44],eax
100030d6:	8b 45 d4             	mov    eax,DWORD PTR [ebp-0x2c]
100030d9:	8b 50 10             	mov    edx,DWORD PTR [eax+0x10]
100030dc:	8b 45 bc             	mov    eax,DWORD PTR [ebp-0x44]
100030df:	29 c2                	sub    edx,eax
100030e1:	89 d0                	mov    eax,edx
100030e3:	89 c2                	mov    edx,eax
100030e5:	c1 ea 1f             	shr    edx,0x1f
100030e8:	01 d0                	add    eax,edx
100030ea:	d1 f8                	sar    eax,1
100030ec:	89 45 e0             	mov    DWORD PTR [ebp-0x20],eax
100030ef:	8b 45 d4             	mov    eax,DWORD PTR [ebp-0x2c]
100030f2:	8b 40 3c             	mov    eax,DWORD PTR [eax+0x3c]
100030f5:	83 f8 ff             	cmp    eax,0xffffffff
100030f8:	74 09                	je     0x10003103
100030fa:	8b 45 d4             	mov    eax,DWORD PTR [ebp-0x2c]
100030fd:	8b 40 3c             	mov    eax,DWORD PTR [eax+0x3c]
10003100:	89 45 e0             	mov    DWORD PTR [ebp-0x20],eax
10003103:	8b 55 d4             	mov    edx,DWORD PTR [ebp-0x2c]
10003106:	8b 45 d4             	mov    eax,DWORD PTR [ebp-0x2c]
10003109:	8b 48 28             	mov    ecx,DWORD PTR [eax+0x28]
1000310c:	8b 45 d4             	mov    eax,DWORD PTR [ebp-0x2c]
1000310f:	8a 40 25             	mov    al,BYTE PTR [eax+0x25]
10003112:	84 c0                	test   al,al
10003114:	74 07                	je     0x1000311d
10003116:	b8 80 80 80 00       	mov    eax,0x808080
1000311b:	eb 06                	jmp    0x10003123
1000311d:	8b 45 d4             	mov    eax,DWORD PTR [ebp-0x2c]
10003120:	8b 40 50             	mov    eax,DWORD PTR [eax+0x50]
10003123:	8b 5d d4             	mov    ebx,DWORD PTR [ebp-0x2c]
10003126:	8b 73 14             	mov    esi,DWORD PTR [ebx+0x14]
10003129:	8b 5d b8             	mov    ebx,DWORD PTR [ebp-0x48]
1000312c:	29 de                	sub    esi,ebx
1000312e:	89 f3                	mov    ebx,esi
10003130:	89 de                	mov    esi,ebx
10003132:	c1 ee 1f             	shr    esi,0x1f
10003135:	01 f3                	add    ebx,esi
10003137:	d1 fb                	sar    ebx,1
10003139:	83 ec 0c             	sub    esp,0xc
1000313c:	51                   	push   ecx
1000313d:	50                   	push   eax
1000313e:	53                   	push   ebx
1000313f:	ff 75 e0             	push   DWORD PTR [ebp-0x20]
10003142:	52                   	push   edx
10003143:	e8 d6 11 00 00       	call   0x1000431e
10003148:	83 c4 20             	add    esp,0x20
1000314b:	8b 45 d4             	mov    eax,DWORD PTR [ebp-0x2c]
1000314e:	8b 50 44             	mov    edx,DWORD PTR [eax+0x44]
10003151:	8b 45 d0             	mov    eax,DWORD PTR [ebp-0x30]
10003154:	01 d0                	add    eax,edx
10003156:	01 45 e0             	add    DWORD PTR [ebp-0x20],eax
10003159:	8b 45 d4             	mov    eax,DWORD PTR [ebp-0x2c]
1000315c:	8b 40 38             	mov    eax,DWORD PTR [eax+0x38]
1000315f:	83 f8 ff             	cmp    eax,0xffffffff
10003162:	74 09                	je     0x1000316d
10003164:	8b 45 d4             	mov    eax,DWORD PTR [ebp-0x2c]
10003167:	8b 40 38             	mov    eax,DWORD PTR [eax+0x38]
1000316a:	89 45 e0             	mov    DWORD PTR [ebp-0x20],eax
1000316d:	8b 45 d4             	mov    eax,DWORD PTR [ebp-0x2c]
10003170:	8b 40 48             	mov    eax,DWORD PTR [eax+0x48]
10003173:	8b 78 04             	mov    edi,DWORD PTR [eax+0x4]
10003176:	8b 45 d4             	mov    eax,DWORD PTR [ebp-0x2c]
10003179:	8b 40 48             	mov    eax,DWORD PTR [eax+0x48]
1000317c:	8b 30                	mov    esi,DWORD PTR [eax]
1000317e:	8b 45 d4             	mov    eax,DWORD PTR [ebp-0x2c]
10003181:	8b 50 14             	mov    edx,DWORD PTR [eax+0x14]
10003184:	8b 45 d4             	mov    eax,DWORD PTR [ebp-0x2c]
10003187:	8b 40 48             	mov    eax,DWORD PTR [eax+0x48]
1000318a:	8b 40 04             	mov    eax,DWORD PTR [eax+0x4]
1000318d:	29 c2                	sub    edx,eax
1000318f:	89 d0                	mov    eax,edx
10003191:	89 c2                	mov    edx,eax
10003193:	c1 ea 1f             	shr    edx,0x1f
10003196:	01 d0                	add    eax,edx
10003198:	d1 f8                	sar    eax,1
1000319a:	89 45 a4             	mov    DWORD PTR [ebp-0x5c],eax
1000319d:	8b 45 d4             	mov    eax,DWORD PTR [ebp-0x2c]
100031a0:	8b 40 48             	mov    eax,DWORD PTR [eax+0x48]
100031a3:	8b 58 08             	mov    ebx,DWORD PTR [eax+0x8]
100031a6:	8b 45 d4             	mov    eax,DWORD PTR [ebp-0x2c]
100031a9:	83 ec 0c             	sub    esp,0xc
100031ac:	50                   	push   eax
100031ad:	e8 8e 10 00 00       	call   0x10004240
100031b2:	83 c4 10             	add    esp,0x10
100031b5:	83 ec 08             	sub    esp,0x8
100031b8:	57                   	push   edi
100031b9:	56                   	push   esi
100031ba:	ff 75 a4             	push   DWORD PTR [ebp-0x5c]
100031bd:	ff 75 e0             	push   DWORD PTR [ebp-0x20]
100031c0:	53                   	push   ebx
100031c1:	50                   	push   eax
100031c2:	e8 ea f1 ff ff       	call   0x100023b1
100031c7:	83 c4 20             	add    esp,0x20
100031ca:	90                   	nop
100031cb:	e9 94 00 00 00       	jmp    0x10003264
100031d0:	8b 45 d4             	mov    eax,DWORD PTR [ebp-0x2c]
100031d3:	8b 40 48             	mov    eax,DWORD PTR [eax+0x48]
100031d6:	8b 00                	mov    eax,DWORD PTR [eax]
100031d8:	89 45 cc             	mov    DWORD PTR [ebp-0x34],eax
100031db:	8b 45 d4             	mov    eax,DWORD PTR [ebp-0x2c]
100031de:	8b 40 48             	mov    eax,DWORD PTR [eax+0x48]
100031e1:	8b 40 04             	mov    eax,DWORD PTR [eax+0x4]
100031e4:	89 45 c8             	mov    DWORD PTR [ebp-0x38],eax
100031e7:	8b 45 d4             	mov    eax,DWORD PTR [ebp-0x2c]
100031ea:	8b 40 10             	mov    eax,DWORD PTR [eax+0x10]
100031ed:	2b 45 cc             	sub    eax,DWORD PTR [ebp-0x34]
100031f0:	89 c2                	mov    edx,eax
100031f2:	c1 ea 1f             	shr    edx,0x1f
100031f5:	01 d0                	add    eax,edx
100031f7:	d1 f8                	sar    eax,1
100031f9:	89 45 dc             	mov    DWORD PTR [ebp-0x24],eax
100031fc:	8b 45 d4             	mov    eax,DWORD PTR [ebp-0x2c]
100031ff:	8b 40 38             	mov    eax,DWORD PTR [eax+0x38]
10003202:	83 f8 ff             	cmp    eax,0xffffffff
10003205:	74 09                	je     0x10003210
10003207:	8b 45 d4             	mov    eax,DWORD PTR [ebp-0x2c]
1000320a:	8b 40 38             	mov    eax,DWORD PTR [eax+0x38]
1000320d:	89 45 dc             	mov    DWORD PTR [ebp-0x24],eax
10003210:	8b 45 d4             	mov    eax,DWORD PTR [ebp-0x2c]
10003213:	8b 40 48             	mov    eax,DWORD PTR [eax+0x48]
10003216:	8b 78 04             	mov    edi,DWORD PTR [eax+0x4]
10003219:	8b 45 d4             	mov    eax,DWORD PTR [ebp-0x2c]
1000321c:	8b 40 48             	mov    eax,DWORD PTR [eax+0x48]
1000321f:	8b 30                	mov    esi,DWORD PTR [eax]
10003221:	8b 45 d4             	mov    eax,DWORD PTR [ebp-0x2c]
10003224:	8b 40 14             	mov    eax,DWORD PTR [eax+0x14]
10003227:	2b 45 c8             	sub    eax,DWORD PTR [ebp-0x38]
1000322a:	89 c2                	mov    edx,eax
1000322c:	c1 ea 1f             	shr    edx,0x1f
1000322f:	01 d0                	add    eax,edx
10003231:	d1 f8                	sar    eax,1
10003233:	89 45 a4             	mov    DWORD PTR [ebp-0x5c],eax
10003236:	8b 45 d4             	mov    eax,DWORD PTR [ebp-0x2c]
10003239:	8b 40 48             	mov    eax,DWORD PTR [eax+0x48]
1000323c:	8b 58 08             	mov    ebx,DWORD PTR [eax+0x8]
1000323f:	8b 45 d4             	mov    eax,DWORD PTR [ebp-0x2c]
10003242:	83 ec 0c             	sub    esp,0xc
10003245:	50                   	push   eax
10003246:	e8 f5 0f 00 00       	call   0x10004240
1000324b:	83 c4 10             	add    esp,0x10
1000324e:	83 ec 08             	sub    esp,0x8
10003251:	57                   	push   edi
10003252:	56                   	push   esi
10003253:	ff 75 a4             	push   DWORD PTR [ebp-0x5c]
10003256:	ff 75 dc             	push   DWORD PTR [ebp-0x24]
10003259:	53                   	push   ebx
1000325a:	50                   	push   eax
1000325b:	e8 51 f1 ff ff       	call   0x100023b1
10003260:	83 c4 20             	add    esp,0x20
10003263:	90                   	nop
10003264:	e9 f2 00 00 00       	jmp    0x1000335b
10003269:	8b 45 d4             	mov    eax,DWORD PTR [ebp-0x2c]
1000326c:	8b 58 28             	mov    ebx,DWORD PTR [eax+0x28]
1000326f:	8b 45 d4             	mov    eax,DWORD PTR [ebp-0x2c]
10003272:	83 ec 0c             	sub    esp,0xc
10003275:	50                   	push   eax
10003276:	e8 c5 0f 00 00       	call   0x10004240
1000327b:	83 c4 10             	add    esp,0x10
1000327e:	8d 55 b0             	lea    edx,[ebp-0x50]
10003281:	52                   	push   edx
10003282:	8d 55 b4             	lea    edx,[ebp-0x4c]
10003285:	52                   	push   edx
10003286:	53                   	push   ebx
10003287:	50                   	push   eax
10003288:	e8 21 f2 ff ff       	call   0x100024ae
1000328d:	83 c4 10             	add    esp,0x10
10003290:	8b 45 d4             	mov    eax,DWORD PTR [ebp-0x2c]
10003293:	8b 50 10             	mov    edx,DWORD PTR [eax+0x10]
10003296:	8b 45 b4             	mov    eax,DWORD PTR [ebp-0x4c]
10003299:	29 c2                	sub    edx,eax
1000329b:	89 d0                	mov    eax,edx
1000329d:	89 c2                	mov    edx,eax
1000329f:	c1 ea 1f             	shr    edx,0x1f
100032a2:	01 d0                	add    eax,edx
100032a4:	d1 f8                	sar    eax,1
100032a6:	89 45 d8             	mov    DWORD PTR [ebp-0x28],eax
100032a9:	8b 45 d4             	mov    eax,DWORD PTR [ebp-0x2c]
100032ac:	8b 40 3c             	mov    eax,DWORD PTR [eax+0x3c]
100032af:	83 f8 ff             	cmp    eax,0xffffffff
100032b2:	74 09                	je     0x100032bd
100032b4:	8b 45 d4             	mov    eax,DWORD PTR [ebp-0x2c]
100032b7:	8b 40 3c             	mov    eax,DWORD PTR [eax+0x3c]
100032ba:	89 45 d8             	mov    DWORD PTR [ebp-0x28],eax
100032bd:	8b 55 d4             	mov    edx,DWORD PTR [ebp-0x2c]
100032c0:	8b 45 d4             	mov    eax,DWORD PTR [ebp-0x2c]
100032c3:	8b 48 28             	mov    ecx,DWORD PTR [eax+0x28]
100032c6:	8b 45 d4             	mov    eax,DWORD PTR [ebp-0x2c]
100032c9:	8a 40 25             	mov    al,BYTE PTR [eax+0x25]
100032cc:	84 c0                	test   al,al
100032ce:	74 07                	je     0x100032d7
100032d0:	b8 80 80 80 00       	mov    eax,0x808080
100032d5:	eb 06                	jmp    0x100032dd
100032d7:	8b 45 d4             	mov    eax,DWORD PTR [ebp-0x2c]
100032da:	8b 40 50             	mov    eax,DWORD PTR [eax+0x50]
100032dd:	8b 5d d4             	mov    ebx,DWORD PTR [ebp-0x2c]
100032e0:	8b 73 14             	mov    esi,DWORD PTR [ebx+0x14]
100032e3:	8b 5d b0             	mov    ebx,DWORD PTR [ebp-0x50]
100032e6:	29 de                	sub    esi,ebx
100032e8:	89 f3                	mov    ebx,esi
100032ea:	89 de                	mov    esi,ebx
100032ec:	c1 ee 1f             	shr    esi,0x1f
100032ef:	01 f3                	add    ebx,esi
100032f1:	d1 fb                	sar    ebx,1
100032f3:	83 ec 0c             	sub    esp,0xc
100032f6:	51                   	push   ecx
100032f7:	50                   	push   eax
100032f8:	53                   	push   ebx
100032f9:	ff 75 d8             	push   DWORD PTR [ebp-0x28]
100032fc:	52                   	push   edx
100032fd:	e8 1c 10 00 00       	call   0x1000431e
10003302:	83 c4 20             	add    esp,0x20
10003305:	8b 45 d4             	mov    eax,DWORD PTR [ebp-0x2c]
10003308:	8a 40 58             	mov    al,BYTE PTR [eax+0x58]
1000330b:	84 c0                	test   al,al
1000330d:	74 4c                	je     0x1000335b
1000330f:	8b 55 d4             	mov    edx,DWORD PTR [ebp-0x2c]
10003312:	8b 45 d4             	mov    eax,DWORD PTR [ebp-0x2c]
10003315:	8b 48 28             	mov    ecx,DWORD PTR [eax+0x28]
10003318:	8b 45 d4             	mov    eax,DWORD PTR [ebp-0x2c]
1000331b:	8a 40 25             	mov    al,BYTE PTR [eax+0x25]
1000331e:	84 c0                	test   al,al
10003320:	74 07                	je     0x10003329
10003322:	b8 80 80 80 00       	mov    eax,0x808080
10003327:	eb 06                	jmp    0x1000332f
10003329:	8b 45 d4             	mov    eax,DWORD PTR [ebp-0x2c]
1000332c:	8b 40 50             	mov    eax,DWORD PTR [eax+0x50]
1000332f:	8b 5d d4             	mov    ebx,DWORD PTR [ebp-0x2c]
10003332:	8b 73 14             	mov    esi,DWORD PTR [ebx+0x14]
10003335:	8b 5d b0             	mov    ebx,DWORD PTR [ebp-0x50]
10003338:	29 de                	sub    esi,ebx
1000333a:	89 f3                	mov    ebx,esi
1000333c:	89 de                	mov    esi,ebx
1000333e:	c1 ee 1f             	shr    esi,0x1f
10003341:	01 f3                	add    ebx,esi
10003343:	d1 fb                	sar    ebx,1
10003345:	89 de                	mov    esi,ebx
10003347:	8b 5d d8             	mov    ebx,DWORD PTR [ebp-0x28]
1000334a:	43                   	inc    ebx
1000334b:	83 ec 0c             	sub    esp,0xc
1000334e:	51                   	push   ecx
1000334f:	50                   	push   eax
10003350:	56                   	push   esi
10003351:	53                   	push   ebx
10003352:	52                   	push   edx
10003353:	e8 c6 0f 00 00       	call   0x1000431e
10003358:	83 c4 20             	add    esp,0x20
1000335b:	b8 00 00 00 00       	mov    eax,0x0
10003360:	8d 65 f4             	lea    esp,[ebp-0xc]
10003363:	5b                   	pop    ebx
10003364:	5e                   	pop    esi
10003365:	5f                   	pop    edi
10003366:	5d                   	pop    ebp
10003367:	c3                   	ret    
10003368:	55                   	push   ebp
10003369:	89 e5                	mov    ebp,esp
1000336b:	83 ec 08             	sub    esp,0x8
1000336e:	8b 45 08             	mov    eax,DWORD PTR [ebp+0x8]
10003371:	8b 55 0c             	mov    edx,DWORD PTR [ebp+0xc]
10003374:	89 50 54             	mov    DWORD PTR [eax+0x54],edx
10003377:	8b 45 08             	mov    eax,DWORD PTR [ebp+0x8]
1000337a:	83 ec 0c             	sub    esp,0xc
1000337d:	50                   	push   eax
1000337e:	e8 9f 0d 00 00       	call   0x10004122
10003383:	83 c4 10             	add    esp,0x10
10003386:	90                   	nop
10003387:	c9                   	leave  
10003388:	c3                   	ret    
10003389:	90                   	nop
1000338a:	55                   	push   ebp
1000338b:	89 e5                	mov    ebp,esp
1000338d:	8b 45 08             	mov    eax,DWORD PTR [ebp+0x8]
10003390:	8b 40 54             	mov    eax,DWORD PTR [eax+0x54]
10003393:	5d                   	pop    ebp
10003394:	c3                   	ret    
10003395:	90                   	nop
10003396:	55                   	push   ebp
10003397:	89 e5                	mov    ebp,esp
10003399:	83 ec 08             	sub    esp,0x8
1000339c:	8b 45 08             	mov    eax,DWORD PTR [ebp+0x8]
1000339f:	8b 55 0c             	mov    edx,DWORD PTR [ebp+0xc]
100033a2:	89 50 50             	mov    DWORD PTR [eax+0x50],edx
100033a5:	8b 45 08             	mov    eax,DWORD PTR [ebp+0x8]
100033a8:	83 ec 0c             	sub    esp,0xc
100033ab:	50                   	push   eax
100033ac:	e8 71 0d 00 00       	call   0x10004122
100033b1:	83 c4 10             	add    esp,0x10
100033b4:	90                   	nop
100033b5:	c9                   	leave  
100033b6:	c3                   	ret    
100033b7:	90                   	nop
100033b8:	55                   	push   ebp
100033b9:	89 e5                	mov    ebp,esp
100033bb:	8b 45 08             	mov    eax,DWORD PTR [ebp+0x8]
100033be:	8b 40 50             	mov    eax,DWORD PTR [eax+0x50]
100033c1:	5d                   	pop    ebp
100033c2:	c3                   	ret    
100033c3:	55                   	push   ebp
100033c4:	89 e5                	mov    ebp,esp
100033c6:	83 ec 08             	sub    esp,0x8
100033c9:	8b 45 0c             	mov    eax,DWORD PTR [ebp+0xc]
100033cc:	8a 40 24             	mov    al,BYTE PTR [eax+0x24]
100033cf:	83 f0 01             	xor    eax,0x1
100033d2:	84 c0                	test   al,al
100033d4:	74 16                	je     0x100033ec
100033d6:	8b 45 0c             	mov    eax,DWORD PTR [ebp+0xc]
100033d9:	c6 40 24 01          	mov    BYTE PTR [eax+0x24],0x1
100033dd:	8b 45 0c             	mov    eax,DWORD PTR [ebp+0xc]
100033e0:	83 ec 0c             	sub    esp,0xc
100033e3:	50                   	push   eax
100033e4:	e8 5b 0d 00 00       	call   0x10004144
100033e9:	83 c4 10             	add    esp,0x10
100033ec:	90                   	nop
100033ed:	c9                   	leave  
100033ee:	c3                   	ret    
100033ef:	55                   	push   ebp
100033f0:	89 e5                	mov    ebp,esp
100033f2:	83 ec 08             	sub    esp,0x8
100033f5:	8b 45 0c             	mov    eax,DWORD PTR [ebp+0xc]
100033f8:	8a 40 24             	mov    al,BYTE PTR [eax+0x24]
100033fb:	84 c0                	test   al,al
100033fd:	74 16                	je     0x10003415
100033ff:	8b 45 0c             	mov    eax,DWORD PTR [ebp+0xc]
10003402:	c6 40 24 00          	mov    BYTE PTR [eax+0x24],0x0
10003406:	8b 45 0c             	mov    eax,DWORD PTR [ebp+0xc]
10003409:	83 ec 0c             	sub    esp,0xc
1000340c:	50                   	push   eax
1000340d:	e8 32 0d 00 00       	call   0x10004144
10003412:	83 c4 10             	add    esp,0x10
10003415:	90                   	nop
10003416:	c9                   	leave  
10003417:	c3                   	ret    
10003418:	55                   	push   ebp
10003419:	89 e5                	mov    ebp,esp
1000341b:	83 ec 08             	sub    esp,0x8
1000341e:	8b 45 0c             	mov    eax,DWORD PTR [ebp+0xc]
10003421:	8a 40 26             	mov    al,BYTE PTR [eax+0x26]
10003424:	83 f0 01             	xor    eax,0x1
10003427:	84 c0                	test   al,al
10003429:	74 16                	je     0x10003441
1000342b:	8b 45 0c             	mov    eax,DWORD PTR [ebp+0xc]
1000342e:	c6 40 26 01          	mov    BYTE PTR [eax+0x26],0x1
10003432:	8b 45 0c             	mov    eax,DWORD PTR [ebp+0xc]
10003435:	83 ec 0c             	sub    esp,0xc
10003438:	50                   	push   eax
10003439:	e8 06 0d 00 00       	call   0x10004144
1000343e:	83 c4 10             	add    esp,0x10
10003441:	90                   	nop
10003442:	c9                   	leave  
10003443:	c3                   	ret    
10003444:	55                   	push   ebp
10003445:	89 e5                	mov    ebp,esp
10003447:	83 ec 08             	sub    esp,0x8
1000344a:	8b 45 0c             	mov    eax,DWORD PTR [ebp+0xc]
1000344d:	8a 40 26             	mov    al,BYTE PTR [eax+0x26]
10003450:	84 c0                	test   al,al
10003452:	74 3b                	je     0x1000348f
10003454:	8b 45 0c             	mov    eax,DWORD PTR [ebp+0xc]
10003457:	c6 40 26 00          	mov    BYTE PTR [eax+0x26],0x0
1000345b:	8b 45 0c             	mov    eax,DWORD PTR [ebp+0xc]
1000345e:	8a 40 24             	mov    al,BYTE PTR [eax+0x24]
10003461:	84 c0                	test   al,al
10003463:	74 1b                	je     0x10003480
10003465:	8b 45 0c             	mov    eax,DWORD PTR [ebp+0xc]
10003468:	8b 40 30             	mov    eax,DWORD PTR [eax+0x30]
1000346b:	85 c0                	test   eax,eax
1000346d:	74 11                	je     0x10003480
1000346f:	8b 45 0c             	mov    eax,DWORD PTR [ebp+0xc]
10003472:	8b 40 30             	mov    eax,DWORD PTR [eax+0x30]
10003475:	83 ec 0c             	sub    esp,0xc
10003478:	ff 75 0c             	push   DWORD PTR [ebp+0xc]
1000347b:	ff d0                	call   eax
1000347d:	83 c4 10             	add    esp,0x10
10003480:	8b 45 0c             	mov    eax,DWORD PTR [ebp+0xc]
10003483:	83 ec 0c             	sub    esp,0xc
10003486:	50                   	push   eax
10003487:	e8 b8 0c 00 00       	call   0x10004144
1000348c:	83 c4 10             	add    esp,0x10
1000348f:	90                   	nop
10003490:	c9                   	leave  
10003491:	c3                   	ret    
10003492:	55                   	push   ebp
10003493:	89 e5                	mov    ebp,esp
10003495:	83 ec 08             	sub    esp,0x8
10003498:	83 ec 0c             	sub    esp,0xc
1000349b:	ff 75 1c             	push   DWORD PTR [ebp+0x1c]
1000349e:	e8 11 30 00 00       	call   0x100064b4
100034a3:	83 c4 10             	add    esp,0x10
100034a6:	ff 75 24             	push   DWORD PTR [ebp+0x24]
100034a9:	ff 75 20             	push   DWORD PTR [ebp+0x20]
100034ac:	50                   	push   eax
100034ad:	ff 75 18             	push   DWORD PTR [ebp+0x18]
100034b0:	ff 75 14             	push   DWORD PTR [ebp+0x14]
100034b3:	ff 75 10             	push   DWORD PTR [ebp+0x10]
100034b6:	ff 75 0c             	push   DWORD PTR [ebp+0xc]
100034b9:	ff 75 08             	push   DWORD PTR [ebp+0x8]
100034bc:	e8 3d 00 00 00       	call   0x100034fe
100034c1:	83 c4 20             	add    esp,0x20
100034c4:	90                   	nop
100034c5:	c9                   	leave  
100034c6:	c3                   	ret    
100034c7:	90                   	nop
100034c8:	55                   	push   ebp
100034c9:	89 e5                	mov    ebp,esp
100034cb:	83 ec 08             	sub    esp,0x8
100034ce:	83 ec 0c             	sub    esp,0xc
100034d1:	ff 75 1c             	push   DWORD PTR [ebp+0x1c]
100034d4:	e8 67 0d 00 00       	call   0x10004240
100034d9:	83 c4 10             	add    esp,0x10
100034dc:	ff 75 24             	push   DWORD PTR [ebp+0x24]
100034df:	ff 75 20             	push   DWORD PTR [ebp+0x20]
100034e2:	50                   	push   eax
100034e3:	ff 75 18             	push   DWORD PTR [ebp+0x18]
100034e6:	ff 75 14             	push   DWORD PTR [ebp+0x14]
100034e9:	ff 75 10             	push   DWORD PTR [ebp+0x10]
100034ec:	ff 75 0c             	push   DWORD PTR [ebp+0xc]
100034ef:	ff 75 08             	push   DWORD PTR [ebp+0x8]
100034f2:	e8 07 00 00 00       	call   0x100034fe
100034f7:	83 c4 20             	add    esp,0x20
100034fa:	90                   	nop
100034fb:	c9                   	leave  
100034fc:	c3                   	ret    
100034fd:	90                   	nop
100034fe:	55                   	push   ebp
100034ff:	89 e5                	mov    ebp,esp
10003501:	83 ec 08             	sub    esp,0x8
10003504:	8b 45 08             	mov    eax,DWORD PTR [ebp+0x8]
10003507:	83 ec 08             	sub    esp,0x8
1000350a:	ff 75 1c             	push   DWORD PTR [ebp+0x1c]
1000350d:	ff 75 18             	push   DWORD PTR [ebp+0x18]
10003510:	ff 75 14             	push   DWORD PTR [ebp+0x14]
10003513:	ff 75 10             	push   DWORD PTR [ebp+0x10]
10003516:	ff 75 0c             	push   DWORD PTR [ebp+0xc]
10003519:	50                   	push   eax
1000351a:	e8 43 0b 00 00       	call   0x10004062
1000351f:	83 c4 20             	add    esp,0x20
10003522:	83 ec 0c             	sub    esp,0xc
10003525:	ff 75 20             	push   DWORD PTR [ebp+0x20]
10003528:	e8 43 77 00 00       	call   0x1000ac70
1000352d:	83 c4 10             	add    esp,0x10
10003530:	40                   	inc    eax
10003531:	83 ec 0c             	sub    esp,0xc
10003534:	50                   	push   eax
10003535:	e8 2a 62 00 00       	call   0x10009764
1000353a:	83 c4 10             	add    esp,0x10
1000353d:	89 c2                	mov    edx,eax
1000353f:	8b 45 08             	mov    eax,DWORD PTR [ebp+0x8]
10003542:	89 50 28             	mov    DWORD PTR [eax+0x28],edx
10003545:	8b 45 08             	mov    eax,DWORD PTR [ebp+0x8]
10003548:	8b 40 28             	mov    eax,DWORD PTR [eax+0x28]
1000354b:	83 ec 08             	sub    esp,0x8
1000354e:	ff 75 20             	push   DWORD PTR [ebp+0x20]
10003551:	50                   	push   eax
10003552:	e8 a9 76 00 00       	call   0x1000ac00
10003557:	83 c4 10             	add    esp,0x10
1000355a:	8b 45 08             	mov    eax,DWORD PTR [ebp+0x8]
1000355d:	8b 55 24             	mov    edx,DWORD PTR [ebp+0x24]
10003560:	89 50 2c             	mov    DWORD PTR [eax+0x2c],edx
10003563:	8b 45 08             	mov    eax,DWORD PTR [ebp+0x8]
10003566:	c7 40 48 00 00 00 00 	mov    DWORD PTR [eax+0x48],0x0
1000356d:	8b 45 08             	mov    eax,DWORD PTR [ebp+0x8]
10003570:	c7 40 30 00 00 00 00 	mov    DWORD PTR [eax+0x30],0x0
10003577:	8b 45 08             	mov    eax,DWORD PTR [ebp+0x8]
1000357a:	c6 40 25 00          	mov    BYTE PTR [eax+0x25],0x0
1000357e:	8b 45 08             	mov    eax,DWORD PTR [ebp+0x8]
10003581:	c7 40 44 02 00 00 00 	mov    DWORD PTR [eax+0x44],0x2
10003588:	8b 45 08             	mov    eax,DWORD PTR [ebp+0x8]
1000358b:	c7 40 40 02 00 00 00 	mov    DWORD PTR [eax+0x40],0x2
10003592:	8b 45 08             	mov    eax,DWORD PTR [ebp+0x8]
10003595:	c7 40 38 ff ff ff ff 	mov    DWORD PTR [eax+0x38],0xffffffff
1000359c:	8b 45 08             	mov    eax,DWORD PTR [ebp+0x8]
1000359f:	c7 40 3c ff ff ff ff 	mov    DWORD PTR [eax+0x3c],0xffffffff
100035a6:	8b 45 08             	mov    eax,DWORD PTR [ebp+0x8]
100035a9:	c7 40 50 00 00 00 00 	mov    DWORD PTR [eax+0x50],0x0
100035b0:	8b 45 08             	mov    eax,DWORD PTR [ebp+0x8]
100035b3:	c7 40 54 00 00 ff 00 	mov    DWORD PTR [eax+0x54],0xff0000
100035ba:	8b 45 08             	mov    eax,DWORD PTR [ebp+0x8]
100035bd:	c6 40 24 00          	mov    BYTE PTR [eax+0x24],0x0
100035c1:	8b 45 08             	mov    eax,DWORD PTR [ebp+0x8]
100035c4:	c6 40 26 00          	mov    BYTE PTR [eax+0x26],0x0
100035c8:	8b 45 08             	mov    eax,DWORD PTR [ebp+0x8]
100035cb:	c6 40 4c 00          	mov    BYTE PTR [eax+0x4c],0x0
100035cf:	8b 45 08             	mov    eax,DWORD PTR [ebp+0x8]
100035d2:	c7 40 20 20 2b 00 10 	mov    DWORD PTR [eax+0x20],0x10002b20
100035d9:	8b 45 08             	mov    eax,DWORD PTR [ebp+0x8]
100035dc:	c6 40 58 00          	mov    BYTE PTR [eax+0x58],0x0
100035e0:	8b 45 08             	mov    eax,DWORD PTR [ebp+0x8]
100035e3:	8b 40 0c             	mov    eax,DWORD PTR [eax+0xc]
100035e6:	c7 40 38 44 34 00 10 	mov    DWORD PTR [eax+0x38],0x10003444
100035ed:	8b 45 08             	mov    eax,DWORD PTR [ebp+0x8]
100035f0:	8b 40 0c             	mov    eax,DWORD PTR [eax+0xc]
100035f3:	c7 40 30 18 34 00 10 	mov    DWORD PTR [eax+0x30],0x10003418
100035fa:	8b 45 08             	mov    eax,DWORD PTR [ebp+0x8]
100035fd:	8b 40 0c             	mov    eax,DWORD PTR [eax+0xc]
10003600:	c7 40 40 c3 33 00 10 	mov    DWORD PTR [eax+0x40],0x100033c3
10003607:	8b 45 08             	mov    eax,DWORD PTR [ebp+0x8]
1000360a:	8b 40 0c             	mov    eax,DWORD PTR [eax+0xc]
1000360d:	c7 40 44 ef 33 00 10 	mov    DWORD PTR [eax+0x44],0x100033ef
10003614:	90                   	nop
10003615:	c9                   	leave  
10003616:	c3                   	ret    
10003617:	90                   	nop
10003618:	55                   	push   ebp
10003619:	89 e5                	mov    ebp,esp
1000361b:	83 ec 04             	sub    esp,0x4
1000361e:	8b 45 0c             	mov    eax,DWORD PTR [ebp+0xc]
10003621:	88 45 fc             	mov    BYTE PTR [ebp-0x4],al
10003624:	8b 45 08             	mov    eax,DWORD PTR [ebp+0x8]
10003627:	8a 55 fc             	mov    dl,BYTE PTR [ebp-0x4]
1000362a:	88 50 58             	mov    BYTE PTR [eax+0x58],dl
1000362d:	90                   	nop
1000362e:	c9                   	leave  
1000362f:	c3                   	ret    
10003630:	55                   	push   ebp
10003631:	89 e5                	mov    ebp,esp
10003633:	6a 00                	push   0x0
10003635:	ff 75 08             	push   DWORD PTR [ebp+0x8]
10003638:	e8 db ff ff ff       	call   0x10003618
1000363d:	83 c4 08             	add    esp,0x8
10003640:	90                   	nop
10003641:	c9                   	leave  
10003642:	c3                   	ret    
10003643:	90                   	nop
10003644:	55                   	push   ebp
10003645:	89 e5                	mov    ebp,esp
10003647:	8b 45 08             	mov    eax,DWORD PTR [ebp+0x8]
1000364a:	8a 40 25             	mov    al,BYTE PTR [eax+0x25]
1000364d:	83 f0 01             	xor    eax,0x1
10003650:	5d                   	pop    ebp
10003651:	c3                   	ret    
10003652:	55                   	push   ebp
10003653:	89 e5                	mov    ebp,esp
10003655:	83 ec 18             	sub    esp,0x18
10003658:	8b 45 0c             	mov    eax,DWORD PTR [ebp+0xc]
1000365b:	88 45 f4             	mov    BYTE PTR [ebp-0xc],al
1000365e:	8a 45 f4             	mov    al,BYTE PTR [ebp-0xc]
10003661:	83 f0 01             	xor    eax,0x1
10003664:	88 c2                	mov    dl,al
10003666:	8b 45 08             	mov    eax,DWORD PTR [ebp+0x8]
10003669:	88 50 25             	mov    BYTE PTR [eax+0x25],dl
1000366c:	8b 45 08             	mov    eax,DWORD PTR [ebp+0x8]
1000366f:	83 ec 0c             	sub    esp,0xc
10003672:	50                   	push   eax
10003673:	e8 aa 0a 00 00       	call   0x10004122
10003678:	83 c4 10             	add    esp,0x10
1000367b:	90                   	nop
1000367c:	c9                   	leave  
1000367d:	c3                   	ret    
1000367e:	55                   	push   ebp
1000367f:	89 e5                	mov    ebp,esp
10003681:	83 ec 08             	sub    esp,0x8
10003684:	83 ec 08             	sub    esp,0x8
10003687:	6a 00                	push   0x0
10003689:	ff 75 08             	push   DWORD PTR [ebp+0x8]
1000368c:	e8 c1 ff ff ff       	call   0x10003652
10003691:	83 c4 10             	add    esp,0x10
10003694:	90                   	nop
10003695:	c9                   	leave  
10003696:	c3                   	ret    
10003697:	90                   	nop
10003698:	55                   	push   ebp
10003699:	89 e5                	mov    ebp,esp
1000369b:	83 ec 08             	sub    esp,0x8
1000369e:	8b 45 08             	mov    eax,DWORD PTR [ebp+0x8]
100036a1:	8b 55 0c             	mov    edx,DWORD PTR [ebp+0xc]
100036a4:	89 50 3c             	mov    DWORD PTR [eax+0x3c],edx
100036a7:	8b 45 08             	mov    eax,DWORD PTR [ebp+0x8]
100036aa:	83 ec 0c             	sub    esp,0xc
100036ad:	50                   	push   eax
100036ae:	e8 6f 0a 00 00       	call   0x10004122
100036b3:	83 c4 10             	add    esp,0x10
100036b6:	90                   	nop
100036b7:	c9                   	leave  
100036b8:	c3                   	ret    
100036b9:	90                   	nop
100036ba:	55                   	push   ebp
100036bb:	89 e5                	mov    ebp,esp
100036bd:	83 ec 08             	sub    esp,0x8
100036c0:	83 ec 08             	sub    esp,0x8
100036c3:	6a ff                	push   0xffffffff
100036c5:	ff 75 08             	push   DWORD PTR [ebp+0x8]
100036c8:	e8 cb ff ff ff       	call   0x10003698
100036cd:	83 c4 10             	add    esp,0x10
100036d0:	90                   	nop
100036d1:	c9                   	leave  
100036d2:	c3                   	ret    
100036d3:	90                   	nop
100036d4:	55                   	push   ebp
100036d5:	89 e5                	mov    ebp,esp
100036d7:	83 ec 08             	sub    esp,0x8
100036da:	8b 45 08             	mov    eax,DWORD PTR [ebp+0x8]
100036dd:	8b 55 0c             	mov    edx,DWORD PTR [ebp+0xc]
100036e0:	89 50 38             	mov    DWORD PTR [eax+0x38],edx
100036e3:	8b 45 08             	mov    eax,DWORD PTR [ebp+0x8]
100036e6:	83 ec 0c             	sub    esp,0xc
100036e9:	50                   	push   eax
100036ea:	e8 33 0a 00 00       	call   0x10004122
100036ef:	83 c4 10             	add    esp,0x10
100036f2:	90                   	nop
100036f3:	c9                   	leave  
100036f4:	c3                   	ret    
100036f5:	90                   	nop
100036f6:	55                   	push   ebp
100036f7:	89 e5                	mov    ebp,esp
100036f9:	83 ec 08             	sub    esp,0x8
100036fc:	83 ec 08             	sub    esp,0x8
100036ff:	6a ff                	push   0xffffffff
10003701:	ff 75 08             	push   DWORD PTR [ebp+0x8]
10003704:	e8 cb ff ff ff       	call   0x100036d4
10003709:	83 c4 10             	add    esp,0x10
1000370c:	90                   	nop
1000370d:	c9                   	leave  
1000370e:	c3                   	ret    
1000370f:	90                   	nop
10003710:	55                   	push   ebp
10003711:	89 e5                	mov    ebp,esp
10003713:	8b 45 08             	mov    eax,DWORD PTR [ebp+0x8]
10003716:	8b 40 28             	mov    eax,DWORD PTR [eax+0x28]
10003719:	5d                   	pop    ebp
1000371a:	c3                   	ret    
1000371b:	90                   	nop
1000371c:	55                   	push   ebp
1000371d:	89 e5                	mov    ebp,esp
1000371f:	83 ec 08             	sub    esp,0x8
10003722:	8b 45 08             	mov    eax,DWORD PTR [ebp+0x8]
10003725:	8b 40 28             	mov    eax,DWORD PTR [eax+0x28]
10003728:	85 c0                	test   eax,eax
1000372a:	74 12                	je     0x1000373e
1000372c:	8b 45 08             	mov    eax,DWORD PTR [ebp+0x8]
1000372f:	8b 40 28             	mov    eax,DWORD PTR [eax+0x28]
10003732:	83 ec 0c             	sub    esp,0xc
10003735:	50                   	push   eax
10003736:	e8 41 60 00 00       	call   0x1000977c
1000373b:	83 c4 10             	add    esp,0x10
1000373e:	83 ec 0c             	sub    esp,0xc
10003741:	ff 75 0c             	push   DWORD PTR [ebp+0xc]
10003744:	e8 27 75 00 00       	call   0x1000ac70
10003749:	83 c4 10             	add    esp,0x10
1000374c:	40                   	inc    eax
1000374d:	83 ec 0c             	sub    esp,0xc
10003750:	50                   	push   eax
10003751:	e8 0e 60 00 00       	call   0x10009764
10003756:	83 c4 10             	add    esp,0x10
10003759:	89 c2                	mov    edx,eax
1000375b:	8b 45 08             	mov    eax,DWORD PTR [ebp+0x8]
1000375e:	89 50 28             	mov    DWORD PTR [eax+0x28],edx
10003761:	8b 45 08             	mov    eax,DWORD PTR [ebp+0x8]
10003764:	8b 40 28             	mov    eax,DWORD PTR [eax+0x28]
10003767:	83 ec 08             	sub    esp,0x8
1000376a:	ff 75 0c             	push   DWORD PTR [ebp+0xc]
1000376d:	50                   	push   eax
1000376e:	e8 8d 74 00 00       	call   0x1000ac00
10003773:	83 c4 10             	add    esp,0x10
10003776:	8b 45 08             	mov    eax,DWORD PTR [ebp+0x8]
10003779:	83 ec 0c             	sub    esp,0xc
1000377c:	50                   	push   eax
1000377d:	e8 a0 09 00 00       	call   0x10004122
10003782:	83 c4 10             	add    esp,0x10
10003785:	90                   	nop
10003786:	c9                   	leave  
10003787:	c3                   	ret    
10003788:	55                   	push   ebp
10003789:	89 e5                	mov    ebp,esp
1000378b:	83 ec 08             	sub    esp,0x8
1000378e:	8b 45 08             	mov    eax,DWORD PTR [ebp+0x8]
10003791:	8b 55 0c             	mov    edx,DWORD PTR [ebp+0xc]
10003794:	89 50 40             	mov    DWORD PTR [eax+0x40],edx
10003797:	8b 45 08             	mov    eax,DWORD PTR [ebp+0x8]
1000379a:	83 ec 0c             	sub    esp,0xc
1000379d:	50                   	push   eax
1000379e:	e8 7f 09 00 00       	call   0x10004122
100037a3:	83 c4 10             	add    esp,0x10
100037a6:	90                   	nop
100037a7:	c9                   	leave  
100037a8:	c3                   	ret    
100037a9:	90                   	nop
100037aa:	55                   	push   ebp
100037ab:	89 e5                	mov    ebp,esp
100037ad:	83 ec 08             	sub    esp,0x8
100037b0:	8b 45 08             	mov    eax,DWORD PTR [ebp+0x8]
100037b3:	8b 55 0c             	mov    edx,DWORD PTR [ebp+0xc]
100037b6:	89 50 44             	mov    DWORD PTR [eax+0x44],edx
100037b9:	8b 45 08             	mov    eax,DWORD PTR [ebp+0x8]
100037bc:	83 ec 0c             	sub    esp,0xc
100037bf:	50                   	push   eax
100037c0:	e8 5d 09 00 00       	call   0x10004122
100037c5:	83 c4 10             	add    esp,0x10
100037c8:	90                   	nop
100037c9:	c9                   	leave  
100037ca:	c3                   	ret    
100037cb:	90                   	nop
100037cc:	55                   	push   ebp
100037cd:	89 e5                	mov    ebp,esp
100037cf:	83 ec 08             	sub    esp,0x8
100037d2:	8b 45 08             	mov    eax,DWORD PTR [ebp+0x8]
100037d5:	8b 55 0c             	mov    edx,DWORD PTR [ebp+0xc]
100037d8:	89 50 2c             	mov    DWORD PTR [eax+0x2c],edx
100037db:	8b 45 08             	mov    eax,DWORD PTR [ebp+0x8]
100037de:	83 ec 0c             	sub    esp,0xc
100037e1:	50                   	push   eax
100037e2:	e8 3b 09 00 00       	call   0x10004122
100037e7:	83 c4 10             	add    esp,0x10
100037ea:	90                   	nop
100037eb:	c9                   	leave  
100037ec:	c3                   	ret    
100037ed:	90                   	nop
100037ee:	55                   	push   ebp
100037ef:	89 e5                	mov    ebp,esp
100037f1:	8b 45 08             	mov    eax,DWORD PTR [ebp+0x8]
100037f4:	8b 40 2c             	mov    eax,DWORD PTR [eax+0x2c]
100037f7:	5d                   	pop    ebp
100037f8:	c3                   	ret    
100037f9:	90                   	nop
100037fa:	55                   	push   ebp
100037fb:	89 e5                	mov    ebp,esp
100037fd:	8b 45 08             	mov    eax,DWORD PTR [ebp+0x8]
10003800:	8b 55 0c             	mov    edx,DWORD PTR [ebp+0xc]
10003803:	89 50 30             	mov    DWORD PTR [eax+0x30],edx
10003806:	90                   	nop
10003807:	5d                   	pop    ebp
10003808:	c3                   	ret    
10003809:	90                   	nop
1000380a:	55                   	push   ebp
1000380b:	89 e5                	mov    ebp,esp
1000380d:	8b 45 08             	mov    eax,DWORD PTR [ebp+0x8]
10003810:	8b 40 30             	mov    eax,DWORD PTR [eax+0x30]
10003813:	5d                   	pop    ebp
10003814:	c3                   	ret    
10003815:	90                   	nop
10003816:	55                   	push   ebp
10003817:	89 e5                	mov    ebp,esp
10003819:	83 ec 08             	sub    esp,0x8
1000381c:	8b 45 08             	mov    eax,DWORD PTR [ebp+0x8]
1000381f:	8b 40 30             	mov    eax,DWORD PTR [eax+0x30]
10003822:	85 c0                	test   eax,eax
10003824:	74 11                	je     0x10003837
10003826:	8b 45 08             	mov    eax,DWORD PTR [ebp+0x8]
10003829:	8b 40 30             	mov    eax,DWORD PTR [eax+0x30]
1000382c:	83 ec 0c             	sub    esp,0xc
1000382f:	ff 75 08             	push   DWORD PTR [ebp+0x8]
10003832:	ff d0                	call   eax
10003834:	83 c4 10             	add    esp,0x10
10003837:	90                   	nop
10003838:	c9                   	leave  
10003839:	c3                   	ret    
1000383a:	55                   	push   ebp
1000383b:	89 e5                	mov    ebp,esp
1000383d:	83 ec 08             	sub    esp,0x8
10003840:	8b 45 08             	mov    eax,DWORD PTR [ebp+0x8]
10003843:	8b 55 0c             	mov    edx,DWORD PTR [ebp+0xc]
10003846:	89 50 34             	mov    DWORD PTR [eax+0x34],edx
10003849:	8b 45 08             	mov    eax,DWORD PTR [ebp+0x8]
1000384c:	83 ec 0c             	sub    esp,0xc
1000384f:	50                   	push   eax
10003850:	e8 cd 08 00 00       	call   0x10004122
10003855:	83 c4 10             	add    esp,0x10
10003858:	90                   	nop
10003859:	c9                   	leave  
1000385a:	c3                   	ret    
1000385b:	90                   	nop
1000385c:	55                   	push   ebp
1000385d:	89 e5                	mov    ebp,esp
1000385f:	53                   	push   ebx
10003860:	83 ec 04             	sub    esp,0x4
10003863:	8b 45 08             	mov    eax,DWORD PTR [ebp+0x8]
10003866:	8b 40 48             	mov    eax,DWORD PTR [eax+0x48]
10003869:	85 c0                	test   eax,eax
1000386b:	74 38                	je     0x100038a5
1000386d:	8b 45 08             	mov    eax,DWORD PTR [ebp+0x8]
10003870:	8a 40 4c             	mov    al,BYTE PTR [eax+0x4c]
10003873:	84 c0                	test   al,al
10003875:	74 2e                	je     0x100038a5
10003877:	8b 45 08             	mov    eax,DWORD PTR [ebp+0x8]
1000387a:	8b 58 48             	mov    ebx,DWORD PTR [eax+0x48]
1000387d:	85 db                	test   ebx,ebx
1000387f:	74 1a                	je     0x1000389b
10003881:	83 ec 0c             	sub    esp,0xc
10003884:	53                   	push   ebx
10003885:	e8 b4 06 00 00       	call   0x10003f3e
1000388a:	83 c4 10             	add    esp,0x10
1000388d:	83 ec 08             	sub    esp,0x8
10003890:	6a 10                	push   0x10
10003892:	53                   	push   ebx
10003893:	e8 60 29 00 00       	call   0x100061f8
10003898:	83 c4 10             	add    esp,0x10
1000389b:	8b 45 08             	mov    eax,DWORD PTR [ebp+0x8]
1000389e:	c7 40 48 00 00 00 00 	mov    DWORD PTR [eax+0x48],0x0
100038a5:	8b 45 08             	mov    eax,DWORD PTR [ebp+0x8]
100038a8:	8b 55 0c             	mov    edx,DWORD PTR [ebp+0xc]
100038ab:	89 50 48             	mov    DWORD PTR [eax+0x48],edx
100038ae:	8b 45 08             	mov    eax,DWORD PTR [ebp+0x8]
100038b1:	c6 40 4c 00          	mov    BYTE PTR [eax+0x4c],0x0
100038b5:	83 ec 08             	sub    esp,0x8
100038b8:	ff 75 10             	push   DWORD PTR [ebp+0x10]
100038bb:	ff 75 08             	push   DWORD PTR [ebp+0x8]
100038be:	e8 77 ff ff ff       	call   0x1000383a
100038c3:	83 c4 10             	add    esp,0x10
100038c6:	90                   	nop
100038c7:	8b 5d fc             	mov    ebx,DWORD PTR [ebp-0x4]
100038ca:	c9                   	leave  
100038cb:	c3                   	ret    
100038cc:	55                   	push   ebp
100038cd:	89 e5                	mov    ebp,esp
100038cf:	53                   	push   ebx
100038d0:	83 ec 04             	sub    esp,0x4
100038d3:	83 ec 0c             	sub    esp,0xc
100038d6:	6a 10                	push   0x10
100038d8:	e8 c1 28 00 00       	call   0x1000619e
100038dd:	83 c4 10             	add    esp,0x10
100038e0:	89 c3                	mov    ebx,eax
100038e2:	83 ec 08             	sub    esp,0x8
100038e5:	ff 75 0c             	push   DWORD PTR [ebp+0xc]
100038e8:	53                   	push   ebx
100038e9:	e8 76 06 00 00       	call   0x10003f64
100038ee:	83 c4 10             	add    esp,0x10
100038f1:	83 ec 04             	sub    esp,0x4
100038f4:	ff 75 10             	push   DWORD PTR [ebp+0x10]
100038f7:	53                   	push   ebx
100038f8:	ff 75 08             	push   DWORD PTR [ebp+0x8]
100038fb:	e8 5c ff ff ff       	call   0x1000385c
10003900:	83 c4 10             	add    esp,0x10
10003903:	8b 45 08             	mov    eax,DWORD PTR [ebp+0x8]
10003906:	c6 40 4c 01          	mov    BYTE PTR [eax+0x4c],0x1
1000390a:	90                   	nop
1000390b:	8b 5d fc             	mov    ebx,DWORD PTR [ebp-0x4]
1000390e:	c9                   	leave  
1000390f:	c3                   	ret    
10003910:	55                   	push   ebp
10003911:	89 e5                	mov    ebp,esp
10003913:	53                   	push   ebx
10003914:	83 ec 04             	sub    esp,0x4
10003917:	8b 45 08             	mov    eax,DWORD PTR [ebp+0x8]
1000391a:	8b 40 48             	mov    eax,DWORD PTR [eax+0x48]
1000391d:	85 c0                	test   eax,eax
1000391f:	74 38                	je     0x10003959
10003921:	8b 45 08             	mov    eax,DWORD PTR [ebp+0x8]
10003924:	8a 40 4c             	mov    al,BYTE PTR [eax+0x4c]
10003927:	84 c0                	test   al,al
10003929:	74 2e                	je     0x10003959
1000392b:	8b 45 08             	mov    eax,DWORD PTR [ebp+0x8]
1000392e:	8b 58 48             	mov    ebx,DWORD PTR [eax+0x48]
10003931:	85 db                	test   ebx,ebx
10003933:	74 1a                	je     0x1000394f
10003935:	83 ec 0c             	sub    esp,0xc
10003938:	53                   	push   ebx
10003939:	e8 00 06 00 00       	call   0x10003f3e
1000393e:	83 c4 10             	add    esp,0x10
10003941:	83 ec 08             	sub    esp,0x8
10003944:	6a 10                	push   0x10
10003946:	53                   	push   ebx
10003947:	e8 ac 28 00 00       	call   0x100061f8
1000394c:	83 c4 10             	add    esp,0x10
1000394f:	8b 45 08             	mov    eax,DWORD PTR [ebp+0x8]
10003952:	c7 40 48 00 00 00 00 	mov    DWORD PTR [eax+0x48],0x0
10003959:	8b 45 08             	mov    eax,DWORD PTR [ebp+0x8]
1000395c:	83 ec 0c             	sub    esp,0xc
1000395f:	50                   	push   eax
10003960:	e8 bd 07 00 00       	call   0x10004122
10003965:	83 c4 10             	add    esp,0x10
10003968:	90                   	nop
10003969:	8b 5d fc             	mov    ebx,DWORD PTR [ebp-0x4]
1000396c:	c9                   	leave  
1000396d:	c3                   	ret    
1000396e:	55                   	push   ebp
1000396f:	89 e5                	mov    ebp,esp
10003971:	53                   	push   ebx
10003972:	83 ec 04             	sub    esp,0x4
10003975:	8b 45 08             	mov    eax,DWORD PTR [ebp+0x8]
10003978:	8b 40 28             	mov    eax,DWORD PTR [eax+0x28]
1000397b:	85 c0                	test   eax,eax
1000397d:	74 12                	je     0x10003991
1000397f:	8b 45 08             	mov    eax,DWORD PTR [ebp+0x8]
10003982:	8b 40 28             	mov    eax,DWORD PTR [eax+0x28]
10003985:	83 ec 0c             	sub    esp,0xc
10003988:	50                   	push   eax
10003989:	e8 ee 5d 00 00       	call   0x1000977c
1000398e:	83 c4 10             	add    esp,0x10
10003991:	8b 45 08             	mov    eax,DWORD PTR [ebp+0x8]
10003994:	8a 40 4c             	mov    al,BYTE PTR [eax+0x4c]
10003997:	84 c0                	test   al,al
10003999:	74 24                	je     0x100039bf
1000399b:	8b 45 08             	mov    eax,DWORD PTR [ebp+0x8]
1000399e:	8b 58 48             	mov    ebx,DWORD PTR [eax+0x48]
100039a1:	85 db                	test   ebx,ebx
100039a3:	74 1a                	je     0x100039bf
100039a5:	83 ec 0c             	sub    esp,0xc
100039a8:	53                   	push   ebx
100039a9:	e8 90 05 00 00       	call   0x10003f3e
100039ae:	83 c4 10             	add    esp,0x10
100039b1:	83 ec 08             	sub    esp,0x8
100039b4:	6a 10                	push   0x10
100039b6:	53                   	push   ebx
100039b7:	e8 3c 28 00 00       	call   0x100061f8
100039bc:	83 c4 10             	add    esp,0x10
100039bf:	8b 45 08             	mov    eax,DWORD PTR [ebp+0x8]
100039c2:	83 ec 0c             	sub    esp,0xc
100039c5:	50                   	push   eax
100039c6:	e8 ff 07 00 00       	call   0x100041ca
100039cb:	83 c4 10             	add    esp,0x10
100039ce:	90                   	nop
100039cf:	8b 5d fc             	mov    ebx,DWORD PTR [ebp-0x4]
100039d2:	c9                   	leave  
100039d3:	c3                   	ret    
100039d4:	55                   	push   ebp
100039d5:	89 e5                	mov    ebp,esp
100039d7:	83 ec 68             	sub    esp,0x68
100039da:	8b 45 08             	mov    eax,DWORD PTR [ebp+0x8]
100039dd:	83 c0 0d             	add    eax,0xd
100039e0:	8a 00                	mov    al,BYTE PTR [eax]
100039e2:	0f b6 c0             	movzx  eax,al
100039e5:	c1 e0 08             	shl    eax,0x8
100039e8:	89 c2                	mov    edx,eax
100039ea:	8b 45 08             	mov    eax,DWORD PTR [ebp+0x8]
100039ed:	83 c0 0c             	add    eax,0xc
100039f0:	8a 00                	mov    al,BYTE PTR [eax]
100039f2:	0f b6 c0             	movzx  eax,al
100039f5:	01 d0                	add    eax,edx
100039f7:	89 45 cc             	mov    DWORD PTR [ebp-0x34],eax
100039fa:	8b 45 08             	mov    eax,DWORD PTR [ebp+0x8]
100039fd:	83 c0 0f             	add    eax,0xf
10003a00:	8a 00                	mov    al,BYTE PTR [eax]
10003a02:	0f b6 c0             	movzx  eax,al
10003a05:	c1 e0 08             	shl    eax,0x8
10003a08:	89 c2                	mov    edx,eax
10003a0a:	8b 45 08             	mov    eax,DWORD PTR [ebp+0x8]
10003a0d:	83 c0 0e             	add    eax,0xe
10003a10:	8a 00                	mov    al,BYTE PTR [eax]
10003a12:	0f b6 c0             	movzx  eax,al
10003a15:	01 d0                	add    eax,edx
10003a17:	89 45 c8             	mov    DWORD PTR [ebp-0x38],eax
10003a1a:	8b 45 cc             	mov    eax,DWORD PTR [ebp-0x34]
10003a1d:	0f af 45 c8          	imul   eax,DWORD PTR [ebp-0x38]
10003a21:	83 c0 02             	add    eax,0x2
10003a24:	c1 e0 02             	shl    eax,0x2
10003a27:	83 ec 0c             	sub    esp,0xc
10003a2a:	50                   	push   eax
10003a2b:	e8 34 5d 00 00       	call   0x10009764
10003a30:	83 c4 10             	add    esp,0x10
10003a33:	89 45 c4             	mov    DWORD PTR [ebp-0x3c],eax
10003a36:	8b 45 08             	mov    eax,DWORD PTR [ebp+0x8]
10003a39:	89 45 c0             	mov    DWORD PTR [ebp-0x40],eax
10003a3c:	83 7d c4 00          	cmp    DWORD PTR [ebp-0x3c],0x0
10003a40:	75 0a                	jne    0x10003a4c
10003a42:	b8 00 00 00 00       	mov    eax,0x0
10003a47:	e9 3f 04 00 00       	jmp    0x10003e8b
10003a4c:	8b 45 c0             	mov    eax,DWORD PTR [ebp-0x40]
10003a4f:	8a 40 11             	mov    al,BYTE PTR [eax+0x11]
10003a52:	0f b6 c0             	movzx  eax,al
10003a55:	83 e0 20             	and    eax,0x20
10003a58:	85 c0                	test   eax,eax
10003a5a:	0f 94 c0             	sete   al
10003a5d:	88 45 bf             	mov    BYTE PTR [ebp-0x41],al
10003a60:	8b 45 c0             	mov    eax,DWORD PTR [ebp-0x40]
10003a63:	66 8b 40 0a          	mov    ax,WORD PTR [eax+0xa]
10003a67:	0f b7 c0             	movzx  eax,ax
10003a6a:	89 45 b8             	mov    DWORD PTR [ebp-0x48],eax
10003a6d:	8b 45 c0             	mov    eax,DWORD PTR [ebp-0x40]
10003a70:	8a 40 01             	mov    al,BYTE PTR [eax+0x1]
10003a73:	84 c0                	test   al,al
10003a75:	74 20                	je     0x10003a97
10003a77:	8b 45 c0             	mov    eax,DWORD PTR [ebp-0x40]
10003a7a:	8a 40 07             	mov    al,BYTE PTR [eax+0x7]
10003a7d:	0f b6 c0             	movzx  eax,al
10003a80:	c1 f8 03             	sar    eax,0x3
10003a83:	89 c2                	mov    edx,eax
10003a85:	8b 45 c0             	mov    eax,DWORD PTR [ebp-0x40]
10003a88:	66 8b 40 05          	mov    ax,WORD PTR [eax+0x5]
10003a8c:	0f b7 c0             	movzx  eax,ax
10003a8f:	0f af c2             	imul   eax,edx
10003a92:	83 c0 12             	add    eax,0x12
10003a95:	eb 05                	jmp    0x10003a9c
10003a97:	b8 12 00 00 00       	mov    eax,0x12
10003a9c:	89 45 b4             	mov    DWORD PTR [ebp-0x4c],eax
10003a9f:	83 7d cc 00          	cmp    DWORD PTR [ebp-0x34],0x0
10003aa3:	7e 06                	jle    0x10003aab
10003aa5:	83 7d c8 00          	cmp    DWORD PTR [ebp-0x38],0x0
10003aa9:	7f 0a                	jg     0x10003ab5
10003aab:	b8 00 00 00 00       	mov    eax,0x0
10003ab0:	e9 d6 03 00 00       	jmp    0x10003e8b
10003ab5:	8b 45 08             	mov    eax,DWORD PTR [ebp+0x8]
10003ab8:	83 c0 02             	add    eax,0x2
10003abb:	8a 00                	mov    al,BYTE PTR [eax]
10003abd:	0f b6 c0             	movzx  eax,al
10003ac0:	83 f8 02             	cmp    eax,0x2
10003ac3:	74 0e                	je     0x10003ad3
10003ac5:	83 f8 0a             	cmp    eax,0xa
10003ac8:	0f 84 3e 01 00 00    	je     0x10003c0c
10003ace:	e9 8c 03 00 00       	jmp    0x10003e5f
10003ad3:	8b 45 c0             	mov    eax,DWORD PTR [ebp-0x40]
10003ad6:	66 8b 40 05          	mov    ax,WORD PTR [eax+0x5]
10003ada:	66 85 c0             	test   ax,ax
10003add:	75 1e                	jne    0x10003afd
10003adf:	8b 45 c0             	mov    eax,DWORD PTR [ebp-0x40]
10003ae2:	8a 40 01             	mov    al,BYTE PTR [eax+0x1]
10003ae5:	84 c0                	test   al,al
10003ae7:	75 14                	jne    0x10003afd
10003ae9:	8b 45 c0             	mov    eax,DWORD PTR [ebp-0x40]
10003aec:	8a 40 10             	mov    al,BYTE PTR [eax+0x10]
10003aef:	3c 18                	cmp    al,0x18
10003af1:	74 22                	je     0x10003b15
10003af3:	8b 45 c0             	mov    eax,DWORD PTR [ebp-0x40]
10003af6:	8a 40 10             	mov    al,BYTE PTR [eax+0x10]
10003af9:	3c 20                	cmp    al,0x20
10003afb:	74 18                	je     0x10003b15
10003afd:	83 ec 0c             	sub    esp,0xc
10003b00:	ff 75 c4             	push   DWORD PTR [ebp-0x3c]
10003b03:	e8 74 5c 00 00       	call   0x1000977c
10003b08:	83 c4 10             	add    esp,0x10
10003b0b:	b8 00 00 00 00       	mov    eax,0x0
10003b10:	e9 76 03 00 00       	jmp    0x10003e8b
10003b15:	8b 45 b4             	mov    eax,DWORD PTR [ebp-0x4c]
10003b18:	89 45 f4             	mov    DWORD PTR [ebp-0xc],eax
10003b1b:	c7 45 f0 00 00 00 00 	mov    DWORD PTR [ebp-0x10],0x0
10003b22:	c7 45 ec 00 00 00 00 	mov    DWORD PTR [ebp-0x14],0x0
10003b29:	8b 45 ec             	mov    eax,DWORD PTR [ebp-0x14]
10003b2c:	3b 45 c8             	cmp    eax,DWORD PTR [ebp-0x38]
10003b2f:	0f 8d 3f 03 00 00    	jge    0x10003e74
10003b35:	c7 45 e8 00 00 00 00 	mov    DWORD PTR [ebp-0x18],0x0
10003b3c:	8b 45 e8             	mov    eax,DWORD PTR [ebp-0x18]
10003b3f:	3b 45 cc             	cmp    eax,DWORD PTR [ebp-0x34]
10003b42:	0f 8d bc 00 00 00    	jge    0x10003c04
10003b48:	80 7d bf 00          	cmp    BYTE PTR [ebp-0x41],0x0
10003b4c:	74 27                	je     0x10003b75
10003b4e:	8b 45 f0             	mov    eax,DWORD PTR [ebp-0x10]
10003b51:	99                   	cdq    
10003b52:	f7 7d cc             	idiv   DWORD PTR [ebp-0x34]
10003b55:	89 d0                	mov    eax,edx
10003b57:	85 c0                	test   eax,eax
10003b59:	75 1a                	jne    0x10003b75
10003b5b:	8b 45 f0             	mov    eax,DWORD PTR [ebp-0x10]
10003b5e:	99                   	cdq    
10003b5f:	f7 7d cc             	idiv   DWORD PTR [ebp-0x34]
10003b62:	89 c2                	mov    edx,eax
10003b64:	8b 45 c8             	mov    eax,DWORD PTR [ebp-0x38]
10003b67:	29 d0                	sub    eax,edx
10003b69:	8d 50 ff             	lea    edx,[eax-0x1]
10003b6c:	8b 45 cc             	mov    eax,DWORD PTR [ebp-0x34]
10003b6f:	0f af c2             	imul   eax,edx
10003b72:	89 45 f0             	mov    DWORD PTR [ebp-0x10],eax
10003b75:	8b 45 c0             	mov    eax,DWORD PTR [ebp-0x40]
10003b78:	8a 40 10             	mov    al,BYTE PTR [eax+0x10]
10003b7b:	3c 20                	cmp    al,0x20
10003b7d:	75 15                	jne    0x10003b94
10003b7f:	8b 45 f4             	mov    eax,DWORD PTR [ebp-0xc]
10003b82:	8d 50 03             	lea    edx,[eax+0x3]
10003b85:	8b 45 08             	mov    eax,DWORD PTR [ebp+0x8]
10003b88:	01 d0                	add    eax,edx
10003b8a:	8a 00                	mov    al,BYTE PTR [eax]
10003b8c:	0f b6 c0             	movzx  eax,al
10003b8f:	c1 e0 18             	shl    eax,0x18
10003b92:	eb 05                	jmp    0x10003b99
10003b94:	b8 00 00 00 00       	mov    eax,0x0
10003b99:	8b 55 f4             	mov    edx,DWORD PTR [ebp-0xc]
10003b9c:	8d 4a 02             	lea    ecx,[edx+0x2]
10003b9f:	8b 55 08             	mov    edx,DWORD PTR [ebp+0x8]
10003ba2:	01 ca                	add    edx,ecx
10003ba4:	8a 12                	mov    dl,BYTE PTR [edx]
10003ba6:	0f b6 d2             	movzx  edx,dl
10003ba9:	c1 e2 10             	shl    edx,0x10
10003bac:	09 c2                	or     edx,eax
10003bae:	8b 45 f4             	mov    eax,DWORD PTR [ebp-0xc]
10003bb1:	8d 48 01             	lea    ecx,[eax+0x1]
10003bb4:	8b 45 08             	mov    eax,DWORD PTR [ebp+0x8]
10003bb7:	01 c8                	add    eax,ecx
10003bb9:	8a 00                	mov    al,BYTE PTR [eax]
10003bbb:	0f b6 c0             	movzx  eax,al
10003bbe:	c1 e0 08             	shl    eax,0x8
10003bc1:	89 d1                	mov    ecx,edx
10003bc3:	09 c1                	or     ecx,eax
10003bc5:	8b 55 f4             	mov    edx,DWORD PTR [ebp-0xc]
10003bc8:	8b 45 08             	mov    eax,DWORD PTR [ebp+0x8]
10003bcb:	01 d0                	add    eax,edx
10003bcd:	8a 00                	mov    al,BYTE PTR [eax]
10003bcf:	0f b6 c0             	movzx  eax,al
10003bd2:	09 c1                	or     ecx,eax
10003bd4:	8b 45 f0             	mov    eax,DWORD PTR [ebp-0x10]
10003bd7:	8d 50 01             	lea    edx,[eax+0x1]
10003bda:	89 55 f0             	mov    DWORD PTR [ebp-0x10],edx
10003bdd:	8d 14 85 00 00 00 00 	lea    edx,[eax*4+0x0]
10003be4:	8b 45 c4             	mov    eax,DWORD PTR [ebp-0x3c]
10003be7:	01 d0                	add    eax,edx
10003be9:	89 ca                	mov    edx,ecx
10003beb:	89 10                	mov    DWORD PTR [eax],edx
10003bed:	8b 45 c0             	mov    eax,DWORD PTR [ebp-0x40]
10003bf0:	8a 40 10             	mov    al,BYTE PTR [eax+0x10]
10003bf3:	0f b6 c0             	movzx  eax,al
10003bf6:	c1 f8 03             	sar    eax,0x3
10003bf9:	01 45 f4             	add    DWORD PTR [ebp-0xc],eax
10003bfc:	ff 45 e8             	inc    DWORD PTR [ebp-0x18]
10003bff:	e9 38 ff ff ff       	jmp    0x10003b3c
10003c04:	ff 45 ec             	inc    DWORD PTR [ebp-0x14]
10003c07:	e9 1d ff ff ff       	jmp    0x10003b29
10003c0c:	8b 45 c0             	mov    eax,DWORD PTR [ebp-0x40]
10003c0f:	66 8b 40 05          	mov    ax,WORD PTR [eax+0x5]
10003c13:	66 85 c0             	test   ax,ax
10003c16:	75 1e                	jne    0x10003c36
10003c18:	8b 45 c0             	mov    eax,DWORD PTR [ebp-0x40]
10003c1b:	8a 40 01             	mov    al,BYTE PTR [eax+0x1]
10003c1e:	84 c0                	test   al,al
10003c20:	75 14                	jne    0x10003c36
10003c22:	8b 45 c0             	mov    eax,DWORD PTR [ebp-0x40]
10003c25:	8a 40 10             	mov    al,BYTE PTR [eax+0x10]
10003c28:	3c 18                	cmp    al,0x18
10003c2a:	74 22                	je     0x10003c4e
10003c2c:	8b 45 c0             	mov    eax,DWORD PTR [ebp-0x40]
10003c2f:	8a 40 10             	mov    al,BYTE PTR [eax+0x10]
10003c32:	3c 20                	cmp    al,0x20
10003c34:	74 18                	je     0x10003c4e
10003c36:	83 ec 0c             	sub    esp,0xc
10003c39:	ff 75 c4             	push   DWORD PTR [ebp-0x3c]
10003c3c:	e8 3b 5b 00 00       	call   0x1000977c
10003c41:	83 c4 10             	add    esp,0x10
10003c44:	b8 00 00 00 00       	mov    eax,0x0
10003c49:	e9 3d 02 00 00       	jmp    0x10003e8b
10003c4e:	8b 45 b4             	mov    eax,DWORD PTR [ebp-0x4c]
10003c51:	89 45 e4             	mov    DWORD PTR [ebp-0x1c],eax
10003c54:	c7 45 e0 00 00 00 00 	mov    DWORD PTR [ebp-0x20],0x0
10003c5b:	c7 45 dc 00 00 00 00 	mov    DWORD PTR [ebp-0x24],0x0
10003c62:	c7 45 d8 00 00 00 00 	mov    DWORD PTR [ebp-0x28],0x0
10003c69:	8b 45 cc             	mov    eax,DWORD PTR [ebp-0x34]
10003c6c:	0f af 45 c8          	imul   eax,DWORD PTR [ebp-0x38]
10003c70:	39 45 d8             	cmp    DWORD PTR [ebp-0x28],eax
10003c73:	0f 8d fe 01 00 00    	jge    0x10003e77
10003c79:	8b 45 e4             	mov    eax,DWORD PTR [ebp-0x1c]
10003c7c:	3b 45 0c             	cmp    eax,DWORD PTR [ebp+0xc]
10003c7f:	0f 8d f2 01 00 00    	jge    0x10003e77
10003c85:	8b 45 e4             	mov    eax,DWORD PTR [ebp-0x1c]
10003c88:	8d 50 01             	lea    edx,[eax+0x1]
10003c8b:	89 55 e4             	mov    DWORD PTR [ebp-0x1c],edx
10003c8e:	89 c2                	mov    edx,eax
10003c90:	8b 45 08             	mov    eax,DWORD PTR [ebp+0x8]
10003c93:	01 d0                	add    eax,edx
10003c95:	8a 00                	mov    al,BYTE PTR [eax]
10003c97:	0f b6 c0             	movzx  eax,al
10003c9a:	89 45 b0             	mov    DWORD PTR [ebp-0x50],eax
10003c9d:	83 7d b0 7f          	cmp    DWORD PTR [ebp-0x50],0x7f
10003ca1:	0f 8e dc 00 00 00    	jle    0x10003d83
10003ca7:	8b 45 b0             	mov    eax,DWORD PTR [ebp-0x50]
10003caa:	83 e0 7f             	and    eax,0x7f
10003cad:	40                   	inc    eax
10003cae:	89 45 ac             	mov    DWORD PTR [ebp-0x54],eax
10003cb1:	8b 45 c0             	mov    eax,DWORD PTR [ebp-0x40]
10003cb4:	8a 40 10             	mov    al,BYTE PTR [eax+0x10]
10003cb7:	3c 20                	cmp    al,0x20
10003cb9:	75 15                	jne    0x10003cd0
10003cbb:	8b 45 e4             	mov    eax,DWORD PTR [ebp-0x1c]
10003cbe:	8d 50 03             	lea    edx,[eax+0x3]
10003cc1:	8b 45 08             	mov    eax,DWORD PTR [ebp+0x8]
10003cc4:	01 d0                	add    eax,edx
10003cc6:	8a 00                	mov    al,BYTE PTR [eax]
10003cc8:	0f b6 c0             	movzx  eax,al
10003ccb:	c1 e0 18             	shl    eax,0x18
10003cce:	eb 05                	jmp    0x10003cd5
10003cd0:	b8 00 00 00 00       	mov    eax,0x0
10003cd5:	8b 55 e4             	mov    edx,DWORD PTR [ebp-0x1c]
10003cd8:	8d 4a 02             	lea    ecx,[edx+0x2]
10003cdb:	8b 55 08             	mov    edx,DWORD PTR [ebp+0x8]
10003cde:	01 ca                	add    edx,ecx
10003ce0:	8a 12                	mov    dl,BYTE PTR [edx]
10003ce2:	0f b6 d2             	movzx  edx,dl
10003ce5:	c1 e2 10             	shl    edx,0x10
10003ce8:	09 c2                	or     edx,eax
10003cea:	8b 45 e4             	mov    eax,DWORD PTR [ebp-0x1c]
10003ced:	8d 48 01             	lea    ecx,[eax+0x1]
10003cf0:	8b 45 08             	mov    eax,DWORD PTR [ebp+0x8]
10003cf3:	01 c8                	add    eax,ecx
10003cf5:	8a 00                	mov    al,BYTE PTR [eax]
10003cf7:	0f b6 c0             	movzx  eax,al
10003cfa:	c1 e0 08             	shl    eax,0x8
10003cfd:	89 d1                	mov    ecx,edx
10003cff:	09 c1                	or     ecx,eax
10003d01:	8b 55 e4             	mov    edx,DWORD PTR [ebp-0x1c]
10003d04:	8b 45 08             	mov    eax,DWORD PTR [ebp+0x8]
10003d07:	01 d0                	add    eax,edx
10003d09:	8a 00                	mov    al,BYTE PTR [eax]
10003d0b:	0f b6 c0             	movzx  eax,al
10003d0e:	09 c8                	or     eax,ecx
10003d10:	89 45 a8             	mov    DWORD PTR [ebp-0x58],eax
10003d13:	c7 45 d4 00 00 00 00 	mov    DWORD PTR [ebp-0x2c],0x0
10003d1a:	8b 45 d4             	mov    eax,DWORD PTR [ebp-0x2c]
10003d1d:	3b 45 ac             	cmp    eax,DWORD PTR [ebp-0x54]
10003d20:	7d 47                	jge    0x10003d69
10003d22:	80 7d bf 00          	cmp    BYTE PTR [ebp-0x41],0x0
10003d26:	74 22                	je     0x10003d4a
10003d28:	8b 45 e0             	mov    eax,DWORD PTR [ebp-0x20]
10003d2b:	99                   	cdq    
10003d2c:	f7 7d cc             	idiv   DWORD PTR [ebp-0x34]
10003d2f:	89 d0                	mov    eax,edx
10003d31:	85 c0                	test   eax,eax
10003d33:	75 15                	jne    0x10003d4a
10003d35:	8b 45 c8             	mov    eax,DWORD PTR [ebp-0x38]
10003d38:	2b 45 dc             	sub    eax,DWORD PTR [ebp-0x24]
10003d3b:	8d 50 ff             	lea    edx,[eax-0x1]
10003d3e:	8b 45 cc             	mov    eax,DWORD PTR [ebp-0x34]
10003d41:	0f af c2             	imul   eax,edx
10003d44:	89 45 e0             	mov    DWORD PTR [ebp-0x20],eax
10003d47:	ff 45 dc             	inc    DWORD PTR [ebp-0x24]
10003d4a:	8b 45 e0             	mov    eax,DWORD PTR [ebp-0x20]
10003d4d:	8d 50 01             	lea    edx,[eax+0x1]
10003d50:	89 55 e0             	mov    DWORD PTR [ebp-0x20],edx
10003d53:	8d 14 85 00 00 00 00 	lea    edx,[eax*4+0x0]
10003d5a:	8b 45 c4             	mov    eax,DWORD PTR [ebp-0x3c]
10003d5d:	01 c2                	add    edx,eax
10003d5f:	8b 45 a8             	mov    eax,DWORD PTR [ebp-0x58]
10003d62:	89 02                	mov    DWORD PTR [edx],eax
10003d64:	ff 45 d4             	inc    DWORD PTR [ebp-0x2c]
10003d67:	eb b1                	jmp    0x10003d1a
10003d69:	8b 45 ac             	mov    eax,DWORD PTR [ebp-0x54]
10003d6c:	01 45 d8             	add    DWORD PTR [ebp-0x28],eax
10003d6f:	8b 45 c0             	mov    eax,DWORD PTR [ebp-0x40]
10003d72:	8a 40 10             	mov    al,BYTE PTR [eax+0x10]
10003d75:	0f b6 c0             	movzx  eax,al
10003d78:	c1 f8 03             	sar    eax,0x3
10003d7b:	01 45 e4             	add    DWORD PTR [ebp-0x1c],eax
10003d7e:	e9 e6 fe ff ff       	jmp    0x10003c69
10003d83:	8b 45 b0             	mov    eax,DWORD PTR [ebp-0x50]
10003d86:	40                   	inc    eax
10003d87:	89 45 a4             	mov    DWORD PTR [ebp-0x5c],eax
10003d8a:	c7 45 d0 00 00 00 00 	mov    DWORD PTR [ebp-0x30],0x0
10003d91:	8b 45 d0             	mov    eax,DWORD PTR [ebp-0x30]
10003d94:	3b 45 a4             	cmp    eax,DWORD PTR [ebp-0x5c]
10003d97:	0f 8d b7 00 00 00    	jge    0x10003e54
10003d9d:	80 7d bf 00          	cmp    BYTE PTR [ebp-0x41],0x0
10003da1:	74 22                	je     0x10003dc5
10003da3:	8b 45 e0             	mov    eax,DWORD PTR [ebp-0x20]
10003da6:	99                   	cdq    
10003da7:	f7 7d cc             	idiv   DWORD PTR [ebp-0x34]
10003daa:	89 d0                	mov    eax,edx
10003dac:	85 c0                	test   eax,eax
10003dae:	75 15                	jne    0x10003dc5
10003db0:	8b 45 c8             	mov    eax,DWORD PTR [ebp-0x38]
10003db3:	2b 45 dc             	sub    eax,DWORD PTR [ebp-0x24]
10003db6:	8d 50 ff             	lea    edx,[eax-0x1]
10003db9:	8b 45 cc             	mov    eax,DWORD PTR [ebp-0x34]
10003dbc:	0f af c2             	imul   eax,edx
10003dbf:	89 45 e0             	mov    DWORD PTR [ebp-0x20],eax
10003dc2:	ff 45 dc             	inc    DWORD PTR [ebp-0x24]
10003dc5:	8b 45 c0             	mov    eax,DWORD PTR [ebp-0x40]
10003dc8:	8a 40 10             	mov    al,BYTE PTR [eax+0x10]
10003dcb:	3c 20                	cmp    al,0x20
10003dcd:	75 15                	jne    0x10003de4
10003dcf:	8b 45 e4             	mov    eax,DWORD PTR [ebp-0x1c]
10003dd2:	8d 50 03             	lea    edx,[eax+0x3]
10003dd5:	8b 45 08             	mov    eax,DWORD PTR [ebp+0x8]
10003dd8:	01 d0                	add    eax,edx
10003dda:	8a 00                	mov    al,BYTE PTR [eax]
10003ddc:	0f b6 c0             	movzx  eax,al
10003ddf:	c1 e0 18             	shl    eax,0x18
10003de2:	eb 05                	jmp    0x10003de9
10003de4:	b8 00 00 00 ff       	mov    eax,0xff000000
10003de9:	8b 55 e4             	mov    edx,DWORD PTR [ebp-0x1c]
10003dec:	8d 4a 02             	lea    ecx,[edx+0x2]
10003def:	8b 55 08             	mov    edx,DWORD PTR [ebp+0x8]
10003df2:	01 ca                	add    edx,ecx
10003df4:	8a 12                	mov    dl,BYTE PTR [edx]
10003df6:	0f b6 d2             	movzx  edx,dl
10003df9:	c1 e2 10             	shl    edx,0x10
10003dfc:	09 c2                	or     edx,eax
10003dfe:	8b 45 e4             	mov    eax,DWORD PTR [ebp-0x1c]
10003e01:	8d 48 01             	lea    ecx,[eax+0x1]
10003e04:	8b 45 08             	mov    eax,DWORD PTR [ebp+0x8]
10003e07:	01 c8                	add    eax,ecx
10003e09:	8a 00                	mov    al,BYTE PTR [eax]
10003e0b:	0f b6 c0             	movzx  eax,al
10003e0e:	c1 e0 08             	shl    eax,0x8
10003e11:	89 d1                	mov    ecx,edx
10003e13:	09 c1                	or     ecx,eax
10003e15:	8b 55 e4             	mov    edx,DWORD PTR [ebp-0x1c]
10003e18:	8b 45 08             	mov    eax,DWORD PTR [ebp+0x8]
10003e1b:	01 d0                	add    eax,edx
10003e1d:	8a 00                	mov    al,BYTE PTR [eax]
10003e1f:	0f b6 c0             	movzx  eax,al
10003e22:	09 c1                	or     ecx,eax
10003e24:	8b 45 e0             	mov    eax,DWORD PTR [ebp-0x20]
10003e27:	8d 50 01             	lea    edx,[eax+0x1]
10003e2a:	89 55 e0             	mov    DWORD PTR [ebp-0x20],edx
10003e2d:	8d 14 85 00 00 00 00 	lea    edx,[eax*4+0x0]
10003e34:	8b 45 c4             	mov    eax,DWORD PTR [ebp-0x3c]
10003e37:	01 d0                	add    eax,edx
10003e39:	89 ca                	mov    edx,ecx
10003e3b:	89 10                	mov    DWORD PTR [eax],edx
10003e3d:	8b 45 c0             	mov    eax,DWORD PTR [ebp-0x40]
10003e40:	8a 40 10             	mov    al,BYTE PTR [eax+0x10]
10003e43:	0f b6 c0             	movzx  eax,al
10003e46:	c1 f8 03             	sar    eax,0x3
10003e49:	01 45 e4             	add    DWORD PTR [ebp-0x1c],eax
10003e4c:	ff 45 d0             	inc    DWORD PTR [ebp-0x30]
10003e4f:	e9 3d ff ff ff       	jmp    0x10003d91
10003e54:	8b 45 a4             	mov    eax,DWORD PTR [ebp-0x5c]
10003e57:	01 45 d8             	add    DWORD PTR [ebp-0x28],eax
10003e5a:	e9 0a fe ff ff       	jmp    0x10003c69
10003e5f:	83 ec 0c             	sub    esp,0xc
10003e62:	ff 75 c4             	push   DWORD PTR [ebp-0x3c]
10003e65:	e8 12 59 00 00       	call   0x1000977c
10003e6a:	83 c4 10             	add    esp,0x10
10003e6d:	b8 00 00 00 00       	mov    eax,0x0
10003e72:	eb 17                	jmp    0x10003e8b
10003e74:	90                   	nop
10003e75:	eb 01                	jmp    0x10003e78
10003e77:	90                   	nop
10003e78:	8b 45 10             	mov    eax,DWORD PTR [ebp+0x10]
10003e7b:	8b 55 cc             	mov    edx,DWORD PTR [ebp-0x34]
10003e7e:	89 10                	mov    DWORD PTR [eax],edx
10003e80:	8b 45 14             	mov    eax,DWORD PTR [ebp+0x14]
10003e83:	8b 55 c8             	mov    edx,DWORD PTR [ebp-0x38]
10003e86:	89 10                	mov    DWORD PTR [eax],edx
10003e88:	8b 45 c4             	mov    eax,DWORD PTR [ebp-0x3c]
10003e8b:	c9                   	leave  
10003e8c:	c3                   	ret    
10003e8d:	55                   	push   ebp
10003e8e:	89 e5                	mov    ebp,esp
10003e90:	83 ec 28             	sub    esp,0x28
10003e93:	8d 45 dc             	lea    eax,[ebp-0x24]
10003e96:	50                   	push   eax
10003e97:	8d 45 e0             	lea    eax,[ebp-0x20]
10003e9a:	50                   	push   eax
10003e9b:	ff 75 14             	push   DWORD PTR [ebp+0x14]
10003e9e:	ff 75 10             	push   DWORD PTR [ebp+0x10]
10003ea1:	e8 2e fb ff ff       	call   0x100039d4
10003ea6:	83 c4 10             	add    esp,0x10
10003ea9:	89 45 f4             	mov    DWORD PTR [ebp-0xc],eax
10003eac:	83 7d f4 00          	cmp    DWORD PTR [ebp-0xc],0x0
10003eb0:	0f 84 85 00 00 00    	je     0x10003f3b
10003eb6:	8b 45 f4             	mov    eax,DWORD PTR [ebp-0xc]
10003eb9:	89 45 e8             	mov    DWORD PTR [ebp-0x18],eax
10003ebc:	8b 45 0c             	mov    eax,DWORD PTR [ebp+0xc]
10003ebf:	89 45 f0             	mov    DWORD PTR [ebp-0x10],eax
10003ec2:	8b 55 dc             	mov    edx,DWORD PTR [ebp-0x24]
10003ec5:	8b 45 0c             	mov    eax,DWORD PTR [ebp+0xc]
10003ec8:	01 d0                	add    eax,edx
10003eca:	39 45 f0             	cmp    DWORD PTR [ebp-0x10],eax
10003ecd:	7d 5c                	jge    0x10003f2b
10003ecf:	8b 45 08             	mov    eax,DWORD PTR [ebp+0x8]
10003ed2:	89 45 ec             	mov    DWORD PTR [ebp-0x14],eax
10003ed5:	8b 55 e0             	mov    edx,DWORD PTR [ebp-0x20]
10003ed8:	8b 45 08             	mov    eax,DWORD PTR [ebp+0x8]
10003edb:	01 d0                	add    eax,edx
10003edd:	39 45 ec             	cmp    DWORD PTR [ebp-0x14],eax
10003ee0:	7d 44                	jge    0x10003f26
10003ee2:	8b 45 f4             	mov    eax,DWORD PTR [ebp-0xc]
10003ee5:	8d 50 04             	lea    edx,[eax+0x4]
10003ee8:	89 55 f4             	mov    DWORD PTR [ebp-0xc],edx
10003eeb:	8b 00                	mov    eax,DWORD PTR [eax]
10003eed:	89 45 e4             	mov    DWORD PTR [ebp-0x1c],eax
10003ef0:	83 7d e4 00          	cmp    DWORD PTR [ebp-0x1c],0x0
10003ef4:	74 2b                	je     0x10003f21
10003ef6:	83 7d e4 00          	cmp    DWORD PTR [ebp-0x1c],0x0
10003efa:	74 25                	je     0x10003f21
10003efc:	8b 45 f0             	mov    eax,DWORD PTR [ebp-0x10]
10003eff:	0f af 45 1c          	imul   eax,DWORD PTR [ebp+0x1c]
10003f03:	89 c2                	mov    edx,eax
10003f05:	8b 45 ec             	mov    eax,DWORD PTR [ebp-0x14]
10003f08:	01 d0                	add    eax,edx
10003f0a:	8d 14 85 00 00 00 00 	lea    edx,[eax*4+0x0]
10003f11:	8b 45 18             	mov    eax,DWORD PTR [ebp+0x18]
10003f14:	01 d0                	add    eax,edx
10003f16:	8b 55 e4             	mov    edx,DWORD PTR [ebp-0x1c]
10003f19:	81 e2 ff ff ff 00    	and    edx,0xffffff
10003f1f:	89 10                	mov    DWORD PTR [eax],edx
10003f21:	ff 45 ec             	inc    DWORD PTR [ebp-0x14]
10003f24:	eb af                	jmp    0x10003ed5
10003f26:	ff 45 f0             	inc    DWORD PTR [ebp-0x10]
10003f29:	eb 97                	jmp    0x10003ec2
10003f2b:	83 ec 0c             	sub    esp,0xc
10003f2e:	ff 75 e8             	push   DWORD PTR [ebp-0x18]
10003f31:	e8 46 58 00 00       	call   0x1000977c
10003f36:	83 c4 10             	add    esp,0x10
10003f39:	eb 01                	jmp    0x10003f3c
10003f3b:	90                   	nop
10003f3c:	c9                   	leave  
10003f3d:	c3                   	ret    
10003f3e:	55                   	push   ebp
10003f3f:	89 e5                	mov    ebp,esp
10003f41:	83 ec 08             	sub    esp,0x8
10003f44:	8b 45 08             	mov    eax,DWORD PTR [ebp+0x8]
10003f47:	8b 40 0c             	mov    eax,DWORD PTR [eax+0xc]
10003f4a:	85 c0                	test   eax,eax
10003f4c:	74 12                	je     0x10003f60
10003f4e:	8b 45 08             	mov    eax,DWORD PTR [ebp+0x8]
10003f51:	8b 40 0c             	mov    eax,DWORD PTR [eax+0xc]
10003f54:	83 ec 0c             	sub    esp,0xc
10003f57:	50                   	push   eax
10003f58:	e8 1f 58 00 00       	call   0x1000977c
10003f5d:	83 c4 10             	add    esp,0x10
10003f60:	90                   	nop
10003f61:	c9                   	leave  
10003f62:	c3                   	ret    
10003f63:	90                   	nop
10003f64:	55                   	push   ebp
10003f65:	89 e5                	mov    ebp,esp
10003f67:	83 ec 28             	sub    esp,0x28
10003f6a:	8b 45 08             	mov    eax,DWORD PTR [ebp+0x8]
10003f6d:	c7 40 0c 00 00 00 00 	mov    DWORD PTR [eax+0xc],0x0
10003f74:	83 ec 08             	sub    esp,0x8
10003f77:	68 e0 69 01 10       	push   0x100169e0
10003f7c:	ff 75 0c             	push   DWORD PTR [ebp+0xc]
10003f7f:	e8 e4 49 00 00       	call   0x10008968
10003f84:	83 c4 10             	add    esp,0x10
10003f87:	89 45 f4             	mov    DWORD PTR [ebp-0xc],eax
10003f8a:	83 ec 04             	sub    esp,0x4
10003f8d:	6a 02                	push   0x2
10003f8f:	6a 00                	push   0x0
10003f91:	ff 75 f4             	push   DWORD PTR [ebp-0xc]
10003f94:	e8 e7 4f 00 00       	call   0x10008f80
10003f99:	83 c4 10             	add    esp,0x10
10003f9c:	83 ec 0c             	sub    esp,0xc
10003f9f:	ff 75 f4             	push   DWORD PTR [ebp-0xc]
10003fa2:	e8 15 54 00 00       	call   0x100093bc
10003fa7:	83 c4 10             	add    esp,0x10
10003faa:	89 45 f0             	mov    DWORD PTR [ebp-0x10],eax
10003fad:	83 ec 0c             	sub    esp,0xc
10003fb0:	ff 75 f4             	push   DWORD PTR [ebp-0xc]
10003fb3:	e8 a0 69 00 00       	call   0x1000a958
10003fb8:	83 c4 10             	add    esp,0x10
10003fbb:	8b 45 f0             	mov    eax,DWORD PTR [ebp-0x10]
10003fbe:	83 ec 0c             	sub    esp,0xc
10003fc1:	50                   	push   eax
10003fc2:	e8 9d 57 00 00       	call   0x10009764
10003fc7:	83 c4 10             	add    esp,0x10
10003fca:	89 45 ec             	mov    DWORD PTR [ebp-0x14],eax
10003fcd:	8b 45 f0             	mov    eax,DWORD PTR [ebp-0x10]
10003fd0:	ff 75 f4             	push   DWORD PTR [ebp-0xc]
10003fd3:	6a 01                	push   0x1
10003fd5:	50                   	push   eax
10003fd6:	ff 75 ec             	push   DWORD PTR [ebp-0x14]
10003fd9:	e8 d2 4b 00 00       	call   0x10008bb0
10003fde:	83 c4 10             	add    esp,0x10
10003fe1:	8d 45 e0             	lea    eax,[ebp-0x20]
10003fe4:	50                   	push   eax
10003fe5:	8d 45 e4             	lea    eax,[ebp-0x1c]
10003fe8:	50                   	push   eax
10003fe9:	ff 75 f0             	push   DWORD PTR [ebp-0x10]
10003fec:	ff 75 ec             	push   DWORD PTR [ebp-0x14]
10003fef:	e8 e0 f9 ff ff       	call   0x100039d4
10003ff4:	83 c4 10             	add    esp,0x10
10003ff7:	89 45 e8             	mov    DWORD PTR [ebp-0x18],eax
10003ffa:	83 ec 0c             	sub    esp,0xc
10003ffd:	ff 75 f4             	push   DWORD PTR [ebp-0xc]
10004000:	e8 1b 43 00 00       	call   0x10008320
10004005:	83 c4 10             	add    esp,0x10
10004008:	83 ec 0c             	sub    esp,0xc
1000400b:	ff 75 ec             	push   DWORD PTR [ebp-0x14]
1000400e:	e8 69 57 00 00       	call   0x1000977c
10004013:	83 c4 10             	add    esp,0x10
10004016:	8b 45 08             	mov    eax,DWORD PTR [ebp+0x8]
10004019:	8b 55 e8             	mov    edx,DWORD PTR [ebp-0x18]
1000401c:	89 50 08             	mov    DWORD PTR [eax+0x8],edx
1000401f:	8b 45 08             	mov    eax,DWORD PTR [ebp+0x8]
10004022:	8b 55 e8             	mov    edx,DWORD PTR [ebp-0x18]
10004025:	89 50 0c             	mov    DWORD PTR [eax+0xc],edx
10004028:	8b 55 e4             	mov    edx,DWORD PTR [ebp-0x1c]
1000402b:	8b 45 08             	mov    eax,DWORD PTR [ebp+0x8]
1000402e:	89 10                	mov    DWORD PTR [eax],edx
10004030:	8b 55 e0             	mov    edx,DWORD PTR [ebp-0x20]
10004033:	8b 45 08             	mov    eax,DWORD PTR [ebp+0x8]
10004036:	89 50 04             	mov    DWORD PTR [eax+0x4],edx
10004039:	90                   	nop
1000403a:	c9                   	leave  
1000403b:	c3                   	ret    
1000403c:	55                   	push   ebp
1000403d:	89 e5                	mov    ebp,esp
1000403f:	83 ec 18             	sub    esp,0x18
10004042:	8b 45 0c             	mov    eax,DWORD PTR [ebp+0xc]
10004045:	8b 40 20             	mov    eax,DWORD PTR [eax+0x20]
10004048:	89 45 f4             	mov    DWORD PTR [ebp-0xc],eax
1000404b:	83 7d f4 00          	cmp    DWORD PTR [ebp-0xc],0x0
1000404f:	74 0e                	je     0x1000405f
10004051:	83 ec 0c             	sub    esp,0xc
10004054:	ff 75 0c             	push   DWORD PTR [ebp+0xc]
10004057:	8b 45 f4             	mov    eax,DWORD PTR [ebp-0xc]
1000405a:	ff d0                	call   eax
1000405c:	83 c4 10             	add    esp,0x10
1000405f:	90                   	nop
10004060:	c9                   	leave  
10004061:	c3                   	ret    
10004062:	55                   	push   ebp
10004063:	89 e5                	mov    ebp,esp
10004065:	57                   	push   edi
10004066:	56                   	push   esi
10004067:	53                   	push   ebx
10004068:	83 ec 0c             	sub    esp,0xc
1000406b:	8b 45 08             	mov    eax,DWORD PTR [ebp+0x8]
1000406e:	8b 55 1c             	mov    edx,DWORD PTR [ebp+0x1c]
10004071:	89 10                	mov    DWORD PTR [eax],edx
10004073:	8b 45 08             	mov    eax,DWORD PTR [ebp+0x8]
10004076:	8b 55 0c             	mov    edx,DWORD PTR [ebp+0xc]
10004079:	89 50 18             	mov    DWORD PTR [eax+0x18],edx
1000407c:	8b 45 08             	mov    eax,DWORD PTR [ebp+0x8]
1000407f:	8b 55 10             	mov    edx,DWORD PTR [ebp+0x10]
10004082:	89 50 1c             	mov    DWORD PTR [eax+0x1c],edx
10004085:	8b 45 08             	mov    eax,DWORD PTR [ebp+0x8]
10004088:	8b 55 14             	mov    edx,DWORD PTR [ebp+0x14]
1000408b:	89 50 10             	mov    DWORD PTR [eax+0x10],edx
1000408e:	8b 45 08             	mov    eax,DWORD PTR [ebp+0x8]
10004091:	8b 55 18             	mov    edx,DWORD PTR [ebp+0x18]
10004094:	89 50 14             	mov    DWORD PTR [eax+0x14],edx
10004097:	8b 45 08             	mov    eax,DWORD PTR [ebp+0x8]
1000409a:	c6 40 08 01          	mov    BYTE PTR [eax+0x8],0x1
1000409e:	8b 45 08             	mov    eax,DWORD PTR [ebp+0x8]
100040a1:	c6 40 09 00          	mov    BYTE PTR [eax+0x9],0x0
100040a5:	8b 45 08             	mov    eax,DWORD PTR [ebp+0x8]
100040a8:	c7 40 04 00 00 00 00 	mov    DWORD PTR [eax+0x4],0x0
100040af:	83 ec 0c             	sub    esp,0xc
100040b2:	6a 50                	push   0x50
100040b4:	e8 ab 56 00 00       	call   0x10009764
100040b9:	83 c4 10             	add    esp,0x10
100040bc:	89 c2                	mov    edx,eax
100040be:	8b 45 08             	mov    eax,DWORD PTR [ebp+0x8]
100040c1:	89 50 0c             	mov    DWORD PTR [eax+0xc],edx
100040c4:	8b 45 08             	mov    eax,DWORD PTR [ebp+0x8]
100040c7:	8b 38                	mov    edi,DWORD PTR [eax]
100040c9:	8b 45 18             	mov    eax,DWORD PTR [ebp+0x18]
100040cc:	0f b7 f0             	movzx  esi,ax
100040cf:	8b 45 14             	mov    eax,DWORD PTR [ebp+0x14]
100040d2:	0f b7 d8             	movzx  ebx,ax
100040d5:	8b 45 08             	mov    eax,DWORD PTR [ebp+0x8]
100040d8:	8b 40 1c             	mov    eax,DWORD PTR [eax+0x1c]
100040db:	0f bf c8             	movsx  ecx,ax
100040de:	8b 45 08             	mov    eax,DWORD PTR [ebp+0x8]
100040e1:	8b 40 18             	mov    eax,DWORD PTR [eax+0x18]
100040e4:	0f bf d0             	movsx  edx,ax
100040e7:	8b 45 08             	mov    eax,DWORD PTR [ebp+0x8]
100040ea:	8b 40 0c             	mov    eax,DWORD PTR [eax+0xc]
100040ed:	83 ec 04             	sub    esp,0x4
100040f0:	57                   	push   edi
100040f1:	6a 01                	push   0x1
100040f3:	56                   	push   esi
100040f4:	53                   	push   ebx
100040f5:	51                   	push   ecx
100040f6:	52                   	push   edx
100040f7:	50                   	push   eax
100040f8:	e8 0f 2d 00 00       	call   0x10006e0c
100040fd:	83 c4 20             	add    esp,0x20
10004100:	8b 45 08             	mov    eax,DWORD PTR [ebp+0x8]
10004103:	8b 40 0c             	mov    eax,DWORD PTR [eax+0xc]
10004106:	c7 40 28 3c 40 00 10 	mov    DWORD PTR [eax+0x28],0x1000403c
1000410d:	8b 45 08             	mov    eax,DWORD PTR [ebp+0x8]
10004110:	8b 40 0c             	mov    eax,DWORD PTR [eax+0xc]
10004113:	8b 55 08             	mov    edx,DWORD PTR [ebp+0x8]
10004116:	89 50 2c             	mov    DWORD PTR [eax+0x2c],edx
10004119:	90                   	nop
1000411a:	8d 65 f4             	lea    esp,[ebp-0xc]
1000411d:	5b                   	pop    ebx
1000411e:	5e                   	pop    esi
1000411f:	5f                   	pop    edi
10004120:	5d                   	pop    ebp
10004121:	c3                   	ret    
10004122:	55                   	push   ebp
10004123:	89 e5                	mov    ebp,esp
10004125:	83 ec 08             	sub    esp,0x8
10004128:	8b 45 08             	mov    eax,DWORD PTR [ebp+0x8]
1000412b:	8a 40 08             	mov    al,BYTE PTR [eax+0x8]
1000412e:	84 c0                	test   al,al
10004130:	74 0e                	je     0x10004140
10004132:	83 ec 0c             	sub    esp,0xc
10004135:	ff 75 08             	push   DWORD PTR [ebp+0x8]
10004138:	e8 07 00 00 00       	call   0x10004144
1000413d:	83 c4 10             	add    esp,0x10
10004140:	90                   	nop
10004141:	c9                   	leave  
10004142:	c3                   	ret    
10004143:	90                   	nop
10004144:	55                   	push   ebp
10004145:	89 e5                	mov    ebp,esp
10004147:	83 ec 08             	sub    esp,0x8
1000414a:	8b 45 08             	mov    eax,DWORD PTR [ebp+0x8]
1000414d:	8a 40 09             	mov    al,BYTE PTR [eax+0x9]
10004150:	84 c0                	test   al,al
10004152:	75 41                	jne    0x10004195
10004154:	8b 45 08             	mov    eax,DWORD PTR [ebp+0x8]
10004157:	c6 40 09 01          	mov    BYTE PTR [eax+0x9],0x1
1000415b:	8b 45 08             	mov    eax,DWORD PTR [ebp+0x8]
1000415e:	8b 40 0c             	mov    eax,DWORD PTR [eax+0xc]
10004161:	8b 40 08             	mov    eax,DWORD PTR [eax+0x8]
10004164:	0f b7 c8             	movzx  ecx,ax
10004167:	8b 45 08             	mov    eax,DWORD PTR [ebp+0x8]
1000416a:	8b 40 0c             	mov    eax,DWORD PTR [eax+0xc]
1000416d:	66 8b 40 0a          	mov    ax,WORD PTR [eax+0xa]
10004171:	0f b7 d0             	movzx  edx,ax
10004174:	8b 45 08             	mov    eax,DWORD PTR [ebp+0x8]
10004177:	8b 40 0c             	mov    eax,DWORD PTR [eax+0xc]
1000417a:	83 ec 0c             	sub    esp,0xc
1000417d:	51                   	push   ecx
1000417e:	52                   	push   edx
1000417f:	6a 00                	push   0x0
10004181:	6a 00                	push   0x0
10004183:	50                   	push   eax
10004184:	e8 34 30 00 00       	call   0x100071bd
10004189:	83 c4 20             	add    esp,0x20
1000418c:	8b 45 08             	mov    eax,DWORD PTR [ebp+0x8]
1000418f:	c6 40 09 00          	mov    BYTE PTR [eax+0x9],0x0
10004193:	eb 01                	jmp    0x10004196
10004195:	90                   	nop
10004196:	c9                   	leave  
10004197:	c3                   	ret    
10004198:	55                   	push   ebp
10004199:	89 e5                	mov    ebp,esp
1000419b:	83 ec 08             	sub    esp,0x8
1000419e:	83 ec 08             	sub    esp,0x8
100041a1:	6a 00                	push   0x0
100041a3:	ff 75 08             	push   DWORD PTR [ebp+0x8]
100041a6:	e8 07 00 00 00       	call   0x100041b2
100041ab:	83 c4 10             	add    esp,0x10
100041ae:	90                   	nop
100041af:	c9                   	leave  
100041b0:	c3                   	ret    
100041b1:	90                   	nop
100041b2:	55                   	push   ebp
100041b3:	89 e5                	mov    ebp,esp
100041b5:	83 ec 04             	sub    esp,0x4
100041b8:	8b 45 0c             	mov    eax,DWORD PTR [ebp+0xc]
100041bb:	88 45 fc             	mov    BYTE PTR [ebp-0x4],al
100041be:	8b 45 08             	mov    eax,DWORD PTR [ebp+0x8]
100041c1:	8a 55 fc             	mov    dl,BYTE PTR [ebp-0x4]
100041c4:	88 50 08             	mov    BYTE PTR [eax+0x8],dl
100041c7:	90                   	nop
100041c8:	c9                   	leave  
100041c9:	c3                   	ret    
100041ca:	55                   	push   ebp
100041cb:	89 e5                	mov    ebp,esp
100041cd:	83 ec 08             	sub    esp,0x8
100041d0:	8b 45 08             	mov    eax,DWORD PTR [ebp+0x8]
100041d3:	8b 40 0c             	mov    eax,DWORD PTR [eax+0xc]
100041d6:	85 c0                	test   eax,eax
100041d8:	74 12                	je     0x100041ec
100041da:	8b 45 08             	mov    eax,DWORD PTR [ebp+0x8]
100041dd:	8b 40 0c             	mov    eax,DWORD PTR [eax+0xc]
100041e0:	83 ec 0c             	sub    esp,0xc
100041e3:	50                   	push   eax
100041e4:	e8 93 55 00 00       	call   0x1000977c
100041e9:	83 c4 10             	add    esp,0x10
100041ec:	90                   	nop
100041ed:	c9                   	leave  
100041ee:	c3                   	ret    
100041ef:	90                   	nop
100041f0:	55                   	push   ebp
100041f1:	89 e5                	mov    ebp,esp
100041f3:	8b 45 08             	mov    eax,DWORD PTR [ebp+0x8]
100041f6:	8b 40 0c             	mov    eax,DWORD PTR [eax+0xc]
100041f9:	8b 55 0c             	mov    edx,DWORD PTR [ebp+0xc]
100041fc:	89 50 34             	mov    DWORD PTR [eax+0x34],edx
100041ff:	90                   	nop
10004200:	5d                   	pop    ebp
10004201:	c3                   	ret    
10004202:	55                   	push   ebp
10004203:	89 e5                	mov    ebp,esp
10004205:	8b 45 08             	mov    eax,DWORD PTR [ebp+0x8]
10004208:	8b 40 0c             	mov    eax,DWORD PTR [eax+0xc]
1000420b:	8b 55 0c             	mov    edx,DWORD PTR [ebp+0xc]
1000420e:	89 50 3c             	mov    DWORD PTR [eax+0x3c],edx
10004211:	90                   	nop
10004212:	5d                   	pop    ebp
10004213:	c3                   	ret    
10004214:	55                   	push   ebp
10004215:	89 e5                	mov    ebp,esp
10004217:	83 ec 08             	sub    esp,0x8
1000421a:	8b 45 0c             	mov    eax,DWORD PTR [ebp+0xc]
1000421d:	8b 50 0c             	mov    edx,DWORD PTR [eax+0xc]
10004220:	8b 45 08             	mov    eax,DWORD PTR [ebp+0x8]
10004223:	8b 40 0c             	mov    eax,DWORD PTR [eax+0xc]
10004226:	83 ec 08             	sub    esp,0x8
10004229:	52                   	push   edx
1000422a:	50                   	push   eax
1000422b:	e8 98 3b 00 00       	call   0x10007dc8
10004230:	83 c4 10             	add    esp,0x10
10004233:	8b 45 0c             	mov    eax,DWORD PTR [ebp+0xc]
10004236:	c7 40 04 00 00 00 00 	mov    DWORD PTR [eax+0x4],0x0
1000423d:	90                   	nop
1000423e:	c9                   	leave  
1000423f:	c3                   	ret    
10004240:	55                   	push   ebp
10004241:	89 e5                	mov    ebp,esp
10004243:	8b 45 08             	mov    eax,DWORD PTR [ebp+0x8]
10004246:	8b 00                	mov    eax,DWORD PTR [eax]
10004248:	5d                   	pop    ebp
10004249:	c3                   	ret    
1000424a:	55                   	push   ebp
1000424b:	89 e5                	mov    ebp,esp
1000424d:	83 ec 08             	sub    esp,0x8
10004250:	8b 45 0c             	mov    eax,DWORD PTR [ebp+0xc]
10004253:	8b 50 0c             	mov    edx,DWORD PTR [eax+0xc]
10004256:	8b 45 08             	mov    eax,DWORD PTR [ebp+0x8]
10004259:	8b 40 0c             	mov    eax,DWORD PTR [eax+0xc]
1000425c:	83 ec 08             	sub    esp,0x8
1000425f:	52                   	push   edx
10004260:	50                   	push   eax
10004261:	e8 1c 3b 00 00       	call   0x10007d82
10004266:	83 c4 10             	add    esp,0x10
10004269:	8b 45 0c             	mov    eax,DWORD PTR [ebp+0xc]
1000426c:	8b 55 08             	mov    edx,DWORD PTR [ebp+0x8]
1000426f:	89 50 04             	mov    DWORD PTR [eax+0x4],edx
10004272:	90                   	nop
10004273:	c9                   	leave  
10004274:	c3                   	ret    
10004275:	90                   	nop
10004276:	55                   	push   ebp
10004277:	89 e5                	mov    ebp,esp
10004279:	83 ec 08             	sub    esp,0x8
1000427c:	8b 4d 18             	mov    ecx,DWORD PTR [ebp+0x18]
1000427f:	8b 55 14             	mov    edx,DWORD PTR [ebp+0x14]
10004282:	8b 45 08             	mov    eax,DWORD PTR [ebp+0x8]
10004285:	8b 00                	mov    eax,DWORD PTR [eax]
10004287:	83 ec 08             	sub    esp,0x8
1000428a:	ff 75 1c             	push   DWORD PTR [ebp+0x1c]
1000428d:	51                   	push   ecx
1000428e:	52                   	push   edx
1000428f:	ff 75 10             	push   DWORD PTR [ebp+0x10]
10004292:	ff 75 0c             	push   DWORD PTR [ebp+0xc]
10004295:	50                   	push   eax
10004296:	e8 0a d8 ff ff       	call   0x10001aa5
1000429b:	83 c4 20             	add    esp,0x20
1000429e:	90                   	nop
1000429f:	c9                   	leave  
100042a0:	c3                   	ret    
100042a1:	90                   	nop
100042a2:	55                   	push   ebp
100042a3:	89 e5                	mov    ebp,esp
100042a5:	83 ec 08             	sub    esp,0x8
100042a8:	8b 4d 18             	mov    ecx,DWORD PTR [ebp+0x18]
100042ab:	8b 55 14             	mov    edx,DWORD PTR [ebp+0x14]
100042ae:	8b 45 08             	mov    eax,DWORD PTR [ebp+0x8]
100042b1:	8b 00                	mov    eax,DWORD PTR [eax]
100042b3:	83 ec 08             	sub    esp,0x8
100042b6:	ff 75 1c             	push   DWORD PTR [ebp+0x1c]
100042b9:	51                   	push   ecx
100042ba:	52                   	push   edx
100042bb:	ff 75 10             	push   DWORD PTR [ebp+0x10]
100042be:	ff 75 0c             	push   DWORD PTR [ebp+0xc]
100042c1:	50                   	push   eax
100042c2:	e8 5f d9 ff ff       	call   0x10001c26
100042c7:	83 c4 20             	add    esp,0x20
100042ca:	90                   	nop
100042cb:	c9                   	leave  
100042cc:	c3                   	ret    
100042cd:	90                   	nop
100042ce:	55                   	push   ebp
100042cf:	89 e5                	mov    ebp,esp
100042d1:	83 ec 08             	sub    esp,0x8
100042d4:	8b 55 14             	mov    edx,DWORD PTR [ebp+0x14]
100042d7:	8b 45 08             	mov    eax,DWORD PTR [ebp+0x8]
100042da:	8b 00                	mov    eax,DWORD PTR [eax]
100042dc:	83 ec 0c             	sub    esp,0xc
100042df:	ff 75 18             	push   DWORD PTR [ebp+0x18]
100042e2:	52                   	push   edx
100042e3:	ff 75 10             	push   DWORD PTR [ebp+0x10]
100042e6:	ff 75 0c             	push   DWORD PTR [ebp+0xc]
100042e9:	50                   	push   eax
100042ea:	e8 ed d8 ff ff       	call   0x10001bdc
100042ef:	83 c4 20             	add    esp,0x20
100042f2:	90                   	nop
100042f3:	c9                   	leave  
100042f4:	c3                   	ret    
100042f5:	90                   	nop
100042f6:	55                   	push   ebp
100042f7:	89 e5                	mov    ebp,esp
100042f9:	83 ec 08             	sub    esp,0x8
100042fc:	8b 55 14             	mov    edx,DWORD PTR [ebp+0x14]
100042ff:	8b 45 08             	mov    eax,DWORD PTR [ebp+0x8]
10004302:	8b 00                	mov    eax,DWORD PTR [eax]
10004304:	83 ec 0c             	sub    esp,0xc
10004307:	ff 75 18             	push   DWORD PTR [ebp+0x18]
1000430a:	52                   	push   edx
1000430b:	ff 75 10             	push   DWORD PTR [ebp+0x10]
1000430e:	ff 75 0c             	push   DWORD PTR [ebp+0xc]
10004311:	50                   	push   eax
10004312:	e8 ea d8 ff ff       	call   0x10001c01
10004317:	83 c4 20             	add    esp,0x20
1000431a:	90                   	nop
1000431b:	c9                   	leave  
1000431c:	c3                   	ret    
1000431d:	90                   	nop
1000431e:	55                   	push   ebp
1000431f:	89 e5                	mov    ebp,esp
10004321:	83 ec 08             	sub    esp,0x8
10004324:	8b 45 08             	mov    eax,DWORD PTR [ebp+0x8]
10004327:	8b 00                	mov    eax,DWORD PTR [eax]
10004329:	83 ec 0c             	sub    esp,0xc
1000432c:	ff 75 14             	push   DWORD PTR [ebp+0x14]
1000432f:	ff 75 10             	push   DWORD PTR [ebp+0x10]
10004332:	ff 75 0c             	push   DWORD PTR [ebp+0xc]
10004335:	ff 75 18             	push   DWORD PTR [ebp+0x18]
10004338:	50                   	push   eax
10004339:	e8 32 e1 ff ff       	call   0x10002470
1000433e:	83 c4 20             	add    esp,0x20
10004341:	90                   	nop
10004342:	c9                   	leave  
10004343:	c3                   	ret    
10004344:	55                   	push   ebp
10004345:	89 e5                	mov    ebp,esp
10004347:	57                   	push   edi
10004348:	56                   	push   esi
10004349:	53                   	push   ebx
1000434a:	81 ec 9c 00 00 00    	sub    esp,0x9c
10004350:	8b 45 08             	mov    eax,DWORD PTR [ebp+0x8]
10004353:	89 45 98             	mov    DWORD PTR [ebp-0x68],eax
10004356:	8b 45 98             	mov    eax,DWORD PTR [ebp-0x68]
10004359:	c6 40 09 01          	mov    BYTE PTR [eax+0x9],0x1
1000435d:	83 7d 0c ff          	cmp    DWORD PTR [ebp+0xc],0xffffffff
10004361:	75 7c                	jne    0x100043df
10004363:	8b 45 98             	mov    eax,DWORD PTR [ebp-0x68]
10004366:	8b 40 54             	mov    eax,DWORD PTR [eax+0x54]
10004369:	85 c0                	test   eax,eax
1000436b:	74 09                	je     0x10004376
1000436d:	8b 45 98             	mov    eax,DWORD PTR [ebp-0x68]
10004370:	8b 40 54             	mov    eax,DWORD PTR [eax+0x54]
10004373:	48                   	dec    eax
10004374:	eb 05                	jmp    0x1000437b
10004376:	b8 00 00 00 00       	mov    eax,0x0
1000437b:	89 45 94             	mov    DWORD PTR [ebp-0x6c],eax
1000437e:	8b 45 98             	mov    eax,DWORD PTR [ebp-0x68]
10004381:	8b 40 4c             	mov    eax,DWORD PTR [eax+0x4c]
10004384:	85 c0                	test   eax,eax
10004386:	74 09                	je     0x10004391
10004388:	8b 45 98             	mov    eax,DWORD PTR [ebp-0x68]
1000438b:	8b 40 4c             	mov    eax,DWORD PTR [eax+0x4c]
1000438e:	48                   	dec    eax
1000438f:	eb 05                	jmp    0x10004396
10004391:	b8 00 00 00 00       	mov    eax,0x0
10004396:	89 45 90             	mov    DWORD PTR [ebp-0x70],eax
10004399:	8b 45 98             	mov    eax,DWORD PTR [ebp-0x68]
1000439c:	8b 55 98             	mov    edx,DWORD PTR [ebp-0x68]
1000439f:	8b 52 6c             	mov    edx,DWORD PTR [edx+0x6c]
100043a2:	8b 4d 98             	mov    ecx,DWORD PTR [ebp-0x68]
100043a5:	8b 49 14             	mov    ecx,DWORD PTR [ecx+0x14]
100043a8:	89 cb                	mov    ebx,ecx
100043aa:	2b 5d 90             	sub    ebx,DWORD PTR [ebp-0x70]
100043ad:	8b 4d 98             	mov    ecx,DWORD PTR [ebp-0x68]
100043b0:	8b 49 4c             	mov    ecx,DWORD PTR [ecx+0x4c]
100043b3:	29 cb                	sub    ebx,ecx
100043b5:	8b 4d 98             	mov    ecx,DWORD PTR [ebp-0x68]
100043b8:	8b 49 10             	mov    ecx,DWORD PTR [ecx+0x10]
100043bb:	89 ce                	mov    esi,ecx
100043bd:	2b 75 94             	sub    esi,DWORD PTR [ebp-0x6c]
100043c0:	8b 4d 98             	mov    ecx,DWORD PTR [ebp-0x68]
100043c3:	8b 49 58             	mov    ecx,DWORD PTR [ecx+0x58]
100043c6:	29 ce                	sub    esi,ecx
100043c8:	89 f1                	mov    ecx,esi
100043ca:	83 ec 08             	sub    esp,0x8
100043cd:	52                   	push   edx
100043ce:	53                   	push   ebx
100043cf:	51                   	push   ecx
100043d0:	ff 75 90             	push   DWORD PTR [ebp-0x70]
100043d3:	ff 75 94             	push   DWORD PTR [ebp-0x6c]
100043d6:	50                   	push   eax
100043d7:	e8 9a fe ff ff       	call   0x10004276
100043dc:	83 c4 20             	add    esp,0x20
100043df:	c6 85 7f ff ff ff 00 	mov    BYTE PTR [ebp-0x81],0x0
100043e6:	c7 45 e4 00 00 00 00 	mov    DWORD PTR [ebp-0x1c],0x0
100043ed:	c7 45 e0 00 00 00 00 	mov    DWORD PTR [ebp-0x20],0x0
100043f4:	c7 45 dc 00 00 00 00 	mov    DWORD PTR [ebp-0x24],0x0
100043fb:	c6 45 db 01          	mov    BYTE PTR [ebp-0x25],0x1
100043ff:	c7 85 78 ff ff ff 00 00 00 00 	mov    DWORD PTR [ebp-0x88],0x0
10004409:	c7 85 74 ff ff ff 0c 00 00 00 	mov    DWORD PTR [ebp-0x8c],0xc
10004413:	c7 45 d4 ff ff ff ff 	mov    DWORD PTR [ebp-0x2c],0xffffffff
1000441a:	c7 45 8c 00 00 00 00 	mov    DWORD PTR [ebp-0x74],0x0
10004421:	c6 45 d3 00          	mov    BYTE PTR [ebp-0x2d],0x0
10004425:	c7 45 cc 00 01 00 00 	mov    DWORD PTR [ebp-0x34],0x100
1000442c:	c7 45 c8 00 00 00 00 	mov    DWORD PTR [ebp-0x38],0x0
10004433:	c6 45 c7 00          	mov    BYTE PTR [ebp-0x39],0x0
10004437:	c7 45 c0 00 00 00 00 	mov    DWORD PTR [ebp-0x40],0x0
1000443e:	c7 45 bc ff ff ff ff 	mov    DWORD PTR [ebp-0x44],0xffffffff
10004445:	c7 45 b8 ff ff ff ff 	mov    DWORD PTR [ebp-0x48],0xffffffff
1000444c:	c7 45 b4 ff ff ff ff 	mov    DWORD PTR [ebp-0x4c],0xffffffff
10004453:	c6 45 b3 00          	mov    BYTE PTR [ebp-0x4d],0x0
10004457:	c7 45 ac 00 00 00 00 	mov    DWORD PTR [ebp-0x54],0x0
1000445e:	8b 45 98             	mov    eax,DWORD PTR [ebp-0x68]
10004461:	8b 50 24             	mov    edx,DWORD PTR [eax+0x24]
10004464:	8b 45 ac             	mov    eax,DWORD PTR [ebp-0x54]
10004467:	01 d0                	add    eax,edx
10004469:	8a 00                	mov    al,BYTE PTR [eax]
1000446b:	84 c0                	test   al,al
1000446d:	0f 84 53 09 00 00    	je     0x10004dc6
10004473:	8b 45 98             	mov    eax,DWORD PTR [ebp-0x68]
10004476:	8b 50 24             	mov    edx,DWORD PTR [eax+0x24]
10004479:	8b 45 ac             	mov    eax,DWORD PTR [ebp-0x54]
1000447c:	01 d0                	add    eax,edx
1000447e:	8a 00                	mov    al,BYTE PTR [eax]
10004480:	0f b6 d0             	movzx  edx,al
10004483:	8b 45 98             	mov    eax,DWORD PTR [ebp-0x68]
10004486:	8b 80 90 00 00 00    	mov    eax,DWORD PTR [eax+0x90]
1000448c:	39 c2                	cmp    edx,eax
1000448e:	75 12                	jne    0x100044a2
10004490:	8b 45 98             	mov    eax,DWORD PTR [ebp-0x68]
10004493:	8b 80 98 00 00 00    	mov    eax,DWORD PTR [eax+0x98]
10004499:	40                   	inc    eax
1000449a:	01 45 ac             	add    DWORD PTR [ebp-0x54],eax
1000449d:	e9 1c 09 00 00       	jmp    0x10004dbe
100044a2:	8b 45 98             	mov    eax,DWORD PTR [ebp-0x68]
100044a5:	8b 50 24             	mov    edx,DWORD PTR [eax+0x24]
100044a8:	8b 45 ac             	mov    eax,DWORD PTR [ebp-0x54]
100044ab:	01 d0                	add    eax,edx
100044ad:	8a 00                	mov    al,BYTE PTR [eax]
100044af:	3c 20                	cmp    al,0x20
100044b1:	75 15                	jne    0x100044c8
100044b3:	80 7d b3 00          	cmp    BYTE PTR [ebp-0x4d],0x0
100044b7:	74 0f                	je     0x100044c8
100044b9:	8b 45 98             	mov    eax,DWORD PTR [ebp-0x68]
100044bc:	8b 40 5c             	mov    eax,DWORD PTR [eax+0x5c]
100044bf:	83 f8 02             	cmp    eax,0x2
100044c2:	0f 84 f2 08 00 00    	je     0x10004dba
100044c8:	80 7d b3 00          	cmp    BYTE PTR [ebp-0x4d],0x0
100044cc:	74 04                	je     0x100044d2
100044ce:	c6 45 b3 00          	mov    BYTE PTR [ebp-0x4d],0x0
100044d2:	8b 45 98             	mov    eax,DWORD PTR [ebp-0x68]
100044d5:	8b 80 8c 00 00 00    	mov    eax,DWORD PTR [eax+0x8c]
100044db:	85 c0                	test   eax,eax
100044dd:	74 17                	je     0x100044f6
100044df:	8b 45 98             	mov    eax,DWORD PTR [ebp-0x68]
100044e2:	8b 80 8c 00 00 00    	mov    eax,DWORD PTR [eax+0x8c]
100044e8:	83 ec 08             	sub    esp,0x8
100044eb:	ff 75 ac             	push   DWORD PTR [ebp-0x54]
100044ee:	ff 75 98             	push   DWORD PTR [ebp-0x68]
100044f1:	ff d0                	call   eax
100044f3:	83 c4 10             	add    esp,0x10
100044f6:	8b 45 98             	mov    eax,DWORD PTR [ebp-0x68]
100044f9:	8b 50 24             	mov    edx,DWORD PTR [eax+0x24]
100044fc:	8b 45 ac             	mov    eax,DWORD PTR [ebp-0x54]
100044ff:	01 d0                	add    eax,edx
10004501:	8a 00                	mov    al,BYTE PTR [eax]
10004503:	3c 20                	cmp    al,0x20
10004505:	75 21                	jne    0x10004528
10004507:	8a 45 d3             	mov    al,BYTE PTR [ebp-0x2d]
1000450a:	83 f0 01             	xor    eax,0x1
1000450d:	84 c0                	test   al,al
1000450f:	74 17                	je     0x10004528
10004511:	8b 45 98             	mov    eax,DWORD PTR [ebp-0x68]
10004514:	8b 40 5c             	mov    eax,DWORD PTR [eax+0x5c]
10004517:	83 f8 02             	cmp    eax,0x2
1000451a:	75 0c                	jne    0x10004528
1000451c:	8b 45 ac             	mov    eax,DWORD PTR [ebp-0x54]
1000451f:	89 45 bc             	mov    DWORD PTR [ebp-0x44],eax
10004522:	8b 45 e4             	mov    eax,DWORD PTR [ebp-0x1c]
10004525:	89 45 b8             	mov    DWORD PTR [ebp-0x48],eax
10004528:	8b 45 98             	mov    eax,DWORD PTR [ebp-0x68]
1000452b:	8b 50 10             	mov    edx,DWORD PTR [eax+0x10]
1000452e:	8b 45 98             	mov    eax,DWORD PTR [ebp-0x68]
10004531:	8b 40 54             	mov    eax,DWORD PTR [eax+0x54]
10004534:	29 c2                	sub    edx,eax
10004536:	8b 45 98             	mov    eax,DWORD PTR [ebp-0x68]
10004539:	8b 40 58             	mov    eax,DWORD PTR [eax+0x58]
1000453c:	29 c2                	sub    edx,eax
1000453e:	89 d0                	mov    eax,edx
10004540:	89 45 88             	mov    DWORD PTR [ebp-0x78],eax
10004543:	8b 45 98             	mov    eax,DWORD PTR [ebp-0x68]
10004546:	8b 50 24             	mov    edx,DWORD PTR [eax+0x24]
10004549:	8b 45 ac             	mov    eax,DWORD PTR [ebp-0x54]
1000454c:	01 d0                	add    eax,edx
1000454e:	8a 00                	mov    al,BYTE PTR [eax]
10004550:	3c 0a                	cmp    al,0xa
10004552:	0f 84 29 01 00 00    	je     0x10004681
10004558:	8b 45 98             	mov    eax,DWORD PTR [ebp-0x68]
1000455b:	8b 50 24             	mov    edx,DWORD PTR [eax+0x24]
1000455e:	8b 45 ac             	mov    eax,DWORD PTR [ebp-0x54]
10004561:	01 d0                	add    eax,edx
10004563:	8a 00                	mov    al,BYTE PTR [eax]
10004565:	88 85 7e ff ff ff    	mov    BYTE PTR [ebp-0x82],al
1000456b:	8b 45 98             	mov    eax,DWORD PTR [ebp-0x68]
1000456e:	8b 00                	mov    eax,DWORD PTR [eax]
10004570:	8d 95 74 ff ff ff    	lea    edx,[ebp-0x8c]
10004576:	52                   	push   edx
10004577:	8d 95 78 ff ff ff    	lea    edx,[ebp-0x88]
1000457d:	52                   	push   edx
1000457e:	8d 95 7e ff ff ff    	lea    edx,[ebp-0x82]
10004584:	52                   	push   edx
10004585:	50                   	push   eax
10004586:	e8 23 df ff ff       	call   0x100024ae
1000458b:	83 c4 10             	add    esp,0x10
1000458e:	8b 45 98             	mov    eax,DWORD PTR [ebp-0x68]
10004591:	8a 80 80 00 00 00    	mov    al,BYTE PTR [eax+0x80]
10004597:	84 c0                	test   al,al
10004599:	74 17                	je     0x100045b2
1000459b:	8b 85 78 ff ff ff    	mov    eax,DWORD PTR [ebp-0x88]
100045a1:	85 c0                	test   eax,eax
100045a3:	74 0d                	je     0x100045b2
100045a5:	8b 85 78 ff ff ff    	mov    eax,DWORD PTR [ebp-0x88]
100045ab:	40                   	inc    eax
100045ac:	89 85 78 ff ff ff    	mov    DWORD PTR [ebp-0x88],eax
100045b2:	8b 45 98             	mov    eax,DWORD PTR [ebp-0x68]
100045b5:	8b 50 24             	mov    edx,DWORD PTR [eax+0x24]
100045b8:	8b 45 ac             	mov    eax,DWORD PTR [ebp-0x54]
100045bb:	01 d0                	add    eax,edx
100045bd:	8a 00                	mov    al,BYTE PTR [eax]
100045bf:	3c 09                	cmp    al,0x9
100045c1:	75 35                	jne    0x100045f8
100045c3:	8b 45 98             	mov    eax,DWORD PTR [ebp-0x68]
100045c6:	8b 40 38             	mov    eax,DWORD PTR [eax+0x38]
100045c9:	89 c2                	mov    edx,eax
100045cb:	8b 45 e4             	mov    eax,DWORD PTR [ebp-0x1c]
100045ce:	01 d0                	add    eax,edx
100045d0:	8d 50 01             	lea    edx,[eax+0x1]
100045d3:	8b 45 98             	mov    eax,DWORD PTR [ebp-0x68]
100045d6:	8b 40 38             	mov    eax,DWORD PTR [eax+0x38]
100045d9:	89 c1                	mov    ecx,eax
100045db:	89 d0                	mov    eax,edx
100045dd:	ba 00 00 00 00       	mov    edx,0x0
100045e2:	f7 f1                	div    ecx
100045e4:	89 c2                	mov    edx,eax
100045e6:	8b 45 98             	mov    eax,DWORD PTR [ebp-0x68]
100045e9:	8b 40 38             	mov    eax,DWORD PTR [eax+0x38]
100045ec:	0f af c2             	imul   eax,edx
100045ef:	2b 45 e4             	sub    eax,DWORD PTR [ebp-0x1c]
100045f2:	89 85 78 ff ff ff    	mov    DWORD PTR [ebp-0x88],eax
100045f8:	8b 45 98             	mov    eax,DWORD PTR [ebp-0x68]
100045fb:	8b 50 44             	mov    edx,DWORD PTR [eax+0x44]
100045fe:	8b 85 78 ff ff ff    	mov    eax,DWORD PTR [ebp-0x88]
10004604:	0f af c2             	imul   eax,edx
10004607:	8d 48 32             	lea    ecx,[eax+0x32]
1000460a:	b8 1f 85 eb 51       	mov    eax,0x51eb851f
1000460f:	f7 e9                	imul   ecx
10004611:	c1 fa 05             	sar    edx,0x5
10004614:	89 c8                	mov    eax,ecx
10004616:	c1 f8 1f             	sar    eax,0x1f
10004619:	29 c2                	sub    edx,eax
1000461b:	89 d0                	mov    eax,edx
1000461d:	89 85 78 ff ff ff    	mov    DWORD PTR [ebp-0x88],eax
10004623:	8b 45 98             	mov    eax,DWORD PTR [ebp-0x68]
10004626:	8b 40 48             	mov    eax,DWORD PTR [eax+0x48]
10004629:	83 f8 03             	cmp    eax,0x3
1000462c:	75 53                	jne    0x10004681
1000462e:	80 7d d3 00          	cmp    BYTE PTR [ebp-0x2d],0x0
10004632:	74 4d                	je     0x10004681
10004634:	8b 85 78 ff ff ff    	mov    eax,DWORD PTR [ebp-0x88]
1000463a:	0f af 45 cc          	imul   eax,DWORD PTR [ebp-0x34]
1000463e:	89 c2                	mov    edx,eax
10004640:	8b 45 c8             	mov    eax,DWORD PTR [ebp-0x38]
10004643:	01 d0                	add    eax,edx
10004645:	85 c0                	test   eax,eax
10004647:	79 05                	jns    0x1000464e
10004649:	05 ff 00 00 00       	add    eax,0xff
1000464e:	c1 f8 08             	sar    eax,0x8
10004651:	89 45 84             	mov    DWORD PTR [ebp-0x7c],eax
10004654:	8b 85 78 ff ff ff    	mov    eax,DWORD PTR [ebp-0x88]
1000465a:	0f af 45 cc          	imul   eax,DWORD PTR [ebp-0x34]
1000465e:	89 c2                	mov    edx,eax
10004660:	8b 45 c8             	mov    eax,DWORD PTR [ebp-0x38]
10004663:	01 d0                	add    eax,edx
10004665:	25 ff 00 00 80       	and    eax,0x800000ff
1000466a:	85 c0                	test   eax,eax
1000466c:	79 07                	jns    0x10004675
1000466e:	48                   	dec    eax
1000466f:	0d 00 ff ff ff       	or     eax,0xffffff00
10004674:	40                   	inc    eax
10004675:	89 45 c8             	mov    DWORD PTR [ebp-0x38],eax
10004678:	8b 45 84             	mov    eax,DWORD PTR [ebp-0x7c]
1000467b:	89 85 78 ff ff ff    	mov    DWORD PTR [ebp-0x88],eax
10004681:	8b 45 98             	mov    eax,DWORD PTR [ebp-0x68]
10004684:	8b 50 24             	mov    edx,DWORD PTR [eax+0x24]
10004687:	8b 45 ac             	mov    eax,DWORD PTR [ebp-0x54]
1000468a:	01 d0                	add    eax,edx
1000468c:	8a 00                	mov    al,BYTE PTR [eax]
1000468e:	3c 0a                	cmp    al,0xa
10004690:	74 55                	je     0x100046e7
10004692:	80 7d db 00          	cmp    BYTE PTR [ebp-0x25],0x0
10004696:	74 07                	je     0x1000469f
10004698:	b8 00 00 00 00       	mov    eax,0x0
1000469d:	eb 03                	jmp    0x100046a2
1000469f:	8b 45 e4             	mov    eax,DWORD PTR [ebp-0x1c]
100046a2:	8b 95 78 ff ff ff    	mov    edx,DWORD PTR [ebp-0x88]
100046a8:	01 c2                	add    edx,eax
100046aa:	80 7d d3 00          	cmp    BYTE PTR [ebp-0x2d],0x0
100046ae:	74 0f                	je     0x100046bf
100046b0:	8a 45 db             	mov    al,BYTE PTR [ebp-0x25]
100046b3:	83 f0 01             	xor    eax,0x1
100046b6:	84 c0                	test   al,al
100046b8:	74 05                	je     0x100046bf
100046ba:	8b 45 c0             	mov    eax,DWORD PTR [ebp-0x40]
100046bd:	eb 05                	jmp    0x100046c4
100046bf:	b8 00 00 00 00       	mov    eax,0x0
100046c4:	29 c2                	sub    edx,eax
100046c6:	8b 45 88             	mov    eax,DWORD PTR [ebp-0x78]
100046c9:	39 c2                	cmp    edx,eax
100046cb:	76 1a                	jbe    0x100046e7
100046cd:	8b 45 98             	mov    eax,DWORD PTR [ebp-0x68]
100046d0:	8b 40 5c             	mov    eax,DWORD PTR [eax+0x5c]
100046d3:	83 f8 01             	cmp    eax,0x1
100046d6:	74 0b                	je     0x100046e3
100046d8:	8b 45 98             	mov    eax,DWORD PTR [ebp-0x68]
100046db:	8b 40 5c             	mov    eax,DWORD PTR [eax+0x5c]
100046de:	83 f8 02             	cmp    eax,0x2
100046e1:	75 04                	jne    0x100046e7
100046e3:	b0 01                	mov    al,0x1
100046e5:	eb 02                	jmp    0x100046e9
100046e7:	b0 00                	mov    al,0x0
100046e9:	88 45 ab             	mov    BYTE PTR [ebp-0x55],al
100046ec:	c6 45 aa 00          	mov    BYTE PTR [ebp-0x56],0x0
100046f0:	8a 45 d3             	mov    al,BYTE PTR [ebp-0x2d]
100046f3:	83 f0 01             	xor    eax,0x1
100046f6:	84 c0                	test   al,al
100046f8:	74 3f                	je     0x10004739
100046fa:	80 7d ab 00          	cmp    BYTE PTR [ebp-0x55],0x0
100046fe:	74 39                	je     0x10004739
10004700:	8b 45 98             	mov    eax,DWORD PTR [ebp-0x68]
10004703:	8b 50 24             	mov    edx,DWORD PTR [eax+0x24]
10004706:	8b 45 ac             	mov    eax,DWORD PTR [ebp-0x54]
10004709:	01 d0                	add    eax,edx
1000470b:	8a 00                	mov    al,BYTE PTR [eax]
1000470d:	3c 20                	cmp    al,0x20
1000470f:	74 28                	je     0x10004739
10004711:	8b 45 98             	mov    eax,DWORD PTR [ebp-0x68]
10004714:	8b 40 5c             	mov    eax,DWORD PTR [eax+0x5c]
10004717:	83 f8 02             	cmp    eax,0x2
1000471a:	75 1d                	jne    0x10004739
1000471c:	83 7d bc ff          	cmp    DWORD PTR [ebp-0x44],0xffffffff
10004720:	74 17                	je     0x10004739
10004722:	8b 45 bc             	mov    eax,DWORD PTR [ebp-0x44]
10004725:	89 45 b4             	mov    DWORD PTR [ebp-0x4c],eax
10004728:	8b 45 bc             	mov    eax,DWORD PTR [ebp-0x44]
1000472b:	48                   	dec    eax
1000472c:	89 45 ac             	mov    DWORD PTR [ebp-0x54],eax
1000472f:	8b 45 b8             	mov    eax,DWORD PTR [ebp-0x48]
10004732:	89 45 e4             	mov    DWORD PTR [ebp-0x1c],eax
10004735:	c6 45 aa 01          	mov    BYTE PTR [ebp-0x56],0x1
10004739:	80 7d d3 00          	cmp    BYTE PTR [ebp-0x2d],0x0
1000473d:	74 17                	je     0x10004756
1000473f:	8b 45 ac             	mov    eax,DWORD PTR [ebp-0x54]
10004742:	3b 45 b4             	cmp    eax,DWORD PTR [ebp-0x4c]
10004745:	75 0f                	jne    0x10004756
10004747:	c6 45 ab 01          	mov    BYTE PTR [ebp-0x55],0x1
1000474b:	c6 45 aa 01          	mov    BYTE PTR [ebp-0x56],0x1
1000474f:	c7 45 b4 ff ff ff ff 	mov    DWORD PTR [ebp-0x4c],0xffffffff
10004756:	8b 45 98             	mov    eax,DWORD PTR [ebp-0x68]
10004759:	8b 50 24             	mov    edx,DWORD PTR [eax+0x24]
1000475c:	8b 45 ac             	mov    eax,DWORD PTR [ebp-0x54]
1000475f:	01 d0                	add    eax,edx
10004761:	8a 00                	mov    al,BYTE PTR [eax]
10004763:	3c 0a                	cmp    al,0xa
10004765:	74 1c                	je     0x10004783
10004767:	80 7d ab 00          	cmp    BYTE PTR [ebp-0x55],0x0
1000476b:	75 16                	jne    0x10004783
1000476d:	8b 45 98             	mov    eax,DWORD PTR [ebp-0x68]
10004770:	8b 40 24             	mov    eax,DWORD PTR [eax+0x24]
10004773:	8b 55 ac             	mov    edx,DWORD PTR [ebp-0x54]
10004776:	42                   	inc    edx
10004777:	01 d0                	add    eax,edx
10004779:	8a 00                	mov    al,BYTE PTR [eax]
1000477b:	84 c0                	test   al,al
1000477d:	0f 85 88 02 00 00    	jne    0x10004a0b
10004783:	80 7d d3 00          	cmp    BYTE PTR [ebp-0x2d],0x0
10004787:	75 0a                	jne    0x10004793
10004789:	80 7d db 00          	cmp    BYTE PTR [ebp-0x25],0x0
1000478d:	0f 84 a2 01 00 00    	je     0x10004935
10004793:	8b 45 98             	mov    eax,DWORD PTR [ebp-0x68]
10004796:	8b 40 2c             	mov    eax,DWORD PTR [eax+0x2c]
10004799:	89 c2                	mov    edx,eax
1000479b:	8b 45 e4             	mov    eax,DWORD PTR [ebp-0x1c]
1000479e:	29 d0                	sub    eax,edx
100047a0:	89 c2                	mov    edx,eax
100047a2:	8b 45 98             	mov    eax,DWORD PTR [ebp-0x68]
100047a5:	8b 40 54             	mov    eax,DWORD PTR [eax+0x54]
100047a8:	01 d0                	add    eax,edx
100047aa:	89 45 a4             	mov    DWORD PTR [ebp-0x5c],eax
100047ad:	8b 45 98             	mov    eax,DWORD PTR [ebp-0x68]
100047b0:	8b 40 48             	mov    eax,DWORD PTR [eax+0x48]
100047b3:	83 f8 02             	cmp    eax,0x2
100047b6:	75 1f                	jne    0x100047d7
100047b8:	80 7d db 00          	cmp    BYTE PTR [ebp-0x25],0x0
100047bc:	74 19                	je     0x100047d7
100047be:	8b 45 88             	mov    eax,DWORD PTR [ebp-0x78]
100047c1:	89 c2                	mov    edx,eax
100047c3:	c1 ea 1f             	shr    edx,0x1f
100047c6:	01 d0                	add    eax,edx
100047c8:	d1 f8                	sar    eax,1
100047ca:	89 c2                	mov    edx,eax
100047cc:	8b 45 98             	mov    eax,DWORD PTR [ebp-0x68]
100047cf:	8b 40 54             	mov    eax,DWORD PTR [eax+0x54]
100047d2:	01 d0                	add    eax,edx
100047d4:	89 45 a4             	mov    DWORD PTR [ebp-0x5c],eax
100047d7:	8b 45 98             	mov    eax,DWORD PTR [ebp-0x68]
100047da:	8b 40 48             	mov    eax,DWORD PTR [eax+0x48]
100047dd:	83 f8 01             	cmp    eax,0x1
100047e0:	75 0e                	jne    0x100047f0
100047e2:	8b 45 98             	mov    eax,DWORD PTR [ebp-0x68]
100047e5:	8b 50 54             	mov    edx,DWORD PTR [eax+0x54]
100047e8:	8b 45 88             	mov    eax,DWORD PTR [ebp-0x78]
100047eb:	01 d0                	add    eax,edx
100047ed:	89 45 a4             	mov    DWORD PTR [ebp-0x5c],eax
100047f0:	83 7d 0c ff          	cmp    DWORD PTR [ebp+0xc],0xffffffff
100047f4:	0f 85 b3 00 00 00    	jne    0x100048ad
100047fa:	8b 45 98             	mov    eax,DWORD PTR [ebp-0x68]
100047fd:	8b 40 60             	mov    eax,DWORD PTR [eax+0x60]
10004800:	39 45 ac             	cmp    DWORD PTR [ebp-0x54],eax
10004803:	75 46                	jne    0x1000484b
10004805:	8b 45 98             	mov    eax,DWORD PTR [ebp-0x68]
10004808:	8b 40 64             	mov    eax,DWORD PTR [eax+0x64]
1000480b:	39 45 ac             	cmp    DWORD PTR [ebp-0x54],eax
1000480e:	75 3b                	jne    0x1000484b
10004810:	8b 45 98             	mov    eax,DWORD PTR [ebp-0x68]
10004813:	8b 55 98             	mov    edx,DWORD PTR [ebp-0x68]
10004816:	8b 4a 7c             	mov    ecx,DWORD PTR [edx+0x7c]
10004819:	8b 55 dc             	mov    edx,DWORD PTR [ebp-0x24]
1000481c:	8b 5d 98             	mov    ebx,DWORD PTR [ebp-0x68]
1000481f:	8b 5b 30             	mov    ebx,DWORD PTR [ebx+0x30]
10004822:	89 de                	mov    esi,ebx
10004824:	8b 5d e0             	mov    ebx,DWORD PTR [ebp-0x20]
10004827:	29 f3                	sub    ebx,esi
10004829:	89 de                	mov    esi,ebx
1000482b:	8b 5d 98             	mov    ebx,DWORD PTR [ebp-0x68]
1000482e:	8b 5b 4c             	mov    ebx,DWORD PTR [ebx+0x4c]
10004831:	01 f3                	add    ebx,esi
10004833:	89 de                	mov    esi,ebx
10004835:	8b 5d a4             	mov    ebx,DWORD PTR [ebp-0x5c]
10004838:	4b                   	dec    ebx
10004839:	83 ec 08             	sub    esp,0x8
1000483c:	51                   	push   ecx
1000483d:	52                   	push   edx
1000483e:	6a 01                	push   0x1
10004840:	56                   	push   esi
10004841:	53                   	push   ebx
10004842:	50                   	push   eax
10004843:	e8 2e fa ff ff       	call   0x10004276
10004848:	83 c4 20             	add    esp,0x20
1000484b:	8b 45 98             	mov    eax,DWORD PTR [ebp-0x68]
1000484e:	8b 40 60             	mov    eax,DWORD PTR [eax+0x60]
10004851:	39 45 ac             	cmp    DWORD PTR [ebp-0x54],eax
10004854:	75 04                	jne    0x1000485a
10004856:	80 75 c7 01          	xor    BYTE PTR [ebp-0x39],0x1
1000485a:	8b 45 98             	mov    eax,DWORD PTR [ebp-0x68]
1000485d:	8b 40 64             	mov    eax,DWORD PTR [eax+0x64]
10004860:	39 45 ac             	cmp    DWORD PTR [ebp-0x54],eax
10004863:	75 04                	jne    0x10004869
10004865:	80 75 c7 01          	xor    BYTE PTR [ebp-0x39],0x1
10004869:	80 7d c7 00          	cmp    BYTE PTR [ebp-0x39],0x0
1000486d:	0f 84 87 00 00 00    	je     0x100048fa
10004873:	8b 45 98             	mov    eax,DWORD PTR [ebp-0x68]
10004876:	8b 55 98             	mov    edx,DWORD PTR [ebp-0x68]
10004879:	8b 4a 78             	mov    ecx,DWORD PTR [edx+0x78]
1000487c:	8b 55 dc             	mov    edx,DWORD PTR [ebp-0x24]
1000487f:	8b 5d 98             	mov    ebx,DWORD PTR [ebp-0x68]
10004882:	8b 5b 30             	mov    ebx,DWORD PTR [ebx+0x30]
10004885:	89 de                	mov    esi,ebx
10004887:	8b 5d e0             	mov    ebx,DWORD PTR [ebp-0x20]
1000488a:	29 f3                	sub    ebx,esi
1000488c:	89 de                	mov    esi,ebx
1000488e:	8b 5d 98             	mov    ebx,DWORD PTR [ebp-0x68]
10004891:	8b 5b 4c             	mov    ebx,DWORD PTR [ebx+0x4c]
10004894:	01 f3                	add    ebx,esi
10004896:	4b                   	dec    ebx
10004897:	83 ec 08             	sub    esp,0x8
1000489a:	51                   	push   ecx
1000489b:	52                   	push   edx
1000489c:	6a 01                	push   0x1
1000489e:	53                   	push   ebx
1000489f:	ff 75 a4             	push   DWORD PTR [ebp-0x5c]
100048a2:	50                   	push   eax
100048a3:	e8 ce f9 ff ff       	call   0x10004276
100048a8:	83 c4 20             	add    esp,0x20
100048ab:	eb 4d                	jmp    0x100048fa
100048ad:	8b 45 ac             	mov    eax,DWORD PTR [ebp-0x54]
100048b0:	3b 45 0c             	cmp    eax,DWORD PTR [ebp+0xc]
100048b3:	75 45                	jne    0x100048fa
100048b5:	8b 45 10             	mov    eax,DWORD PTR [ebp+0x10]
100048b8:	8b 55 a4             	mov    edx,DWORD PTR [ebp-0x5c]
100048bb:	89 10                	mov    DWORD PTR [eax],edx
100048bd:	8b 45 98             	mov    eax,DWORD PTR [ebp-0x68]
100048c0:	8b 40 30             	mov    eax,DWORD PTR [eax+0x30]
100048c3:	89 c2                	mov    edx,eax
100048c5:	8b 45 e0             	mov    eax,DWORD PTR [ebp-0x20]
100048c8:	29 d0                	sub    eax,edx
100048ca:	89 c2                	mov    edx,eax
100048cc:	8b 45 98             	mov    eax,DWORD PTR [ebp-0x68]
100048cf:	8b 40 4c             	mov    eax,DWORD PTR [eax+0x4c]
100048d2:	01 d0                	add    eax,edx
100048d4:	89 c2                	mov    edx,eax
100048d6:	8b 45 14             	mov    eax,DWORD PTR [ebp+0x14]
100048d9:	89 10                	mov    DWORD PTR [eax],edx
100048db:	83 7d 18 00          	cmp    DWORD PTR [ebp+0x18],0x0
100048df:	74 08                	je     0x100048e9
100048e1:	8b 55 dc             	mov    edx,DWORD PTR [ebp-0x24]
100048e4:	8b 45 18             	mov    eax,DWORD PTR [ebp+0x18]
100048e7:	89 10                	mov    DWORD PTR [eax],edx
100048e9:	8b 45 98             	mov    eax,DWORD PTR [ebp-0x68]
100048ec:	c6 40 09 00          	mov    BYTE PTR [eax+0x9],0x0
100048f0:	b8 00 00 00 00       	mov    eax,0x0
100048f5:	e9 c1 06 00 00       	jmp    0x10004fbb
100048fa:	c7 45 e4 00 00 00 00 	mov    DWORD PTR [ebp-0x1c],0x0
10004901:	8b 45 dc             	mov    eax,DWORD PTR [ebp-0x24]
10004904:	01 45 e0             	add    DWORD PTR [ebp-0x20],eax
10004907:	c6 45 db 01          	mov    BYTE PTR [ebp-0x25],0x1
1000490b:	8a 45 ab             	mov    al,BYTE PTR [ebp-0x55]
1000490e:	88 45 b3             	mov    BYTE PTR [ebp-0x4d],al
10004911:	c6 45 d3 00          	mov    BYTE PTR [ebp-0x2d],0x0
10004915:	80 7d ab 00          	cmp    BYTE PTR [ebp-0x55],0x0
10004919:	0f 84 9e 04 00 00    	je     0x10004dbd
1000491f:	8a 45 aa             	mov    al,BYTE PTR [ebp-0x56]
10004922:	83 f0 01             	xor    eax,0x1
10004925:	84 c0                	test   al,al
10004927:	0f 84 90 04 00 00    	je     0x10004dbd
1000492d:	ff 4d ac             	dec    DWORD PTR [ebp-0x54]
10004930:	e9 88 04 00 00       	jmp    0x10004dbd
10004935:	8a 45 ab             	mov    al,BYTE PTR [ebp-0x55]
10004938:	88 45 b3             	mov    BYTE PTR [ebp-0x4d],al
1000493b:	c6 45 d3 01          	mov    BYTE PTR [ebp-0x2d],0x1
1000493f:	8b 45 98             	mov    eax,DWORD PTR [ebp-0x68]
10004942:	8b 40 48             	mov    eax,DWORD PTR [eax+0x48]
10004945:	85 c0                	test   eax,eax
10004947:	75 0c                	jne    0x10004955
10004949:	c7 45 e4 00 00 00 00 	mov    DWORD PTR [ebp-0x1c],0x0
10004950:	e9 9e 00 00 00       	jmp    0x100049f3
10004955:	8b 45 98             	mov    eax,DWORD PTR [ebp-0x68]
10004958:	8b 40 48             	mov    eax,DWORD PTR [eax+0x48]
1000495b:	83 f8 01             	cmp    eax,0x1
1000495e:	75 20                	jne    0x10004980
10004960:	8b 45 98             	mov    eax,DWORD PTR [ebp-0x68]
10004963:	8b 50 10             	mov    edx,DWORD PTR [eax+0x10]
10004966:	8b 45 98             	mov    eax,DWORD PTR [ebp-0x68]
10004969:	8b 40 54             	mov    eax,DWORD PTR [eax+0x54]
1000496c:	29 c2                	sub    edx,eax
1000496e:	8b 45 98             	mov    eax,DWORD PTR [ebp-0x68]
10004971:	8b 40 58             	mov    eax,DWORD PTR [eax+0x58]
10004974:	29 c2                	sub    edx,eax
10004976:	89 d0                	mov    eax,edx
10004978:	2b 45 e4             	sub    eax,DWORD PTR [ebp-0x1c]
1000497b:	89 45 e4             	mov    DWORD PTR [ebp-0x1c],eax
1000497e:	eb 73                	jmp    0x100049f3
10004980:	8b 45 98             	mov    eax,DWORD PTR [ebp-0x68]
10004983:	8b 40 48             	mov    eax,DWORD PTR [eax+0x48]
10004986:	83 f8 02             	cmp    eax,0x2
10004989:	75 22                	jne    0x100049ad
1000498b:	8b 45 98             	mov    eax,DWORD PTR [ebp-0x68]
1000498e:	8b 50 10             	mov    edx,DWORD PTR [eax+0x10]
10004991:	8b 45 98             	mov    eax,DWORD PTR [ebp-0x68]
10004994:	8b 40 54             	mov    eax,DWORD PTR [eax+0x54]
10004997:	29 c2                	sub    edx,eax
10004999:	8b 45 98             	mov    eax,DWORD PTR [ebp-0x68]
1000499c:	8b 40 58             	mov    eax,DWORD PTR [eax+0x58]
1000499f:	29 c2                	sub    edx,eax
100049a1:	89 d0                	mov    eax,edx
100049a3:	2b 45 e4             	sub    eax,DWORD PTR [ebp-0x1c]
100049a6:	d1 e8                	shr    eax,1
100049a8:	89 45 e4             	mov    DWORD PTR [ebp-0x1c],eax
100049ab:	eb 46                	jmp    0x100049f3
100049ad:	8b 45 98             	mov    eax,DWORD PTR [ebp-0x68]
100049b0:	8b 40 48             	mov    eax,DWORD PTR [eax+0x48]
100049b3:	83 f8 03             	cmp    eax,0x3
100049b6:	75 3b                	jne    0x100049f3
100049b8:	83 7d e4 00          	cmp    DWORD PTR [ebp-0x1c],0x0
100049bc:	74 0a                	je     0x100049c8
100049be:	8a 45 ab             	mov    al,BYTE PTR [ebp-0x55]
100049c1:	83 f0 01             	xor    eax,0x1
100049c4:	84 c0                	test   al,al
100049c6:	74 09                	je     0x100049d1
100049c8:	c7 45 cc 00 01 00 00 	mov    DWORD PTR [ebp-0x34],0x100
100049cf:	eb 14                	jmp    0x100049e5
100049d1:	8b 45 88             	mov    eax,DWORD PTR [ebp-0x78]
100049d4:	c1 e0 08             	shl    eax,0x8
100049d7:	83 e8 80             	sub    eax,0xffffff80
100049da:	ba 00 00 00 00       	mov    edx,0x0
100049df:	f7 75 e4             	div    DWORD PTR [ebp-0x1c]
100049e2:	89 45 cc             	mov    DWORD PTR [ebp-0x34],eax
100049e5:	c7 45 c8 00 00 00 00 	mov    DWORD PTR [ebp-0x38],0x0
100049ec:	c7 45 e4 00 00 00 00 	mov    DWORD PTR [ebp-0x1c],0x0
100049f3:	8b 45 e4             	mov    eax,DWORD PTR [ebp-0x1c]
100049f6:	89 45 c0             	mov    DWORD PTR [ebp-0x40],eax
100049f9:	c6 45 db 00          	mov    BYTE PTR [ebp-0x25],0x0
100049fd:	8b 45 d4             	mov    eax,DWORD PTR [ebp-0x2c]
10004a00:	89 45 ac             	mov    DWORD PTR [ebp-0x54],eax
10004a03:	ff 4d ac             	dec    DWORD PTR [ebp-0x54]
10004a06:	e9 b3 03 00 00       	jmp    0x10004dbe
10004a0b:	80 7d db 00          	cmp    BYTE PTR [ebp-0x25],0x0
10004a0f:	74 23                	je     0x10004a34
10004a11:	c6 45 db 00          	mov    BYTE PTR [ebp-0x25],0x0
10004a15:	c7 45 dc 00 00 00 00 	mov    DWORD PTR [ebp-0x24],0x0
10004a1c:	8b 45 ac             	mov    eax,DWORD PTR [ebp-0x54]
10004a1f:	89 45 d4             	mov    DWORD PTR [ebp-0x2c],eax
10004a22:	c6 45 d3 00          	mov    BYTE PTR [ebp-0x2d],0x0
10004a26:	c7 45 c0 00 00 00 00 	mov    DWORD PTR [ebp-0x40],0x0
10004a2d:	c7 45 e4 00 00 00 00 	mov    DWORD PTR [ebp-0x1c],0x0
10004a34:	8b 45 98             	mov    eax,DWORD PTR [ebp-0x68]
10004a37:	8b 50 40             	mov    edx,DWORD PTR [eax+0x40]
10004a3a:	8b 85 74 ff ff ff    	mov    eax,DWORD PTR [ebp-0x8c]
10004a40:	0f af c2             	imul   eax,edx
10004a43:	8d 48 05             	lea    ecx,[eax+0x5]
10004a46:	b8 67 66 66 66       	mov    eax,0x66666667
10004a4b:	f7 e9                	imul   ecx
10004a4d:	c1 fa 02             	sar    edx,0x2
10004a50:	89 c8                	mov    eax,ecx
10004a52:	c1 f8 1f             	sar    eax,0x1f
10004a55:	29 c2                	sub    edx,eax
10004a57:	89 d0                	mov    eax,edx
10004a59:	89 85 74 ff ff ff    	mov    DWORD PTR [ebp-0x8c],eax
10004a5f:	80 7d d3 00          	cmp    BYTE PTR [ebp-0x2d],0x0
10004a63:	0f 84 32 03 00 00    	je     0x10004d9b
10004a69:	83 7d 0c ff          	cmp    DWORD PTR [ebp+0xc],0xffffffff
10004a6d:	0f 85 af 02 00 00    	jne    0x10004d22
10004a73:	8b 45 98             	mov    eax,DWORD PTR [ebp-0x68]
10004a76:	8b 40 60             	mov    eax,DWORD PTR [eax+0x60]
10004a79:	39 45 ac             	cmp    DWORD PTR [ebp-0x54],eax
10004a7c:	75 5d                	jne    0x10004adb
10004a7e:	8b 45 98             	mov    eax,DWORD PTR [ebp-0x68]
10004a81:	8b 40 64             	mov    eax,DWORD PTR [eax+0x64]
10004a84:	39 45 ac             	cmp    DWORD PTR [ebp-0x54],eax
10004a87:	75 52                	jne    0x10004adb
10004a89:	8b 45 98             	mov    eax,DWORD PTR [ebp-0x68]
10004a8c:	8b 55 98             	mov    edx,DWORD PTR [ebp-0x68]
10004a8f:	8b 4a 7c             	mov    ecx,DWORD PTR [edx+0x7c]
10004a92:	8b 95 74 ff ff ff    	mov    edx,DWORD PTR [ebp-0x8c]
10004a98:	8b 5d 98             	mov    ebx,DWORD PTR [ebp-0x68]
10004a9b:	8b 5b 30             	mov    ebx,DWORD PTR [ebx+0x30]
10004a9e:	89 de                	mov    esi,ebx
10004aa0:	8b 5d e0             	mov    ebx,DWORD PTR [ebp-0x20]
10004aa3:	29 f3                	sub    ebx,esi
10004aa5:	89 de                	mov    esi,ebx
10004aa7:	8b 5d 98             	mov    ebx,DWORD PTR [ebp-0x68]
10004aaa:	8b 5b 4c             	mov    ebx,DWORD PTR [ebx+0x4c]
10004aad:	01 f3                	add    ebx,esi
10004aaf:	89 de                	mov    esi,ebx
10004ab1:	8b 5d 98             	mov    ebx,DWORD PTR [ebp-0x68]
10004ab4:	8b 5b 2c             	mov    ebx,DWORD PTR [ebx+0x2c]
10004ab7:	89 df                	mov    edi,ebx
10004ab9:	8b 5d e4             	mov    ebx,DWORD PTR [ebp-0x1c]
10004abc:	29 fb                	sub    ebx,edi
10004abe:	89 df                	mov    edi,ebx
10004ac0:	8b 5d 98             	mov    ebx,DWORD PTR [ebp-0x68]
10004ac3:	8b 5b 54             	mov    ebx,DWORD PTR [ebx+0x54]
10004ac6:	01 fb                	add    ebx,edi
10004ac8:	4b                   	dec    ebx
10004ac9:	83 ec 08             	sub    esp,0x8
10004acc:	51                   	push   ecx
10004acd:	52                   	push   edx
10004ace:	6a 01                	push   0x1
10004ad0:	56                   	push   esi
10004ad1:	53                   	push   ebx
10004ad2:	50                   	push   eax
10004ad3:	e8 9e f7 ff ff       	call   0x10004276
10004ad8:	83 c4 20             	add    esp,0x20
10004adb:	8b 45 98             	mov    eax,DWORD PTR [ebp-0x68]
10004ade:	8b 40 60             	mov    eax,DWORD PTR [eax+0x60]
10004ae1:	39 45 ac             	cmp    DWORD PTR [ebp-0x54],eax
10004ae4:	75 04                	jne    0x10004aea
10004ae6:	80 75 c7 01          	xor    BYTE PTR [ebp-0x39],0x1
10004aea:	8b 45 98             	mov    eax,DWORD PTR [ebp-0x68]
10004aed:	8b 40 64             	mov    eax,DWORD PTR [eax+0x64]
10004af0:	39 45 ac             	cmp    DWORD PTR [ebp-0x54],eax
10004af3:	75 04                	jne    0x10004af9
10004af5:	80 75 c7 01          	xor    BYTE PTR [ebp-0x39],0x1
10004af9:	80 7d c7 00          	cmp    BYTE PTR [ebp-0x39],0x0
10004afd:	74 60                	je     0x10004b5f
10004aff:	8b 4d 98             	mov    ecx,DWORD PTR [ebp-0x68]
10004b02:	8b 45 98             	mov    eax,DWORD PTR [ebp-0x68]
10004b05:	8b 78 78             	mov    edi,DWORD PTR [eax+0x78]
10004b08:	8b b5 74 ff ff ff    	mov    esi,DWORD PTR [ebp-0x8c]
10004b0e:	8b 9d 78 ff ff ff    	mov    ebx,DWORD PTR [ebp-0x88]
10004b14:	8b 45 98             	mov    eax,DWORD PTR [ebp-0x68]
10004b17:	8b 40 30             	mov    eax,DWORD PTR [eax+0x30]
10004b1a:	89 c2                	mov    edx,eax
10004b1c:	8b 45 e0             	mov    eax,DWORD PTR [ebp-0x20]
10004b1f:	29 d0                	sub    eax,edx
10004b21:	89 c2                	mov    edx,eax
10004b23:	8b 45 98             	mov    eax,DWORD PTR [ebp-0x68]
10004b26:	8b 40 4c             	mov    eax,DWORD PTR [eax+0x4c]
10004b29:	01 d0                	add    eax,edx
10004b2b:	48                   	dec    eax
10004b2c:	89 85 64 ff ff ff    	mov    DWORD PTR [ebp-0x9c],eax
10004b32:	8b 45 98             	mov    eax,DWORD PTR [ebp-0x68]
10004b35:	8b 40 2c             	mov    eax,DWORD PTR [eax+0x2c]
10004b38:	89 c2                	mov    edx,eax
10004b3a:	8b 45 e4             	mov    eax,DWORD PTR [ebp-0x1c]
10004b3d:	29 d0                	sub    eax,edx
10004b3f:	89 c2                	mov    edx,eax
10004b41:	8b 45 98             	mov    eax,DWORD PTR [ebp-0x68]
10004b44:	8b 40 54             	mov    eax,DWORD PTR [eax+0x54]
10004b47:	01 d0                	add    eax,edx
10004b49:	83 ec 08             	sub    esp,0x8
10004b4c:	57                   	push   edi
10004b4d:	56                   	push   esi
10004b4e:	53                   	push   ebx
10004b4f:	ff b5 64 ff ff ff    	push   DWORD PTR [ebp-0x9c]
10004b55:	50                   	push   eax
10004b56:	51                   	push   ecx
10004b57:	e8 1a f7 ff ff       	call   0x10004276
10004b5c:	83 c4 20             	add    esp,0x20
10004b5f:	8b 55 98             	mov    edx,DWORD PTR [ebp-0x68]
10004b62:	80 7d c7 00          	cmp    BYTE PTR [ebp-0x39],0x0
10004b66:	74 08                	je     0x10004b70
10004b68:	8b 45 98             	mov    eax,DWORD PTR [ebp-0x68]
10004b6b:	8b 40 74             	mov    eax,DWORD PTR [eax+0x74]
10004b6e:	eb 06                	jmp    0x10004b76
10004b70:	8b 45 98             	mov    eax,DWORD PTR [ebp-0x68]
10004b73:	8b 40 68             	mov    eax,DWORD PTR [eax+0x68]
10004b76:	8b 4d 98             	mov    ecx,DWORD PTR [ebp-0x68]
10004b79:	8b 49 30             	mov    ecx,DWORD PTR [ecx+0x30]
10004b7c:	89 cb                	mov    ebx,ecx
10004b7e:	8b 4d e0             	mov    ecx,DWORD PTR [ebp-0x20]
10004b81:	29 d9                	sub    ecx,ebx
10004b83:	89 cb                	mov    ebx,ecx
10004b85:	8b 4d 98             	mov    ecx,DWORD PTR [ebp-0x68]
10004b88:	8b 49 4c             	mov    ecx,DWORD PTR [ecx+0x4c]
10004b8b:	01 d9                	add    ecx,ebx
10004b8d:	89 ce                	mov    esi,ecx
10004b8f:	8b 4d 98             	mov    ecx,DWORD PTR [ebp-0x68]
10004b92:	8b 49 2c             	mov    ecx,DWORD PTR [ecx+0x2c]
10004b95:	89 cb                	mov    ebx,ecx
10004b97:	8b 4d e4             	mov    ecx,DWORD PTR [ebp-0x1c]
10004b9a:	29 d9                	sub    ecx,ebx
10004b9c:	89 cb                	mov    ebx,ecx
10004b9e:	8b 4d 98             	mov    ecx,DWORD PTR [ebp-0x68]
10004ba1:	8b 49 54             	mov    ecx,DWORD PTR [ecx+0x54]
10004ba4:	01 d9                	add    ecx,ebx
10004ba6:	89 cb                	mov    ebx,ecx
10004ba8:	83 ec 0c             	sub    esp,0xc
10004bab:	8d 8d 7e ff ff ff    	lea    ecx,[ebp-0x82]
10004bb1:	51                   	push   ecx
10004bb2:	50                   	push   eax
10004bb3:	56                   	push   esi
10004bb4:	53                   	push   ebx
10004bb5:	52                   	push   edx
10004bb6:	e8 63 f7 ff ff       	call   0x1000431e
10004bbb:	83 c4 20             	add    esp,0x20
10004bbe:	8b 45 98             	mov    eax,DWORD PTR [ebp-0x68]
10004bc1:	8a 80 80 00 00 00    	mov    al,BYTE PTR [eax+0x80]
10004bc7:	84 c0                	test   al,al
10004bc9:	74 60                	je     0x10004c2b
10004bcb:	8b 55 98             	mov    edx,DWORD PTR [ebp-0x68]
10004bce:	80 7d c7 00          	cmp    BYTE PTR [ebp-0x39],0x0
10004bd2:	74 08                	je     0x10004bdc
10004bd4:	8b 45 98             	mov    eax,DWORD PTR [ebp-0x68]
10004bd7:	8b 40 74             	mov    eax,DWORD PTR [eax+0x74]
10004bda:	eb 06                	jmp    0x10004be2
10004bdc:	8b 45 98             	mov    eax,DWORD PTR [ebp-0x68]
10004bdf:	8b 40 68             	mov    eax,DWORD PTR [eax+0x68]
10004be2:	8b 4d 98             	mov    ecx,DWORD PTR [ebp-0x68]
10004be5:	8b 49 30             	mov    ecx,DWORD PTR [ecx+0x30]
10004be8:	89 cb                	mov    ebx,ecx
10004bea:	8b 4d e0             	mov    ecx,DWORD PTR [ebp-0x20]
10004bed:	29 d9                	sub    ecx,ebx
10004bef:	89 cb                	mov    ebx,ecx
10004bf1:	8b 4d 98             	mov    ecx,DWORD PTR [ebp-0x68]
10004bf4:	8b 49 4c             	mov    ecx,DWORD PTR [ecx+0x4c]
10004bf7:	01 d9                	add    ecx,ebx
10004bf9:	89 ce                	mov    esi,ecx
10004bfb:	8b 4d 98             	mov    ecx,DWORD PTR [ebp-0x68]
10004bfe:	8b 49 2c             	mov    ecx,DWORD PTR [ecx+0x2c]
10004c01:	89 cb                	mov    ebx,ecx
10004c03:	8b 4d e4             	mov    ecx,DWORD PTR [ebp-0x1c]
10004c06:	29 d9                	sub    ecx,ebx
10004c08:	89 cb                	mov    ebx,ecx
10004c0a:	8b 4d 98             	mov    ecx,DWORD PTR [ebp-0x68]
10004c0d:	8b 49 54             	mov    ecx,DWORD PTR [ecx+0x54]
10004c10:	01 d9                	add    ecx,ebx
10004c12:	41                   	inc    ecx
10004c13:	89 cb                	mov    ebx,ecx
10004c15:	83 ec 0c             	sub    esp,0xc
10004c18:	8d 8d 7e ff ff ff    	lea    ecx,[ebp-0x82]
10004c1e:	51                   	push   ecx
10004c1f:	50                   	push   eax
10004c20:	56                   	push   esi
10004c21:	53                   	push   ebx
10004c22:	52                   	push   edx
10004c23:	e8 f6 f6 ff ff       	call   0x1000431e
10004c28:	83 c4 20             	add    esp,0x20
10004c2b:	8b 45 98             	mov    eax,DWORD PTR [ebp-0x68]
10004c2e:	8a 80 81 00 00 00    	mov    al,BYTE PTR [eax+0x81]
10004c34:	84 c0                	test   al,al
10004c36:	0f 84 5f 01 00 00    	je     0x10004d9b
10004c3c:	c7 45 a0 00 00 00 00 	mov    DWORD PTR [ebp-0x60],0x0
10004c43:	83 7d a0 03          	cmp    DWORD PTR [ebp-0x60],0x3
10004c47:	0f 8f 4e 01 00 00    	jg     0x10004d9b
10004c4d:	c7 45 9c 00 00 00 00 	mov    DWORD PTR [ebp-0x64],0x0
10004c54:	8b 85 78 ff ff ff    	mov    eax,DWORD PTR [ebp-0x88]
10004c5a:	39 45 9c             	cmp    DWORD PTR [ebp-0x64],eax
10004c5d:	0f 8d b7 00 00 00    	jge    0x10004d1a
10004c63:	8b 55 98             	mov    edx,DWORD PTR [ebp-0x68]
10004c66:	8b 45 a0             	mov    eax,DWORD PTR [ebp-0x60]
10004c69:	01 d0                	add    eax,edx
10004c6b:	05 82 00 00 00       	add    eax,0x82
10004c70:	8a 00                	mov    al,BYTE PTR [eax]
10004c72:	0f b6 d8             	movzx  ebx,al
10004c75:	8b 45 98             	mov    eax,DWORD PTR [ebp-0x68]
10004c78:	8b 40 2c             	mov    eax,DWORD PTR [eax+0x2c]
10004c7b:	89 c2                	mov    edx,eax
10004c7d:	8b 45 e4             	mov    eax,DWORD PTR [ebp-0x1c]
10004c80:	29 d0                	sub    eax,edx
10004c82:	89 c2                	mov    edx,eax
10004c84:	8b 45 98             	mov    eax,DWORD PTR [ebp-0x68]
10004c87:	8b 40 54             	mov    eax,DWORD PTR [eax+0x54]
10004c8a:	01 c2                	add    edx,eax
10004c8c:	8b 45 9c             	mov    eax,DWORD PTR [ebp-0x64]
10004c8f:	01 c2                	add    edx,eax
10004c91:	8b 45 98             	mov    eax,DWORD PTR [ebp-0x68]
10004c94:	8b 80 88 00 00 00    	mov    eax,DWORD PTR [eax+0x88]
10004c9a:	89 c1                	mov    ecx,eax
10004c9c:	89 d0                	mov    eax,edx
10004c9e:	ba 00 00 00 00       	mov    edx,0x0
10004ca3:	f7 f1                	div    ecx
10004ca5:	89 d0                	mov    eax,edx
10004ca7:	88 c1                	mov    cl,al
10004ca9:	d3 fb                	sar    ebx,cl
10004cab:	89 d8                	mov    eax,ebx
10004cad:	83 e0 01             	and    eax,0x1
10004cb0:	85 c0                	test   eax,eax
10004cb2:	74 5e                	je     0x10004d12
10004cb4:	8b 45 98             	mov    eax,DWORD PTR [ebp-0x68]
10004cb7:	8b 55 98             	mov    edx,DWORD PTR [ebp-0x68]
10004cba:	8b 52 70             	mov    edx,DWORD PTR [edx+0x70]
10004cbd:	8b 4d 98             	mov    ecx,DWORD PTR [ebp-0x68]
10004cc0:	8b 49 30             	mov    ecx,DWORD PTR [ecx+0x30]
10004cc3:	89 cb                	mov    ebx,ecx
10004cc5:	8b 4d e0             	mov    ecx,DWORD PTR [ebp-0x20]
10004cc8:	29 d9                	sub    ecx,ebx
10004cca:	89 cb                	mov    ebx,ecx
10004ccc:	8b 4d 98             	mov    ecx,DWORD PTR [ebp-0x68]
10004ccf:	8b 49 4c             	mov    ecx,DWORD PTR [ecx+0x4c]
10004cd2:	01 cb                	add    ebx,ecx
10004cd4:	8b 4d a0             	mov    ecx,DWORD PTR [ebp-0x60]
10004cd7:	01 cb                	add    ebx,ecx
10004cd9:	8b 8d 74 ff ff ff    	mov    ecx,DWORD PTR [ebp-0x8c]
10004cdf:	01 d9                	add    ecx,ebx
10004ce1:	89 cb                	mov    ebx,ecx
10004ce3:	8b 4d 98             	mov    ecx,DWORD PTR [ebp-0x68]
10004ce6:	8b 49 2c             	mov    ecx,DWORD PTR [ecx+0x2c]
10004ce9:	89 ce                	mov    esi,ecx
10004ceb:	8b 4d e4             	mov    ecx,DWORD PTR [ebp-0x1c]
10004cee:	29 f1                	sub    ecx,esi
10004cf0:	89 ce                	mov    esi,ecx
10004cf2:	8b 4d 98             	mov    ecx,DWORD PTR [ebp-0x68]
10004cf5:	8b 49 54             	mov    ecx,DWORD PTR [ecx+0x54]
10004cf8:	01 ce                	add    esi,ecx
10004cfa:	8b 4d 9c             	mov    ecx,DWORD PTR [ebp-0x64]
10004cfd:	01 f1                	add    ecx,esi
10004cff:	83 ec 08             	sub    esp,0x8
10004d02:	52                   	push   edx
10004d03:	6a 01                	push   0x1
10004d05:	6a 01                	push   0x1
10004d07:	53                   	push   ebx
10004d08:	51                   	push   ecx
10004d09:	50                   	push   eax
10004d0a:	e8 93 f5 ff ff       	call   0x100042a2
10004d0f:	83 c4 20             	add    esp,0x20
10004d12:	ff 45 9c             	inc    DWORD PTR [ebp-0x64]
10004d15:	e9 3a ff ff ff       	jmp    0x10004c54
10004d1a:	ff 45 a0             	inc    DWORD PTR [ebp-0x60]
10004d1d:	e9 21 ff ff ff       	jmp    0x10004c43
10004d22:	8b 45 ac             	mov    eax,DWORD PTR [ebp-0x54]
10004d25:	3b 45 0c             	cmp    eax,DWORD PTR [ebp+0xc]
10004d28:	75 71                	jne    0x10004d9b
10004d2a:	8b 45 98             	mov    eax,DWORD PTR [ebp-0x68]
10004d2d:	8b 40 2c             	mov    eax,DWORD PTR [eax+0x2c]
10004d30:	89 c2                	mov    edx,eax
10004d32:	8b 45 e4             	mov    eax,DWORD PTR [ebp-0x1c]
10004d35:	29 d0                	sub    eax,edx
10004d37:	89 c2                	mov    edx,eax
10004d39:	8b 45 98             	mov    eax,DWORD PTR [ebp-0x68]
10004d3c:	8b 40 54             	mov    eax,DWORD PTR [eax+0x54]
10004d3f:	01 d0                	add    eax,edx
10004d41:	89 c2                	mov    edx,eax
10004d43:	8b 45 10             	mov    eax,DWORD PTR [ebp+0x10]
10004d46:	89 10                	mov    DWORD PTR [eax],edx
10004d48:	8b 45 98             	mov    eax,DWORD PTR [ebp-0x68]
10004d4b:	8b 40 30             	mov    eax,DWORD PTR [eax+0x30]
10004d4e:	89 c2                	mov    edx,eax
10004d50:	8b 45 e0             	mov    eax,DWORD PTR [ebp-0x20]
10004d53:	29 d0                	sub    eax,edx
10004d55:	89 c2                	mov    edx,eax
10004d57:	8b 45 98             	mov    eax,DWORD PTR [ebp-0x68]
10004d5a:	8b 40 4c             	mov    eax,DWORD PTR [eax+0x4c]
10004d5d:	01 d0                	add    eax,edx
10004d5f:	89 c2                	mov    edx,eax
10004d61:	8b 45 14             	mov    eax,DWORD PTR [ebp+0x14]
10004d64:	89 10                	mov    DWORD PTR [eax],edx
10004d66:	83 7d 18 00          	cmp    DWORD PTR [ebp+0x18],0x0
10004d6a:	74 1e                	je     0x10004d8a
10004d6c:	8b 45 98             	mov    eax,DWORD PTR [ebp-0x68]
10004d6f:	8b 40 30             	mov    eax,DWORD PTR [eax+0x30]
10004d72:	89 c2                	mov    edx,eax
10004d74:	8b 45 e0             	mov    eax,DWORD PTR [ebp-0x20]
10004d77:	29 d0                	sub    eax,edx
10004d79:	89 c2                	mov    edx,eax
10004d7b:	8b 45 98             	mov    eax,DWORD PTR [ebp-0x68]
10004d7e:	8b 40 4c             	mov    eax,DWORD PTR [eax+0x4c]
10004d81:	01 d0                	add    eax,edx
10004d83:	89 c2                	mov    edx,eax
10004d85:	8b 45 18             	mov    eax,DWORD PTR [ebp+0x18]
10004d88:	89 10                	mov    DWORD PTR [eax],edx
10004d8a:	8b 45 98             	mov    eax,DWORD PTR [ebp-0x68]
10004d8d:	c6 40 09 00          	mov    BYTE PTR [eax+0x9],0x0
10004d91:	b8 00 00 00 00       	mov    eax,0x0
10004d96:	e9 20 02 00 00       	jmp    0x10004fbb
10004d9b:	8b 85 78 ff ff ff    	mov    eax,DWORD PTR [ebp-0x88]
10004da1:	01 45 e4             	add    DWORD PTR [ebp-0x1c],eax
10004da4:	8b 85 74 ff ff ff    	mov    eax,DWORD PTR [ebp-0x8c]
10004daa:	39 45 dc             	cmp    DWORD PTR [ebp-0x24],eax
10004dad:	73 0f                	jae    0x10004dbe
10004daf:	8b 85 74 ff ff ff    	mov    eax,DWORD PTR [ebp-0x8c]
10004db5:	89 45 dc             	mov    DWORD PTR [ebp-0x24],eax
10004db8:	eb 04                	jmp    0x10004dbe
10004dba:	90                   	nop
10004dbb:	eb 01                	jmp    0x10004dbe
10004dbd:	90                   	nop
10004dbe:	ff 45 ac             	inc    DWORD PTR [ebp-0x54]
10004dc1:	e9 98 f6 ff ff       	jmp    0x1000445e
10004dc6:	83 7d 0c ff          	cmp    DWORD PTR [ebp+0xc],0xffffffff
10004dca:	0f 85 d1 01 00 00    	jne    0x10004fa1
10004dd0:	8b 45 98             	mov    eax,DWORD PTR [ebp-0x68]
10004dd3:	8b 40 24             	mov    eax,DWORD PTR [eax+0x24]
10004dd6:	83 ec 0c             	sub    esp,0xc
10004dd9:	50                   	push   eax
10004dda:	e8 91 5e 00 00       	call   0x1000ac70
10004ddf:	83 c4 10             	add    esp,0x10
10004de2:	89 45 80             	mov    DWORD PTR [ebp-0x80],eax
10004de5:	8b 45 98             	mov    eax,DWORD PTR [ebp-0x68]
10004de8:	8b 40 60             	mov    eax,DWORD PTR [eax+0x60]
10004deb:	39 45 80             	cmp    DWORD PTR [ebp-0x80],eax
10004dee:	75 5d                	jne    0x10004e4d
10004df0:	8b 45 98             	mov    eax,DWORD PTR [ebp-0x68]
10004df3:	8b 40 64             	mov    eax,DWORD PTR [eax+0x64]
10004df6:	39 45 80             	cmp    DWORD PTR [ebp-0x80],eax
10004df9:	75 52                	jne    0x10004e4d
10004dfb:	8b 45 98             	mov    eax,DWORD PTR [ebp-0x68]
10004dfe:	8b 55 98             	mov    edx,DWORD PTR [ebp-0x68]
10004e01:	8b 4a 7c             	mov    ecx,DWORD PTR [edx+0x7c]
10004e04:	8b 95 74 ff ff ff    	mov    edx,DWORD PTR [ebp-0x8c]
10004e0a:	8b 5d 98             	mov    ebx,DWORD PTR [ebp-0x68]
10004e0d:	8b 5b 30             	mov    ebx,DWORD PTR [ebx+0x30]
10004e10:	89 de                	mov    esi,ebx
10004e12:	8b 5d e0             	mov    ebx,DWORD PTR [ebp-0x20]
10004e15:	29 f3                	sub    ebx,esi
10004e17:	89 de                	mov    esi,ebx
10004e19:	8b 5d 98             	mov    ebx,DWORD PTR [ebp-0x68]
10004e1c:	8b 5b 4c             	mov    ebx,DWORD PTR [ebx+0x4c]
10004e1f:	01 f3                	add    ebx,esi
10004e21:	89 de                	mov    esi,ebx
10004e23:	8b 5d 98             	mov    ebx,DWORD PTR [ebp-0x68]
10004e26:	8b 5b 2c             	mov    ebx,DWORD PTR [ebx+0x2c]
10004e29:	89 df                	mov    edi,ebx
10004e2b:	8b 5d e4             	mov    ebx,DWORD PTR [ebp-0x1c]
10004e2e:	29 fb                	sub    ebx,edi
10004e30:	89 df                	mov    edi,ebx
10004e32:	8b 5d 98             	mov    ebx,DWORD PTR [ebp-0x68]
10004e35:	8b 5b 54             	mov    ebx,DWORD PTR [ebx+0x54]
10004e38:	01 fb                	add    ebx,edi
10004e3a:	4b                   	dec    ebx
10004e3b:	83 ec 08             	sub    esp,0x8
10004e3e:	51                   	push   ecx
10004e3f:	52                   	push   edx
10004e40:	6a 01                	push   0x1
10004e42:	56                   	push   esi
10004e43:	53                   	push   ebx
10004e44:	50                   	push   eax
10004e45:	e8 2c f4 ff ff       	call   0x10004276
10004e4a:	83 c4 20             	add    esp,0x20
10004e4d:	8b 45 98             	mov    eax,DWORD PTR [ebp-0x68]
10004e50:	8b 40 60             	mov    eax,DWORD PTR [eax+0x60]
10004e53:	39 45 80             	cmp    DWORD PTR [ebp-0x80],eax
10004e56:	75 04                	jne    0x10004e5c
10004e58:	80 75 c7 01          	xor    BYTE PTR [ebp-0x39],0x1
10004e5c:	8b 45 98             	mov    eax,DWORD PTR [ebp-0x68]
10004e5f:	8b 40 64             	mov    eax,DWORD PTR [eax+0x64]
10004e62:	39 45 80             	cmp    DWORD PTR [ebp-0x80],eax
10004e65:	75 04                	jne    0x10004e6b
10004e67:	80 75 c7 01          	xor    BYTE PTR [ebp-0x39],0x1
10004e6b:	80 7d c7 00          	cmp    BYTE PTR [ebp-0x39],0x0
10004e6f:	74 60                	je     0x10004ed1
10004e71:	8b 4d 98             	mov    ecx,DWORD PTR [ebp-0x68]
10004e74:	8b 45 98             	mov    eax,DWORD PTR [ebp-0x68]
10004e77:	8b 78 78             	mov    edi,DWORD PTR [eax+0x78]
10004e7a:	8b b5 74 ff ff ff    	mov    esi,DWORD PTR [ebp-0x8c]
10004e80:	8b 9d 78 ff ff ff    	mov    ebx,DWORD PTR [ebp-0x88]
10004e86:	8b 45 98             	mov    eax,DWORD PTR [ebp-0x68]
10004e89:	8b 40 30             	mov    eax,DWORD PTR [eax+0x30]
10004e8c:	89 c2                	mov    edx,eax
10004e8e:	8b 45 e0             	mov    eax,DWORD PTR [ebp-0x20]
10004e91:	29 d0                	sub    eax,edx
10004e93:	89 c2                	mov    edx,eax
10004e95:	8b 45 98             	mov    eax,DWORD PTR [ebp-0x68]
10004e98:	8b 40 4c             	mov    eax,DWORD PTR [eax+0x4c]
10004e9b:	01 d0                	add    eax,edx
10004e9d:	48                   	dec    eax
10004e9e:	89 85 64 ff ff ff    	mov    DWORD PTR [ebp-0x9c],eax
10004ea4:	8b 45 98             	mov    eax,DWORD PTR [ebp-0x68]
10004ea7:	8b 40 2c             	mov    eax,DWORD PTR [eax+0x2c]
10004eaa:	89 c2                	mov    edx,eax
10004eac:	8b 45 e4             	mov    eax,DWORD PTR [ebp-0x1c]
10004eaf:	29 d0                	sub    eax,edx
10004eb1:	89 c2                	mov    edx,eax
10004eb3:	8b 45 98             	mov    eax,DWORD PTR [ebp-0x68]
10004eb6:	8b 40 54             	mov    eax,DWORD PTR [eax+0x54]
10004eb9:	01 d0                	add    eax,edx
10004ebb:	83 ec 08             	sub    esp,0x8
10004ebe:	57                   	push   edi
10004ebf:	56                   	push   esi
10004ec0:	53                   	push   ebx
10004ec1:	ff b5 64 ff ff ff    	push   DWORD PTR [ebp-0x9c]
10004ec7:	50                   	push   eax
10004ec8:	51                   	push   ecx
10004ec9:	e8 a8 f3 ff ff       	call   0x10004276
10004ece:	83 c4 20             	add    esp,0x20
10004ed1:	8b 45 98             	mov    eax,DWORD PTR [ebp-0x68]
10004ed4:	8b 55 98             	mov    edx,DWORD PTR [ebp-0x68]
10004ed7:	8b 5a 6c             	mov    ebx,DWORD PTR [edx+0x6c]
10004eda:	8b 55 98             	mov    edx,DWORD PTR [ebp-0x68]
10004edd:	8b 4a 4c             	mov    ecx,DWORD PTR [edx+0x4c]
10004ee0:	8b 55 98             	mov    edx,DWORD PTR [ebp-0x68]
10004ee3:	8b 52 10             	mov    edx,DWORD PTR [edx+0x10]
10004ee6:	83 ec 08             	sub    esp,0x8
10004ee9:	53                   	push   ebx
10004eea:	51                   	push   ecx
10004eeb:	52                   	push   edx
10004eec:	6a 00                	push   0x0
10004eee:	6a 00                	push   0x0
10004ef0:	50                   	push   eax
10004ef1:	e8 80 f3 ff ff       	call   0x10004276
10004ef6:	83 c4 20             	add    esp,0x20
10004ef9:	8b 45 98             	mov    eax,DWORD PTR [ebp-0x68]
10004efc:	8b 55 98             	mov    edx,DWORD PTR [ebp-0x68]
10004eff:	8b 5a 6c             	mov    ebx,DWORD PTR [edx+0x6c]
10004f02:	8b 55 98             	mov    edx,DWORD PTR [ebp-0x68]
10004f05:	8b 4a 14             	mov    ecx,DWORD PTR [edx+0x14]
10004f08:	8b 55 98             	mov    edx,DWORD PTR [ebp-0x68]
10004f0b:	8b 52 54             	mov    edx,DWORD PTR [edx+0x54]
10004f0e:	85 d2                	test   edx,edx
10004f10:	74 09                	je     0x10004f1b
10004f12:	8b 55 98             	mov    edx,DWORD PTR [ebp-0x68]
10004f15:	8b 52 54             	mov    edx,DWORD PTR [edx+0x54]
10004f18:	4a                   	dec    edx
10004f19:	eb 05                	jmp    0x10004f20
10004f1b:	ba 00 00 00 00       	mov    edx,0x0
10004f20:	83 ec 08             	sub    esp,0x8
10004f23:	53                   	push   ebx
10004f24:	51                   	push   ecx
10004f25:	52                   	push   edx
10004f26:	6a 00                	push   0x0
10004f28:	6a 00                	push   0x0
10004f2a:	50                   	push   eax
10004f2b:	e8 46 f3 ff ff       	call   0x10004276
10004f30:	83 c4 20             	add    esp,0x20
10004f33:	8b 45 98             	mov    eax,DWORD PTR [ebp-0x68]
10004f36:	8b 55 98             	mov    edx,DWORD PTR [ebp-0x68]
10004f39:	8b 5a 6c             	mov    ebx,DWORD PTR [edx+0x6c]
10004f3c:	8b 55 98             	mov    edx,DWORD PTR [ebp-0x68]
10004f3f:	8b 4a 50             	mov    ecx,DWORD PTR [edx+0x50]
10004f42:	8b 55 98             	mov    edx,DWORD PTR [ebp-0x68]
10004f45:	8b 52 10             	mov    edx,DWORD PTR [edx+0x10]
10004f48:	8b 75 98             	mov    esi,DWORD PTR [ebp-0x68]
10004f4b:	8b 7e 14             	mov    edi,DWORD PTR [esi+0x14]
10004f4e:	8b 75 98             	mov    esi,DWORD PTR [ebp-0x68]
10004f51:	8b 76 50             	mov    esi,DWORD PTR [esi+0x50]
10004f54:	29 f7                	sub    edi,esi
10004f56:	89 fe                	mov    esi,edi
10004f58:	83 ec 08             	sub    esp,0x8
10004f5b:	53                   	push   ebx
10004f5c:	51                   	push   ecx
10004f5d:	52                   	push   edx
10004f5e:	56                   	push   esi
10004f5f:	6a 00                	push   0x0
10004f61:	50                   	push   eax
10004f62:	e8 0f f3 ff ff       	call   0x10004276
10004f67:	83 c4 20             	add    esp,0x20
10004f6a:	8b 45 98             	mov    eax,DWORD PTR [ebp-0x68]
10004f6d:	8b 55 98             	mov    edx,DWORD PTR [ebp-0x68]
10004f70:	8b 5a 6c             	mov    ebx,DWORD PTR [edx+0x6c]
10004f73:	8b 55 98             	mov    edx,DWORD PTR [ebp-0x68]
10004f76:	8b 4a 14             	mov    ecx,DWORD PTR [edx+0x14]
10004f79:	8b 55 98             	mov    edx,DWORD PTR [ebp-0x68]
10004f7c:	8b 52 58             	mov    edx,DWORD PTR [edx+0x58]
10004f7f:	8b 75 98             	mov    esi,DWORD PTR [ebp-0x68]
10004f82:	8b 7e 10             	mov    edi,DWORD PTR [esi+0x10]
10004f85:	8b 75 98             	mov    esi,DWORD PTR [ebp-0x68]
10004f88:	8b 76 58             	mov    esi,DWORD PTR [esi+0x58]
10004f8b:	29 f7                	sub    edi,esi
10004f8d:	89 fe                	mov    esi,edi
10004f8f:	83 ec 08             	sub    esp,0x8
10004f92:	53                   	push   ebx
10004f93:	51                   	push   ecx
10004f94:	52                   	push   edx
10004f95:	6a 00                	push   0x0
10004f97:	56                   	push   esi
10004f98:	50                   	push   eax
10004f99:	e8 d8 f2 ff ff       	call   0x10004276
10004f9e:	83 c4 20             	add    esp,0x20
10004fa1:	8b 45 98             	mov    eax,DWORD PTR [ebp-0x68]
10004fa4:	c6 40 09 00          	mov    BYTE PTR [eax+0x9],0x0
10004fa8:	83 7d 0c ff          	cmp    DWORD PTR [ebp+0xc],0xffffffff
10004fac:	75 07                	jne    0x10004fb5
10004fae:	b8 00 00 00 00       	mov    eax,0x0
10004fb3:	eb 06                	jmp    0x10004fbb
10004fb5:	b8 ff ff ff ff       	mov    eax,0xffffffff
10004fba:	90                   	nop
10004fbb:	8d 65 f4             	lea    esp,[ebp-0xc]
10004fbe:	5b                   	pop    ebx
10004fbf:	5e                   	pop    esi
10004fc0:	5f                   	pop    edi
10004fc1:	5d                   	pop    ebp
10004fc2:	c3                   	ret    
10004fc3:	90                   	nop
10004fc4:	55                   	push   ebp
10004fc5:	89 e5                	mov    ebp,esp
10004fc7:	83 ec 08             	sub    esp,0x8
10004fca:	8b 45 08             	mov    eax,DWORD PTR [ebp+0x8]
10004fcd:	83 ec 0c             	sub    esp,0xc
10004fd0:	ff 75 18             	push   DWORD PTR [ebp+0x18]
10004fd3:	ff 75 14             	push   DWORD PTR [ebp+0x14]
10004fd6:	ff 75 10             	push   DWORD PTR [ebp+0x10]
10004fd9:	ff 75 0c             	push   DWORD PTR [ebp+0xc]
10004fdc:	50                   	push   eax
10004fdd:	e8 62 f3 ff ff       	call   0x10004344
10004fe2:	83 c4 20             	add    esp,0x20
10004fe5:	90                   	nop
10004fe6:	c9                   	leave  
10004fe7:	c3                   	ret    
10004fe8:	55                   	push   ebp
10004fe9:	89 e5                	mov    ebp,esp
10004feb:	83 ec 08             	sub    esp,0x8
10004fee:	83 ec 0c             	sub    esp,0xc
10004ff1:	6a 00                	push   0x0
10004ff3:	6a 00                	push   0x0
10004ff5:	6a 00                	push   0x0
10004ff7:	6a ff                	push   0xffffffff
10004ff9:	ff 75 08             	push   DWORD PTR [ebp+0x8]
10004ffc:	e8 43 f3 ff ff       	call   0x10004344
10005001:	83 c4 20             	add    esp,0x20
10005004:	c9                   	leave  
10005005:	c3                   	ret    
10005006:	55                   	push   ebp
10005007:	89 e5                	mov    ebp,esp
10005009:	83 ec 08             	sub    esp,0x8
1000500c:	8b 45 08             	mov    eax,DWORD PTR [ebp+0x8]
1000500f:	8b 55 0c             	mov    edx,DWORD PTR [ebp+0xc]
10005012:	89 50 5c             	mov    DWORD PTR [eax+0x5c],edx
10005015:	8b 45 08             	mov    eax,DWORD PTR [ebp+0x8]
10005018:	83 ec 0c             	sub    esp,0xc
1000501b:	50                   	push   eax
1000501c:	e8 01 f1 ff ff       	call   0x10004122
10005021:	83 c4 10             	add    esp,0x10
10005024:	90                   	nop
10005025:	c9                   	leave  
10005026:	c3                   	ret    
10005027:	90                   	nop
10005028:	55                   	push   ebp
10005029:	89 e5                	mov    ebp,esp
1000502b:	83 ec 08             	sub    esp,0x8
1000502e:	8b 45 08             	mov    eax,DWORD PTR [ebp+0x8]
10005031:	8d 90 82 00 00 00    	lea    edx,[eax+0x82]
10005037:	8b 45 10             	mov    eax,DWORD PTR [ebp+0x10]
1000503a:	8b 00                	mov    eax,DWORD PTR [eax]
1000503c:	89 02                	mov    DWORD PTR [edx],eax
1000503e:	8b 45 08             	mov    eax,DWORD PTR [ebp+0x8]
10005041:	8b 55 0c             	mov    edx,DWORD PTR [ebp+0xc]
10005044:	89 90 88 00 00 00    	mov    DWORD PTR [eax+0x88],edx
1000504a:	8b 45 08             	mov    eax,DWORD PTR [ebp+0x8]
1000504d:	83 ec 0c             	sub    esp,0xc
10005050:	50                   	push   eax
10005051:	e8 cc f0 ff ff       	call   0x10004122
10005056:	83 c4 10             	add    esp,0x10
10005059:	90                   	nop
1000505a:	c9                   	leave  
1000505b:	c3                   	ret    
1000505c:	55                   	push   ebp
1000505d:	89 e5                	mov    ebp,esp
1000505f:	8b 45 08             	mov    eax,DWORD PTR [ebp+0x8]
10005062:	05 82 00 00 00       	add    eax,0x82
10005067:	8b 10                	mov    edx,DWORD PTR [eax]
10005069:	8b 45 0c             	mov    eax,DWORD PTR [ebp+0xc]
1000506c:	89 10                	mov    DWORD PTR [eax],edx
1000506e:	8b 45 08             	mov    eax,DWORD PTR [ebp+0x8]
10005071:	8b 80 88 00 00 00    	mov    eax,DWORD PTR [eax+0x88]
10005077:	5d                   	pop    ebp
10005078:	c3                   	ret    
10005079:	90                   	nop
1000507a:	55                   	push   ebp
1000507b:	89 e5                	mov    ebp,esp
1000507d:	8b 45 08             	mov    eax,DWORD PTR [ebp+0x8]
10005080:	8b 40 5c             	mov    eax,DWORD PTR [eax+0x5c]
10005083:	5d                   	pop    ebp
10005084:	c3                   	ret    
10005085:	90                   	nop
10005086:	55                   	push   ebp
10005087:	89 e5                	mov    ebp,esp
10005089:	83 ec 08             	sub    esp,0x8
1000508c:	83 ec 0c             	sub    esp,0xc
1000508f:	ff 75 1c             	push   DWORD PTR [ebp+0x1c]
10005092:	e8 1d 14 00 00       	call   0x100064b4
10005097:	83 c4 10             	add    esp,0x10
1000509a:	83 ec 04             	sub    esp,0x4
1000509d:	ff 75 20             	push   DWORD PTR [ebp+0x20]
100050a0:	50                   	push   eax
100050a1:	ff 75 18             	push   DWORD PTR [ebp+0x18]
100050a4:	ff 75 14             	push   DWORD PTR [ebp+0x14]
100050a7:	ff 75 10             	push   DWORD PTR [ebp+0x10]
100050aa:	ff 75 0c             	push   DWORD PTR [ebp+0xc]
100050ad:	ff 75 08             	push   DWORD PTR [ebp+0x8]
100050b0:	e8 0f 0c 00 00       	call   0x10005cc4
100050b5:	83 c4 20             	add    esp,0x20
100050b8:	90                   	nop
100050b9:	c9                   	leave  
100050ba:	c3                   	ret    
100050bb:	90                   	nop
100050bc:	55                   	push   ebp
100050bd:	89 e5                	mov    ebp,esp
100050bf:	83 ec 08             	sub    esp,0x8
100050c2:	83 ec 0c             	sub    esp,0xc
100050c5:	ff 75 1c             	push   DWORD PTR [ebp+0x1c]
100050c8:	e8 73 f1 ff ff       	call   0x10004240
100050cd:	83 c4 10             	add    esp,0x10
100050d0:	83 ec 04             	sub    esp,0x4
100050d3:	ff 75 20             	push   DWORD PTR [ebp+0x20]
100050d6:	50                   	push   eax
100050d7:	ff 75 18             	push   DWORD PTR [ebp+0x18]
100050da:	ff 75 14             	push   DWORD PTR [ebp+0x14]
100050dd:	ff 75 10             	push   DWORD PTR [ebp+0x10]
100050e0:	ff 75 0c             	push   DWORD PTR [ebp+0xc]
100050e3:	ff 75 08             	push   DWORD PTR [ebp+0x8]
100050e6:	e8 d9 0b 00 00       	call   0x10005cc4
100050eb:	83 c4 20             	add    esp,0x20
100050ee:	90                   	nop
100050ef:	c9                   	leave  
100050f0:	c3                   	ret    
100050f1:	90                   	nop
100050f2:	55                   	push   ebp
100050f3:	89 e5                	mov    ebp,esp
100050f5:	83 ec 10             	sub    esp,0x10
100050f8:	c7 45 fc 00 00 00 00 	mov    DWORD PTR [ebp-0x4],0x0
100050ff:	8b 45 08             	mov    eax,DWORD PTR [ebp+0x8]
10005102:	8b 80 98 00 00 00    	mov    eax,DWORD PTR [eax+0x98]
10005108:	40                   	inc    eax
10005109:	39 45 fc             	cmp    DWORD PTR [ebp-0x4],eax
1000510c:	7f 64                	jg     0x10005172
1000510e:	8b 45 08             	mov    eax,DWORD PTR [ebp+0x8]
10005111:	8b 50 24             	mov    edx,DWORD PTR [eax+0x24]
10005114:	8b 45 08             	mov    eax,DWORD PTR [ebp+0x8]
10005117:	8b 48 60             	mov    ecx,DWORD PTR [eax+0x60]
1000511a:	8b 45 fc             	mov    eax,DWORD PTR [ebp-0x4]
1000511d:	01 c8                	add    eax,ecx
1000511f:	01 d0                	add    eax,edx
10005121:	8a 00                	mov    al,BYTE PTR [eax]
10005123:	0f be d0             	movsx  edx,al
10005126:	8b 45 08             	mov    eax,DWORD PTR [ebp+0x8]
10005129:	8b 80 90 00 00 00    	mov    eax,DWORD PTR [eax+0x90]
1000512f:	39 c2                	cmp    edx,eax
10005131:	74 3e                	je     0x10005171
10005133:	8b 45 08             	mov    eax,DWORD PTR [ebp+0x8]
10005136:	8b 50 24             	mov    edx,DWORD PTR [eax+0x24]
10005139:	8b 45 08             	mov    eax,DWORD PTR [ebp+0x8]
1000513c:	8b 48 60             	mov    ecx,DWORD PTR [eax+0x60]
1000513f:	8b 45 fc             	mov    eax,DWORD PTR [ebp-0x4]
10005142:	01 c8                	add    eax,ecx
10005144:	01 d0                	add    eax,edx
10005146:	8a 00                	mov    al,BYTE PTR [eax]
10005148:	0f be d0             	movsx  edx,al
1000514b:	8b 45 08             	mov    eax,DWORD PTR [ebp+0x8]
1000514e:	8b 80 94 00 00 00    	mov    eax,DWORD PTR [eax+0x94]
10005154:	39 c2                	cmp    edx,eax
10005156:	75 14                	jne    0x1000516c
10005158:	8b 45 08             	mov    eax,DWORD PTR [ebp+0x8]
1000515b:	8b 40 60             	mov    eax,DWORD PTR [eax+0x60]
1000515e:	8b 55 fc             	mov    edx,DWORD PTR [ebp-0x4]
10005161:	42                   	inc    edx
10005162:	01 c2                	add    edx,eax
10005164:	8b 45 08             	mov    eax,DWORD PTR [ebp+0x8]
10005167:	89 50 60             	mov    DWORD PTR [eax+0x60],edx
1000516a:	eb 8c                	jmp    0x100050f8
1000516c:	ff 45 fc             	inc    DWORD PTR [ebp-0x4]
1000516f:	eb 8e                	jmp    0x100050ff
10005171:	90                   	nop
10005172:	c7 45 f8 00 00 00 00 	mov    DWORD PTR [ebp-0x8],0x0
10005179:	8b 45 08             	mov    eax,DWORD PTR [ebp+0x8]
1000517c:	8b 80 98 00 00 00    	mov    eax,DWORD PTR [eax+0x98]
10005182:	40                   	inc    eax
10005183:	39 45 f8             	cmp    DWORD PTR [ebp-0x8],eax
10005186:	7f 67                	jg     0x100051ef
10005188:	8b 45 08             	mov    eax,DWORD PTR [ebp+0x8]
1000518b:	8b 50 24             	mov    edx,DWORD PTR [eax+0x24]
1000518e:	8b 45 08             	mov    eax,DWORD PTR [ebp+0x8]
10005191:	8b 48 64             	mov    ecx,DWORD PTR [eax+0x64]
10005194:	8b 45 f8             	mov    eax,DWORD PTR [ebp-0x8]
10005197:	01 c8                	add    eax,ecx
10005199:	01 d0                	add    eax,edx
1000519b:	8a 00                	mov    al,BYTE PTR [eax]
1000519d:	0f be d0             	movsx  edx,al
100051a0:	8b 45 08             	mov    eax,DWORD PTR [ebp+0x8]
100051a3:	8b 80 90 00 00 00    	mov    eax,DWORD PTR [eax+0x90]
100051a9:	39 c2                	cmp    edx,eax
100051ab:	74 41                	je     0x100051ee
100051ad:	8b 45 08             	mov    eax,DWORD PTR [ebp+0x8]
100051b0:	8b 50 24             	mov    edx,DWORD PTR [eax+0x24]
100051b3:	8b 45 08             	mov    eax,DWORD PTR [ebp+0x8]
100051b6:	8b 48 64             	mov    ecx,DWORD PTR [eax+0x64]
100051b9:	8b 45 f8             	mov    eax,DWORD PTR [ebp-0x8]
100051bc:	01 c8                	add    eax,ecx
100051be:	01 d0                	add    eax,edx
100051c0:	8a 00                	mov    al,BYTE PTR [eax]
100051c2:	0f be d0             	movsx  edx,al
100051c5:	8b 45 08             	mov    eax,DWORD PTR [ebp+0x8]
100051c8:	8b 80 94 00 00 00    	mov    eax,DWORD PTR [eax+0x94]
100051ce:	39 c2                	cmp    edx,eax
100051d0:	75 17                	jne    0x100051e9
100051d2:	8b 45 08             	mov    eax,DWORD PTR [ebp+0x8]
100051d5:	8b 40 64             	mov    eax,DWORD PTR [eax+0x64]
100051d8:	8b 55 f8             	mov    edx,DWORD PTR [ebp-0x8]
100051db:	42                   	inc    edx
100051dc:	01 c2                	add    edx,eax
100051de:	8b 45 08             	mov    eax,DWORD PTR [ebp+0x8]
100051e1:	89 50 64             	mov    DWORD PTR [eax+0x64],edx
100051e4:	e9 0f ff ff ff       	jmp    0x100050f8
100051e9:	ff 45 f8             	inc    DWORD PTR [ebp-0x8]
100051ec:	eb 8b                	jmp    0x10005179
100051ee:	90                   	nop
100051ef:	8b 45 08             	mov    eax,DWORD PTR [ebp+0x8]
100051f2:	8b 40 60             	mov    eax,DWORD PTR [eax+0x60]
100051f5:	85 c0                	test   eax,eax
100051f7:	74 7b                	je     0x10005274
100051f9:	c7 45 f4 00 00 00 00 	mov    DWORD PTR [ebp-0xc],0x0
10005200:	8b 45 08             	mov    eax,DWORD PTR [ebp+0x8]
10005203:	8b 80 98 00 00 00    	mov    eax,DWORD PTR [eax+0x98]
10005209:	40                   	inc    eax
1000520a:	39 45 f4             	cmp    DWORD PTR [ebp-0xc],eax
1000520d:	7f 65                	jg     0x10005274
1000520f:	8b 45 08             	mov    eax,DWORD PTR [ebp+0x8]
10005212:	8b 50 24             	mov    edx,DWORD PTR [eax+0x24]
10005215:	8b 45 08             	mov    eax,DWORD PTR [ebp+0x8]
10005218:	8b 40 60             	mov    eax,DWORD PTR [eax+0x60]
1000521b:	2b 45 f4             	sub    eax,DWORD PTR [ebp-0xc]
1000521e:	01 d0                	add    eax,edx
10005220:	8a 00                	mov    al,BYTE PTR [eax]
10005222:	0f be d0             	movsx  edx,al
10005225:	8b 45 08             	mov    eax,DWORD PTR [ebp+0x8]
10005228:	8b 80 94 00 00 00    	mov    eax,DWORD PTR [eax+0x94]
1000522e:	39 c2                	cmp    edx,eax
10005230:	74 41                	je     0x10005273
10005232:	8b 45 08             	mov    eax,DWORD PTR [ebp+0x8]
10005235:	8b 50 24             	mov    edx,DWORD PTR [eax+0x24]
10005238:	8b 45 08             	mov    eax,DWORD PTR [ebp+0x8]
1000523b:	8b 40 60             	mov    eax,DWORD PTR [eax+0x60]
1000523e:	2b 45 f4             	sub    eax,DWORD PTR [ebp-0xc]
10005241:	01 d0                	add    eax,edx
10005243:	8a 00                	mov    al,BYTE PTR [eax]
10005245:	0f be d0             	movsx  edx,al
10005248:	8b 45 08             	mov    eax,DWORD PTR [ebp+0x8]
1000524b:	8b 80 90 00 00 00    	mov    eax,DWORD PTR [eax+0x90]
10005251:	39 c2                	cmp    edx,eax
10005253:	75 19                	jne    0x1000526e
10005255:	8b 45 08             	mov    eax,DWORD PTR [ebp+0x8]
10005258:	8b 40 60             	mov    eax,DWORD PTR [eax+0x60]
1000525b:	8b 55 f4             	mov    edx,DWORD PTR [ebp-0xc]
1000525e:	42                   	inc    edx
1000525f:	29 d0                	sub    eax,edx
10005261:	89 c2                	mov    edx,eax
10005263:	8b 45 08             	mov    eax,DWORD PTR [ebp+0x8]
10005266:	89 50 60             	mov    DWORD PTR [eax+0x60],edx
10005269:	e9 8a fe ff ff       	jmp    0x100050f8
1000526e:	ff 45 f4             	inc    DWORD PTR [ebp-0xc]
10005271:	eb 8d                	jmp    0x10005200
10005273:	90                   	nop
10005274:	8b 45 08             	mov    eax,DWORD PTR [ebp+0x8]
10005277:	8b 40 64             	mov    eax,DWORD PTR [eax+0x64]
1000527a:	85 c0                	test   eax,eax
1000527c:	74 7b                	je     0x100052f9
1000527e:	c7 45 f0 00 00 00 00 	mov    DWORD PTR [ebp-0x10],0x0
10005285:	8b 45 08             	mov    eax,DWORD PTR [ebp+0x8]
10005288:	8b 80 98 00 00 00    	mov    eax,DWORD PTR [eax+0x98]
1000528e:	40                   	inc    eax
1000528f:	39 45 f0             	cmp    DWORD PTR [ebp-0x10],eax
10005292:	7f 65                	jg     0x100052f9
10005294:	8b 45 08             	mov    eax,DWORD PTR [ebp+0x8]
10005297:	8b 50 24             	mov    edx,DWORD PTR [eax+0x24]
1000529a:	8b 45 08             	mov    eax,DWORD PTR [ebp+0x8]
1000529d:	8b 40 64             	mov    eax,DWORD PTR [eax+0x64]
100052a0:	2b 45 f0             	sub    eax,DWORD PTR [ebp-0x10]
100052a3:	01 d0                	add    eax,edx
100052a5:	8a 00                	mov    al,BYTE PTR [eax]
100052a7:	0f be d0             	movsx  edx,al
100052aa:	8b 45 08             	mov    eax,DWORD PTR [ebp+0x8]
100052ad:	8b 80 94 00 00 00    	mov    eax,DWORD PTR [eax+0x94]
100052b3:	39 c2                	cmp    edx,eax
100052b5:	74 41                	je     0x100052f8
100052b7:	8b 45 08             	mov    eax,DWORD PTR [ebp+0x8]
100052ba:	8b 50 24             	mov    edx,DWORD PTR [eax+0x24]
100052bd:	8b 45 08             	mov    eax,DWORD PTR [ebp+0x8]
100052c0:	8b 40 64             	mov    eax,DWORD PTR [eax+0x64]
100052c3:	2b 45 f0             	sub    eax,DWORD PTR [ebp-0x10]
100052c6:	01 d0                	add    eax,edx
100052c8:	8a 00                	mov    al,BYTE PTR [eax]
100052ca:	0f be d0             	movsx  edx,al
100052cd:	8b 45 08             	mov    eax,DWORD PTR [ebp+0x8]
100052d0:	8b 80 90 00 00 00    	mov    eax,DWORD PTR [eax+0x90]
100052d6:	39 c2                	cmp    edx,eax
100052d8:	75 19                	jne    0x100052f3
100052da:	8b 45 08             	mov    eax,DWORD PTR [ebp+0x8]
100052dd:	8b 40 64             	mov    eax,DWORD PTR [eax+0x64]
100052e0:	8b 55 f0             	mov    edx,DWORD PTR [ebp-0x10]
100052e3:	42                   	inc    edx
100052e4:	29 d0                	sub    eax,edx
100052e6:	89 c2                	mov    edx,eax
100052e8:	8b 45 08             	mov    eax,DWORD PTR [ebp+0x8]
100052eb:	89 50 64             	mov    DWORD PTR [eax+0x64],edx
100052ee:	e9 05 fe ff ff       	jmp    0x100050f8
100052f3:	ff 45 f0             	inc    DWORD PTR [ebp-0x10]
100052f6:	eb 8d                	jmp    0x10005285
100052f8:	90                   	nop
100052f9:	90                   	nop
100052fa:	c9                   	leave  
100052fb:	c3                   	ret    
100052fc:	55                   	push   ebp
100052fd:	89 e5                	mov    ebp,esp
100052ff:	53                   	push   ebx
10005300:	83 ec 14             	sub    esp,0x14
10005303:	83 7d 0c 00          	cmp    DWORD PTR [ebp+0xc],0x0
10005307:	0f 88 c9 00 00 00    	js     0x100053d6
1000530d:	8b 45 08             	mov    eax,DWORD PTR [ebp+0x8]
10005310:	8b 40 24             	mov    eax,DWORD PTR [eax+0x24]
10005313:	83 ec 0c             	sub    esp,0xc
10005316:	50                   	push   eax
10005317:	e8 54 59 00 00       	call   0x1000ac70
1000531c:	83 c4 10             	add    esp,0x10
1000531f:	89 c3                	mov    ebx,eax
10005321:	83 ec 0c             	sub    esp,0xc
10005324:	ff 75 10             	push   DWORD PTR [ebp+0x10]
10005327:	e8 44 59 00 00       	call   0x1000ac70
1000532c:	83 c4 10             	add    esp,0x10
1000532f:	01 d8                	add    eax,ebx
10005331:	83 c0 04             	add    eax,0x4
10005334:	83 ec 0c             	sub    esp,0xc
10005337:	50                   	push   eax
10005338:	e8 27 44 00 00       	call   0x10009764
1000533d:	83 c4 10             	add    esp,0x10
10005340:	89 45 f0             	mov    DWORD PTR [ebp-0x10],eax
10005343:	c7 45 f4 00 00 00 00 	mov    DWORD PTR [ebp-0xc],0x0
1000534a:	8b 45 f4             	mov    eax,DWORD PTR [ebp-0xc]
1000534d:	3b 45 0c             	cmp    eax,DWORD PTR [ebp+0xc]
10005350:	7d 2a                	jge    0x1000537c
10005352:	8b 45 08             	mov    eax,DWORD PTR [ebp+0x8]
10005355:	8b 50 24             	mov    edx,DWORD PTR [eax+0x24]
10005358:	8b 45 f4             	mov    eax,DWORD PTR [ebp-0xc]
1000535b:	01 d0                	add    eax,edx
1000535d:	8b 4d f4             	mov    ecx,DWORD PTR [ebp-0xc]
10005360:	8b 55 f0             	mov    edx,DWORD PTR [ebp-0x10]
10005363:	01 ca                	add    edx,ecx
10005365:	8a 00                	mov    al,BYTE PTR [eax]
10005367:	88 02                	mov    BYTE PTR [edx],al
10005369:	8b 45 f4             	mov    eax,DWORD PTR [ebp-0xc]
1000536c:	8d 50 01             	lea    edx,[eax+0x1]
1000536f:	8b 45 f0             	mov    eax,DWORD PTR [ebp-0x10]
10005372:	01 d0                	add    eax,edx
10005374:	c6 00 00             	mov    BYTE PTR [eax],0x0
10005377:	ff 45 f4             	inc    DWORD PTR [ebp-0xc]
1000537a:	eb ce                	jmp    0x1000534a
1000537c:	83 ec 08             	sub    esp,0x8
1000537f:	ff 75 10             	push   DWORD PTR [ebp+0x10]
10005382:	ff 75 f0             	push   DWORD PTR [ebp-0x10]
10005385:	e8 16 58 00 00       	call   0x1000aba0
1000538a:	83 c4 10             	add    esp,0x10
1000538d:	8b 45 08             	mov    eax,DWORD PTR [ebp+0x8]
10005390:	8b 50 24             	mov    edx,DWORD PTR [eax+0x24]
10005393:	8b 45 0c             	mov    eax,DWORD PTR [ebp+0xc]
10005396:	01 d0                	add    eax,edx
10005398:	83 ec 08             	sub    esp,0x8
1000539b:	50                   	push   eax
1000539c:	ff 75 f0             	push   DWORD PTR [ebp-0x10]
1000539f:	e8 fc 57 00 00       	call   0x1000aba0
100053a4:	83 c4 10             	add    esp,0x10
100053a7:	83 ec 08             	sub    esp,0x8
100053aa:	ff 75 f0             	push   DWORD PTR [ebp-0x10]
100053ad:	ff 75 08             	push   DWORD PTR [ebp+0x8]
100053b0:	e8 03 0d 00 00       	call   0x100060b8
100053b5:	83 c4 10             	add    esp,0x10
100053b8:	83 ec 0c             	sub    esp,0xc
100053bb:	ff 75 f0             	push   DWORD PTR [ebp-0x10]
100053be:	e8 b9 43 00 00       	call   0x1000977c
100053c3:	83 c4 10             	add    esp,0x10
100053c6:	83 ec 0c             	sub    esp,0xc
100053c9:	ff 75 08             	push   DWORD PTR [ebp+0x8]
100053cc:	e8 21 fd ff ff       	call   0x100050f2
100053d1:	83 c4 10             	add    esp,0x10
100053d4:	eb 01                	jmp    0x100053d7
100053d6:	90                   	nop
100053d7:	8b 5d fc             	mov    ebx,DWORD PTR [ebp-0x4]
100053da:	c9                   	leave  
100053db:	c3                   	ret    
100053dc:	55                   	push   ebp
100053dd:	89 e5                	mov    ebp,esp
100053df:	8b 45 08             	mov    eax,DWORD PTR [ebp+0x8]
100053e2:	8b 50 24             	mov    edx,DWORD PTR [eax+0x24]
100053e5:	8b 45 08             	mov    eax,DWORD PTR [ebp+0x8]
100053e8:	8b 40 64             	mov    eax,DWORD PTR [eax+0x64]
100053eb:	8d 48 01             	lea    ecx,[eax+0x1]
100053ee:	8b 45 08             	mov    eax,DWORD PTR [ebp+0x8]
100053f1:	89 48 64             	mov    DWORD PTR [eax+0x64],ecx
100053f4:	8b 45 08             	mov    eax,DWORD PTR [ebp+0x8]
100053f7:	8b 40 64             	mov    eax,DWORD PTR [eax+0x64]
100053fa:	01 d0                	add    eax,edx
100053fc:	8a 00                	mov    al,BYTE PTR [eax]
100053fe:	0f be d0             	movsx  edx,al
10005401:	8b 45 08             	mov    eax,DWORD PTR [ebp+0x8]
10005404:	8b 80 90 00 00 00    	mov    eax,DWORD PTR [eax+0x90]
1000540a:	39 c2                	cmp    edx,eax
1000540c:	0f 94 c0             	sete   al
1000540f:	84 c0                	test   al,al
10005411:	74 1a                	je     0x1000542d
10005413:	8b 45 08             	mov    eax,DWORD PTR [ebp+0x8]
10005416:	8b 50 64             	mov    edx,DWORD PTR [eax+0x64]
10005419:	8b 45 08             	mov    eax,DWORD PTR [ebp+0x8]
1000541c:	8b 80 98 00 00 00    	mov    eax,DWORD PTR [eax+0x98]
10005422:	40                   	inc    eax
10005423:	01 c2                	add    edx,eax
10005425:	8b 45 08             	mov    eax,DWORD PTR [ebp+0x8]
10005428:	89 50 64             	mov    DWORD PTR [eax+0x64],edx
1000542b:	eb b2                	jmp    0x100053df
1000542d:	90                   	nop
1000542e:	5d                   	pop    ebp
1000542f:	c3                   	ret    
10005430:	55                   	push   ebp
10005431:	89 e5                	mov    ebp,esp
10005433:	8b 45 08             	mov    eax,DWORD PTR [ebp+0x8]
10005436:	8b 50 24             	mov    edx,DWORD PTR [eax+0x24]
10005439:	8b 45 08             	mov    eax,DWORD PTR [ebp+0x8]
1000543c:	8b 40 60             	mov    eax,DWORD PTR [eax+0x60]
1000543f:	8d 48 01             	lea    ecx,[eax+0x1]
10005442:	8b 45 08             	mov    eax,DWORD PTR [ebp+0x8]
10005445:	89 48 60             	mov    DWORD PTR [eax+0x60],ecx
10005448:	8b 45 08             	mov    eax,DWORD PTR [ebp+0x8]
1000544b:	8b 40 60             	mov    eax,DWORD PTR [eax+0x60]
1000544e:	01 d0                	add    eax,edx
10005450:	8a 00                	mov    al,BYTE PTR [eax]
10005452:	0f be d0             	movsx  edx,al
10005455:	8b 45 08             	mov    eax,DWORD PTR [ebp+0x8]
10005458:	8b 80 90 00 00 00    	mov    eax,DWORD PTR [eax+0x90]
1000545e:	39 c2                	cmp    edx,eax
10005460:	0f 94 c0             	sete   al
10005463:	84 c0                	test   al,al
10005465:	74 1a                	je     0x10005481
10005467:	8b 45 08             	mov    eax,DWORD PTR [ebp+0x8]
1000546a:	8b 50 60             	mov    edx,DWORD PTR [eax+0x60]
1000546d:	8b 45 08             	mov    eax,DWORD PTR [ebp+0x8]
10005470:	8b 80 98 00 00 00    	mov    eax,DWORD PTR [eax+0x98]
10005476:	40                   	inc    eax
10005477:	01 c2                	add    edx,eax
10005479:	8b 45 08             	mov    eax,DWORD PTR [ebp+0x8]
1000547c:	89 50 60             	mov    DWORD PTR [eax+0x60],edx
1000547f:	eb b2                	jmp    0x10005433
10005481:	90                   	nop
10005482:	5d                   	pop    ebp
10005483:	c3                   	ret    
10005484:	55                   	push   ebp
10005485:	89 e5                	mov    ebp,esp
10005487:	8b 45 08             	mov    eax,DWORD PTR [ebp+0x8]
1000548a:	8b 50 24             	mov    edx,DWORD PTR [eax+0x24]
1000548d:	8b 45 08             	mov    eax,DWORD PTR [ebp+0x8]
10005490:	8b 40 64             	mov    eax,DWORD PTR [eax+0x64]
10005493:	8d 48 ff             	lea    ecx,[eax-0x1]
10005496:	8b 45 08             	mov    eax,DWORD PTR [ebp+0x8]
10005499:	89 48 64             	mov    DWORD PTR [eax+0x64],ecx
1000549c:	8b 45 08             	mov    eax,DWORD PTR [ebp+0x8]
1000549f:	8b 40 64             	mov    eax,DWORD PTR [eax+0x64]
100054a2:	01 d0                	add    eax,edx
100054a4:	8a 00                	mov    al,BYTE PTR [eax]
100054a6:	0f be d0             	movsx  edx,al
100054a9:	8b 45 08             	mov    eax,DWORD PTR [ebp+0x8]
100054ac:	8b 80 94 00 00 00    	mov    eax,DWORD PTR [eax+0x94]
100054b2:	39 c2                	cmp    edx,eax
100054b4:	0f 94 c0             	sete   al
100054b7:	84 c0                	test   al,al
100054b9:	74 1a                	je     0x100054d5
100054bb:	8b 45 08             	mov    eax,DWORD PTR [ebp+0x8]
100054be:	8b 50 64             	mov    edx,DWORD PTR [eax+0x64]
100054c1:	8b 45 08             	mov    eax,DWORD PTR [ebp+0x8]
100054c4:	8b 80 98 00 00 00    	mov    eax,DWORD PTR [eax+0x98]
100054ca:	40                   	inc    eax
100054cb:	29 c2                	sub    edx,eax
100054cd:	8b 45 08             	mov    eax,DWORD PTR [ebp+0x8]
100054d0:	89 50 64             	mov    DWORD PTR [eax+0x64],edx
100054d3:	eb b2                	jmp    0x10005487
100054d5:	8b 45 08             	mov    eax,DWORD PTR [ebp+0x8]
100054d8:	8b 40 64             	mov    eax,DWORD PTR [eax+0x64]
100054db:	85 c0                	test   eax,eax
100054dd:	79 0a                	jns    0x100054e9
100054df:	8b 45 08             	mov    eax,DWORD PTR [ebp+0x8]
100054e2:	c7 40 64 00 00 00 00 	mov    DWORD PTR [eax+0x64],0x0
100054e9:	90                   	nop
100054ea:	5d                   	pop    ebp
100054eb:	c3                   	ret    
100054ec:	55                   	push   ebp
100054ed:	89 e5                	mov    ebp,esp
100054ef:	8b 45 08             	mov    eax,DWORD PTR [ebp+0x8]
100054f2:	8b 50 24             	mov    edx,DWORD PTR [eax+0x24]
100054f5:	8b 45 08             	mov    eax,DWORD PTR [ebp+0x8]
100054f8:	8b 40 60             	mov    eax,DWORD PTR [eax+0x60]
100054fb:	8d 48 ff             	lea    ecx,[eax-0x1]
100054fe:	8b 45 08             	mov    eax,DWORD PTR [ebp+0x8]
10005501:	89 48 60             	mov    DWORD PTR [eax+0x60],ecx
10005504:	8b 45 08             	mov    eax,DWORD PTR [ebp+0x8]
10005507:	8b 40 60             	mov    eax,DWORD PTR [eax+0x60]
1000550a:	01 d0                	add    eax,edx
1000550c:	8a 00                	mov    al,BYTE PTR [eax]
1000550e:	0f be d0             	movsx  edx,al
10005511:	8b 45 08             	mov    eax,DWORD PTR [ebp+0x8]
10005514:	8b 80 94 00 00 00    	mov    eax,DWORD PTR [eax+0x94]
1000551a:	39 c2                	cmp    edx,eax
1000551c:	0f 94 c0             	sete   al
1000551f:	84 c0                	test   al,al
10005521:	74 1a                	je     0x1000553d
10005523:	8b 45 08             	mov    eax,DWORD PTR [ebp+0x8]
10005526:	8b 50 60             	mov    edx,DWORD PTR [eax+0x60]
10005529:	8b 45 08             	mov    eax,DWORD PTR [ebp+0x8]
1000552c:	8b 80 98 00 00 00    	mov    eax,DWORD PTR [eax+0x98]
10005532:	40                   	inc    eax
10005533:	29 c2                	sub    edx,eax
10005535:	8b 45 08             	mov    eax,DWORD PTR [ebp+0x8]
10005538:	89 50 60             	mov    DWORD PTR [eax+0x60],edx
1000553b:	eb b2                	jmp    0x100054ef
1000553d:	8b 45 08             	mov    eax,DWORD PTR [ebp+0x8]
10005540:	8b 40 60             	mov    eax,DWORD PTR [eax+0x60]
10005543:	85 c0                	test   eax,eax
10005545:	79 0a                	jns    0x10005551
10005547:	8b 45 08             	mov    eax,DWORD PTR [ebp+0x8]
1000554a:	c7 40 60 00 00 00 00 	mov    DWORD PTR [eax+0x60],0x0
10005551:	90                   	nop
10005552:	5d                   	pop    ebp
10005553:	c3                   	ret    
10005554:	55                   	push   ebp
10005555:	89 e5                	mov    ebp,esp
10005557:	53                   	push   ebx
10005558:	83 ec 74             	sub    esp,0x74
1000555b:	8b 45 0c             	mov    eax,DWORD PTR [ebp+0xc]
1000555e:	89 45 dc             	mov    DWORD PTR [ebp-0x24],eax
10005561:	8b 45 10             	mov    eax,DWORD PTR [ebp+0x10]
10005564:	89 45 d8             	mov    DWORD PTR [ebp-0x28],eax
10005567:	8b 45 14             	mov    eax,DWORD PTR [ebp+0x14]
1000556a:	85 c0                	test   eax,eax
1000556c:	0f 95 c0             	setne  al
1000556f:	88 45 d7             	mov    BYTE PTR [ebp-0x29],al
10005572:	8b 45 1c             	mov    eax,DWORD PTR [ebp+0x1c]
10005575:	85 c0                	test   eax,eax
10005577:	0f 95 c0             	setne  al
1000557a:	88 45 d6             	mov    BYTE PTR [ebp-0x2a],al
1000557d:	81 7d d8 0d 02 00 00 	cmp    DWORD PTR [ebp-0x28],0x20d
10005584:	0f 85 a0 00 00 00    	jne    0x1000562a
1000558a:	8b 45 dc             	mov    eax,DWORD PTR [ebp-0x24]
1000558d:	c6 40 3c 01          	mov    BYTE PTR [eax+0x3c],0x1
10005591:	8b 45 dc             	mov    eax,DWORD PTR [ebp-0x24]
10005594:	c6 40 3d 01          	mov    BYTE PTR [eax+0x3d],0x1
10005598:	80 7d d7 00          	cmp    BYTE PTR [ebp-0x29],0x0
1000559c:	74 3c                	je     0x100055da
1000559e:	80 7d d6 00          	cmp    BYTE PTR [ebp-0x2a],0x0
100055a2:	74 1d                	je     0x100055c1
100055a4:	8b 45 dc             	mov    eax,DWORD PTR [ebp-0x24]
100055a7:	8b 40 64             	mov    eax,DWORD PTR [eax+0x64]
100055aa:	85 c0                	test   eax,eax
100055ac:	0f 84 7e 06 00 00    	je     0x10005c30
100055b2:	8b 45 dc             	mov    eax,DWORD PTR [ebp-0x24]
100055b5:	c7 40 64 00 00 00 00 	mov    DWORD PTR [eax+0x64],0x0
100055bc:	e9 6f 06 00 00       	jmp    0x10005c30
100055c1:	8b 45 dc             	mov    eax,DWORD PTR [ebp-0x24]
100055c4:	c7 40 60 00 00 00 00 	mov    DWORD PTR [eax+0x60],0x0
100055cb:	8b 45 dc             	mov    eax,DWORD PTR [ebp-0x24]
100055ce:	c7 40 64 00 00 00 00 	mov    DWORD PTR [eax+0x64],0x0
100055d5:	e9 56 06 00 00       	jmp    0x10005c30
100055da:	80 7d d6 00          	cmp    BYTE PTR [ebp-0x2a],0x0
100055de:	74 21                	je     0x10005601
100055e0:	8b 45 dc             	mov    eax,DWORD PTR [ebp-0x24]
100055e3:	8b 40 64             	mov    eax,DWORD PTR [eax+0x64]
100055e6:	85 c0                	test   eax,eax
100055e8:	0f 84 42 06 00 00    	je     0x10005c30
100055ee:	83 ec 0c             	sub    esp,0xc
100055f1:	ff 75 dc             	push   DWORD PTR [ebp-0x24]
100055f4:	e8 8b fe ff ff       	call   0x10005484
100055f9:	83 c4 10             	add    esp,0x10
100055fc:	e9 2f 06 00 00       	jmp    0x10005c30
10005601:	8b 45 dc             	mov    eax,DWORD PTR [ebp-0x24]
10005604:	8b 40 64             	mov    eax,DWORD PTR [eax+0x64]
10005607:	85 c0                	test   eax,eax
10005609:	74 0e                	je     0x10005619
1000560b:	83 ec 0c             	sub    esp,0xc
1000560e:	ff 75 dc             	push   DWORD PTR [ebp-0x24]
10005611:	e8 6e fe ff ff       	call   0x10005484
10005616:	83 c4 10             	add    esp,0x10
10005619:	8b 45 dc             	mov    eax,DWORD PTR [ebp-0x24]
1000561c:	8b 50 64             	mov    edx,DWORD PTR [eax+0x64]
1000561f:	8b 45 dc             	mov    eax,DWORD PTR [ebp-0x24]
10005622:	89 50 60             	mov    DWORD PTR [eax+0x60],edx
10005625:	e9 06 06 00 00       	jmp    0x10005c30
1000562a:	81 7d d8 0b 02 00 00 	cmp    DWORD PTR [ebp-0x28],0x20b
10005631:	0f 85 f4 00 00 00    	jne    0x1000572b
10005637:	8b 45 dc             	mov    eax,DWORD PTR [ebp-0x24]
1000563a:	c6 40 3c 01          	mov    BYTE PTR [eax+0x3c],0x1
1000563e:	8b 45 dc             	mov    eax,DWORD PTR [ebp-0x24]
10005641:	c6 40 3d 01          	mov    BYTE PTR [eax+0x3d],0x1
10005645:	80 7d d7 00          	cmp    BYTE PTR [ebp-0x29],0x0
10005649:	0f 85 e1 05 00 00    	jne    0x10005c30
1000564f:	c7 45 f4 ff ff ff ff 	mov    DWORD PTR [ebp-0xc],0xffffffff
10005656:	8b 45 dc             	mov    eax,DWORD PTR [ebp-0x24]
10005659:	8b 40 64             	mov    eax,DWORD PTR [eax+0x64]
1000565c:	83 ec 0c             	sub    esp,0xc
1000565f:	6a 00                	push   0x0
10005661:	8d 55 ac             	lea    edx,[ebp-0x54]
10005664:	52                   	push   edx
10005665:	8d 55 b0             	lea    edx,[ebp-0x50]
10005668:	52                   	push   edx
10005669:	50                   	push   eax
1000566a:	ff 75 dc             	push   DWORD PTR [ebp-0x24]
1000566d:	e8 52 f9 ff ff       	call   0x10004fc4
10005672:	83 c4 20             	add    esp,0x20
10005675:	8b 45 dc             	mov    eax,DWORD PTR [ebp-0x24]
10005678:	8b 40 64             	mov    eax,DWORD PTR [eax+0x64]
1000567b:	89 45 f0             	mov    DWORD PTR [ebp-0x10],eax
1000567e:	83 7d f0 ff          	cmp    DWORD PTR [ebp-0x10],0xffffffff
10005682:	0f 84 84 00 00 00    	je     0x1000570c
10005688:	8b 45 dc             	mov    eax,DWORD PTR [ebp-0x24]
1000568b:	8b 40 64             	mov    eax,DWORD PTR [eax+0x64]
1000568e:	89 45 d0             	mov    DWORD PTR [ebp-0x30],eax
10005691:	83 ec 0c             	sub    esp,0xc
10005694:	ff 75 dc             	push   DWORD PTR [ebp-0x24]
10005697:	e8 e8 fd ff ff       	call   0x10005484
1000569c:	83 c4 10             	add    esp,0x10
1000569f:	8b 45 dc             	mov    eax,DWORD PTR [ebp-0x24]
100056a2:	8b 40 64             	mov    eax,DWORD PTR [eax+0x64]
100056a5:	89 45 f0             	mov    DWORD PTR [ebp-0x10],eax
100056a8:	8b 45 f0             	mov    eax,DWORD PTR [ebp-0x10]
100056ab:	3b 45 d0             	cmp    eax,DWORD PTR [ebp-0x30]
100056ae:	74 58                	je     0x10005708
100056b0:	83 ec 0c             	sub    esp,0xc
100056b3:	6a 00                	push   0x0
100056b5:	8d 45 a4             	lea    eax,[ebp-0x5c]
100056b8:	50                   	push   eax
100056b9:	8d 45 a8             	lea    eax,[ebp-0x58]
100056bc:	50                   	push   eax
100056bd:	ff 75 f0             	push   DWORD PTR [ebp-0x10]
100056c0:	ff 75 dc             	push   DWORD PTR [ebp-0x24]
100056c3:	e8 fc f8 ff ff       	call   0x10004fc4
100056c8:	83 c4 20             	add    esp,0x20
100056cb:	8b 55 a4             	mov    edx,DWORD PTR [ebp-0x5c]
100056ce:	8b 45 ac             	mov    eax,DWORD PTR [ebp-0x54]
100056d1:	39 c2                	cmp    edx,eax
100056d3:	7d a9                	jge    0x1000567e
100056d5:	83 7d f4 ff          	cmp    DWORD PTR [ebp-0xc],0xffffffff
100056d9:	75 06                	jne    0x100056e1
100056db:	8b 45 a4             	mov    eax,DWORD PTR [ebp-0x5c]
100056de:	89 45 f4             	mov    DWORD PTR [ebp-0xc],eax
100056e1:	8b 45 a4             	mov    eax,DWORD PTR [ebp-0x5c]
100056e4:	39 45 f4             	cmp    DWORD PTR [ebp-0xc],eax
100056e7:	74 10                	je     0x100056f9
100056e9:	83 ec 0c             	sub    esp,0xc
100056ec:	ff 75 dc             	push   DWORD PTR [ebp-0x24]
100056ef:	e8 e8 fc ff ff       	call   0x100053dc
100056f4:	83 c4 10             	add    esp,0x10
100056f7:	eb 13                	jmp    0x1000570c
100056f9:	8b 55 a8             	mov    edx,DWORD PTR [ebp-0x58]
100056fc:	8b 45 b0             	mov    eax,DWORD PTR [ebp-0x50]
100056ff:	39 c2                	cmp    edx,eax
10005701:	7e 08                	jle    0x1000570b
10005703:	e9 76 ff ff ff       	jmp    0x1000567e
10005708:	90                   	nop
10005709:	eb 01                	jmp    0x1000570c
1000570b:	90                   	nop
1000570c:	8a 45 d6             	mov    al,BYTE PTR [ebp-0x2a]
1000570f:	83 f0 01             	xor    eax,0x1
10005712:	84 c0                	test   al,al
10005714:	0f 84 16 05 00 00    	je     0x10005c30
1000571a:	8b 45 dc             	mov    eax,DWORD PTR [ebp-0x24]
1000571d:	8b 50 64             	mov    edx,DWORD PTR [eax+0x64]
10005720:	8b 45 dc             	mov    eax,DWORD PTR [ebp-0x24]
10005723:	89 50 60             	mov    DWORD PTR [eax+0x60],edx
10005726:	e9 05 05 00 00       	jmp    0x10005c30
1000572b:	81 7d d8 0c 02 00 00 	cmp    DWORD PTR [ebp-0x28],0x20c
10005732:	0f 85 ff 00 00 00    	jne    0x10005837
10005738:	8b 45 dc             	mov    eax,DWORD PTR [ebp-0x24]
1000573b:	c6 40 3c 01          	mov    BYTE PTR [eax+0x3c],0x1
1000573f:	8b 45 dc             	mov    eax,DWORD PTR [ebp-0x24]
10005742:	c6 40 3d 01          	mov    BYTE PTR [eax+0x3d],0x1
10005746:	80 7d d7 00          	cmp    BYTE PTR [ebp-0x29],0x0
1000574a:	0f 85 e0 04 00 00    	jne    0x10005c30
10005750:	c7 45 ec ff ff ff ff 	mov    DWORD PTR [ebp-0x14],0xffffffff
10005757:	8b 45 dc             	mov    eax,DWORD PTR [ebp-0x24]
1000575a:	8b 40 64             	mov    eax,DWORD PTR [eax+0x64]
1000575d:	83 ec 0c             	sub    esp,0xc
10005760:	6a 00                	push   0x0
10005762:	8d 55 9c             	lea    edx,[ebp-0x64]
10005765:	52                   	push   edx
10005766:	8d 55 a0             	lea    edx,[ebp-0x60]
10005769:	52                   	push   edx
1000576a:	50                   	push   eax
1000576b:	ff 75 dc             	push   DWORD PTR [ebp-0x24]
1000576e:	e8 51 f8 ff ff       	call   0x10004fc4
10005773:	83 c4 20             	add    esp,0x20
10005776:	8b 45 dc             	mov    eax,DWORD PTR [ebp-0x24]
10005779:	8b 40 64             	mov    eax,DWORD PTR [eax+0x64]
1000577c:	89 45 e8             	mov    DWORD PTR [ebp-0x18],eax
1000577f:	8b 45 dc             	mov    eax,DWORD PTR [ebp-0x24]
10005782:	8b 50 24             	mov    edx,DWORD PTR [eax+0x24]
10005785:	8b 45 e8             	mov    eax,DWORD PTR [ebp-0x18]
10005788:	01 d0                	add    eax,edx
1000578a:	8a 00                	mov    al,BYTE PTR [eax]
1000578c:	84 c0                	test   al,al
1000578e:	0f 84 84 00 00 00    	je     0x10005818
10005794:	8b 45 dc             	mov    eax,DWORD PTR [ebp-0x24]
10005797:	8b 40 64             	mov    eax,DWORD PTR [eax+0x64]
1000579a:	89 45 cc             	mov    DWORD PTR [ebp-0x34],eax
1000579d:	83 ec 0c             	sub    esp,0xc
100057a0:	ff 75 dc             	push   DWORD PTR [ebp-0x24]
100057a3:	e8 34 fc ff ff       	call   0x100053dc
100057a8:	83 c4 10             	add    esp,0x10
100057ab:	8b 45 dc             	mov    eax,DWORD PTR [ebp-0x24]
100057ae:	8b 40 64             	mov    eax,DWORD PTR [eax+0x64]
100057b1:	89 45 e8             	mov    DWORD PTR [ebp-0x18],eax
100057b4:	8b 45 e8             	mov    eax,DWORD PTR [ebp-0x18]
100057b7:	3b 45 cc             	cmp    eax,DWORD PTR [ebp-0x34]
100057ba:	74 58                	je     0x10005814
100057bc:	83 ec 0c             	sub    esp,0xc
100057bf:	6a 00                	push   0x0
100057c1:	8d 45 94             	lea    eax,[ebp-0x6c]
100057c4:	50                   	push   eax
100057c5:	8d 45 98             	lea    eax,[ebp-0x68]
100057c8:	50                   	push   eax
100057c9:	ff 75 e8             	push   DWORD PTR [ebp-0x18]
100057cc:	ff 75 dc             	push   DWORD PTR [ebp-0x24]
100057cf:	e8 f0 f7 ff ff       	call   0x10004fc4
100057d4:	83 c4 20             	add    esp,0x20
100057d7:	8b 55 94             	mov    edx,DWORD PTR [ebp-0x6c]
100057da:	8b 45 9c             	mov    eax,DWORD PTR [ebp-0x64]
100057dd:	39 c2                	cmp    edx,eax
100057df:	7e 9e                	jle    0x1000577f
100057e1:	83 7d ec ff          	cmp    DWORD PTR [ebp-0x14],0xffffffff
100057e5:	75 06                	jne    0x100057ed
100057e7:	8b 45 94             	mov    eax,DWORD PTR [ebp-0x6c]
100057ea:	89 45 ec             	mov    DWORD PTR [ebp-0x14],eax
100057ed:	8b 45 94             	mov    eax,DWORD PTR [ebp-0x6c]
100057f0:	39 45 ec             	cmp    DWORD PTR [ebp-0x14],eax
100057f3:	74 10                	je     0x10005805
100057f5:	83 ec 0c             	sub    esp,0xc
100057f8:	ff 75 dc             	push   DWORD PTR [ebp-0x24]
100057fb:	e8 84 fc ff ff       	call   0x10005484
10005800:	83 c4 10             	add    esp,0x10
10005803:	eb 13                	jmp    0x10005818
10005805:	8b 55 98             	mov    edx,DWORD PTR [ebp-0x68]
10005808:	8b 45 a0             	mov    eax,DWORD PTR [ebp-0x60]
1000580b:	39 c2                	cmp    edx,eax
1000580d:	7d 08                	jge    0x10005817
1000580f:	e9 6b ff ff ff       	jmp    0x1000577f
10005814:	90                   	nop
10005815:	eb 01                	jmp    0x10005818
10005817:	90                   	nop
10005818:	8a 45 d6             	mov    al,BYTE PTR [ebp-0x2a]
1000581b:	83 f0 01             	xor    eax,0x1
1000581e:	84 c0                	test   al,al
10005820:	0f 84 0a 04 00 00    	je     0x10005c30
10005826:	8b 45 dc             	mov    eax,DWORD PTR [ebp-0x24]
10005829:	8b 50 64             	mov    edx,DWORD PTR [eax+0x64]
1000582c:	8b 45 dc             	mov    eax,DWORD PTR [ebp-0x24]
1000582f:	89 50 60             	mov    DWORD PTR [eax+0x60],edx
10005832:	e9 f9 03 00 00       	jmp    0x10005c30
10005837:	81 7d d8 0e 02 00 00 	cmp    DWORD PTR [ebp-0x28],0x20e
1000583e:	0f 85 fd 00 00 00    	jne    0x10005941
10005844:	8b 45 dc             	mov    eax,DWORD PTR [ebp-0x24]
10005847:	c6 40 3c 01          	mov    BYTE PTR [eax+0x3c],0x1
1000584b:	8b 45 dc             	mov    eax,DWORD PTR [ebp-0x24]
1000584e:	c6 40 3d 01          	mov    BYTE PTR [eax+0x3d],0x1
10005852:	80 7d d7 00          	cmp    BYTE PTR [ebp-0x29],0x0
10005856:	74 71                	je     0x100058c9
10005858:	80 7d d6 00          	cmp    BYTE PTR [ebp-0x2a],0x0
1000585c:	74 32                	je     0x10005890
1000585e:	8b 45 dc             	mov    eax,DWORD PTR [ebp-0x24]
10005861:	8b 40 64             	mov    eax,DWORD PTR [eax+0x64]
10005864:	89 c3                	mov    ebx,eax
10005866:	8b 45 dc             	mov    eax,DWORD PTR [ebp-0x24]
10005869:	8b 40 24             	mov    eax,DWORD PTR [eax+0x24]
1000586c:	83 ec 0c             	sub    esp,0xc
1000586f:	50                   	push   eax
10005870:	e8 fb 53 00 00       	call   0x1000ac70
10005875:	83 c4 10             	add    esp,0x10
10005878:	39 c3                	cmp    ebx,eax
1000587a:	0f 83 b0 03 00 00    	jae    0x10005c30
10005880:	83 ec 0c             	sub    esp,0xc
10005883:	ff 75 dc             	push   DWORD PTR [ebp-0x24]
10005886:	e8 51 fb ff ff       	call   0x100053dc
1000588b:	83 c4 10             	add    esp,0x10
1000588e:	eb ce                	jmp    0x1000585e
10005890:	8b 45 dc             	mov    eax,DWORD PTR [ebp-0x24]
10005893:	8b 40 24             	mov    eax,DWORD PTR [eax+0x24]
10005896:	83 ec 0c             	sub    esp,0xc
10005899:	50                   	push   eax
1000589a:	e8 d1 53 00 00       	call   0x1000ac70
1000589f:	83 c4 10             	add    esp,0x10
100058a2:	89 c2                	mov    edx,eax
100058a4:	8b 45 dc             	mov    eax,DWORD PTR [ebp-0x24]
100058a7:	89 50 64             	mov    DWORD PTR [eax+0x64],edx
100058aa:	8b 45 dc             	mov    eax,DWORD PTR [ebp-0x24]
100058ad:	8b 40 24             	mov    eax,DWORD PTR [eax+0x24]
100058b0:	83 ec 0c             	sub    esp,0xc
100058b3:	50                   	push   eax
100058b4:	e8 b7 53 00 00       	call   0x1000ac70
100058b9:	83 c4 10             	add    esp,0x10
100058bc:	89 c2                	mov    edx,eax
100058be:	8b 45 dc             	mov    eax,DWORD PTR [ebp-0x24]
100058c1:	89 50 60             	mov    DWORD PTR [eax+0x60],edx
100058c4:	e9 67 03 00 00       	jmp    0x10005c30
100058c9:	80 7d d6 00          	cmp    BYTE PTR [ebp-0x2a],0x0
100058cd:	74 35                	je     0x10005904
100058cf:	8b 45 dc             	mov    eax,DWORD PTR [ebp-0x24]
100058d2:	8b 40 64             	mov    eax,DWORD PTR [eax+0x64]
100058d5:	89 c3                	mov    ebx,eax
100058d7:	8b 45 dc             	mov    eax,DWORD PTR [ebp-0x24]
100058da:	8b 40 24             	mov    eax,DWORD PTR [eax+0x24]
100058dd:	83 ec 0c             	sub    esp,0xc
100058e0:	50                   	push   eax
100058e1:	e8 8a 53 00 00       	call   0x1000ac70
100058e6:	83 c4 10             	add    esp,0x10
100058e9:	39 c3                	cmp    ebx,eax
100058eb:	0f 83 3f 03 00 00    	jae    0x10005c30
100058f1:	83 ec 0c             	sub    esp,0xc
100058f4:	ff 75 dc             	push   DWORD PTR [ebp-0x24]
100058f7:	e8 e0 fa ff ff       	call   0x100053dc
100058fc:	83 c4 10             	add    esp,0x10
100058ff:	e9 2c 03 00 00       	jmp    0x10005c30
10005904:	8b 45 dc             	mov    eax,DWORD PTR [ebp-0x24]
10005907:	8b 40 64             	mov    eax,DWORD PTR [eax+0x64]
1000590a:	89 c3                	mov    ebx,eax
1000590c:	8b 45 dc             	mov    eax,DWORD PTR [ebp-0x24]
1000590f:	8b 40 24             	mov    eax,DWORD PTR [eax+0x24]
10005912:	83 ec 0c             	sub    esp,0xc
10005915:	50                   	push   eax
10005916:	e8 55 53 00 00       	call   0x1000ac70
1000591b:	83 c4 10             	add    esp,0x10
1000591e:	39 c3                	cmp    ebx,eax
10005920:	73 0e                	jae    0x10005930
10005922:	83 ec 0c             	sub    esp,0xc
10005925:	ff 75 dc             	push   DWORD PTR [ebp-0x24]
10005928:	e8 af fa ff ff       	call   0x100053dc
1000592d:	83 c4 10             	add    esp,0x10
10005930:	8b 45 dc             	mov    eax,DWORD PTR [ebp-0x24]
10005933:	8b 50 64             	mov    edx,DWORD PTR [eax+0x64]
10005936:	8b 45 dc             	mov    eax,DWORD PTR [ebp-0x24]
10005939:	89 50 60             	mov    DWORD PTR [eax+0x60],edx
1000593c:	e9 ef 02 00 00       	jmp    0x10005c30
10005941:	83 7d d8 1f          	cmp    DWORD PTR [ebp-0x28],0x1f
10005945:	7e 06                	jle    0x1000594d
10005947:	83 7d d8 7e          	cmp    DWORD PTR [ebp-0x28],0x7e
1000594b:	7e 16                	jle    0x10005963
1000594d:	83 7d d8 08          	cmp    DWORD PTR [ebp-0x28],0x8
10005951:	74 10                	je     0x10005963
10005953:	83 7d d8 0a          	cmp    DWORD PTR [ebp-0x28],0xa
10005957:	74 0a                	je     0x10005963
10005959:	83 7d d8 09          	cmp    DWORD PTR [ebp-0x28],0x9
1000595d:	0f 85 5f 02 00 00    	jne    0x10005bc2
10005963:	8a 45 d7             	mov    al,BYTE PTR [ebp-0x29]
10005966:	83 f0 01             	xor    eax,0x1
10005969:	84 c0                	test   al,al
1000596b:	0f 84 51 02 00 00    	je     0x10005bc2
10005971:	8b 45 dc             	mov    eax,DWORD PTR [ebp-0x24]
10005974:	c6 40 3c 01          	mov    BYTE PTR [eax+0x3c],0x1
10005978:	8b 45 dc             	mov    eax,DWORD PTR [ebp-0x24]
1000597b:	c6 40 3d 01          	mov    BYTE PTR [eax+0x3d],0x1
1000597f:	8b 45 dc             	mov    eax,DWORD PTR [ebp-0x24]
10005982:	8b 40 24             	mov    eax,DWORD PTR [eax+0x24]
10005985:	83 ec 0c             	sub    esp,0xc
10005988:	50                   	push   eax
10005989:	e8 e2 52 00 00       	call   0x1000ac70
1000598e:	83 c4 10             	add    esp,0x10
10005991:	8d 50 04             	lea    edx,[eax+0x4]
10005994:	8b 45 dc             	mov    eax,DWORD PTR [ebp-0x24]
10005997:	8b 40 28             	mov    eax,DWORD PTR [eax+0x28]
1000599a:	39 c2                	cmp    edx,eax
1000599c:	76 35                	jbe    0x100059d3
1000599e:	8b 45 dc             	mov    eax,DWORD PTR [ebp-0x24]
100059a1:	8b 40 28             	mov    eax,DWORD PTR [eax+0x28]
100059a4:	01 c0                	add    eax,eax
100059a6:	89 c2                	mov    edx,eax
100059a8:	8b 45 dc             	mov    eax,DWORD PTR [ebp-0x24]
100059ab:	89 50 28             	mov    DWORD PTR [eax+0x28],edx
100059ae:	8b 45 dc             	mov    eax,DWORD PTR [ebp-0x24]
100059b1:	8b 40 28             	mov    eax,DWORD PTR [eax+0x28]
100059b4:	89 c2                	mov    edx,eax
100059b6:	8b 45 dc             	mov    eax,DWORD PTR [ebp-0x24]
100059b9:	8b 40 24             	mov    eax,DWORD PTR [eax+0x24]
100059bc:	83 ec 08             	sub    esp,0x8
100059bf:	52                   	push   edx
100059c0:	50                   	push   eax
100059c1:	e8 7e 47 00 00       	call   0x1000a144
100059c6:	83 c4 10             	add    esp,0x10
100059c9:	89 c2                	mov    edx,eax
100059cb:	8b 45 dc             	mov    eax,DWORD PTR [ebp-0x24]
100059ce:	89 50 24             	mov    DWORD PTR [eax+0x24],edx
100059d1:	eb ac                	jmp    0x1000597f
100059d3:	8b 45 dc             	mov    eax,DWORD PTR [ebp-0x24]
100059d6:	8b 50 64             	mov    edx,DWORD PTR [eax+0x64]
100059d9:	8b 45 dc             	mov    eax,DWORD PTR [ebp-0x24]
100059dc:	8b 40 60             	mov    eax,DWORD PTR [eax+0x60]
100059df:	39 c2                	cmp    edx,eax
100059e1:	7d 1e                	jge    0x10005a01
100059e3:	8b 45 dc             	mov    eax,DWORD PTR [ebp-0x24]
100059e6:	8b 40 64             	mov    eax,DWORD PTR [eax+0x64]
100059e9:	89 45 c8             	mov    DWORD PTR [ebp-0x38],eax
100059ec:	8b 45 dc             	mov    eax,DWORD PTR [ebp-0x24]
100059ef:	8b 50 60             	mov    edx,DWORD PTR [eax+0x60]
100059f2:	8b 45 dc             	mov    eax,DWORD PTR [ebp-0x24]
100059f5:	89 50 64             	mov    DWORD PTR [eax+0x64],edx
100059f8:	8b 45 dc             	mov    eax,DWORD PTR [ebp-0x24]
100059fb:	8b 55 c8             	mov    edx,DWORD PTR [ebp-0x38]
100059fe:	89 50 60             	mov    DWORD PTR [eax+0x60],edx
10005a01:	8b 45 dc             	mov    eax,DWORD PTR [ebp-0x24]
10005a04:	8b 40 24             	mov    eax,DWORD PTR [eax+0x24]
10005a07:	83 ec 0c             	sub    esp,0xc
10005a0a:	50                   	push   eax
10005a0b:	e8 60 52 00 00       	call   0x1000ac70
10005a10:	83 c4 10             	add    esp,0x10
10005a13:	83 c0 10             	add    eax,0x10
10005a16:	83 ec 08             	sub    esp,0x8
10005a19:	6a 01                	push   0x1
10005a1b:	50                   	push   eax
10005a1c:	e8 e7 26 00 00       	call   0x10008108
10005a21:	83 c4 10             	add    esp,0x10
10005a24:	89 45 c4             	mov    DWORD PTR [ebp-0x3c],eax
10005a27:	8b 45 dc             	mov    eax,DWORD PTR [ebp-0x24]
10005a2a:	8b 40 24             	mov    eax,DWORD PTR [eax+0x24]
10005a2d:	83 ec 08             	sub    esp,0x8
10005a30:	50                   	push   eax
10005a31:	ff 75 c4             	push   DWORD PTR [ebp-0x3c]
10005a34:	e8 c7 51 00 00       	call   0x1000ac00
10005a39:	83 c4 10             	add    esp,0x10
10005a3c:	8b 45 dc             	mov    eax,DWORD PTR [ebp-0x24]
10005a3f:	8b 50 64             	mov    edx,DWORD PTR [eax+0x64]
10005a42:	8b 45 dc             	mov    eax,DWORD PTR [ebp-0x24]
10005a45:	8b 40 60             	mov    eax,DWORD PTR [eax+0x60]
10005a48:	39 c2                	cmp    edx,eax
10005a4a:	7e 68                	jle    0x10005ab4
10005a4c:	83 ec 0c             	sub    esp,0xc
10005a4f:	ff 75 dc             	push   DWORD PTR [ebp-0x24]
10005a52:	e8 2d fa ff ff       	call   0x10005484
10005a57:	83 c4 10             	add    esp,0x10
10005a5a:	8b 45 dc             	mov    eax,DWORD PTR [ebp-0x24]
10005a5d:	8b 40 64             	mov    eax,DWORD PTR [eax+0x64]
10005a60:	89 45 c0             	mov    DWORD PTR [ebp-0x40],eax
10005a63:	83 ec 0c             	sub    esp,0xc
10005a66:	ff 75 c4             	push   DWORD PTR [ebp-0x3c]
10005a69:	e8 02 52 00 00       	call   0x1000ac70
10005a6e:	83 c4 10             	add    esp,0x10
10005a71:	89 45 bc             	mov    DWORD PTR [ebp-0x44],eax
10005a74:	8b 45 c0             	mov    eax,DWORD PTR [ebp-0x40]
10005a77:	89 45 e4             	mov    DWORD PTR [ebp-0x1c],eax
10005a7a:	8b 45 bc             	mov    eax,DWORD PTR [ebp-0x44]
10005a7d:	48                   	dec    eax
10005a7e:	39 45 e4             	cmp    DWORD PTR [ebp-0x1c],eax
10005a81:	7d 1c                	jge    0x10005a9f
10005a83:	8b 45 e4             	mov    eax,DWORD PTR [ebp-0x1c]
10005a86:	8d 50 01             	lea    edx,[eax+0x1]
10005a89:	8b 45 c4             	mov    eax,DWORD PTR [ebp-0x3c]
10005a8c:	01 d0                	add    eax,edx
10005a8e:	8b 4d e4             	mov    ecx,DWORD PTR [ebp-0x1c]
10005a91:	8b 55 c4             	mov    edx,DWORD PTR [ebp-0x3c]
10005a94:	01 ca                	add    edx,ecx
10005a96:	8a 00                	mov    al,BYTE PTR [eax]
10005a98:	88 02                	mov    BYTE PTR [edx],al
10005a9a:	ff 45 e4             	inc    DWORD PTR [ebp-0x1c]
10005a9d:	eb db                	jmp    0x10005a7a
10005a9f:	8b 45 e4             	mov    eax,DWORD PTR [ebp-0x1c]
10005aa2:	3b 45 bc             	cmp    eax,DWORD PTR [ebp-0x44]
10005aa5:	7d 95                	jge    0x10005a3c
10005aa7:	8b 55 e4             	mov    edx,DWORD PTR [ebp-0x1c]
10005aaa:	8b 45 c4             	mov    eax,DWORD PTR [ebp-0x3c]
10005aad:	01 d0                	add    eax,edx
10005aaf:	c6 00 00             	mov    BYTE PTR [eax],0x0
10005ab2:	eb 88                	jmp    0x10005a3c
10005ab4:	83 7d d8 08          	cmp    DWORD PTR [ebp-0x28],0x8
10005ab8:	75 72                	jne    0x10005b2c
10005aba:	8b 45 dc             	mov    eax,DWORD PTR [ebp-0x24]
10005abd:	8b 40 64             	mov    eax,DWORD PTR [eax+0x64]
10005ac0:	85 c0                	test   eax,eax
10005ac2:	74 68                	je     0x10005b2c
10005ac4:	83 ec 0c             	sub    esp,0xc
10005ac7:	ff 75 dc             	push   DWORD PTR [ebp-0x24]
10005aca:	e8 b5 f9 ff ff       	call   0x10005484
10005acf:	83 c4 10             	add    esp,0x10
10005ad2:	8b 45 dc             	mov    eax,DWORD PTR [ebp-0x24]
10005ad5:	8b 40 64             	mov    eax,DWORD PTR [eax+0x64]
10005ad8:	89 45 b8             	mov    DWORD PTR [ebp-0x48],eax
10005adb:	83 ec 0c             	sub    esp,0xc
10005ade:	ff 75 c4             	push   DWORD PTR [ebp-0x3c]
10005ae1:	e8 8a 51 00 00       	call   0x1000ac70
10005ae6:	83 c4 10             	add    esp,0x10
10005ae9:	89 45 b4             	mov    DWORD PTR [ebp-0x4c],eax
10005aec:	8b 45 b8             	mov    eax,DWORD PTR [ebp-0x48]
10005aef:	89 45 e0             	mov    DWORD PTR [ebp-0x20],eax
10005af2:	8b 45 b4             	mov    eax,DWORD PTR [ebp-0x4c]
10005af5:	48                   	dec    eax
10005af6:	39 45 e0             	cmp    DWORD PTR [ebp-0x20],eax
10005af9:	7d 1c                	jge    0x10005b17
10005afb:	8b 45 e0             	mov    eax,DWORD PTR [ebp-0x20]
10005afe:	8d 50 01             	lea    edx,[eax+0x1]
10005b01:	8b 45 c4             	mov    eax,DWORD PTR [ebp-0x3c]
10005b04:	01 d0                	add    eax,edx
10005b06:	8b 4d e0             	mov    ecx,DWORD PTR [ebp-0x20]
10005b09:	8b 55 c4             	mov    edx,DWORD PTR [ebp-0x3c]
10005b0c:	01 ca                	add    edx,ecx
10005b0e:	8a 00                	mov    al,BYTE PTR [eax]
10005b10:	88 02                	mov    BYTE PTR [edx],al
10005b12:	ff 45 e0             	inc    DWORD PTR [ebp-0x20]
10005b15:	eb db                	jmp    0x10005af2
10005b17:	8b 45 e0             	mov    eax,DWORD PTR [ebp-0x20]
10005b1a:	3b 45 b4             	cmp    eax,DWORD PTR [ebp-0x4c]
10005b1d:	7d 71                	jge    0x10005b90
10005b1f:	8b 55 e0             	mov    edx,DWORD PTR [ebp-0x20]
10005b22:	8b 45 c4             	mov    eax,DWORD PTR [ebp-0x3c]
10005b25:	01 d0                	add    eax,edx
10005b27:	c6 00 00             	mov    BYTE PTR [eax],0x0
10005b2a:	eb 64                	jmp    0x10005b90
10005b2c:	8b 45 dc             	mov    eax,DWORD PTR [ebp-0x24]
10005b2f:	8b 40 64             	mov    eax,DWORD PTR [eax+0x64]
10005b32:	89 c2                	mov    edx,eax
10005b34:	8b 45 c4             	mov    eax,DWORD PTR [ebp-0x3c]
10005b37:	01 d0                	add    eax,edx
10005b39:	83 ec 0c             	sub    esp,0xc
10005b3c:	50                   	push   eax
10005b3d:	e8 2e 51 00 00       	call   0x1000ac70
10005b42:	83 c4 10             	add    esp,0x10
10005b45:	8b 55 dc             	mov    edx,DWORD PTR [ebp-0x24]
10005b48:	8b 52 64             	mov    edx,DWORD PTR [edx+0x64]
10005b4b:	89 d1                	mov    ecx,edx
10005b4d:	8b 55 c4             	mov    edx,DWORD PTR [ebp-0x3c]
10005b50:	01 d1                	add    ecx,edx
10005b52:	8b 55 dc             	mov    edx,DWORD PTR [ebp-0x24]
10005b55:	8b 52 64             	mov    edx,DWORD PTR [edx+0x64]
10005b58:	8d 5a 01             	lea    ebx,[edx+0x1]
10005b5b:	8b 55 c4             	mov    edx,DWORD PTR [ebp-0x3c]
10005b5e:	01 da                	add    edx,ebx
10005b60:	83 ec 04             	sub    esp,0x4
10005b63:	50                   	push   eax
10005b64:	51                   	push   ecx
10005b65:	52                   	push   edx
10005b66:	e8 15 44 00 00       	call   0x10009f80
10005b6b:	83 c4 10             	add    esp,0x10
10005b6e:	8b 45 dc             	mov    eax,DWORD PTR [ebp-0x24]
10005b71:	8b 40 60             	mov    eax,DWORD PTR [eax+0x60]
10005b74:	89 c2                	mov    edx,eax
10005b76:	8b 45 c4             	mov    eax,DWORD PTR [ebp-0x3c]
10005b79:	01 d0                	add    eax,edx
10005b7b:	8b 55 d8             	mov    edx,DWORD PTR [ebp-0x28]
10005b7e:	88 10                	mov    BYTE PTR [eax],dl
10005b80:	83 ec 0c             	sub    esp,0xc
10005b83:	ff 75 dc             	push   DWORD PTR [ebp-0x24]
10005b86:	e8 51 f8 ff ff       	call   0x100053dc
10005b8b:	83 c4 10             	add    esp,0x10
10005b8e:	eb 01                	jmp    0x10005b91
10005b90:	90                   	nop
10005b91:	8b 45 dc             	mov    eax,DWORD PTR [ebp-0x24]
10005b94:	8b 50 64             	mov    edx,DWORD PTR [eax+0x64]
10005b97:	8b 45 dc             	mov    eax,DWORD PTR [ebp-0x24]
10005b9a:	89 50 60             	mov    DWORD PTR [eax+0x60],edx
10005b9d:	8b 45 dc             	mov    eax,DWORD PTR [ebp-0x24]
10005ba0:	8b 40 24             	mov    eax,DWORD PTR [eax+0x24]
10005ba3:	83 ec 08             	sub    esp,0x8
10005ba6:	ff 75 c4             	push   DWORD PTR [ebp-0x3c]
10005ba9:	50                   	push   eax
10005baa:	e8 51 50 00 00       	call   0x1000ac00
10005baf:	83 c4 10             	add    esp,0x10
10005bb2:	83 ec 0c             	sub    esp,0xc
10005bb5:	ff 75 c4             	push   DWORD PTR [ebp-0x3c]
10005bb8:	e8 bf 3b 00 00       	call   0x1000977c
10005bbd:	83 c4 10             	add    esp,0x10
10005bc0:	eb 6e                	jmp    0x10005c30
10005bc2:	80 7d d7 00          	cmp    BYTE PTR [ebp-0x29],0x0
10005bc6:	0f 84 f1 00 00 00    	je     0x10005cbd
10005bcc:	83 7d d8 61          	cmp    DWORD PTR [ebp-0x28],0x61
10005bd0:	74 0a                	je     0x10005bdc
10005bd2:	83 7d d8 41          	cmp    DWORD PTR [ebp-0x28],0x41
10005bd6:	0f 85 e1 00 00 00    	jne    0x10005cbd
10005bdc:	8a 45 d6             	mov    al,BYTE PTR [ebp-0x2a]
10005bdf:	83 f0 01             	xor    eax,0x1
10005be2:	84 c0                	test   al,al
10005be4:	0f 84 d3 00 00 00    	je     0x10005cbd
10005bea:	8b 45 dc             	mov    eax,DWORD PTR [ebp-0x24]
10005bed:	c7 40 60 00 00 00 00 	mov    DWORD PTR [eax+0x60],0x0
10005bf4:	8b 45 dc             	mov    eax,DWORD PTR [ebp-0x24]
10005bf7:	8b 40 64             	mov    eax,DWORD PTR [eax+0x64]
10005bfa:	89 c3                	mov    ebx,eax
10005bfc:	8b 45 dc             	mov    eax,DWORD PTR [ebp-0x24]
10005bff:	8b 40 24             	mov    eax,DWORD PTR [eax+0x24]
10005c02:	83 ec 0c             	sub    esp,0xc
10005c05:	50                   	push   eax
10005c06:	e8 65 50 00 00       	call   0x1000ac70
10005c0b:	83 c4 10             	add    esp,0x10
10005c0e:	39 c3                	cmp    ebx,eax
10005c10:	73 10                	jae    0x10005c22
10005c12:	83 ec 0c             	sub    esp,0xc
10005c15:	ff 75 dc             	push   DWORD PTR [ebp-0x24]
10005c18:	e8 bf f7 ff ff       	call   0x100053dc
10005c1d:	83 c4 10             	add    esp,0x10
10005c20:	eb d2                	jmp    0x10005bf4
10005c22:	8b 45 dc             	mov    eax,DWORD PTR [ebp-0x24]
10005c25:	c6 40 3c 01          	mov    BYTE PTR [eax+0x3c],0x1
10005c29:	8b 45 dc             	mov    eax,DWORD PTR [ebp-0x24]
10005c2c:	c6 40 3d 01          	mov    BYTE PTR [eax+0x3d],0x1
10005c30:	c7 45 88 0c 00 00 00 	mov    DWORD PTR [ebp-0x78],0xc
10005c37:	8b 45 dc             	mov    eax,DWORD PTR [ebp-0x24]
10005c3a:	8b 40 64             	mov    eax,DWORD PTR [eax+0x64]
10005c3d:	83 ec 0c             	sub    esp,0xc
10005c40:	8d 55 88             	lea    edx,[ebp-0x78]
10005c43:	52                   	push   edx
10005c44:	8d 55 8c             	lea    edx,[ebp-0x74]
10005c47:	52                   	push   edx
10005c48:	8d 55 90             	lea    edx,[ebp-0x70]
10005c4b:	52                   	push   edx
10005c4c:	50                   	push   eax
10005c4d:	ff 75 dc             	push   DWORD PTR [ebp-0x24]
10005c50:	e8 6f f3 ff ff       	call   0x10004fc4
10005c55:	83 c4 20             	add    esp,0x20
10005c58:	8b 45 dc             	mov    eax,DWORD PTR [ebp-0x24]
10005c5b:	8b 50 14             	mov    edx,DWORD PTR [eax+0x14]
10005c5e:	8b 45 88             	mov    eax,DWORD PTR [ebp-0x78]
10005c61:	29 c2                	sub    edx,eax
10005c63:	8b 45 8c             	mov    eax,DWORD PTR [ebp-0x74]
10005c66:	39 c2                	cmp    edx,eax
10005c68:	7d 13                	jge    0x10005c7d
10005c6a:	8b 45 dc             	mov    eax,DWORD PTR [ebp-0x24]
10005c6d:	8b 50 30             	mov    edx,DWORD PTR [eax+0x30]
10005c70:	8b 45 88             	mov    eax,DWORD PTR [ebp-0x78]
10005c73:	01 c2                	add    edx,eax
10005c75:	8b 45 dc             	mov    eax,DWORD PTR [ebp-0x24]
10005c78:	89 50 30             	mov    DWORD PTR [eax+0x30],edx
10005c7b:	eb b3                	jmp    0x10005c30
10005c7d:	8b 45 8c             	mov    eax,DWORD PTR [ebp-0x74]
10005c80:	85 c0                	test   eax,eax
10005c82:	79 27                	jns    0x10005cab
10005c84:	8b 45 dc             	mov    eax,DWORD PTR [ebp-0x24]
10005c87:	8b 50 30             	mov    edx,DWORD PTR [eax+0x30]
10005c8a:	8b 45 88             	mov    eax,DWORD PTR [ebp-0x78]
10005c8d:	29 c2                	sub    edx,eax
10005c8f:	8b 45 dc             	mov    eax,DWORD PTR [ebp-0x24]
10005c92:	89 50 30             	mov    DWORD PTR [eax+0x30],edx
10005c95:	8b 45 dc             	mov    eax,DWORD PTR [ebp-0x24]
10005c98:	8b 40 30             	mov    eax,DWORD PTR [eax+0x30]
10005c9b:	85 c0                	test   eax,eax
10005c9d:	79 91                	jns    0x10005c30
10005c9f:	8b 45 dc             	mov    eax,DWORD PTR [ebp-0x24]
10005ca2:	c7 40 30 00 00 00 00 	mov    DWORD PTR [eax+0x30],0x0
10005ca9:	eb 01                	jmp    0x10005cac
10005cab:	90                   	nop
10005cac:	8b 45 dc             	mov    eax,DWORD PTR [ebp-0x24]
10005caf:	83 ec 0c             	sub    esp,0xc
10005cb2:	50                   	push   eax
10005cb3:	e8 8c e4 ff ff       	call   0x10004144
10005cb8:	83 c4 10             	add    esp,0x10
10005cbb:	eb 01                	jmp    0x10005cbe
10005cbd:	90                   	nop
10005cbe:	8b 5d fc             	mov    ebx,DWORD PTR [ebp-0x4]
10005cc1:	c9                   	leave  
10005cc2:	c3                   	ret    
10005cc3:	90                   	nop
10005cc4:	55                   	push   ebp
10005cc5:	89 e5                	mov    ebp,esp
10005cc7:	83 ec 08             	sub    esp,0x8
10005cca:	8b 45 08             	mov    eax,DWORD PTR [ebp+0x8]
10005ccd:	83 ec 08             	sub    esp,0x8
10005cd0:	ff 75 1c             	push   DWORD PTR [ebp+0x1c]
10005cd3:	ff 75 18             	push   DWORD PTR [ebp+0x18]
10005cd6:	ff 75 14             	push   DWORD PTR [ebp+0x14]
10005cd9:	ff 75 10             	push   DWORD PTR [ebp+0x10]
10005cdc:	ff 75 0c             	push   DWORD PTR [ebp+0xc]
10005cdf:	50                   	push   eax
10005ce0:	e8 7d e3 ff ff       	call   0x10004062
10005ce5:	83 c4 20             	add    esp,0x20
10005ce8:	8b 45 08             	mov    eax,DWORD PTR [ebp+0x8]
10005ceb:	c7 40 28 40 00 00 00 	mov    DWORD PTR [eax+0x28],0x40
10005cf2:	8b 45 08             	mov    eax,DWORD PTR [ebp+0x8]
10005cf5:	8b 40 28             	mov    eax,DWORD PTR [eax+0x28]
10005cf8:	83 ec 08             	sub    esp,0x8
10005cfb:	6a 01                	push   0x1
10005cfd:	50                   	push   eax
10005cfe:	e8 05 24 00 00       	call   0x10008108
10005d03:	83 c4 10             	add    esp,0x10
10005d06:	89 c2                	mov    edx,eax
10005d08:	8b 45 08             	mov    eax,DWORD PTR [ebp+0x8]
10005d0b:	89 50 24             	mov    DWORD PTR [eax+0x24],edx
10005d0e:	83 ec 08             	sub    esp,0x8
10005d11:	ff 75 20             	push   DWORD PTR [ebp+0x20]
10005d14:	ff 75 08             	push   DWORD PTR [ebp+0x8]
10005d17:	e8 9c 03 00 00       	call   0x100060b8
10005d1c:	83 c4 10             	add    esp,0x10
10005d1f:	8b 45 08             	mov    eax,DWORD PTR [ebp+0x8]
10005d22:	c7 40 2c 00 00 00 00 	mov    DWORD PTR [eax+0x2c],0x0
10005d29:	8b 45 08             	mov    eax,DWORD PTR [ebp+0x8]
10005d2c:	c7 40 30 00 00 00 00 	mov    DWORD PTR [eax+0x30],0x0
10005d33:	8b 45 08             	mov    eax,DWORD PTR [ebp+0x8]
10005d36:	c7 40 40 0f 00 00 00 	mov    DWORD PTR [eax+0x40],0xf
10005d3d:	8b 45 08             	mov    eax,DWORD PTR [ebp+0x8]
10005d40:	c7 40 44 64 00 00 00 	mov    DWORD PTR [eax+0x44],0x64
10005d47:	8b 45 08             	mov    eax,DWORD PTR [ebp+0x8]
10005d4a:	c7 40 48 00 00 00 00 	mov    DWORD PTR [eax+0x48],0x0
10005d51:	8b 45 08             	mov    eax,DWORD PTR [ebp+0x8]
10005d54:	c7 40 5c 01 00 00 00 	mov    DWORD PTR [eax+0x5c],0x1
10005d5b:	8b 45 08             	mov    eax,DWORD PTR [ebp+0x8]
10005d5e:	c7 80 8c 00 00 00 00 00 00 00 	mov    DWORD PTR [eax+0x8c],0x0
10005d68:	8b 45 08             	mov    eax,DWORD PTR [ebp+0x8]
10005d6b:	c7 40 68 00 00 00 00 	mov    DWORD PTR [eax+0x68],0x0
10005d72:	8b 45 08             	mov    eax,DWORD PTR [ebp+0x8]
10005d75:	c7 40 6c ff ff ff 00 	mov    DWORD PTR [eax+0x6c],0xffffff
10005d7c:	8b 45 08             	mov    eax,DWORD PTR [ebp+0x8]
10005d7f:	c7 40 7c 00 00 00 00 	mov    DWORD PTR [eax+0x7c],0x0
10005d86:	8b 45 08             	mov    eax,DWORD PTR [ebp+0x8]
10005d89:	c7 40 74 ff ff ff 00 	mov    DWORD PTR [eax+0x74],0xffffff
10005d90:	8b 45 08             	mov    eax,DWORD PTR [ebp+0x8]
10005d93:	c7 40 78 80 00 00 00 	mov    DWORD PTR [eax+0x78],0x80
10005d9a:	8b 45 08             	mov    eax,DWORD PTR [ebp+0x8]
10005d9d:	c7 40 70 00 00 00 00 	mov    DWORD PTR [eax+0x70],0x0
10005da4:	8b 45 08             	mov    eax,DWORD PTR [ebp+0x8]
10005da7:	c7 80 90 00 00 00 ff ff ff ff 	mov    DWORD PTR [eax+0x90],0xffffffff
10005db1:	8b 45 08             	mov    eax,DWORD PTR [ebp+0x8]
10005db4:	c7 80 94 00 00 00 fe ff ff ff 	mov    DWORD PTR [eax+0x94],0xfffffffe
10005dbe:	8b 45 08             	mov    eax,DWORD PTR [ebp+0x8]
10005dc1:	c7 80 98 00 00 00 00 00 00 00 	mov    DWORD PTR [eax+0x98],0x0
10005dcb:	8b 45 08             	mov    eax,DWORD PTR [ebp+0x8]
10005dce:	c6 80 81 00 00 00 00 	mov    BYTE PTR [eax+0x81],0x0
10005dd5:	8b 45 08             	mov    eax,DWORD PTR [ebp+0x8]
10005dd8:	c6 80 82 00 00 00 00 	mov    BYTE PTR [eax+0x82],0x0
10005ddf:	8b 45 08             	mov    eax,DWORD PTR [ebp+0x8]
10005de2:	c6 80 83 00 00 00 01 	mov    BYTE PTR [eax+0x83],0x1
10005de9:	8b 45 08             	mov    eax,DWORD PTR [ebp+0x8]
10005dec:	c6 80 84 00 00 00 00 	mov    BYTE PTR [eax+0x84],0x0
10005df3:	8b 45 08             	mov    eax,DWORD PTR [ebp+0x8]
10005df6:	c6 80 85 00 00 00 00 	mov    BYTE PTR [eax+0x85],0x0
10005dfd:	8b 45 08             	mov    eax,DWORD PTR [ebp+0x8]
10005e00:	c7 80 88 00 00 00 01 00 00 00 	mov    DWORD PTR [eax+0x88],0x1
10005e0a:	8b 45 08             	mov    eax,DWORD PTR [ebp+0x8]
10005e0d:	c7 40 38 40 00 00 00 	mov    DWORD PTR [eax+0x38],0x40
10005e14:	8b 45 08             	mov    eax,DWORD PTR [ebp+0x8]
10005e17:	c7 40 4c 04 00 00 00 	mov    DWORD PTR [eax+0x4c],0x4
10005e1e:	8b 45 08             	mov    eax,DWORD PTR [ebp+0x8]
10005e21:	c7 40 50 04 00 00 00 	mov    DWORD PTR [eax+0x50],0x4
10005e28:	8b 45 08             	mov    eax,DWORD PTR [ebp+0x8]
10005e2b:	c7 40 54 04 00 00 00 	mov    DWORD PTR [eax+0x54],0x4
10005e32:	8b 45 08             	mov    eax,DWORD PTR [ebp+0x8]
10005e35:	c7 40 58 04 00 00 00 	mov    DWORD PTR [eax+0x58],0x4
10005e3c:	8b 45 08             	mov    eax,DWORD PTR [ebp+0x8]
10005e3f:	c7 40 60 03 00 00 00 	mov    DWORD PTR [eax+0x60],0x3
10005e46:	8b 45 08             	mov    eax,DWORD PTR [ebp+0x8]
10005e49:	c7 40 64 24 00 00 00 	mov    DWORD PTR [eax+0x64],0x24
10005e50:	8b 45 08             	mov    eax,DWORD PTR [ebp+0x8]
10005e53:	8b 40 0c             	mov    eax,DWORD PTR [eax+0xc]
10005e56:	c7 40 48 54 55 00 10 	mov    DWORD PTR [eax+0x48],0x10005554
10005e5d:	8b 45 08             	mov    eax,DWORD PTR [ebp+0x8]
10005e60:	c7 40 20 e8 4f 00 10 	mov    DWORD PTR [eax+0x20],0x10004fe8
10005e67:	90                   	nop
10005e68:	c9                   	leave  
10005e69:	c3                   	ret    
10005e6a:	55                   	push   ebp
10005e6b:	89 e5                	mov    ebp,esp
10005e6d:	8b 45 08             	mov    eax,DWORD PTR [ebp+0x8]
10005e70:	8b 55 0c             	mov    edx,DWORD PTR [ebp+0xc]
10005e73:	89 90 90 00 00 00    	mov    DWORD PTR [eax+0x90],edx
10005e79:	8b 45 08             	mov    eax,DWORD PTR [ebp+0x8]
10005e7c:	8b 55 10             	mov    edx,DWORD PTR [ebp+0x10]
10005e7f:	89 90 94 00 00 00    	mov    DWORD PTR [eax+0x94],edx
10005e85:	8b 45 08             	mov    eax,DWORD PTR [ebp+0x8]
10005e88:	8b 55 14             	mov    edx,DWORD PTR [ebp+0x14]
10005e8b:	89 90 98 00 00 00    	mov    DWORD PTR [eax+0x98],edx
10005e91:	90                   	nop
10005e92:	5d                   	pop    ebp
10005e93:	c3                   	ret    
10005e94:	55                   	push   ebp
10005e95:	89 e5                	mov    ebp,esp
10005e97:	83 ec 08             	sub    esp,0x8
10005e9a:	6a 00                	push   0x0
10005e9c:	6a fe                	push   0xfffffffe
10005e9e:	6a ff                	push   0xffffffff
10005ea0:	ff 75 08             	push   DWORD PTR [ebp+0x8]
10005ea3:	e8 c2 ff ff ff       	call   0x10005e6a
10005ea8:	83 c4 10             	add    esp,0x10
10005eab:	90                   	nop
10005eac:	c9                   	leave  
10005ead:	c3                   	ret    
10005eae:	55                   	push   ebp
10005eaf:	89 e5                	mov    ebp,esp
10005eb1:	8b 45 08             	mov    eax,DWORD PTR [ebp+0x8]
10005eb4:	8b 80 8c 00 00 00    	mov    eax,DWORD PTR [eax+0x8c]
10005eba:	5d                   	pop    ebp
10005ebb:	c3                   	ret    
10005ebc:	55                   	push   ebp
10005ebd:	89 e5                	mov    ebp,esp
10005ebf:	8b 45 08             	mov    eax,DWORD PTR [ebp+0x8]
10005ec2:	8b 55 0c             	mov    edx,DWORD PTR [ebp+0xc]
10005ec5:	89 90 8c 00 00 00    	mov    DWORD PTR [eax+0x8c],edx
10005ecb:	90                   	nop
10005ecc:	5d                   	pop    ebp
10005ecd:	c3                   	ret    
10005ece:	55                   	push   ebp
10005ecf:	89 e5                	mov    ebp,esp
10005ed1:	8b 45 08             	mov    eax,DWORD PTR [ebp+0x8]
10005ed4:	8b 40 60             	mov    eax,DWORD PTR [eax+0x60]
10005ed7:	5d                   	pop    ebp
10005ed8:	c3                   	ret    
10005ed9:	90                   	nop
10005eda:	55                   	push   ebp
10005edb:	89 e5                	mov    ebp,esp
10005edd:	8b 45 08             	mov    eax,DWORD PTR [ebp+0x8]
10005ee0:	8b 40 64             	mov    eax,DWORD PTR [eax+0x64]
10005ee3:	5d                   	pop    ebp
10005ee4:	c3                   	ret    
10005ee5:	90                   	nop
10005ee6:	55                   	push   ebp
10005ee7:	89 e5                	mov    ebp,esp
10005ee9:	83 ec 08             	sub    esp,0x8
10005eec:	83 ec 04             	sub    esp,0x4
10005eef:	ff 75 0c             	push   DWORD PTR [ebp+0xc]
10005ef2:	ff 75 0c             	push   DWORD PTR [ebp+0xc]
10005ef5:	ff 75 08             	push   DWORD PTR [ebp+0x8]
10005ef8:	e8 07 00 00 00       	call   0x10005f04
10005efd:	83 c4 10             	add    esp,0x10
10005f00:	90                   	nop
10005f01:	c9                   	leave  
10005f02:	c3                   	ret    
10005f03:	90                   	nop
10005f04:	55                   	push   ebp
10005f05:	89 e5                	mov    ebp,esp
10005f07:	83 ec 08             	sub    esp,0x8
10005f0a:	8b 45 08             	mov    eax,DWORD PTR [ebp+0x8]
10005f0d:	8b 55 0c             	mov    edx,DWORD PTR [ebp+0xc]
10005f10:	89 50 60             	mov    DWORD PTR [eax+0x60],edx
10005f13:	8b 45 08             	mov    eax,DWORD PTR [ebp+0x8]
10005f16:	8b 55 10             	mov    edx,DWORD PTR [ebp+0x10]
10005f19:	89 50 64             	mov    DWORD PTR [eax+0x64],edx
10005f1c:	8b 45 08             	mov    eax,DWORD PTR [ebp+0x8]
10005f1f:	83 ec 0c             	sub    esp,0xc
10005f22:	50                   	push   eax
10005f23:	e8 fa e1 ff ff       	call   0x10004122
10005f28:	83 c4 10             	add    esp,0x10
10005f2b:	90                   	nop
10005f2c:	c9                   	leave  
10005f2d:	c3                   	ret    
10005f2e:	55                   	push   ebp
10005f2f:	89 e5                	mov    ebp,esp
10005f31:	83 ec 08             	sub    esp,0x8
10005f34:	8b 45 08             	mov    eax,DWORD PTR [ebp+0x8]
10005f37:	8b 55 0c             	mov    edx,DWORD PTR [ebp+0xc]
10005f3a:	89 50 68             	mov    DWORD PTR [eax+0x68],edx
10005f3d:	8b 45 08             	mov    eax,DWORD PTR [ebp+0x8]
10005f40:	83 ec 0c             	sub    esp,0xc
10005f43:	50                   	push   eax
10005f44:	e8 d9 e1 ff ff       	call   0x10004122
10005f49:	83 c4 10             	add    esp,0x10
10005f4c:	90                   	nop
10005f4d:	c9                   	leave  
10005f4e:	c3                   	ret    
10005f4f:	90                   	nop
10005f50:	55                   	push   ebp
10005f51:	89 e5                	mov    ebp,esp
10005f53:	8b 45 08             	mov    eax,DWORD PTR [ebp+0x8]
10005f56:	8b 40 68             	mov    eax,DWORD PTR [eax+0x68]
10005f59:	5d                   	pop    ebp
10005f5a:	c3                   	ret    
10005f5b:	90                   	nop
10005f5c:	55                   	push   ebp
10005f5d:	89 e5                	mov    ebp,esp
10005f5f:	83 ec 04             	sub    esp,0x4
10005f62:	8b 45 0c             	mov    eax,DWORD PTR [ebp+0xc]
10005f65:	88 45 fc             	mov    BYTE PTR [ebp-0x4],al
10005f68:	8b 45 08             	mov    eax,DWORD PTR [ebp+0x8]
10005f6b:	8a 55 fc             	mov    dl,BYTE PTR [ebp-0x4]
10005f6e:	88 90 80 00 00 00    	mov    BYTE PTR [eax+0x80],dl
10005f74:	90                   	nop
10005f75:	c9                   	leave  
10005f76:	c3                   	ret    
10005f77:	90                   	nop
10005f78:	55                   	push   ebp
10005f79:	89 e5                	mov    ebp,esp
10005f7b:	6a 00                	push   0x0
10005f7d:	ff 75 08             	push   DWORD PTR [ebp+0x8]
10005f80:	e8 d7 ff ff ff       	call   0x10005f5c
10005f85:	83 c4 08             	add    esp,0x8
10005f88:	90                   	nop
10005f89:	c9                   	leave  
10005f8a:	c3                   	ret    
10005f8b:	90                   	nop
10005f8c:	55                   	push   ebp
10005f8d:	89 e5                	mov    ebp,esp
10005f8f:	83 ec 04             	sub    esp,0x4
10005f92:	8b 45 0c             	mov    eax,DWORD PTR [ebp+0xc]
10005f95:	88 45 fc             	mov    BYTE PTR [ebp-0x4],al
10005f98:	8b 45 08             	mov    eax,DWORD PTR [ebp+0x8]
10005f9b:	8a 55 fc             	mov    dl,BYTE PTR [ebp-0x4]
10005f9e:	88 90 81 00 00 00    	mov    BYTE PTR [eax+0x81],dl
10005fa4:	90                   	nop
10005fa5:	c9                   	leave  
10005fa6:	c3                   	ret    
10005fa7:	90                   	nop
10005fa8:	55                   	push   ebp
10005fa9:	89 e5                	mov    ebp,esp
10005fab:	6a 00                	push   0x0
10005fad:	ff 75 08             	push   DWORD PTR [ebp+0x8]
10005fb0:	e8 d7 ff ff ff       	call   0x10005f8c
10005fb5:	83 c4 08             	add    esp,0x8
10005fb8:	90                   	nop
10005fb9:	c9                   	leave  
10005fba:	c3                   	ret    
10005fbb:	90                   	nop
10005fbc:	55                   	push   ebp
10005fbd:	89 e5                	mov    ebp,esp
10005fbf:	83 ec 08             	sub    esp,0x8
10005fc2:	8b 45 08             	mov    eax,DWORD PTR [ebp+0x8]
10005fc5:	8b 55 0c             	mov    edx,DWORD PTR [ebp+0xc]
10005fc8:	89 50 6c             	mov    DWORD PTR [eax+0x6c],edx
10005fcb:	8b 45 08             	mov    eax,DWORD PTR [ebp+0x8]
10005fce:	83 ec 0c             	sub    esp,0xc
10005fd1:	50                   	push   eax
10005fd2:	e8 4b e1 ff ff       	call   0x10004122
10005fd7:	83 c4 10             	add    esp,0x10
10005fda:	90                   	nop
10005fdb:	c9                   	leave  
10005fdc:	c3                   	ret    
10005fdd:	90                   	nop
10005fde:	55                   	push   ebp
10005fdf:	89 e5                	mov    ebp,esp
10005fe1:	8b 45 08             	mov    eax,DWORD PTR [ebp+0x8]
10005fe4:	8b 40 6c             	mov    eax,DWORD PTR [eax+0x6c]
10005fe7:	5d                   	pop    ebp
10005fe8:	c3                   	ret    
10005fe9:	90                   	nop
10005fea:	55                   	push   ebp
10005feb:	89 e5                	mov    ebp,esp
10005fed:	8b 45 08             	mov    eax,DWORD PTR [ebp+0x8]
10005ff0:	8b 55 0c             	mov    edx,DWORD PTR [ebp+0xc]
10005ff3:	89 50 78             	mov    DWORD PTR [eax+0x78],edx
10005ff6:	90                   	nop
10005ff7:	5d                   	pop    ebp
10005ff8:	c3                   	ret    
10005ff9:	90                   	nop
10005ffa:	55                   	push   ebp
10005ffb:	89 e5                	mov    ebp,esp
10005ffd:	8b 45 08             	mov    eax,DWORD PTR [ebp+0x8]
10006000:	8b 40 78             	mov    eax,DWORD PTR [eax+0x78]
10006003:	5d                   	pop    ebp
10006004:	c3                   	ret    
10006005:	90                   	nop
10006006:	55                   	push   ebp
10006007:	89 e5                	mov    ebp,esp
10006009:	8b 45 08             	mov    eax,DWORD PTR [ebp+0x8]
1000600c:	8b 55 0c             	mov    edx,DWORD PTR [ebp+0xc]
1000600f:	89 50 74             	mov    DWORD PTR [eax+0x74],edx
10006012:	90                   	nop
10006013:	5d                   	pop    ebp
10006014:	c3                   	ret    
10006015:	90                   	nop
10006016:	55                   	push   ebp
10006017:	89 e5                	mov    ebp,esp
10006019:	8b 45 08             	mov    eax,DWORD PTR [ebp+0x8]
1000601c:	8b 40 74             	mov    eax,DWORD PTR [eax+0x74]
1000601f:	5d                   	pop    ebp
10006020:	c3                   	ret    
10006021:	90                   	nop
10006022:	55                   	push   ebp
10006023:	89 e5                	mov    ebp,esp
10006025:	83 ec 08             	sub    esp,0x8
10006028:	8b 45 08             	mov    eax,DWORD PTR [ebp+0x8]
1000602b:	8b 55 0c             	mov    edx,DWORD PTR [ebp+0xc]
1000602e:	89 50 7c             	mov    DWORD PTR [eax+0x7c],edx
10006031:	8b 45 08             	mov    eax,DWORD PTR [ebp+0x8]
10006034:	83 ec 0c             	sub    esp,0xc
10006037:	50                   	push   eax
10006038:	e8 e5 e0 ff ff       	call   0x10004122
1000603d:	83 c4 10             	add    esp,0x10
10006040:	90                   	nop
10006041:	c9                   	leave  
10006042:	c3                   	ret    
10006043:	90                   	nop
10006044:	55                   	push   ebp
10006045:	89 e5                	mov    ebp,esp
10006047:	8b 45 08             	mov    eax,DWORD PTR [ebp+0x8]
1000604a:	8b 40 7c             	mov    eax,DWORD PTR [eax+0x7c]
1000604d:	5d                   	pop    ebp
1000604e:	c3                   	ret    
1000604f:	90                   	nop
10006050:	55                   	push   ebp
10006051:	89 e5                	mov    ebp,esp
10006053:	83 ec 08             	sub    esp,0x8
10006056:	8b 45 08             	mov    eax,DWORD PTR [ebp+0x8]
10006059:	8b 55 0c             	mov    edx,DWORD PTR [ebp+0xc]
1000605c:	89 50 70             	mov    DWORD PTR [eax+0x70],edx
1000605f:	8b 45 08             	mov    eax,DWORD PTR [ebp+0x8]
10006062:	83 ec 0c             	sub    esp,0xc
10006065:	50                   	push   eax
10006066:	e8 b7 e0 ff ff       	call   0x10004122
1000606b:	83 c4 10             	add    esp,0x10
1000606e:	90                   	nop
1000606f:	c9                   	leave  
10006070:	c3                   	ret    
10006071:	90                   	nop
10006072:	55                   	push   ebp
10006073:	89 e5                	mov    ebp,esp
10006075:	8b 45 08             	mov    eax,DWORD PTR [ebp+0x8]
10006078:	8b 40 70             	mov    eax,DWORD PTR [eax+0x70]
1000607b:	5d                   	pop    ebp
1000607c:	c3                   	ret    
1000607d:	90                   	nop
1000607e:	55                   	push   ebp
1000607f:	89 e5                	mov    ebp,esp
10006081:	83 ec 08             	sub    esp,0x8
10006084:	8b 45 08             	mov    eax,DWORD PTR [ebp+0x8]
10006087:	8b 55 0c             	mov    edx,DWORD PTR [ebp+0xc]
1000608a:	89 50 48             	mov    DWORD PTR [eax+0x48],edx
1000608d:	8b 45 08             	mov    eax,DWORD PTR [ebp+0x8]
10006090:	83 ec 0c             	sub    esp,0xc
10006093:	50                   	push   eax
10006094:	e8 89 e0 ff ff       	call   0x10004122
10006099:	83 c4 10             	add    esp,0x10
1000609c:	90                   	nop
1000609d:	c9                   	leave  
1000609e:	c3                   	ret    
1000609f:	90                   	nop
100060a0:	55                   	push   ebp
100060a1:	89 e5                	mov    ebp,esp
100060a3:	8b 45 08             	mov    eax,DWORD PTR [ebp+0x8]
100060a6:	8b 40 48             	mov    eax,DWORD PTR [eax+0x48]
100060a9:	5d                   	pop    ebp
100060aa:	c3                   	ret    
100060ab:	90                   	nop
100060ac:	55                   	push   ebp
100060ad:	89 e5                	mov    ebp,esp
100060af:	8b 45 08             	mov    eax,DWORD PTR [ebp+0x8]
100060b2:	8b 40 24             	mov    eax,DWORD PTR [eax+0x24]
100060b5:	5d                   	pop    ebp
100060b6:	c3                   	ret    
100060b7:	90                   	nop
100060b8:	55                   	push   ebp
100060b9:	89 e5                	mov    ebp,esp
100060bb:	83 ec 08             	sub    esp,0x8
100060be:	83 ec 0c             	sub    esp,0xc
100060c1:	ff 75 0c             	push   DWORD PTR [ebp+0xc]
100060c4:	e8 a7 4b 00 00       	call   0x1000ac70
100060c9:	83 c4 10             	add    esp,0x10
100060cc:	8d 50 10             	lea    edx,[eax+0x10]
100060cf:	8b 45 08             	mov    eax,DWORD PTR [ebp+0x8]
100060d2:	8b 40 28             	mov    eax,DWORD PTR [eax+0x28]
100060d5:	39 c2                	cmp    edx,eax
100060d7:	76 35                	jbe    0x1000610e
100060d9:	8b 45 08             	mov    eax,DWORD PTR [ebp+0x8]
100060dc:	8b 40 28             	mov    eax,DWORD PTR [eax+0x28]
100060df:	01 c0                	add    eax,eax
100060e1:	89 c2                	mov    edx,eax
100060e3:	8b 45 08             	mov    eax,DWORD PTR [ebp+0x8]
100060e6:	89 50 28             	mov    DWORD PTR [eax+0x28],edx
100060e9:	8b 45 08             	mov    eax,DWORD PTR [ebp+0x8]
100060ec:	8b 40 28             	mov    eax,DWORD PTR [eax+0x28]
100060ef:	89 c2                	mov    edx,eax
100060f1:	8b 45 08             	mov    eax,DWORD PTR [ebp+0x8]
100060f4:	8b 40 24             	mov    eax,DWORD PTR [eax+0x24]
100060f7:	83 ec 08             	sub    esp,0x8
100060fa:	52                   	push   edx
100060fb:	50                   	push   eax
100060fc:	e8 43 40 00 00       	call   0x1000a144
10006101:	83 c4 10             	add    esp,0x10
10006104:	89 c2                	mov    edx,eax
10006106:	8b 45 08             	mov    eax,DWORD PTR [ebp+0x8]
10006109:	89 50 24             	mov    DWORD PTR [eax+0x24],edx
1000610c:	eb b0                	jmp    0x100060be
1000610e:	8b 45 08             	mov    eax,DWORD PTR [ebp+0x8]
10006111:	8b 40 24             	mov    eax,DWORD PTR [eax+0x24]
10006114:	83 ec 08             	sub    esp,0x8
10006117:	ff 75 0c             	push   DWORD PTR [ebp+0xc]
1000611a:	50                   	push   eax
1000611b:	e8 e0 4a 00 00       	call   0x1000ac00
10006120:	83 c4 10             	add    esp,0x10
10006123:	8b 45 08             	mov    eax,DWORD PTR [ebp+0x8]
10006126:	8b 40 24             	mov    eax,DWORD PTR [eax+0x24]
10006129:	83 ec 0c             	sub    esp,0xc
1000612c:	50                   	push   eax
1000612d:	e8 3e 4b 00 00       	call   0x1000ac70
10006132:	83 c4 10             	add    esp,0x10
10006135:	89 c2                	mov    edx,eax
10006137:	8b 45 08             	mov    eax,DWORD PTR [ebp+0x8]
1000613a:	89 50 60             	mov    DWORD PTR [eax+0x60],edx
1000613d:	8b 45 08             	mov    eax,DWORD PTR [ebp+0x8]
10006140:	8b 40 24             	mov    eax,DWORD PTR [eax+0x24]
10006143:	83 ec 0c             	sub    esp,0xc
10006146:	50                   	push   eax
10006147:	e8 24 4b 00 00       	call   0x1000ac70
1000614c:	83 c4 10             	add    esp,0x10
1000614f:	89 c2                	mov    edx,eax
10006151:	8b 45 08             	mov    eax,DWORD PTR [ebp+0x8]
10006154:	89 50 64             	mov    DWORD PTR [eax+0x64],edx
10006157:	8b 45 08             	mov    eax,DWORD PTR [ebp+0x8]
1000615a:	83 ec 0c             	sub    esp,0xc
1000615d:	50                   	push   eax
1000615e:	e8 bf df ff ff       	call   0x10004122
10006163:	83 c4 10             	add    esp,0x10
10006166:	90                   	nop
10006167:	c9                   	leave  
10006168:	c3                   	ret    
10006169:	90                   	nop
1000616a:	55                   	push   ebp
1000616b:	89 e5                	mov    ebp,esp
1000616d:	83 ec 08             	sub    esp,0x8
10006170:	8b 45 08             	mov    eax,DWORD PTR [ebp+0x8]
10006173:	8b 40 24             	mov    eax,DWORD PTR [eax+0x24]
10006176:	85 c0                	test   eax,eax
10006178:	74 12                	je     0x1000618c
1000617a:	8b 45 08             	mov    eax,DWORD PTR [ebp+0x8]
1000617d:	8b 40 24             	mov    eax,DWORD PTR [eax+0x24]
10006180:	83 ec 0c             	sub    esp,0xc
10006183:	50                   	push   eax
10006184:	e8 f3 35 00 00       	call   0x1000977c
10006189:	83 c4 10             	add    esp,0x10
1000618c:	8b 45 08             	mov    eax,DWORD PTR [ebp+0x8]
1000618f:	83 ec 0c             	sub    esp,0xc
10006192:	50                   	push   eax
10006193:	e8 32 e0 ff ff       	call   0x100041ca
10006198:	83 c4 10             	add    esp,0x10
1000619b:	90                   	nop
1000619c:	c9                   	leave  
1000619d:	c3                   	ret    
1000619e:	55                   	push   ebp
1000619f:	89 e5                	mov    ebp,esp
100061a1:	83 ec 08             	sub    esp,0x8
100061a4:	83 ec 0c             	sub    esp,0xc
100061a7:	ff 75 08             	push   DWORD PTR [ebp+0x8]
100061aa:	e8 b5 35 00 00       	call   0x10009764
100061af:	83 c4 10             	add    esp,0x10
100061b2:	c9                   	leave  
100061b3:	c3                   	ret    
100061b4:	55                   	push   ebp
100061b5:	89 e5                	mov    ebp,esp
100061b7:	83 ec 08             	sub    esp,0x8
100061ba:	83 ec 0c             	sub    esp,0xc
100061bd:	ff 75 08             	push   DWORD PTR [ebp+0x8]
100061c0:	e8 9f 35 00 00       	call   0x10009764
100061c5:	83 c4 10             	add    esp,0x10
100061c8:	c9                   	leave  
100061c9:	c3                   	ret    
100061ca:	55                   	push   ebp
100061cb:	89 e5                	mov    ebp,esp
100061cd:	83 ec 08             	sub    esp,0x8
100061d0:	83 ec 0c             	sub    esp,0xc
100061d3:	ff 75 08             	push   DWORD PTR [ebp+0x8]
100061d6:	e8 a1 35 00 00       	call   0x1000977c
100061db:	83 c4 10             	add    esp,0x10
100061de:	90                   	nop
100061df:	c9                   	leave  
100061e0:	c3                   	ret    
100061e1:	55                   	push   ebp
100061e2:	89 e5                	mov    ebp,esp
100061e4:	83 ec 08             	sub    esp,0x8
100061e7:	83 ec 0c             	sub    esp,0xc
100061ea:	ff 75 08             	push   DWORD PTR [ebp+0x8]
100061ed:	e8 8a 35 00 00       	call   0x1000977c
100061f2:	83 c4 10             	add    esp,0x10
100061f5:	90                   	nop
100061f6:	c9                   	leave  
100061f7:	c3                   	ret    
100061f8:	90                   	nop
100061f9:	c3                   	ret    
100061fa:	90                   	nop
100061fb:	c3                   	ret    
100061fc:	55                   	push   ebp
100061fd:	89 e5                	mov    ebp,esp
100061ff:	57                   	push   edi
10006200:	56                   	push   esi
10006201:	53                   	push   ebx
10006202:	81 ec ec 00 00 00    	sub    esp,0xec
10006208:	c7 45 b0 c8 00 00 00 	mov    DWORD PTR [ebp-0x50],0xc8
1000620f:	c7 45 b4 c8 00 00 00 	mov    DWORD PTR [ebp-0x4c],0xc8
10006216:	8b 45 0c             	mov    eax,DWORD PTR [ebp+0xc]
10006219:	89 45 b8             	mov    DWORD PTR [ebp-0x48],eax
1000621c:	8b 45 10             	mov    eax,DWORD PTR [ebp+0x10]
1000621f:	89 45 bc             	mov    DWORD PTR [ebp-0x44],eax
10006222:	8b 45 18             	mov    eax,DWORD PTR [ebp+0x18]
10006225:	25 00 08 00 00       	and    eax,0x800
1000622a:	85 c0                	test   eax,eax
1000622c:	74 12                	je     0x10006240
1000622e:	c7 45 c0 28 02 00 00 	mov    DWORD PTR [ebp-0x40],0x228
10006235:	8b 45 c0             	mov    eax,DWORD PTR [ebp-0x40]
10006238:	83 c8 02             	or     eax,0x2
1000623b:	89 45 c0             	mov    DWORD PTR [ebp-0x40],eax
1000623e:	eb 06                	jmp    0x10006246
10006240:	8b 45 18             	mov    eax,DWORD PTR [ebp+0x18]
10006243:	89 45 c0             	mov    DWORD PTR [ebp-0x40],eax
10006246:	8b 45 c0             	mov    eax,DWORD PTR [ebp-0x40]
10006249:	25 00 04 00 00       	and    eax,0x400
1000624e:	85 c0                	test   eax,eax
10006250:	74 1c                	je     0x1000626e
10006252:	83 ec 0c             	sub    esp,0xc
10006255:	68 00 00 00 01       	push   0x1000000
1000625a:	e8 05 35 00 00       	call   0x10009764
1000625f:	83 c4 10             	add    esp,0x10
10006262:	89 45 c4             	mov    DWORD PTR [ebp-0x3c],eax
10006265:	c7 45 c8 00 00 40 00 	mov    DWORD PTR [ebp-0x38],0x400000
1000626c:	eb 27                	jmp    0x10006295
1000626e:	8b 55 b8             	mov    edx,DWORD PTR [ebp-0x48]
10006271:	8b 45 bc             	mov    eax,DWORD PTR [ebp-0x44]
10006274:	0f af c2             	imul   eax,edx
10006277:	c1 e0 02             	shl    eax,0x2
1000627a:	83 ec 0c             	sub    esp,0xc
1000627d:	50                   	push   eax
1000627e:	e8 e1 34 00 00       	call   0x10009764
10006283:	83 c4 10             	add    esp,0x10
10006286:	89 45 c4             	mov    DWORD PTR [ebp-0x3c],eax
10006289:	8b 55 b8             	mov    edx,DWORD PTR [ebp-0x48]
1000628c:	8b 45 bc             	mov    eax,DWORD PTR [ebp-0x44]
1000628f:	0f af c2             	imul   eax,edx
10006292:	89 45 c8             	mov    DWORD PTR [ebp-0x38],eax
10006295:	8d 85 0c ff ff ff    	lea    eax,[ebp-0xf4]
1000629b:	89 c2                	mov    edx,eax
1000629d:	bb e4 69 01 10       	mov    ebx,0x100169e4
100062a2:	b8 04 00 00 00       	mov    eax,0x4
100062a7:	89 d7                	mov    edi,edx
100062a9:	89 de                	mov    esi,ebx
100062ab:	89 c1                	mov    ecx,eax
100062ad:	f3 a5                	rep movs DWORD PTR es:[edi],DWORD PTR ds:[esi]
100062af:	8b 55 b8             	mov    edx,DWORD PTR [ebp-0x48]
100062b2:	8b 45 bc             	mov    eax,DWORD PTR [ebp-0x44]
100062b5:	0f af c2             	imul   eax,edx
100062b8:	c1 e0 02             	shl    eax,0x2
100062bb:	89 c2                	mov    edx,eax
100062bd:	8b 45 c4             	mov    eax,DWORD PTR [ebp-0x3c]
100062c0:	83 ec 04             	sub    esp,0x4
100062c3:	52                   	push   edx
100062c4:	68 ff 00 00 00       	push   0xff
100062c9:	50                   	push   eax
100062ca:	e8 3e 3d 00 00       	call   0x1000a00d
100062cf:	83 c4 10             	add    esp,0x10
100062d2:	8d 85 0c ff ff ff    	lea    eax,[ebp-0xf4]
100062d8:	50                   	push   eax
100062d9:	6a 00                	push   0x0
100062db:	6a 00                	push   0x0
100062dd:	6a 2f                	push   0x2f
100062df:	e8 50 6b 00 00       	call   0x1000ce34
100062e4:	83 c4 10             	add    esp,0x10
100062e7:	8b 4d c4             	mov    ecx,DWORD PTR [ebp-0x3c]
100062ea:	8b 45 10             	mov    eax,DWORD PTR [ebp+0x10]
100062ed:	0f b7 d0             	movzx  edx,ax
100062f0:	8b 45 0c             	mov    eax,DWORD PTR [ebp+0xc]
100062f3:	0f b7 c0             	movzx  eax,ax
100062f6:	83 ec 04             	sub    esp,0x4
100062f9:	51                   	push   ecx
100062fa:	52                   	push   edx
100062fb:	50                   	push   eax
100062fc:	e8 38 b5 ff ff       	call   0x10001839
10006301:	83 c4 10             	add    esp,0x10
10006304:	89 45 e4             	mov    DWORD PTR [ebp-0x1c],eax
10006307:	8b 55 c4             	mov    edx,DWORD PTR [ebp-0x3c]
1000630a:	8b 45 08             	mov    eax,DWORD PTR [ebp+0x8]
1000630d:	89 90 d8 00 00 00    	mov    DWORD PTR [eax+0xd8],edx
10006313:	8b 45 08             	mov    eax,DWORD PTR [ebp+0x8]
10006316:	8b 55 e4             	mov    edx,DWORD PTR [ebp-0x1c]
10006319:	89 90 dc 00 00 00    	mov    DWORD PTR [eax+0xdc],edx
1000631f:	8b 45 08             	mov    eax,DWORD PTR [ebp+0x8]
10006322:	89 c3                	mov    ebx,eax
10006324:	8d 85 0c ff ff ff    	lea    eax,[ebp-0xf4]
1000632a:	ba 36 00 00 00       	mov    edx,0x36
1000632f:	89 df                	mov    edi,ebx
10006331:	89 c6                	mov    esi,eax
10006333:	89 d1                	mov    ecx,edx
10006335:	f3 a5                	rep movs DWORD PTR es:[edi],DWORD PTR ds:[esi]
10006337:	90                   	nop
10006338:	8b 45 08             	mov    eax,DWORD PTR [ebp+0x8]
1000633b:	8d 65 f4             	lea    esp,[ebp-0xc]
1000633e:	5b                   	pop    ebx
1000633f:	5e                   	pop    esi
10006340:	5f                   	pop    edi
10006341:	5d                   	pop    ebp
10006342:	c2 04 00             	ret    0x4
10006345:	55                   	push   ebp
10006346:	89 e5                	mov    ebp,esp
10006348:	83 ec 18             	sub    esp,0x18
1000634b:	83 ec 0c             	sub    esp,0xc
1000634e:	ff 75 08             	push   DWORD PTR [ebp+0x8]
10006351:	e8 5e 01 00 00       	call   0x100064b4
10006356:	83 c4 10             	add    esp,0x10
10006359:	89 45 f4             	mov    DWORD PTR [ebp-0xc],eax
1000635c:	8b 45 f4             	mov    eax,DWORD PTR [ebp-0xc]
1000635f:	66 8b 40 06          	mov    ax,WORD PTR [eax+0x6]
10006363:	0f b7 c0             	movzx  eax,ax
10006366:	83 e8 19             	sub    eax,0x19
10006369:	89 c2                	mov    edx,eax
1000636b:	8b 45 f4             	mov    eax,DWORD PTR [ebp-0xc]
1000636e:	8b 40 04             	mov    eax,DWORD PTR [eax+0x4]
10006371:	0f b7 c0             	movzx  eax,ax
10006374:	83 ec 08             	sub    esp,0x8
10006377:	68 d0 d0 d0 00       	push   0xd0d0d0
1000637c:	52                   	push   edx
1000637d:	50                   	push   eax
1000637e:	6a 19                	push   0x19
10006380:	6a 00                	push   0x0
10006382:	ff 75 f4             	push   DWORD PTR [ebp-0xc]
10006385:	e8 1b b7 ff ff       	call   0x10001aa5
1000638a:	83 c4 20             	add    esp,0x20
1000638d:	8b 45 08             	mov    eax,DWORD PTR [ebp+0x8]
10006390:	8b 80 fc 00 00 00    	mov    eax,DWORD PTR [eax+0xfc]
10006396:	85 c0                	test   eax,eax
10006398:	74 14                	je     0x100063ae
1000639a:	8b 45 08             	mov    eax,DWORD PTR [ebp+0x8]
1000639d:	8b 80 fc 00 00 00    	mov    eax,DWORD PTR [eax+0xfc]
100063a3:	83 ec 0c             	sub    esp,0xc
100063a6:	ff 75 08             	push   DWORD PTR [ebp+0x8]
100063a9:	ff d0                	call   eax
100063ab:	83 c4 10             	add    esp,0x10
100063ae:	8b 45 f4             	mov    eax,DWORD PTR [ebp-0xc]
100063b1:	8b 40 04             	mov    eax,DWORD PTR [eax+0x4]
100063b4:	0f b7 c0             	movzx  eax,ax
100063b7:	83 ec 08             	sub    esp,0x8
100063ba:	68 ff ff ff 00       	push   0xffffff
100063bf:	6a 19                	push   0x19
100063c1:	50                   	push   eax
100063c2:	6a 00                	push   0x0
100063c4:	6a 00                	push   0x0
100063c6:	ff 75 f4             	push   DWORD PTR [ebp-0xc]
100063c9:	e8 d7 b6 ff ff       	call   0x10001aa5
100063ce:	83 c4 20             	add    esp,0x20
100063d1:	8b 45 08             	mov    eax,DWORD PTR [ebp+0x8]
100063d4:	8b 80 f4 00 00 00    	mov    eax,DWORD PTR [eax+0xf4]
100063da:	83 ec 0c             	sub    esp,0xc
100063dd:	6a 00                	push   0x0
100063df:	6a 06                	push   0x6
100063e1:	6a 0f                	push   0xf
100063e3:	50                   	push   eax
100063e4:	ff 75 f4             	push   DWORD PTR [ebp-0xc]
100063e7:	e8 84 c0 ff ff       	call   0x10002470
100063ec:	83 c4 20             	add    esp,0x20
100063ef:	b8 00 00 00 00       	mov    eax,0x0
100063f4:	c9                   	leave  
100063f5:	c3                   	ret    
100063f6:	55                   	push   ebp
100063f7:	89 e5                	mov    ebp,esp
100063f9:	83 ec 18             	sub    esp,0x18
100063fc:	8b 45 0c             	mov    eax,DWORD PTR [ebp+0xc]
100063ff:	8b 80 f8 00 00 00    	mov    eax,DWORD PTR [eax+0xf8]
10006405:	89 45 f4             	mov    DWORD PTR [ebp-0xc],eax
10006408:	83 7d f4 00          	cmp    DWORD PTR [ebp-0xc],0x0
1000640c:	74 0e                	je     0x1000641c
1000640e:	83 ec 0c             	sub    esp,0xc
10006411:	ff 75 0c             	push   DWORD PTR [ebp+0xc]
10006414:	8b 45 f4             	mov    eax,DWORD PTR [ebp-0xc]
10006417:	ff d0                	call   eax
10006419:	83 c4 10             	add    esp,0x10
1000641c:	90                   	nop
1000641d:	c9                   	leave  
1000641e:	c3                   	ret    
1000641f:	90                   	nop
10006420:	55                   	push   ebp
10006421:	89 e5                	mov    ebp,esp
10006423:	83 ec 08             	sub    esp,0x8
10006426:	8b 45 08             	mov    eax,DWORD PTR [ebp+0x8]
10006429:	8b 80 f4 00 00 00    	mov    eax,DWORD PTR [eax+0xf4]
1000642f:	85 c0                	test   eax,eax
10006431:	74 22                	je     0x10006455
10006433:	8b 45 08             	mov    eax,DWORD PTR [ebp+0x8]
10006436:	8b 80 f4 00 00 00    	mov    eax,DWORD PTR [eax+0xf4]
1000643c:	83 ec 0c             	sub    esp,0xc
1000643f:	50                   	push   eax
10006440:	e8 37 33 00 00       	call   0x1000977c
10006445:	83 c4 10             	add    esp,0x10
10006448:	8b 45 08             	mov    eax,DWORD PTR [ebp+0x8]
1000644b:	c7 80 f4 00 00 00 00 00 00 00 	mov    DWORD PTR [eax+0xf4],0x0
10006455:	8b 45 0c             	mov    eax,DWORD PTR [ebp+0xc]
10006458:	40                   	inc    eax
10006459:	83 ec 0c             	sub    esp,0xc
1000645c:	50                   	push   eax
1000645d:	e8 0e 48 00 00       	call   0x1000ac70
10006462:	83 c4 10             	add    esp,0x10
10006465:	83 ec 0c             	sub    esp,0xc
10006468:	50                   	push   eax
10006469:	e8 f6 32 00 00       	call   0x10009764
1000646e:	83 c4 10             	add    esp,0x10
10006471:	89 c2                	mov    edx,eax
10006473:	8b 45 08             	mov    eax,DWORD PTR [ebp+0x8]
10006476:	89 90 f4 00 00 00    	mov    DWORD PTR [eax+0xf4],edx
1000647c:	8b 45 08             	mov    eax,DWORD PTR [ebp+0x8]
1000647f:	8b 80 f4 00 00 00    	mov    eax,DWORD PTR [eax+0xf4]
10006485:	83 ec 08             	sub    esp,0x8
10006488:	ff 75 0c             	push   DWORD PTR [ebp+0xc]
1000648b:	50                   	push   eax
1000648c:	e8 6f 47 00 00       	call   0x1000ac00
10006491:	83 c4 10             	add    esp,0x10
10006494:	83 ec 0c             	sub    esp,0xc
10006497:	ff 75 08             	push   DWORD PTR [ebp+0x8]
1000649a:	e8 eb 06 00 00       	call   0x10006b8a
1000649f:	83 c4 10             	add    esp,0x10
100064a2:	90                   	nop
100064a3:	c9                   	leave  
100064a4:	c3                   	ret    
100064a5:	90                   	nop
100064a6:	55                   	push   ebp
100064a7:	89 e5                	mov    ebp,esp
100064a9:	8b 45 08             	mov    eax,DWORD PTR [ebp+0x8]
100064ac:	8b 80 f4 00 00 00    	mov    eax,DWORD PTR [eax+0xf4]
100064b2:	5d                   	pop    ebp
100064b3:	c3                   	ret    
100064b4:	55                   	push   ebp
100064b5:	89 e5                	mov    ebp,esp
100064b7:	8b 45 08             	mov    eax,DWORD PTR [ebp+0x8]
100064ba:	8b 80 e0 00 00 00    	mov    eax,DWORD PTR [eax+0xe0]
100064c0:	8b 40 10             	mov    eax,DWORD PTR [eax+0x10]
100064c3:	5d                   	pop    ebp
100064c4:	c3                   	ret    
100064c5:	90                   	nop
100064c6:	55                   	push   ebp
100064c7:	89 e5                	mov    ebp,esp
100064c9:	57                   	push   edi
100064ca:	56                   	push   esi
100064cb:	53                   	push   ebx
100064cc:	81 ec ec 00 00 00    	sub    esp,0xec
100064d2:	8b 45 08             	mov    eax,DWORD PTR [ebp+0x8]
100064d5:	8b 55 10             	mov    edx,DWORD PTR [ebp+0x10]
100064d8:	89 90 ec 00 00 00    	mov    DWORD PTR [eax+0xec],edx
100064de:	8b 45 08             	mov    eax,DWORD PTR [ebp+0x8]
100064e1:	8b 55 14             	mov    edx,DWORD PTR [ebp+0x14]
100064e4:	89 90 f0 00 00 00    	mov    DWORD PTR [eax+0xf0],edx
100064ea:	8b 45 0c             	mov    eax,DWORD PTR [ebp+0xc]
100064ed:	40                   	inc    eax
100064ee:	83 ec 0c             	sub    esp,0xc
100064f1:	50                   	push   eax
100064f2:	e8 79 47 00 00       	call   0x1000ac70
100064f7:	83 c4 10             	add    esp,0x10
100064fa:	83 ec 0c             	sub    esp,0xc
100064fd:	50                   	push   eax
100064fe:	e8 61 32 00 00       	call   0x10009764
10006503:	83 c4 10             	add    esp,0x10
10006506:	89 c2                	mov    edx,eax
10006508:	8b 45 08             	mov    eax,DWORD PTR [ebp+0x8]
1000650b:	89 90 f4 00 00 00    	mov    DWORD PTR [eax+0xf4],edx
10006511:	8b 45 08             	mov    eax,DWORD PTR [ebp+0x8]
10006514:	8b 80 f4 00 00 00    	mov    eax,DWORD PTR [eax+0xf4]
1000651a:	83 ec 08             	sub    esp,0x8
1000651d:	ff 75 0c             	push   DWORD PTR [ebp+0xc]
10006520:	50                   	push   eax
10006521:	e8 da 46 00 00       	call   0x1000ac00
10006526:	83 c4 10             	add    esp,0x10
10006529:	8b 45 08             	mov    eax,DWORD PTR [ebp+0x8]
1000652c:	8b 98 f4 00 00 00    	mov    ebx,DWORD PTR [eax+0xf4]
10006532:	8b 45 08             	mov    eax,DWORD PTR [ebp+0x8]
10006535:	8b 88 f0 00 00 00    	mov    ecx,DWORD PTR [eax+0xf0]
1000653b:	8b 45 08             	mov    eax,DWORD PTR [ebp+0x8]
1000653e:	8b 90 ec 00 00 00    	mov    edx,DWORD PTR [eax+0xec]
10006544:	8b 75 08             	mov    esi,DWORD PTR [ebp+0x8]
10006547:	8d 85 08 ff ff ff    	lea    eax,[ebp-0xf8]
1000654d:	83 ec 0c             	sub    esp,0xc
10006550:	ff 75 18             	push   DWORD PTR [ebp+0x18]
10006553:	53                   	push   ebx
10006554:	51                   	push   ecx
10006555:	52                   	push   edx
10006556:	50                   	push   eax
10006557:	e8 a0 fc ff ff       	call   0x100061fc
1000655c:	83 c4 1c             	add    esp,0x1c
1000655f:	89 f3                	mov    ebx,esi
10006561:	8d 85 08 ff ff ff    	lea    eax,[ebp-0xf8]
10006567:	ba 38 00 00 00       	mov    edx,0x38
1000656c:	89 df                	mov    edi,ebx
1000656e:	89 c6                	mov    esi,eax
10006570:	89 d1                	mov    ecx,edx
10006572:	f3 a5                	rep movs DWORD PTR es:[edi],DWORD PTR ds:[esi]
10006574:	83 ec 0c             	sub    esp,0xc
10006577:	6a 50                	push   0x50
10006579:	e8 e6 31 00 00       	call   0x10009764
1000657e:	83 c4 10             	add    esp,0x10
10006581:	89 c2                	mov    edx,eax
10006583:	8b 45 08             	mov    eax,DWORD PTR [ebp+0x8]
10006586:	89 90 e0 00 00 00    	mov    DWORD PTR [eax+0xe0],edx
1000658c:	8b 45 08             	mov    eax,DWORD PTR [ebp+0x8]
1000658f:	8b 98 dc 00 00 00    	mov    ebx,DWORD PTR [eax+0xdc]
10006595:	8b 45 08             	mov    eax,DWORD PTR [ebp+0x8]
10006598:	8b 80 dc 00 00 00    	mov    eax,DWORD PTR [eax+0xdc]
1000659e:	66 8b 40 06          	mov    ax,WORD PTR [eax+0x6]
100065a2:	0f b7 c8             	movzx  ecx,ax
100065a5:	8b 45 08             	mov    eax,DWORD PTR [ebp+0x8]
100065a8:	8b 80 dc 00 00 00    	mov    eax,DWORD PTR [eax+0xdc]
100065ae:	8b 40 04             	mov    eax,DWORD PTR [eax+0x4]
100065b1:	0f b7 d0             	movzx  edx,ax
100065b4:	8b 45 08             	mov    eax,DWORD PTR [ebp+0x8]
100065b7:	8b 80 e0 00 00 00    	mov    eax,DWORD PTR [eax+0xe0]
100065bd:	83 ec 04             	sub    esp,0x4
100065c0:	53                   	push   ebx
100065c1:	6a 01                	push   0x1
100065c3:	51                   	push   ecx
100065c4:	52                   	push   edx
100065c5:	6a 00                	push   0x0
100065c7:	6a 00                	push   0x0
100065c9:	50                   	push   eax
100065ca:	e8 3d 08 00 00       	call   0x10006e0c
100065cf:	83 c4 20             	add    esp,0x20
100065d2:	8b 45 08             	mov    eax,DWORD PTR [ebp+0x8]
100065d5:	8b 80 e0 00 00 00    	mov    eax,DWORD PTR [eax+0xe0]
100065db:	c7 40 28 f6 63 00 10 	mov    DWORD PTR [eax+0x28],0x100063f6
100065e2:	8b 45 08             	mov    eax,DWORD PTR [ebp+0x8]
100065e5:	8b 80 e0 00 00 00    	mov    eax,DWORD PTR [eax+0xe0]
100065eb:	8b 55 08             	mov    edx,DWORD PTR [ebp+0x8]
100065ee:	89 50 2c             	mov    DWORD PTR [eax+0x2c],edx
100065f1:	8b 45 08             	mov    eax,DWORD PTR [ebp+0x8]
100065f4:	c7 80 f8 00 00 00 45 63 00 10 	mov    DWORD PTR [eax+0xf8],0x10006345
100065fe:	8b 45 08             	mov    eax,DWORD PTR [ebp+0x8]
10006601:	c7 80 fc 00 00 00 00 00 00 00 	mov    DWORD PTR [eax+0xfc],0x0
1000660b:	90                   	nop
1000660c:	8d 65 f4             	lea    esp,[ebp-0xc]
1000660f:	5b                   	pop    ebx
10006610:	5e                   	pop    esi
10006611:	5f                   	pop    edi
10006612:	5d                   	pop    ebp
10006613:	c3                   	ret    
10006614:	55                   	push   ebp
10006615:	89 e5                	mov    ebp,esp
10006617:	8b 45 08             	mov    eax,DWORD PTR [ebp+0x8]
1000661a:	8b 80 e4 00 00 00    	mov    eax,DWORD PTR [eax+0xe4]
10006620:	5d                   	pop    ebp
10006621:	c3                   	ret    
10006622:	55                   	push   ebp
10006623:	89 e5                	mov    ebp,esp
10006625:	8b 45 08             	mov    eax,DWORD PTR [ebp+0x8]
10006628:	8b 80 e8 00 00 00    	mov    eax,DWORD PTR [eax+0xe8]
1000662e:	5d                   	pop    ebp
1000662f:	c3                   	ret    
10006630:	55                   	push   ebp
10006631:	89 e5                	mov    ebp,esp
10006633:	8b 45 08             	mov    eax,DWORD PTR [ebp+0x8]
10006636:	8b 80 ec 00 00 00    	mov    eax,DWORD PTR [eax+0xec]
1000663c:	5d                   	pop    ebp
1000663d:	c3                   	ret    
1000663e:	55                   	push   ebp
1000663f:	89 e5                	mov    ebp,esp
10006641:	8b 45 08             	mov    eax,DWORD PTR [ebp+0x8]
10006644:	8b 80 f0 00 00 00    	mov    eax,DWORD PTR [eax+0xf0]
1000664a:	5d                   	pop    ebp
1000664b:	c3                   	ret    
1000664c:	55                   	push   ebp
1000664d:	89 e5                	mov    ebp,esp
1000664f:	8b 45 08             	mov    eax,DWORD PTR [ebp+0x8]
10006652:	8b 55 0c             	mov    edx,DWORD PTR [ebp+0xc]
10006655:	89 90 e4 00 00 00    	mov    DWORD PTR [eax+0xe4],edx
1000665b:	90                   	nop
1000665c:	5d                   	pop    ebp
1000665d:	c3                   	ret    
1000665e:	55                   	push   ebp
1000665f:	89 e5                	mov    ebp,esp
10006661:	8b 45 08             	mov    eax,DWORD PTR [ebp+0x8]
10006664:	8b 55 0c             	mov    edx,DWORD PTR [ebp+0xc]
10006667:	89 90 e8 00 00 00    	mov    DWORD PTR [eax+0xe8],edx
1000666d:	90                   	nop
1000666e:	5d                   	pop    ebp
1000666f:	c3                   	ret    
10006670:	55                   	push   ebp
10006671:	89 e5                	mov    ebp,esp
10006673:	8b 45 08             	mov    eax,DWORD PTR [ebp+0x8]
10006676:	8b 55 0c             	mov    edx,DWORD PTR [ebp+0xc]
10006679:	89 90 ec 00 00 00    	mov    DWORD PTR [eax+0xec],edx
1000667f:	90                   	nop
10006680:	5d                   	pop    ebp
10006681:	c3                   	ret    
10006682:	55                   	push   ebp
10006683:	89 e5                	mov    ebp,esp
10006685:	8b 45 08             	mov    eax,DWORD PTR [ebp+0x8]
10006688:	8b 55 0c             	mov    edx,DWORD PTR [ebp+0xc]
1000668b:	89 90 f0 00 00 00    	mov    DWORD PTR [eax+0xf0],edx
10006691:	90                   	nop
10006692:	5d                   	pop    ebp
10006693:	c3                   	ret    
10006694:	55                   	push   ebp
10006695:	89 e5                	mov    ebp,esp
10006697:	83 ec 18             	sub    esp,0x18
1000669a:	8b 45 08             	mov    eax,DWORD PTR [ebp+0x8]
1000669d:	50                   	push   eax
1000669e:	6a 00                	push   0x0
100066a0:	6a 09                	push   0x9
100066a2:	6a 2f                	push   0x2f
100066a4:	e8 8b 67 00 00       	call   0x1000ce34
100066a9:	83 c4 10             	add    esp,0x10
100066ac:	8b 45 08             	mov    eax,DWORD PTR [ebp+0x8]
100066af:	8b 90 ec 00 00 00    	mov    edx,DWORD PTR [eax+0xec]
100066b5:	8b 45 08             	mov    eax,DWORD PTR [ebp+0x8]
100066b8:	8b 80 f0 00 00 00    	mov    eax,DWORD PTR [eax+0xf0]
100066be:	0f af c2             	imul   eax,edx
100066c1:	89 45 f4             	mov    DWORD PTR [ebp-0xc],eax
100066c4:	8b 45 08             	mov    eax,DWORD PTR [ebp+0x8]
100066c7:	8b 90 ac 00 00 00    	mov    edx,DWORD PTR [eax+0xac]
100066cd:	8b 45 08             	mov    eax,DWORD PTR [ebp+0x8]
100066d0:	8b 80 b0 00 00 00    	mov    eax,DWORD PTR [eax+0xb0]
100066d6:	0f af c2             	imul   eax,edx
100066d9:	89 45 f0             	mov    DWORD PTR [ebp-0x10],eax
100066dc:	8b 45 08             	mov    eax,DWORD PTR [ebp+0x8]
100066df:	8b 90 ac 00 00 00    	mov    edx,DWORD PTR [eax+0xac]
100066e5:	8b 45 08             	mov    eax,DWORD PTR [ebp+0x8]
100066e8:	89 90 ec 00 00 00    	mov    DWORD PTR [eax+0xec],edx
100066ee:	8b 45 08             	mov    eax,DWORD PTR [ebp+0x8]
100066f1:	8b 90 b0 00 00 00    	mov    edx,DWORD PTR [eax+0xb0]
100066f7:	8b 45 08             	mov    eax,DWORD PTR [ebp+0x8]
100066fa:	89 90 f0 00 00 00    	mov    DWORD PTR [eax+0xf0],edx
10006700:	8b 45 08             	mov    eax,DWORD PTR [ebp+0x8]
10006703:	8b 90 a4 00 00 00    	mov    edx,DWORD PTR [eax+0xa4]
10006709:	8b 45 08             	mov    eax,DWORD PTR [ebp+0x8]
1000670c:	89 90 e4 00 00 00    	mov    DWORD PTR [eax+0xe4],edx
10006712:	8b 45 08             	mov    eax,DWORD PTR [ebp+0x8]
10006715:	8b 90 a8 00 00 00    	mov    edx,DWORD PTR [eax+0xa8]
1000671b:	8b 45 08             	mov    eax,DWORD PTR [ebp+0x8]
1000671e:	89 90 e8 00 00 00    	mov    DWORD PTR [eax+0xe8],edx
10006724:	8b 45 f0             	mov    eax,DWORD PTR [ebp-0x10]
10006727:	3b 45 f4             	cmp    eax,DWORD PTR [ebp-0xc]
1000672a:	0f 8e 91 00 00 00    	jle    0x100067c1
10006730:	8b 45 08             	mov    eax,DWORD PTR [ebp+0x8]
10006733:	8b 80 b4 00 00 00    	mov    eax,DWORD PTR [eax+0xb4]
10006739:	25 00 04 00 00       	and    eax,0x400
1000673e:	85 c0                	test   eax,eax
10006740:	75 7f                	jne    0x100067c1
10006742:	8b 45 08             	mov    eax,DWORD PTR [ebp+0x8]
10006745:	8b 90 ec 00 00 00    	mov    edx,DWORD PTR [eax+0xec]
1000674b:	8b 45 08             	mov    eax,DWORD PTR [ebp+0x8]
1000674e:	8b 80 f0 00 00 00    	mov    eax,DWORD PTR [eax+0xf0]
10006754:	0f af c2             	imul   eax,edx
10006757:	c1 e0 02             	shl    eax,0x2
1000675a:	89 c2                	mov    edx,eax
1000675c:	8b 45 08             	mov    eax,DWORD PTR [ebp+0x8]
1000675f:	8b 80 b8 00 00 00    	mov    eax,DWORD PTR [eax+0xb8]
10006765:	83 ec 08             	sub    esp,0x8
10006768:	52                   	push   edx
10006769:	50                   	push   eax
1000676a:	e8 d5 39 00 00       	call   0x1000a144
1000676f:	83 c4 10             	add    esp,0x10
10006772:	89 c2                	mov    edx,eax
10006774:	8b 45 08             	mov    eax,DWORD PTR [ebp+0x8]
10006777:	89 90 b8 00 00 00    	mov    DWORD PTR [eax+0xb8],edx
1000677d:	8b 45 08             	mov    eax,DWORD PTR [ebp+0x8]
10006780:	8b 90 ec 00 00 00    	mov    edx,DWORD PTR [eax+0xec]
10006786:	8b 45 08             	mov    eax,DWORD PTR [ebp+0x8]
10006789:	8b 80 f0 00 00 00    	mov    eax,DWORD PTR [eax+0xf0]
1000678f:	0f af d0             	imul   edx,eax
10006792:	8b 45 08             	mov    eax,DWORD PTR [ebp+0x8]
10006795:	89 90 bc 00 00 00    	mov    DWORD PTR [eax+0xbc],edx
1000679b:	8b 45 08             	mov    eax,DWORD PTR [ebp+0x8]
1000679e:	8b 80 dc 00 00 00    	mov    eax,DWORD PTR [eax+0xdc]
100067a4:	8b 55 08             	mov    edx,DWORD PTR [ebp+0x8]
100067a7:	8b 92 b8 00 00 00    	mov    edx,DWORD PTR [edx+0xb8]
100067ad:	89 10                	mov    DWORD PTR [eax],edx
100067af:	8b 45 08             	mov    eax,DWORD PTR [ebp+0x8]
100067b2:	8b 90 b8 00 00 00    	mov    edx,DWORD PTR [eax+0xb8]
100067b8:	8b 45 08             	mov    eax,DWORD PTR [ebp+0x8]
100067bb:	89 90 d8 00 00 00    	mov    DWORD PTR [eax+0xd8],edx
100067c1:	8b 45 08             	mov    eax,DWORD PTR [ebp+0x8]
100067c4:	8b 80 ac 00 00 00    	mov    eax,DWORD PTR [eax+0xac]
100067ca:	8b 55 08             	mov    edx,DWORD PTR [ebp+0x8]
100067cd:	8b 92 dc 00 00 00    	mov    edx,DWORD PTR [edx+0xdc]
100067d3:	66 89 42 04          	mov    WORD PTR [edx+0x4],ax
100067d7:	8b 45 08             	mov    eax,DWORD PTR [ebp+0x8]
100067da:	8b 80 b0 00 00 00    	mov    eax,DWORD PTR [eax+0xb0]
100067e0:	8b 55 08             	mov    edx,DWORD PTR [ebp+0x8]
100067e3:	8b 92 dc 00 00 00    	mov    edx,DWORD PTR [edx+0xdc]
100067e9:	66 89 42 06          	mov    WORD PTR [edx+0x6],ax
100067ed:	8b 45 08             	mov    eax,DWORD PTR [ebp+0x8]
100067f0:	8b 80 ec 00 00 00    	mov    eax,DWORD PTR [eax+0xec]
100067f6:	8b 55 08             	mov    edx,DWORD PTR [ebp+0x8]
100067f9:	8b 92 e0 00 00 00    	mov    edx,DWORD PTR [edx+0xe0]
100067ff:	66 89 42 08          	mov    WORD PTR [edx+0x8],ax
10006803:	8b 45 08             	mov    eax,DWORD PTR [ebp+0x8]
10006806:	8b 80 f0 00 00 00    	mov    eax,DWORD PTR [eax+0xf0]
1000680c:	8b 55 08             	mov    edx,DWORD PTR [ebp+0x8]
1000680f:	8b 92 e0 00 00 00    	mov    edx,DWORD PTR [edx+0xe0]
10006815:	66 89 42 0a          	mov    WORD PTR [edx+0xa],ax
10006819:	90                   	nop
1000681a:	c9                   	leave  
1000681b:	c3                   	ret    
1000681c:	55                   	push   ebp
1000681d:	89 e5                	mov    ebp,esp
1000681f:	57                   	push   edi
10006820:	56                   	push   esi
10006821:	53                   	push   ebx
10006822:	83 ec 0c             	sub    esp,0xc
10006825:	8b 45 10             	mov    eax,DWORD PTR [ebp+0x10]
10006828:	01 c0                	add    eax,eax
1000682a:	c1 f8 0e             	sar    eax,0xe
1000682d:	83 f8 0c             	cmp    eax,0xc
10006830:	0f 87 95 00 00 00    	ja     0x100068cb
10006836:	8b 04 85 f4 69 01 10 	mov    eax,DWORD PTR [eax*4+0x100169f4]
1000683d:	ff e0                	jmp    eax
1000683f:	83 ec 04             	sub    esp,0x4
10006842:	83 ec 18             	sub    esp,0x18
10006845:	89 e0                	mov    eax,esp
10006847:	89 c3                	mov    ebx,eax
10006849:	8d 45 0c             	lea    eax,[ebp+0xc]
1000684c:	ba 06 00 00 00       	mov    edx,0x6
10006851:	89 df                	mov    edi,ebx
10006853:	89 c6                	mov    esi,eax
10006855:	89 d1                	mov    ecx,edx
10006857:	f3 a5                	rep movs DWORD PTR es:[edi],DWORD PTR ds:[esi]
10006859:	ff 75 08             	push   DWORD PTR [ebp+0x8]
1000685c:	e8 c9 01 00 00       	call   0x10006a2a
10006861:	83 c4 20             	add    esp,0x20
10006864:	83 ec 0c             	sub    esp,0xc
10006867:	ff 75 08             	push   DWORD PTR [ebp+0x8]
1000686a:	e8 09 02 00 00       	call   0x10006a78
1000686f:	83 c4 10             	add    esp,0x10
10006872:	eb 75                	jmp    0x100068e9
10006874:	83 ec 0c             	sub    esp,0xc
10006877:	ff 75 08             	push   DWORD PTR [ebp+0x8]
1000687a:	e8 0b 03 00 00       	call   0x10006b8a
1000687f:	83 c4 10             	add    esp,0x10
10006882:	8b 45 08             	mov    eax,DWORD PTR [ebp+0x8]
10006885:	50                   	push   eax
10006886:	6a 01                	push   0x1
10006888:	6a 04                	push   0x4
1000688a:	6a 2f                	push   0x2f
1000688c:	e8 a3 65 00 00       	call   0x1000ce34
10006891:	83 c4 10             	add    esp,0x10
10006894:	eb 53                	jmp    0x100068e9
10006896:	83 ec 04             	sub    esp,0x4
10006899:	83 ec 18             	sub    esp,0x18
1000689c:	89 e0                	mov    eax,esp
1000689e:	89 c3                	mov    ebx,eax
100068a0:	8d 45 0c             	lea    eax,[ebp+0xc]
100068a3:	ba 06 00 00 00       	mov    edx,0x6
100068a8:	89 df                	mov    edi,ebx
100068aa:	89 c6                	mov    esi,eax
100068ac:	89 d1                	mov    ecx,edx
100068ae:	f3 a5                	rep movs DWORD PTR es:[edi],DWORD PTR ds:[esi]
100068b0:	ff 75 08             	push   DWORD PTR [ebp+0x8]
100068b3:	e8 d0 00 00 00       	call   0x10006988
100068b8:	83 c4 20             	add    esp,0x20
100068bb:	83 ec 0c             	sub    esp,0xc
100068be:	ff 75 08             	push   DWORD PTR [ebp+0x8]
100068c1:	e8 b2 01 00 00       	call   0x10006a78
100068c6:	83 c4 10             	add    esp,0x10
100068c9:	eb 1e                	jmp    0x100068e9
100068cb:	8a 45 13             	mov    al,BYTE PTR [ebp+0x13]
100068ce:	83 e0 80             	and    eax,0xffffff80
100068d1:	84 c0                	test   al,al
100068d3:	74 13                	je     0x100068e8
100068d5:	83 ec 0c             	sub    esp,0xc
100068d8:	ff 75 08             	push   DWORD PTR [ebp+0x8]
100068db:	e8 aa 02 00 00       	call   0x10006b8a
100068e0:	83 c4 10             	add    esp,0x10
100068e3:	eb 03                	jmp    0x100068e8
100068e5:	90                   	nop
100068e6:	eb 01                	jmp    0x100068e9
100068e8:	90                   	nop
100068e9:	90                   	nop
100068ea:	8d 65 f4             	lea    esp,[ebp-0xc]
100068ed:	5b                   	pop    ebx
100068ee:	5e                   	pop    esi
100068ef:	5f                   	pop    edi
100068f0:	5d                   	pop    ebp
100068f1:	c3                   	ret    
100068f2:	55                   	push   ebp
100068f3:	89 e5                	mov    ebp,esp
100068f5:	57                   	push   edi
100068f6:	56                   	push   esi
100068f7:	53                   	push   ebx
100068f8:	83 ec 2c             	sub    esp,0x2c
100068fb:	83 ec 0c             	sub    esp,0xc
100068fe:	ff 75 08             	push   DWORD PTR [ebp+0x8]
10006901:	e8 ca 03 00 00       	call   0x10006cd0
10006906:	83 c4 10             	add    esp,0x10
10006909:	8d 45 d0             	lea    eax,[ebp-0x30]
1000690c:	83 ec 08             	sub    esp,0x8
1000690f:	ff 75 08             	push   DWORD PTR [ebp+0x8]
10006912:	50                   	push   eax
10006913:	e8 a2 02 00 00       	call   0x10006bba
10006918:	83 c4 0c             	add    esp,0xc
1000691b:	83 ec 04             	sub    esp,0x4
1000691e:	83 ec 18             	sub    esp,0x18
10006921:	89 e0                	mov    eax,esp
10006923:	89 c3                	mov    ebx,eax
10006925:	8d 45 d0             	lea    eax,[ebp-0x30]
10006928:	ba 06 00 00 00       	mov    edx,0x6
1000692d:	89 df                	mov    edi,ebx
1000692f:	89 c6                	mov    esi,eax
10006931:	89 d1                	mov    ecx,edx
10006933:	f3 a5                	rep movs DWORD PTR es:[edi],DWORD PTR ds:[esi]
10006935:	ff 75 08             	push   DWORD PTR [ebp+0x8]
10006938:	e8 df fe ff ff       	call   0x1000681c
1000693d:	83 c4 20             	add    esp,0x20
10006940:	90                   	nop
10006941:	eb c6                	jmp    0x10006909
10006943:	90                   	nop
10006944:	55                   	push   ebp
10006945:	89 e5                	mov    ebp,esp
10006947:	57                   	push   edi
10006948:	56                   	push   esi
10006949:	53                   	push   ebx
1000694a:	83 ec 1c             	sub    esp,0x1c
1000694d:	8b 45 08             	mov    eax,DWORD PTR [ebp+0x8]
10006950:	8b 80 e0 00 00 00    	mov    eax,DWORD PTR [eax+0xe0]
10006956:	89 45 e4             	mov    DWORD PTR [ebp-0x1c],eax
10006959:	83 ec 0c             	sub    esp,0xc
1000695c:	83 ec 10             	sub    esp,0x10
1000695f:	89 e0                	mov    eax,esp
10006961:	89 c3                	mov    ebx,eax
10006963:	8d 45 0c             	lea    eax,[ebp+0xc]
10006966:	ba 04 00 00 00       	mov    edx,0x4
1000696b:	89 df                	mov    edi,ebx
1000696d:	89 c6                	mov    esi,eax
1000696f:	89 d1                	mov    ecx,edx
10006971:	f3 a5                	rep movs DWORD PTR es:[edi],DWORD PTR ds:[esi]
10006973:	ff 75 e4             	push   DWORD PTR [ebp-0x1c]
10006976:	e8 f6 12 00 00       	call   0x10007c71
1000697b:	83 c4 20             	add    esp,0x20
1000697e:	90                   	nop
1000697f:	8d 65 f4             	lea    esp,[ebp-0xc]
10006982:	5b                   	pop    ebx
10006983:	5e                   	pop    esi
10006984:	5f                   	pop    edi
10006985:	5d                   	pop    ebp
10006986:	c3                   	ret    
10006987:	90                   	nop
10006988:	55                   	push   ebp
10006989:	89 e5                	mov    ebp,esp
1000698b:	57                   	push   edi
1000698c:	56                   	push   esi
1000698d:	53                   	push   ebx
1000698e:	83 ec 1c             	sub    esp,0x1c
10006991:	8b 45 20             	mov    eax,DWORD PTR [ebp+0x20]
10006994:	0f b7 c0             	movzx  eax,ax
10006997:	89 45 d8             	mov    DWORD PTR [ebp-0x28],eax
1000699a:	8a 45 11             	mov    al,BYTE PTR [ebp+0x11]
1000699d:	c1 e0 05             	shl    eax,0x5
100069a0:	c0 f8 07             	sar    al,0x7
100069a3:	0f be c0             	movsx  eax,al
100069a6:	89 45 dc             	mov    DWORD PTR [ebp-0x24],eax
100069a9:	8a 45 11             	mov    al,BYTE PTR [ebp+0x11]
100069ac:	c1 e0 04             	shl    eax,0x4
100069af:	c0 f8 07             	sar    al,0x7
100069b2:	0f be c0             	movsx  eax,al
100069b5:	89 45 e0             	mov    DWORD PTR [ebp-0x20],eax
100069b8:	8a 45 11             	mov    al,BYTE PTR [ebp+0x11]
100069bb:	c1 e0 03             	shl    eax,0x3
100069be:	c0 f8 07             	sar    al,0x7
100069c1:	0f be c0             	movsx  eax,al
100069c4:	89 45 e4             	mov    DWORD PTR [ebp-0x1c],eax
100069c7:	83 ec 0c             	sub    esp,0xc
100069ca:	83 ec 10             	sub    esp,0x10
100069cd:	89 e0                	mov    eax,esp
100069cf:	89 c3                	mov    ebx,eax
100069d1:	8d 45 d8             	lea    eax,[ebp-0x28]
100069d4:	ba 04 00 00 00       	mov    edx,0x4
100069d9:	89 df                	mov    edi,ebx
100069db:	89 c6                	mov    esi,eax
100069dd:	89 d1                	mov    ecx,edx
100069df:	f3 a5                	rep movs DWORD PTR es:[edi],DWORD PTR ds:[esi]
100069e1:	ff 75 08             	push   DWORD PTR [ebp+0x8]
100069e4:	e8 5b ff ff ff       	call   0x10006944
100069e9:	83 c4 20             	add    esp,0x20
100069ec:	90                   	nop
100069ed:	8d 65 f4             	lea    esp,[ebp-0xc]
100069f0:	5b                   	pop    ebx
100069f1:	5e                   	pop    esi
100069f2:	5f                   	pop    edi
100069f3:	5d                   	pop    ebp
100069f4:	c3                   	ret    
100069f5:	90                   	nop
100069f6:	55                   	push   ebp
100069f7:	89 e5                	mov    ebp,esp
100069f9:	53                   	push   ebx
100069fa:	83 ec 04             	sub    esp,0x4
100069fd:	8b 45 14             	mov    eax,DWORD PTR [ebp+0x14]
10006a00:	0f b6 d8             	movzx  ebx,al
10006a03:	8b 45 10             	mov    eax,DWORD PTR [ebp+0x10]
10006a06:	0f b7 c8             	movzx  ecx,ax
10006a09:	8b 45 0c             	mov    eax,DWORD PTR [ebp+0xc]
10006a0c:	0f b7 d0             	movzx  edx,ax
10006a0f:	8b 45 08             	mov    eax,DWORD PTR [ebp+0x8]
10006a12:	8b 80 e0 00 00 00    	mov    eax,DWORD PTR [eax+0xe0]
10006a18:	53                   	push   ebx
10006a19:	51                   	push   ecx
10006a1a:	52                   	push   edx
10006a1b:	50                   	push   eax
10006a1c:	e8 21 10 00 00       	call   0x10007a42
10006a21:	83 c4 10             	add    esp,0x10
10006a24:	90                   	nop
10006a25:	8b 5d fc             	mov    ebx,DWORD PTR [ebp-0x4]
10006a28:	c9                   	leave  
10006a29:	c3                   	ret    
10006a2a:	55                   	push   ebp
10006a2b:	89 e5                	mov    ebp,esp
10006a2d:	53                   	push   ebx
10006a2e:	83 ec 04             	sub    esp,0x4
10006a31:	8b 45 10             	mov    eax,DWORD PTR [ebp+0x10]
10006a34:	c1 e0 06             	shl    eax,0x6
10006a37:	66 c1 f8 06          	sar    ax,0x6
10006a3b:	0f bf d0             	movsx  edx,ax
10006a3e:	66 8b 45 16          	mov    ax,WORD PTR [ebp+0x16]
10006a42:	0f bf c8             	movsx  ecx,ax
10006a45:	8b 45 08             	mov    eax,DWORD PTR [ebp+0x8]
10006a48:	8b 80 e8 00 00 00    	mov    eax,DWORD PTR [eax+0xe8]
10006a4e:	29 c1                	sub    ecx,eax
10006a50:	8b 45 14             	mov    eax,DWORD PTR [ebp+0x14]
10006a53:	0f bf d8             	movsx  ebx,ax
10006a56:	8b 45 08             	mov    eax,DWORD PTR [ebp+0x8]
10006a59:	8b 80 e4 00 00 00    	mov    eax,DWORD PTR [eax+0xe4]
10006a5f:	29 c3                	sub    ebx,eax
10006a61:	89 d8                	mov    eax,ebx
10006a63:	52                   	push   edx
10006a64:	51                   	push   ecx
10006a65:	50                   	push   eax
10006a66:	ff 75 08             	push   DWORD PTR [ebp+0x8]
10006a69:	e8 88 ff ff ff       	call   0x100069f6
10006a6e:	83 c4 10             	add    esp,0x10
10006a71:	90                   	nop
10006a72:	8b 5d fc             	mov    ebx,DWORD PTR [ebp-0x4]
10006a75:	c9                   	leave  
10006a76:	c3                   	ret    
10006a77:	90                   	nop
10006a78:	55                   	push   ebp
10006a79:	89 e5                	mov    ebp,esp
10006a7b:	83 ec 28             	sub    esp,0x28
10006a7e:	8b 45 08             	mov    eax,DWORD PTR [ebp+0x8]
10006a81:	8b 80 e0 00 00 00    	mov    eax,DWORD PTR [eax+0xe0]
10006a87:	8b 40 10             	mov    eax,DWORD PTR [eax+0x10]
10006a8a:	83 c0 15             	add    eax,0x15
10006a8d:	89 45 ec             	mov    DWORD PTR [ebp-0x14],eax
10006a90:	c7 45 f4 ff ff ff ff 	mov    DWORD PTR [ebp-0xc],0xffffffff
10006a97:	c7 45 f0 00 00 00 00 	mov    DWORD PTR [ebp-0x10],0x0
10006a9e:	8b 45 08             	mov    eax,DWORD PTR [ebp+0x8]
10006aa1:	8b 80 e0 00 00 00    	mov    eax,DWORD PTR [eax+0xe0]
10006aa7:	8b 40 10             	mov    eax,DWORD PTR [eax+0x10]
10006aaa:	66 8b 40 06          	mov    ax,WORD PTR [eax+0x6]
10006aae:	0f b7 c0             	movzx  eax,ax
10006ab1:	39 45 f0             	cmp    DWORD PTR [ebp-0x10],eax
10006ab4:	7d 6d                	jge    0x10006b23
10006ab6:	8b 45 f0             	mov    eax,DWORD PTR [ebp-0x10]
10006ab9:	c1 f8 03             	sar    eax,0x3
10006abc:	89 c2                	mov    edx,eax
10006abe:	8b 45 ec             	mov    eax,DWORD PTR [ebp-0x14]
10006ac1:	01 d0                	add    eax,edx
10006ac3:	8a 00                	mov    al,BYTE PTR [eax]
10006ac5:	0f b6 d0             	movzx  edx,al
10006ac8:	8b 45 f0             	mov    eax,DWORD PTR [ebp-0x10]
10006acb:	83 e0 07             	and    eax,0x7
10006ace:	88 c1                	mov    cl,al
10006ad0:	d3 fa                	sar    edx,cl
10006ad2:	89 d0                	mov    eax,edx
10006ad4:	83 e0 01             	and    eax,0x1
10006ad7:	85 c0                	test   eax,eax
10006ad9:	74 0e                	je     0x10006ae9
10006adb:	83 7d f4 ff          	cmp    DWORD PTR [ebp-0xc],0xffffffff
10006adf:	75 3a                	jne    0x10006b1b
10006ae1:	8b 45 f0             	mov    eax,DWORD PTR [ebp-0x10]
10006ae4:	89 45 f4             	mov    DWORD PTR [ebp-0xc],eax
10006ae7:	eb 32                	jmp    0x10006b1b
10006ae9:	83 7d f4 ff          	cmp    DWORD PTR [ebp-0xc],0xffffffff
10006aed:	74 2c                	je     0x10006b1b
10006aef:	8b 45 f0             	mov    eax,DWORD PTR [ebp-0x10]
10006af2:	89 45 e8             	mov    DWORD PTR [ebp-0x18],eax
10006af5:	8b 45 e8             	mov    eax,DWORD PTR [ebp-0x18]
10006af8:	c1 e0 10             	shl    eax,0x10
10006afb:	0b 45 f4             	or     eax,DWORD PTR [ebp-0xc]
10006afe:	89 45 e4             	mov    DWORD PTR [ebp-0x1c],eax
10006b01:	8b 45 08             	mov    eax,DWORD PTR [ebp+0x8]
10006b04:	50                   	push   eax
10006b05:	ff 75 e4             	push   DWORD PTR [ebp-0x1c]
10006b08:	6a 0a                	push   0xa
10006b0a:	6a 2f                	push   0x2f
10006b0c:	e8 23 63 00 00       	call   0x1000ce34
10006b11:	83 c4 10             	add    esp,0x10
10006b14:	c7 45 f4 ff ff ff ff 	mov    DWORD PTR [ebp-0xc],0xffffffff
10006b1b:	ff 45 f0             	inc    DWORD PTR [ebp-0x10]
10006b1e:	e9 7b ff ff ff       	jmp    0x10006a9e
10006b23:	83 7d f4 ff          	cmp    DWORD PTR [ebp-0xc],0xffffffff
10006b27:	74 3c                	je     0x10006b65
10006b29:	8b 45 08             	mov    eax,DWORD PTR [ebp+0x8]
10006b2c:	8b 80 e0 00 00 00    	mov    eax,DWORD PTR [eax+0xe0]
10006b32:	8b 40 10             	mov    eax,DWORD PTR [eax+0x10]
10006b35:	66 8b 40 06          	mov    ax,WORD PTR [eax+0x6]
10006b39:	0f b7 c0             	movzx  eax,ax
10006b3c:	89 45 e0             	mov    DWORD PTR [ebp-0x20],eax
10006b3f:	8b 45 e0             	mov    eax,DWORD PTR [ebp-0x20]
10006b42:	c1 e0 10             	shl    eax,0x10
10006b45:	0b 45 f4             	or     eax,DWORD PTR [ebp-0xc]
10006b48:	89 45 dc             	mov    DWORD PTR [ebp-0x24],eax
10006b4b:	8b 45 08             	mov    eax,DWORD PTR [ebp+0x8]
10006b4e:	50                   	push   eax
10006b4f:	ff 75 dc             	push   DWORD PTR [ebp-0x24]
10006b52:	6a 0a                	push   0xa
10006b54:	6a 2f                	push   0x2f
10006b56:	e8 d9 62 00 00       	call   0x1000ce34
10006b5b:	83 c4 10             	add    esp,0x10
10006b5e:	c7 45 f4 ff ff ff ff 	mov    DWORD PTR [ebp-0xc],0xffffffff
10006b65:	8b 45 08             	mov    eax,DWORD PTR [ebp+0x8]
10006b68:	8b 80 e0 00 00 00    	mov    eax,DWORD PTR [eax+0xe0]
10006b6e:	8b 40 10             	mov    eax,DWORD PTR [eax+0x10]
10006b71:	83 c0 15             	add    eax,0x15
10006b74:	83 ec 04             	sub    esp,0x4
10006b77:	68 30 02 00 00       	push   0x230
10006b7c:	6a 00                	push   0x0
10006b7e:	50                   	push   eax
10006b7f:	e8 89 34 00 00       	call   0x1000a00d
10006b84:	83 c4 10             	add    esp,0x10
10006b87:	90                   	nop
10006b88:	c9                   	leave  
10006b89:	c3                   	ret    
10006b8a:	55                   	push   ebp
10006b8b:	89 e5                	mov    ebp,esp
10006b8d:	83 ec 08             	sub    esp,0x8
10006b90:	8b 45 08             	mov    eax,DWORD PTR [ebp+0x8]
10006b93:	8b 80 e0 00 00 00    	mov    eax,DWORD PTR [eax+0xe0]
10006b99:	83 ec 04             	sub    esp,0x4
10006b9c:	6a 01                	push   0x1
10006b9e:	6a 00                	push   0x0
10006ba0:	50                   	push   eax
10006ba1:	e8 0d 07 00 00       	call   0x100072b3
10006ba6:	83 c4 10             	add    esp,0x10
10006ba9:	83 ec 0c             	sub    esp,0xc
10006bac:	ff 75 08             	push   DWORD PTR [ebp+0x8]
10006baf:	e8 c4 fe ff ff       	call   0x10006a78
10006bb4:	83 c4 10             	add    esp,0x10
10006bb7:	90                   	nop
10006bb8:	c9                   	leave  
10006bb9:	c3                   	ret    
10006bba:	55                   	push   ebp
10006bbb:	89 e5                	mov    ebp,esp
10006bbd:	57                   	push   edi
10006bbe:	56                   	push   esi
10006bbf:	53                   	push   ebx
10006bc0:	83 ec 2c             	sub    esp,0x2c
10006bc3:	8b 45 0c             	mov    eax,DWORD PTR [ebp+0xc]
10006bc6:	50                   	push   eax
10006bc7:	6a 00                	push   0x0
10006bc9:	6a 06                	push   0x6
10006bcb:	6a 2f                	push   0x2f
10006bcd:	e8 62 62 00 00       	call   0x1000ce34
10006bd2:	83 c4 10             	add    esp,0x10
10006bd5:	89 45 e4             	mov    DWORD PTR [ebp-0x1c],eax
10006bd8:	83 7d e4 00          	cmp    DWORD PTR [ebp-0x1c],0x0
10006bdc:	79 2b                	jns    0x10006c09
10006bde:	8b 45 d0             	mov    eax,DWORD PTR [ebp-0x30]
10006be1:	25 ff 1f 00 80       	and    eax,0x80001fff
10006be6:	89 45 d0             	mov    DWORD PTR [ebp-0x30],eax
10006be9:	8a 45 d3             	mov    al,BYTE PTR [ebp-0x2d]
10006bec:	83 e0 7f             	and    eax,0x7f
10006bef:	88 45 d3             	mov    BYTE PTR [ebp-0x2d],al
10006bf2:	8b 45 08             	mov    eax,DWORD PTR [ebp+0x8]
10006bf5:	89 c3                	mov    ebx,eax
10006bf7:	8d 45 cc             	lea    eax,[ebp-0x34]
10006bfa:	ba 06 00 00 00       	mov    edx,0x6
10006bff:	89 df                	mov    edi,ebx
10006c01:	89 c6                	mov    esi,eax
10006c03:	89 d1                	mov    ecx,edx
10006c05:	f3 a5                	rep movs DWORD PTR es:[edi],DWORD PTR ds:[esi]
10006c07:	eb 37                	jmp    0x10006c40
10006c09:	8b 45 0c             	mov    eax,DWORD PTR [ebp+0xc]
10006c0c:	8a 80 c7 00 00 00    	mov    al,BYTE PTR [eax+0xc7]
10006c12:	83 e0 80             	and    eax,0xffffff80
10006c15:	84 c0                	test   al,al
10006c17:	74 0e                	je     0x10006c27
10006c19:	83 ec 0c             	sub    esp,0xc
10006c1c:	ff 75 0c             	push   DWORD PTR [ebp+0xc]
10006c1f:	e8 70 fa ff ff       	call   0x10006694
10006c24:	83 c4 10             	add    esp,0x10
10006c27:	8b 55 08             	mov    edx,DWORD PTR [ebp+0x8]
10006c2a:	8b 45 0c             	mov    eax,DWORD PTR [ebp+0xc]
10006c2d:	8d 98 c0 00 00 00    	lea    ebx,[eax+0xc0]
10006c33:	b8 06 00 00 00       	mov    eax,0x6
10006c38:	89 d7                	mov    edi,edx
10006c3a:	89 de                	mov    esi,ebx
10006c3c:	89 c1                	mov    ecx,eax
10006c3e:	f3 a5                	rep movs DWORD PTR es:[edi],DWORD PTR ds:[esi]
10006c40:	8b 45 08             	mov    eax,DWORD PTR [ebp+0x8]
10006c43:	8d 65 f4             	lea    esp,[ebp-0xc]
10006c46:	5b                   	pop    ebx
10006c47:	5e                   	pop    esi
10006c48:	5f                   	pop    edi
10006c49:	5d                   	pop    ebp
10006c4a:	c2 04 00             	ret    0x4
10006c4d:	90                   	nop
10006c4e:	55                   	push   ebp
10006c4f:	89 e5                	mov    ebp,esp
10006c51:	83 ec 08             	sub    esp,0x8
10006c54:	8b 45 0c             	mov    eax,DWORD PTR [ebp+0xc]
10006c57:	8b 50 0c             	mov    edx,DWORD PTR [eax+0xc]
10006c5a:	8b 45 08             	mov    eax,DWORD PTR [ebp+0x8]
10006c5d:	8b 80 e0 00 00 00    	mov    eax,DWORD PTR [eax+0xe0]
10006c63:	83 ec 08             	sub    esp,0x8
10006c66:	52                   	push   edx
10006c67:	50                   	push   eax
10006c68:	e8 15 11 00 00       	call   0x10007d82
10006c6d:	83 c4 10             	add    esp,0x10
10006c70:	8b 45 0c             	mov    eax,DWORD PTR [ebp+0xc]
10006c73:	8b 55 08             	mov    edx,DWORD PTR [ebp+0x8]
10006c76:	89 50 04             	mov    DWORD PTR [eax+0x4],edx
10006c79:	90                   	nop
10006c7a:	c9                   	leave  
10006c7b:	c3                   	ret    
10006c7c:	55                   	push   ebp
10006c7d:	89 e5                	mov    ebp,esp
10006c7f:	83 ec 08             	sub    esp,0x8
10006c82:	8b 45 08             	mov    eax,DWORD PTR [ebp+0x8]
10006c85:	8b 80 e0 00 00 00    	mov    eax,DWORD PTR [eax+0xe0]
10006c8b:	85 c0                	test   eax,eax
10006c8d:	74 38                	je     0x10006cc7
10006c8f:	83 7d 0c 00          	cmp    DWORD PTR [ebp+0xc],0x0
10006c93:	74 35                	je     0x10006cca
10006c95:	8b 45 0c             	mov    eax,DWORD PTR [ebp+0xc]
10006c98:	8b 40 0c             	mov    eax,DWORD PTR [eax+0xc]
10006c9b:	85 c0                	test   eax,eax
10006c9d:	74 2e                	je     0x10006ccd
10006c9f:	8b 45 0c             	mov    eax,DWORD PTR [ebp+0xc]
10006ca2:	8b 50 0c             	mov    edx,DWORD PTR [eax+0xc]
10006ca5:	8b 45 08             	mov    eax,DWORD PTR [ebp+0x8]
10006ca8:	8b 80 e0 00 00 00    	mov    eax,DWORD PTR [eax+0xe0]
10006cae:	83 ec 08             	sub    esp,0x8
10006cb1:	52                   	push   edx
10006cb2:	50                   	push   eax
10006cb3:	e8 10 11 00 00       	call   0x10007dc8
10006cb8:	83 c4 10             	add    esp,0x10
10006cbb:	8b 45 0c             	mov    eax,DWORD PTR [ebp+0xc]
10006cbe:	c7 40 04 00 00 00 00 	mov    DWORD PTR [eax+0x4],0x0
10006cc5:	eb 07                	jmp    0x10006cce
10006cc7:	90                   	nop
10006cc8:	eb 04                	jmp    0x10006cce
10006cca:	90                   	nop
10006ccb:	eb 01                	jmp    0x10006cce
10006ccd:	90                   	nop
10006cce:	c9                   	leave  
10006ccf:	c3                   	ret    
10006cd0:	55                   	push   ebp
10006cd1:	89 e5                	mov    ebp,esp
10006cd3:	83 ec 08             	sub    esp,0x8
10006cd6:	8b 45 08             	mov    eax,DWORD PTR [ebp+0x8]
10006cd9:	8b 80 b4 00 00 00    	mov    eax,DWORD PTR [eax+0xb4]
10006cdf:	80 e4 fd             	and    ah,0xfd
10006ce2:	89 c2                	mov    edx,eax
10006ce4:	8b 45 08             	mov    eax,DWORD PTR [ebp+0x8]
10006ce7:	89 90 b4 00 00 00    	mov    DWORD PTR [eax+0xb4],edx
10006ced:	8b 45 08             	mov    eax,DWORD PTR [ebp+0x8]
10006cf0:	50                   	push   eax
10006cf1:	6a 00                	push   0x0
10006cf3:	6a 07                	push   0x7
10006cf5:	6a 2f                	push   0x2f
10006cf7:	e8 38 61 00 00       	call   0x1000ce34
10006cfc:	83 c4 10             	add    esp,0x10
10006cff:	8b 45 08             	mov    eax,DWORD PTR [ebp+0x8]
10006d02:	50                   	push   eax
10006d03:	6a 00                	push   0x0
10006d05:	6a 08                	push   0x8
10006d07:	6a 2f                	push   0x2f
10006d09:	e8 26 61 00 00       	call   0x1000ce34
10006d0e:	83 c4 10             	add    esp,0x10
10006d11:	83 ec 0c             	sub    esp,0xc
10006d14:	ff 75 08             	push   DWORD PTR [ebp+0x8]
10006d17:	e8 78 f9 ff ff       	call   0x10006694
10006d1c:	83 c4 10             	add    esp,0x10
10006d1f:	83 ec 0c             	sub    esp,0xc
10006d22:	ff 75 08             	push   DWORD PTR [ebp+0x8]
10006d25:	e8 60 fe ff ff       	call   0x10006b8a
10006d2a:	83 c4 10             	add    esp,0x10
10006d2d:	90                   	nop
10006d2e:	c9                   	leave  
10006d2f:	c3                   	ret    
10006d30:	66 a1 04 ca 01 10    	mov    ax,ds:0x1001ca04
10006d36:	0f b7 d0             	movzx  edx,ax
10006d39:	89 d0                	mov    eax,edx
10006d3b:	c1 e0 02             	shl    eax,0x2
10006d3e:	01 d0                	add    eax,edx
10006d40:	c1 e0 04             	shl    eax,0x4
10006d43:	29 d0                	sub    eax,edx
10006d45:	8d 0c 85 00 00 00 00 	lea    ecx,[eax*4+0x0]
10006d4c:	01 c8                	add    eax,ecx
10006d4e:	01 c0                	add    eax,eax
10006d50:	01 d0                	add    eax,edx
10006d52:	c1 e0 04             	shl    eax,0x4
10006d55:	01 d0                	add    eax,edx
10006d57:	05 39 30 00 00       	add    eax,0x3039
10006d5c:	25 ff 00 00 80       	and    eax,0x800000ff
10006d61:	85 c0                	test   eax,eax
10006d63:	79 07                	jns    0x10006d6c
10006d65:	48                   	dec    eax
10006d66:	0d 00 ff ff ff       	or     eax,0xffffff00
10006d6b:	40                   	inc    eax
10006d6c:	66 a3 04 ca 01 10    	mov    ds:0x1001ca04,ax
10006d72:	66 a1 04 ca 01 10    	mov    ax,ds:0x1001ca04
10006d78:	c3                   	ret    
10006d79:	55                   	push   ebp
10006d7a:	89 e5                	mov    ebp,esp
10006d7c:	56                   	push   esi
10006d7d:	53                   	push   ebx
10006d7e:	83 ec 30             	sub    esp,0x30
10006d81:	8b 75 08             	mov    esi,DWORD PTR [ebp+0x8]
10006d84:	8b 5d 0c             	mov    ebx,DWORD PTR [ebp+0xc]
10006d87:	8b 4d 10             	mov    ecx,DWORD PTR [ebp+0x10]
10006d8a:	8b 55 14             	mov    edx,DWORD PTR [ebp+0x14]
10006d8d:	8b 45 18             	mov    eax,DWORD PTR [ebp+0x18]
10006d90:	66 89 75 e4          	mov    WORD PTR [ebp-0x1c],si
10006d94:	66 89 5d e0          	mov    WORD PTR [ebp-0x20],bx
10006d98:	66 89 4d dc          	mov    WORD PTR [ebp-0x24],cx
10006d9c:	66 89 55 d8          	mov    WORD PTR [ebp-0x28],dx
10006da0:	66 89 45 d4          	mov    WORD PTR [ebp-0x2c],ax
10006da4:	83 ec 0c             	sub    esp,0xc
10006da7:	6a 50                	push   0x50
10006da9:	e8 b6 29 00 00       	call   0x10009764
10006dae:	83 c4 10             	add    esp,0x10
10006db1:	89 45 f4             	mov    DWORD PTR [ebp-0xc],eax
10006db4:	83 7d f4 00          	cmp    DWORD PTR [ebp-0xc],0x0
10006db8:	75 05                	jne    0x10006dbf
10006dba:	8b 45 f4             	mov    eax,DWORD PTR [ebp-0xc]
10006dbd:	eb 46                	jmp    0x10006e05
10006dbf:	0f b7 75 d4          	movzx  esi,WORD PTR [ebp-0x2c]
10006dc3:	0f b7 5d d8          	movzx  ebx,WORD PTR [ebp-0x28]
10006dc7:	0f b7 4d dc          	movzx  ecx,WORD PTR [ebp-0x24]
10006dcb:	0f bf 55 e0          	movsx  edx,WORD PTR [ebp-0x20]
10006dcf:	0f bf 45 e4          	movsx  eax,WORD PTR [ebp-0x1c]
10006dd3:	83 ec 04             	sub    esp,0x4
10006dd6:	ff 75 1c             	push   DWORD PTR [ebp+0x1c]
10006dd9:	56                   	push   esi
10006dda:	53                   	push   ebx
10006ddb:	51                   	push   ecx
10006ddc:	52                   	push   edx
10006ddd:	50                   	push   eax
10006dde:	ff 75 f4             	push   DWORD PTR [ebp-0xc]
10006de1:	e8 26 00 00 00       	call   0x10006e0c
10006de6:	83 c4 20             	add    esp,0x20
10006de9:	85 c0                	test   eax,eax
10006deb:	75 15                	jne    0x10006e02
10006ded:	83 ec 0c             	sub    esp,0xc
10006df0:	ff 75 f4             	push   DWORD PTR [ebp-0xc]
10006df3:	e8 84 29 00 00       	call   0x1000977c
10006df8:	83 c4 10             	add    esp,0x10
10006dfb:	b8 00 00 00 00       	mov    eax,0x0
10006e00:	eb 03                	jmp    0x10006e05
10006e02:	8b 45 f4             	mov    eax,DWORD PTR [ebp-0xc]
10006e05:	8d 65 f8             	lea    esp,[ebp-0x8]
10006e08:	5b                   	pop    ebx
10006e09:	5e                   	pop    esi
10006e0a:	5d                   	pop    ebp
10006e0b:	c3                   	ret    
10006e0c:	55                   	push   ebp
10006e0d:	89 e5                	mov    ebp,esp
10006e0f:	56                   	push   esi
10006e10:	53                   	push   ebx
10006e11:	83 ec 20             	sub    esp,0x20
10006e14:	8b 75 0c             	mov    esi,DWORD PTR [ebp+0xc]
10006e17:	8b 5d 10             	mov    ebx,DWORD PTR [ebp+0x10]
10006e1a:	8b 4d 14             	mov    ecx,DWORD PTR [ebp+0x14]
10006e1d:	8b 55 18             	mov    edx,DWORD PTR [ebp+0x18]
10006e20:	8b 45 1c             	mov    eax,DWORD PTR [ebp+0x1c]
10006e23:	66 89 75 f4          	mov    WORD PTR [ebp-0xc],si
10006e27:	66 89 5d f0          	mov    WORD PTR [ebp-0x10],bx
10006e2b:	66 89 4d ec          	mov    WORD PTR [ebp-0x14],cx
10006e2f:	66 89 55 e8          	mov    WORD PTR [ebp-0x18],dx
10006e33:	66 89 45 e4          	mov    WORD PTR [ebp-0x1c],ax
10006e37:	e8 9c b6 ff ff       	call   0x100024d8
10006e3c:	89 c2                	mov    edx,eax
10006e3e:	8b 45 08             	mov    eax,DWORD PTR [ebp+0x8]
10006e41:	89 50 1c             	mov    DWORD PTR [eax+0x1c],edx
10006e44:	8b 45 08             	mov    eax,DWORD PTR [ebp+0x8]
10006e47:	8b 40 1c             	mov    eax,DWORD PTR [eax+0x1c]
10006e4a:	85 c0                	test   eax,eax
10006e4c:	75 0a                	jne    0x10006e58
10006e4e:	b8 00 00 00 00       	mov    eax,0x0
10006e53:	e9 d0 00 00 00       	jmp    0x10006f28
10006e58:	8b 55 08             	mov    edx,DWORD PTR [ebp+0x8]
10006e5b:	8b 45 f4             	mov    eax,DWORD PTR [ebp-0xc]
10006e5e:	66 89 42 04          	mov    WORD PTR [edx+0x4],ax
10006e62:	8b 55 08             	mov    edx,DWORD PTR [ebp+0x8]
10006e65:	8b 45 f0             	mov    eax,DWORD PTR [ebp-0x10]
10006e68:	66 89 42 06          	mov    WORD PTR [edx+0x6],ax
10006e6c:	8b 55 08             	mov    edx,DWORD PTR [ebp+0x8]
10006e6f:	8b 45 ec             	mov    eax,DWORD PTR [ebp-0x14]
10006e72:	66 89 42 08          	mov    WORD PTR [edx+0x8],ax
10006e76:	8b 55 08             	mov    edx,DWORD PTR [ebp+0x8]
10006e79:	8b 45 e8             	mov    eax,DWORD PTR [ebp-0x18]
10006e7c:	66 89 42 0a          	mov    WORD PTR [edx+0xa],ax
10006e80:	8b 45 08             	mov    eax,DWORD PTR [ebp+0x8]
10006e83:	8b 55 20             	mov    edx,DWORD PTR [ebp+0x20]
10006e86:	89 50 10             	mov    DWORD PTR [eax+0x10],edx
10006e89:	8b 55 08             	mov    edx,DWORD PTR [ebp+0x8]
10006e8c:	8b 45 e4             	mov    eax,DWORD PTR [ebp-0x1c]
10006e8f:	66 89 42 0c          	mov    WORD PTR [edx+0xc],ax
10006e93:	8b 45 08             	mov    eax,DWORD PTR [ebp+0x8]
10006e96:	c7 00 00 00 00 00    	mov    DWORD PTR [eax],0x0
10006e9c:	8b 45 08             	mov    eax,DWORD PTR [ebp+0x8]
10006e9f:	c7 40 14 00 00 00 00 	mov    DWORD PTR [eax+0x14],0x0
10006ea6:	8b 45 08             	mov    eax,DWORD PTR [ebp+0x8]
10006ea9:	66 c7 40 20 00 00    	mov    WORD PTR [eax+0x20],0x0
10006eaf:	8b 45 08             	mov    eax,DWORD PTR [ebp+0x8]
10006eb2:	66 c7 40 22 00 00    	mov    WORD PTR [eax+0x22],0x0
10006eb8:	8b 45 08             	mov    eax,DWORD PTR [ebp+0x8]
10006ebb:	c6 40 24 00          	mov    BYTE PTR [eax+0x24],0x0
10006ebf:	8b 45 08             	mov    eax,DWORD PTR [ebp+0x8]
10006ec2:	c7 40 28 00 00 00 00 	mov    DWORD PTR [eax+0x28],0x0
10006ec9:	8b 45 08             	mov    eax,DWORD PTR [ebp+0x8]
10006ecc:	c7 40 30 00 00 00 00 	mov    DWORD PTR [eax+0x30],0x0
10006ed3:	8b 45 08             	mov    eax,DWORD PTR [ebp+0x8]
10006ed6:	c7 40 34 00 00 00 00 	mov    DWORD PTR [eax+0x34],0x0
10006edd:	8b 45 08             	mov    eax,DWORD PTR [ebp+0x8]
10006ee0:	c7 40 40 00 00 00 00 	mov    DWORD PTR [eax+0x40],0x0
10006ee7:	8b 45 08             	mov    eax,DWORD PTR [ebp+0x8]
10006eea:	c7 40 3c 00 00 00 00 	mov    DWORD PTR [eax+0x3c],0x0
10006ef1:	8b 45 08             	mov    eax,DWORD PTR [ebp+0x8]
10006ef4:	c7 40 38 00 00 00 00 	mov    DWORD PTR [eax+0x38],0x0
10006efb:	8b 45 08             	mov    eax,DWORD PTR [ebp+0x8]
10006efe:	c7 40 48 00 00 00 00 	mov    DWORD PTR [eax+0x48],0x0
10006f05:	8b 45 08             	mov    eax,DWORD PTR [ebp+0x8]
10006f08:	c7 40 44 00 00 00 00 	mov    DWORD PTR [eax+0x44],0x0
10006f0f:	8b 45 08             	mov    eax,DWORD PTR [ebp+0x8]
10006f12:	c7 40 18 00 00 00 00 	mov    DWORD PTR [eax+0x18],0x0
10006f19:	8b 45 08             	mov    eax,DWORD PTR [ebp+0x8]
10006f1c:	c7 40 4c 00 00 00 00 	mov    DWORD PTR [eax+0x4c],0x0
10006f23:	b8 01 00 00 00       	mov    eax,0x1
10006f28:	83 c4 20             	add    esp,0x20
10006f2b:	5b                   	pop    ebx
10006f2c:	5e                   	pop    esi
10006f2d:	5d                   	pop    ebp
10006f2e:	c3                   	ret    
10006f2f:	55                   	push   ebp
10006f30:	89 e5                	mov    ebp,esp
10006f32:	53                   	push   ebx
10006f33:	83 ec 04             	sub    esp,0x4
10006f36:	8b 45 08             	mov    eax,DWORD PTR [ebp+0x8]
10006f39:	8b 00                	mov    eax,DWORD PTR [eax]
10006f3b:	85 c0                	test   eax,eax
10006f3d:	74 1e                	je     0x10006f5d
10006f3f:	8b 45 08             	mov    eax,DWORD PTR [ebp+0x8]
10006f42:	8b 40 04             	mov    eax,DWORD PTR [eax+0x4]
10006f45:	0f bf d8             	movsx  ebx,ax
10006f48:	8b 45 08             	mov    eax,DWORD PTR [ebp+0x8]
10006f4b:	8b 00                	mov    eax,DWORD PTR [eax]
10006f4d:	83 ec 0c             	sub    esp,0xc
10006f50:	50                   	push   eax
10006f51:	e8 d9 ff ff ff       	call   0x10006f2f
10006f56:	83 c4 10             	add    esp,0x10
10006f59:	01 d8                	add    eax,ebx
10006f5b:	eb 07                	jmp    0x10006f64
10006f5d:	8b 45 08             	mov    eax,DWORD PTR [ebp+0x8]
10006f60:	8b 40 04             	mov    eax,DWORD PTR [eax+0x4]
10006f63:	98                   	cwde   
10006f64:	8b 5d fc             	mov    ebx,DWORD PTR [ebp-0x4]
10006f67:	c9                   	leave  
10006f68:	c3                   	ret    
10006f69:	55                   	push   ebp
10006f6a:	89 e5                	mov    ebp,esp
10006f6c:	53                   	push   ebx
10006f6d:	83 ec 04             	sub    esp,0x4
10006f70:	8b 45 08             	mov    eax,DWORD PTR [ebp+0x8]
10006f73:	8b 00                	mov    eax,DWORD PTR [eax]
10006f75:	85 c0                	test   eax,eax
10006f77:	74 1f                	je     0x10006f98
10006f79:	8b 45 08             	mov    eax,DWORD PTR [ebp+0x8]
10006f7c:	66 8b 40 06          	mov    ax,WORD PTR [eax+0x6]
10006f80:	0f bf d8             	movsx  ebx,ax
10006f83:	8b 45 08             	mov    eax,DWORD PTR [ebp+0x8]
10006f86:	8b 00                	mov    eax,DWORD PTR [eax]
10006f88:	83 ec 0c             	sub    esp,0xc
10006f8b:	50                   	push   eax
10006f8c:	e8 d8 ff ff ff       	call   0x10006f69
10006f91:	83 c4 10             	add    esp,0x10
10006f94:	01 d8                	add    eax,ebx
10006f96:	eb 08                	jmp    0x10006fa0
10006f98:	8b 45 08             	mov    eax,DWORD PTR [ebp+0x8]
10006f9b:	66 8b 40 06          	mov    ax,WORD PTR [eax+0x6]
10006f9f:	98                   	cwde   
10006fa0:	8b 5d fc             	mov    ebx,DWORD PTR [ebp-0x4]
10006fa3:	c9                   	leave  
10006fa4:	c3                   	ret    
10006fa5:	90                   	nop
10006fa6:	c3                   	ret    
10006fa7:	55                   	push   ebp
10006fa8:	89 e5                	mov    ebp,esp
10006faa:	53                   	push   ebx
10006fab:	83 ec 24             	sub    esp,0x24
10006fae:	8b 45 08             	mov    eax,DWORD PTR [ebp+0x8]
10006fb1:	8b 40 10             	mov    eax,DWORD PTR [eax+0x10]
10006fb4:	85 c0                	test   eax,eax
10006fb6:	0f 84 f9 01 00 00    	je     0x100071b5
10006fbc:	83 ec 0c             	sub    esp,0xc
10006fbf:	ff 75 08             	push   DWORD PTR [ebp+0x8]
10006fc2:	e8 68 ff ff ff       	call   0x10006f2f
10006fc7:	83 c4 10             	add    esp,0x10
10006fca:	89 45 f0             	mov    DWORD PTR [ebp-0x10],eax
10006fcd:	83 ec 0c             	sub    esp,0xc
10006fd0:	ff 75 08             	push   DWORD PTR [ebp+0x8]
10006fd3:	e8 91 ff ff ff       	call   0x10006f69
10006fd8:	83 c4 10             	add    esp,0x10
10006fdb:	89 45 ec             	mov    DWORD PTR [ebp-0x14],eax
10006fde:	8b 45 08             	mov    eax,DWORD PTR [ebp+0x8]
10006fe1:	8b 40 08             	mov    eax,DWORD PTR [eax+0x8]
10006fe4:	0f b7 d0             	movzx  edx,ax
10006fe7:	8b 45 f0             	mov    eax,DWORD PTR [ebp-0x10]
10006fea:	01 d0                	add    eax,edx
10006fec:	8d 50 ff             	lea    edx,[eax-0x1]
10006fef:	8b 45 08             	mov    eax,DWORD PTR [ebp+0x8]
10006ff2:	66 8b 40 0a          	mov    ax,WORD PTR [eax+0xa]
10006ff6:	0f b7 c8             	movzx  ecx,ax
10006ff9:	8b 45 ec             	mov    eax,DWORD PTR [ebp-0x14]
10006ffc:	01 c8                	add    eax,ecx
10006ffe:	48                   	dec    eax
10006fff:	52                   	push   edx
10007000:	50                   	push   eax
10007001:	ff 75 f0             	push   DWORD PTR [ebp-0x10]
10007004:	ff 75 ec             	push   DWORD PTR [ebp-0x14]
10007007:	e8 ec b6 ff ff       	call   0x100026f8
1000700c:	83 c4 10             	add    esp,0x10
1000700f:	89 45 e8             	mov    DWORD PTR [ebp-0x18],eax
10007012:	8b 45 08             	mov    eax,DWORD PTR [ebp+0x8]
10007015:	8b 00                	mov    eax,DWORD PTR [eax]
10007017:	85 c0                	test   eax,eax
10007019:	0f 85 a6 00 00 00    	jne    0x100070c5
1000701f:	83 7d 10 00          	cmp    DWORD PTR [ebp+0x10],0x0
10007023:	0f 84 82 00 00 00    	je     0x100070ab
10007029:	c7 45 f4 00 00 00 00 	mov    DWORD PTR [ebp-0xc],0x0
10007030:	eb 53                	jmp    0x10007085
10007032:	8b 45 f4             	mov    eax,DWORD PTR [ebp-0xc]
10007035:	83 ec 08             	sub    esp,0x8
10007038:	50                   	push   eax
10007039:	ff 75 10             	push   DWORD PTR [ebp+0x10]
1000703c:	e8 4d b5 ff ff       	call   0x1000258e
10007041:	83 c4 10             	add    esp,0x10
10007044:	89 45 e4             	mov    DWORD PTR [ebp-0x1c],eax
10007047:	8b 45 e4             	mov    eax,DWORD PTR [ebp-0x1c]
1000704a:	8b 58 0c             	mov    ebx,DWORD PTR [eax+0xc]
1000704d:	8b 45 e4             	mov    eax,DWORD PTR [ebp-0x1c]
10007050:	8b 48 08             	mov    ecx,DWORD PTR [eax+0x8]
10007053:	8b 45 e4             	mov    eax,DWORD PTR [ebp-0x1c]
10007056:	8b 50 04             	mov    edx,DWORD PTR [eax+0x4]
10007059:	8b 45 e4             	mov    eax,DWORD PTR [ebp-0x1c]
1000705c:	8b 00                	mov    eax,DWORD PTR [eax]
1000705e:	53                   	push   ebx
1000705f:	51                   	push   ecx
10007060:	52                   	push   edx
10007061:	50                   	push   eax
10007062:	e8 91 b6 ff ff       	call   0x100026f8
10007067:	83 c4 10             	add    esp,0x10
1000706a:	89 45 e0             	mov    DWORD PTR [ebp-0x20],eax
1000706d:	8b 45 08             	mov    eax,DWORD PTR [ebp+0x8]
10007070:	8b 40 10             	mov    eax,DWORD PTR [eax+0x10]
10007073:	83 ec 08             	sub    esp,0x8
10007076:	ff 75 e0             	push   DWORD PTR [ebp-0x20]
10007079:	50                   	push   eax
1000707a:	e8 20 ae ff ff       	call   0x10001e9f
1000707f:	83 c4 10             	add    esp,0x10
10007082:	ff 45 f4             	inc    DWORD PTR [ebp-0xc]
10007085:	8b 45 10             	mov    eax,DWORD PTR [ebp+0x10]
10007088:	8b 10                	mov    edx,DWORD PTR [eax]
1000708a:	8b 45 f4             	mov    eax,DWORD PTR [ebp-0xc]
1000708d:	39 c2                	cmp    edx,eax
1000708f:	77 a1                	ja     0x10007032
10007091:	8b 45 08             	mov    eax,DWORD PTR [ebp+0x8]
10007094:	8b 40 10             	mov    eax,DWORD PTR [eax+0x10]
10007097:	83 ec 08             	sub    esp,0x8
1000709a:	ff 75 e8             	push   DWORD PTR [ebp-0x18]
1000709d:	50                   	push   eax
1000709e:	e8 14 ac ff ff       	call   0x10001cb7
100070a3:	83 c4 10             	add    esp,0x10
100070a6:	e9 0b 01 00 00       	jmp    0x100071b6
100070ab:	8b 45 08             	mov    eax,DWORD PTR [ebp+0x8]
100070ae:	8b 40 10             	mov    eax,DWORD PTR [eax+0x10]
100070b1:	83 ec 08             	sub    esp,0x8
100070b4:	ff 75 e8             	push   DWORD PTR [ebp-0x18]
100070b7:	50                   	push   eax
100070b8:	e8 e2 ad ff ff       	call   0x10001e9f
100070bd:	83 c4 10             	add    esp,0x10
100070c0:	e9 f1 00 00 00       	jmp    0x100071b6
100070c5:	8b 45 08             	mov    eax,DWORD PTR [ebp+0x8]
100070c8:	8b 00                	mov    eax,DWORD PTR [eax]
100070ca:	83 ec 04             	sub    esp,0x4
100070cd:	ff 75 10             	push   DWORD PTR [ebp+0x10]
100070d0:	6a 01                	push   0x1
100070d2:	50                   	push   eax
100070d3:	e8 cf fe ff ff       	call   0x10006fa7
100070d8:	83 c4 10             	add    esp,0x10
100070db:	8b 45 08             	mov    eax,DWORD PTR [ebp+0x8]
100070de:	8b 40 10             	mov    eax,DWORD PTR [eax+0x10]
100070e1:	83 ec 08             	sub    esp,0x8
100070e4:	ff 75 e8             	push   DWORD PTR [ebp-0x18]
100070e7:	50                   	push   eax
100070e8:	e8 ca ab ff ff       	call   0x10001cb7
100070ed:	83 c4 10             	add    esp,0x10
100070f0:	8b 45 08             	mov    eax,DWORD PTR [ebp+0x8]
100070f3:	8b 00                	mov    eax,DWORD PTR [eax]
100070f5:	83 ec 08             	sub    esp,0x8
100070f8:	ff 75 08             	push   DWORD PTR [ebp+0x8]
100070fb:	50                   	push   eax
100070fc:	e8 6c 04 00 00       	call   0x1000756d
10007101:	83 c4 10             	add    esp,0x10
10007104:	89 45 dc             	mov    DWORD PTR [ebp-0x24],eax
10007107:	e9 8c 00 00 00       	jmp    0x10007198
1000710c:	83 ec 08             	sub    esp,0x8
1000710f:	6a 00                	push   0x0
10007111:	ff 75 dc             	push   DWORD PTR [ebp-0x24]
10007114:	e8 d5 b4 ff ff       	call   0x100025ee
10007119:	83 c4 10             	add    esp,0x10
1000711c:	89 45 d8             	mov    DWORD PTR [ebp-0x28],eax
1000711f:	83 ec 0c             	sub    esp,0xc
10007122:	ff 75 d8             	push   DWORD PTR [ebp-0x28]
10007125:	e8 05 fe ff ff       	call   0x10006f2f
1000712a:	83 c4 10             	add    esp,0x10
1000712d:	89 45 f0             	mov    DWORD PTR [ebp-0x10],eax
10007130:	83 ec 0c             	sub    esp,0xc
10007133:	ff 75 d8             	push   DWORD PTR [ebp-0x28]
10007136:	e8 2e fe ff ff       	call   0x10006f69
1000713b:	83 c4 10             	add    esp,0x10
1000713e:	89 45 ec             	mov    DWORD PTR [ebp-0x14],eax
10007141:	8b 45 d8             	mov    eax,DWORD PTR [ebp-0x28]
10007144:	8b 40 08             	mov    eax,DWORD PTR [eax+0x8]
10007147:	0f b7 d0             	movzx  edx,ax
1000714a:	8b 45 f0             	mov    eax,DWORD PTR [ebp-0x10]
1000714d:	01 d0                	add    eax,edx
1000714f:	8d 50 ff             	lea    edx,[eax-0x1]
10007152:	8b 45 d8             	mov    eax,DWORD PTR [ebp-0x28]
10007155:	66 8b 40 0a          	mov    ax,WORD PTR [eax+0xa]
10007159:	0f b7 c8             	movzx  ecx,ax
1000715c:	8b 45 ec             	mov    eax,DWORD PTR [ebp-0x14]
1000715f:	01 c8                	add    eax,ecx
10007161:	48                   	dec    eax
10007162:	52                   	push   edx
10007163:	50                   	push   eax
10007164:	ff 75 f0             	push   DWORD PTR [ebp-0x10]
10007167:	ff 75 ec             	push   DWORD PTR [ebp-0x14]
1000716a:	e8 89 b5 ff ff       	call   0x100026f8
1000716f:	83 c4 10             	add    esp,0x10
10007172:	89 45 e8             	mov    DWORD PTR [ebp-0x18],eax
10007175:	8b 45 08             	mov    eax,DWORD PTR [ebp+0x8]
10007178:	8b 40 10             	mov    eax,DWORD PTR [eax+0x10]
1000717b:	83 ec 08             	sub    esp,0x8
1000717e:	ff 75 e8             	push   DWORD PTR [ebp-0x18]
10007181:	50                   	push   eax
10007182:	e8 0a ac ff ff       	call   0x10001d91
10007187:	83 c4 10             	add    esp,0x10
1000718a:	83 ec 0c             	sub    esp,0xc
1000718d:	ff 75 e8             	push   DWORD PTR [ebp-0x18]
10007190:	e8 e7 25 00 00       	call   0x1000977c
10007195:	83 c4 10             	add    esp,0x10
10007198:	8b 45 dc             	mov    eax,DWORD PTR [ebp-0x24]
1000719b:	8b 00                	mov    eax,DWORD PTR [eax]
1000719d:	85 c0                	test   eax,eax
1000719f:	0f 85 67 ff ff ff    	jne    0x1000710c
100071a5:	83 ec 0c             	sub    esp,0xc
100071a8:	ff 75 dc             	push   DWORD PTR [ebp-0x24]
100071ab:	e8 cc 25 00 00       	call   0x1000977c
100071b0:	83 c4 10             	add    esp,0x10
100071b3:	eb 01                	jmp    0x100071b6
100071b5:	90                   	nop
100071b6:	8b 5d fc             	mov    ebx,DWORD PTR [ebp-0x4]
100071b9:	c9                   	leave  
100071ba:	c3                   	ret    
100071bb:	90                   	nop
100071bc:	c3                   	ret    
100071bd:	55                   	push   ebp
100071be:	89 e5                	mov    ebp,esp
100071c0:	83 ec 18             	sub    esp,0x18
100071c3:	83 ec 0c             	sub    esp,0xc
100071c6:	ff 75 08             	push   DWORD PTR [ebp+0x8]
100071c9:	e8 61 fd ff ff       	call   0x10006f2f
100071ce:	83 c4 10             	add    esp,0x10
100071d1:	89 45 f4             	mov    DWORD PTR [ebp-0xc],eax
100071d4:	83 ec 0c             	sub    esp,0xc
100071d7:	ff 75 08             	push   DWORD PTR [ebp+0x8]
100071da:	e8 8a fd ff ff       	call   0x10006f69
100071df:	83 c4 10             	add    esp,0x10
100071e2:	89 45 f0             	mov    DWORD PTR [ebp-0x10],eax
100071e5:	8b 45 f0             	mov    eax,DWORD PTR [ebp-0x10]
100071e8:	01 45 0c             	add    DWORD PTR [ebp+0xc],eax
100071eb:	8b 45 f0             	mov    eax,DWORD PTR [ebp-0x10]
100071ee:	01 45 14             	add    DWORD PTR [ebp+0x14],eax
100071f1:	8b 45 f4             	mov    eax,DWORD PTR [ebp-0xc]
100071f4:	01 45 10             	add    DWORD PTR [ebp+0x10],eax
100071f7:	8b 45 f4             	mov    eax,DWORD PTR [ebp-0xc]
100071fa:	01 45 18             	add    DWORD PTR [ebp+0x18],eax
100071fd:	e8 d6 b2 ff ff       	call   0x100024d8
10007202:	89 45 ec             	mov    DWORD PTR [ebp-0x14],eax
10007205:	83 7d ec 00          	cmp    DWORD PTR [ebp-0x14],0x0
10007209:	0f 84 a1 00 00 00    	je     0x100072b0
1000720f:	ff 75 18             	push   DWORD PTR [ebp+0x18]
10007212:	ff 75 14             	push   DWORD PTR [ebp+0x14]
10007215:	ff 75 10             	push   DWORD PTR [ebp+0x10]
10007218:	ff 75 0c             	push   DWORD PTR [ebp+0xc]
1000721b:	e8 d8 b4 ff ff       	call   0x100026f8
10007220:	83 c4 10             	add    esp,0x10
10007223:	89 45 e8             	mov    DWORD PTR [ebp-0x18],eax
10007226:	83 7d e8 00          	cmp    DWORD PTR [ebp-0x18],0x0
1000722a:	75 10                	jne    0x1000723c
1000722c:	83 ec 0c             	sub    esp,0xc
1000722f:	ff 75 ec             	push   DWORD PTR [ebp-0x14]
10007232:	e8 45 25 00 00       	call   0x1000977c
10007237:	83 c4 10             	add    esp,0x10
1000723a:	eb 75                	jmp    0x100072b1
1000723c:	83 ec 08             	sub    esp,0x8
1000723f:	ff 75 e8             	push   DWORD PTR [ebp-0x18]
10007242:	ff 75 ec             	push   DWORD PTR [ebp-0x14]
10007245:	e8 c7 b2 ff ff       	call   0x10002511
1000724a:	83 c4 10             	add    esp,0x10
1000724d:	85 c0                	test   eax,eax
1000724f:	75 1e                	jne    0x1000726f
10007251:	83 ec 0c             	sub    esp,0xc
10007254:	ff 75 ec             	push   DWORD PTR [ebp-0x14]
10007257:	e8 20 25 00 00       	call   0x1000977c
1000725c:	83 c4 10             	add    esp,0x10
1000725f:	83 ec 0c             	sub    esp,0xc
10007262:	ff 75 e8             	push   DWORD PTR [ebp-0x18]
10007265:	e8 12 25 00 00       	call   0x1000977c
1000726a:	83 c4 10             	add    esp,0x10
1000726d:	eb 42                	jmp    0x100072b1
1000726f:	83 ec 04             	sub    esp,0x4
10007272:	6a 00                	push   0x0
10007274:	ff 75 ec             	push   DWORD PTR [ebp-0x14]
10007277:	ff 75 08             	push   DWORD PTR [ebp+0x8]
1000727a:	e8 34 00 00 00       	call   0x100072b3
1000727f:	83 c4 10             	add    esp,0x10
10007282:	83 ec 08             	sub    esp,0x8
10007285:	6a 00                	push   0x0
10007287:	ff 75 ec             	push   DWORD PTR [ebp-0x14]
1000728a:	e8 5f b3 ff ff       	call   0x100025ee
1000728f:	83 c4 10             	add    esp,0x10
10007292:	83 ec 0c             	sub    esp,0xc
10007295:	ff 75 ec             	push   DWORD PTR [ebp-0x14]
10007298:	e8 df 24 00 00       	call   0x1000977c
1000729d:	83 c4 10             	add    esp,0x10
100072a0:	83 ec 0c             	sub    esp,0xc
100072a3:	ff 75 e8             	push   DWORD PTR [ebp-0x18]
100072a6:	e8 d1 24 00 00       	call   0x1000977c
100072ab:	83 c4 10             	add    esp,0x10
100072ae:	eb 01                	jmp    0x100072b1
100072b0:	90                   	nop
100072b1:	c9                   	leave  
100072b2:	c3                   	ret    
100072b3:	55                   	push   ebp
100072b4:	89 e5                	mov    ebp,esp
100072b6:	83 ec 38             	sub    esp,0x38
100072b9:	8b 45 10             	mov    eax,DWORD PTR [ebp+0x10]
100072bc:	88 45 d4             	mov    BYTE PTR [ebp-0x2c],al
100072bf:	8b 45 08             	mov    eax,DWORD PTR [ebp+0x8]
100072c2:	8b 40 10             	mov    eax,DWORD PTR [eax+0x10]
100072c5:	85 c0                	test   eax,eax
100072c7:	0f 84 61 02 00 00    	je     0x1000752e
100072cd:	83 ec 04             	sub    esp,0x4
100072d0:	ff 75 0c             	push   DWORD PTR [ebp+0xc]
100072d3:	6a 00                	push   0x0
100072d5:	ff 75 08             	push   DWORD PTR [ebp+0x8]
100072d8:	e8 ca fc ff ff       	call   0x10006fa7
100072dd:	83 c4 10             	add    esp,0x10
100072e0:	83 ec 0c             	sub    esp,0xc
100072e3:	ff 75 08             	push   DWORD PTR [ebp+0x8]
100072e6:	e8 44 fc ff ff       	call   0x10006f2f
100072eb:	83 c4 10             	add    esp,0x10
100072ee:	89 45 ec             	mov    DWORD PTR [ebp-0x14],eax
100072f1:	83 ec 0c             	sub    esp,0xc
100072f4:	ff 75 08             	push   DWORD PTR [ebp+0x8]
100072f7:	e8 6d fc ff ff       	call   0x10006f69
100072fc:	83 c4 10             	add    esp,0x10
100072ff:	89 45 e8             	mov    DWORD PTR [ebp-0x18],eax
10007302:	c7 45 f4 00 00 00 00 	mov    DWORD PTR [ebp-0xc],0x0
10007309:	e9 95 00 00 00       	jmp    0x100073a3
1000730e:	8b 55 f4             	mov    edx,DWORD PTR [ebp-0xc]
10007311:	8b 45 08             	mov    eax,DWORD PTR [ebp+0x8]
10007314:	8b 40 1c             	mov    eax,DWORD PTR [eax+0x1c]
10007317:	83 ec 08             	sub    esp,0x8
1000731a:	52                   	push   edx
1000731b:	50                   	push   eax
1000731c:	e8 6d b2 ff ff       	call   0x1000258e
10007321:	83 c4 10             	add    esp,0x10
10007324:	89 45 e4             	mov    DWORD PTR [ebp-0x1c],eax
10007327:	83 ec 0c             	sub    esp,0xc
1000732a:	ff 75 e4             	push   DWORD PTR [ebp-0x1c]
1000732d:	e8 fd fb ff ff       	call   0x10006f2f
10007332:	83 c4 10             	add    esp,0x10
10007335:	89 45 e0             	mov    DWORD PTR [ebp-0x20],eax
10007338:	83 ec 0c             	sub    esp,0xc
1000733b:	ff 75 e4             	push   DWORD PTR [ebp-0x1c]
1000733e:	e8 26 fc ff ff       	call   0x10006f69
10007343:	83 c4 10             	add    esp,0x10
10007346:	89 45 dc             	mov    DWORD PTR [ebp-0x24],eax
10007349:	8b 45 e4             	mov    eax,DWORD PTR [ebp-0x1c]
1000734c:	8b 40 08             	mov    eax,DWORD PTR [eax+0x8]
1000734f:	0f b7 d0             	movzx  edx,ax
10007352:	8b 45 e0             	mov    eax,DWORD PTR [ebp-0x20]
10007355:	01 d0                	add    eax,edx
10007357:	8d 50 ff             	lea    edx,[eax-0x1]
1000735a:	8b 45 e4             	mov    eax,DWORD PTR [ebp-0x1c]
1000735d:	66 8b 40 0a          	mov    ax,WORD PTR [eax+0xa]
10007361:	0f b7 c8             	movzx  ecx,ax
10007364:	8b 45 dc             	mov    eax,DWORD PTR [ebp-0x24]
10007367:	01 c8                	add    eax,ecx
10007369:	48                   	dec    eax
1000736a:	52                   	push   edx
1000736b:	50                   	push   eax
1000736c:	ff 75 e0             	push   DWORD PTR [ebp-0x20]
1000736f:	ff 75 dc             	push   DWORD PTR [ebp-0x24]
10007372:	e8 81 b3 ff ff       	call   0x100026f8
10007377:	83 c4 10             	add    esp,0x10
1000737a:	89 45 d8             	mov    DWORD PTR [ebp-0x28],eax
1000737d:	8b 45 08             	mov    eax,DWORD PTR [ebp+0x8]
10007380:	8b 40 10             	mov    eax,DWORD PTR [eax+0x10]
10007383:	83 ec 08             	sub    esp,0x8
10007386:	ff 75 d8             	push   DWORD PTR [ebp-0x28]
10007389:	50                   	push   eax
1000738a:	e8 02 aa ff ff       	call   0x10001d91
1000738f:	83 c4 10             	add    esp,0x10
10007392:	83 ec 0c             	sub    esp,0xc
10007395:	ff 75 d8             	push   DWORD PTR [ebp-0x28]
10007398:	e8 df 23 00 00       	call   0x1000977c
1000739d:	83 c4 10             	add    esp,0x10
100073a0:	ff 45 f4             	inc    DWORD PTR [ebp-0xc]
100073a3:	8b 45 08             	mov    eax,DWORD PTR [ebp+0x8]
100073a6:	8b 40 1c             	mov    eax,DWORD PTR [eax+0x1c]
100073a9:	8b 10                	mov    edx,DWORD PTR [eax]
100073ab:	8b 45 f4             	mov    eax,DWORD PTR [ebp-0xc]
100073ae:	39 c2                	cmp    edx,eax
100073b0:	0f 87 58 ff ff ff    	ja     0x1000730e
100073b6:	8b 45 08             	mov    eax,DWORD PTR [ebp+0x8]
100073b9:	8b 40 10             	mov    eax,DWORD PTR [eax+0x10]
100073bc:	8b 55 ec             	mov    edx,DWORD PTR [ebp-0x14]
100073bf:	89 50 08             	mov    DWORD PTR [eax+0x8],edx
100073c2:	8b 45 08             	mov    eax,DWORD PTR [ebp+0x8]
100073c5:	8b 40 10             	mov    eax,DWORD PTR [eax+0x10]
100073c8:	8b 55 e8             	mov    edx,DWORD PTR [ebp-0x18]
100073cb:	89 50 0c             	mov    DWORD PTR [eax+0xc],edx
100073ce:	8b 45 08             	mov    eax,DWORD PTR [ebp+0x8]
100073d1:	8b 40 28             	mov    eax,DWORD PTR [eax+0x28]
100073d4:	85 c0                	test   eax,eax
100073d6:	74 18                	je     0x100073f0
100073d8:	8b 45 08             	mov    eax,DWORD PTR [ebp+0x8]
100073db:	8b 40 28             	mov    eax,DWORD PTR [eax+0x28]
100073de:	8b 55 08             	mov    edx,DWORD PTR [ebp+0x8]
100073e1:	8b 52 2c             	mov    edx,DWORD PTR [edx+0x2c]
100073e4:	83 ec 08             	sub    esp,0x8
100073e7:	52                   	push   edx
100073e8:	ff 75 08             	push   DWORD PTR [ebp+0x8]
100073eb:	ff d0                	call   eax
100073ed:	83 c4 10             	add    esp,0x10
100073f0:	8b 45 08             	mov    eax,DWORD PTR [ebp+0x8]
100073f3:	8b 40 10             	mov    eax,DWORD PTR [eax+0x10]
100073f6:	83 ec 0c             	sub    esp,0xc
100073f9:	50                   	push   eax
100073fa:	e8 cf aa ff ff       	call   0x10001ece
100073ff:	83 c4 10             	add    esp,0x10
10007402:	8b 45 08             	mov    eax,DWORD PTR [ebp+0x8]
10007405:	8b 40 10             	mov    eax,DWORD PTR [eax+0x10]
10007408:	c7 40 08 00 00 00 00 	mov    DWORD PTR [eax+0x8],0x0
1000740f:	8b 45 08             	mov    eax,DWORD PTR [ebp+0x8]
10007412:	8b 40 10             	mov    eax,DWORD PTR [eax+0x10]
10007415:	c7 40 0c 00 00 00 00 	mov    DWORD PTR [eax+0xc],0x0
1000741c:	80 7d d4 00          	cmp    BYTE PTR [ebp-0x2c],0x0
10007420:	0f 84 0b 01 00 00    	je     0x10007531
10007426:	c7 45 f4 00 00 00 00 	mov    DWORD PTR [ebp-0xc],0x0
1000742d:	e9 e7 00 00 00       	jmp    0x10007519
10007432:	8b 55 f4             	mov    edx,DWORD PTR [ebp-0xc]
10007435:	8b 45 08             	mov    eax,DWORD PTR [ebp+0x8]
10007438:	8b 40 1c             	mov    eax,DWORD PTR [eax+0x1c]
1000743b:	83 ec 08             	sub    esp,0x8
1000743e:	52                   	push   edx
1000743f:	50                   	push   eax
10007440:	e8 49 b1 ff ff       	call   0x1000258e
10007445:	83 c4 10             	add    esp,0x10
10007448:	89 45 e4             	mov    DWORD PTR [ebp-0x1c],eax
1000744b:	83 7d 0c 00          	cmp    DWORD PTR [ebp+0xc],0x0
1000744f:	0f 84 ab 00 00 00    	je     0x10007500
10007455:	c7 45 f0 00 00 00 00 	mov    DWORD PTR [ebp-0x10],0x0
1000745c:	e9 80 00 00 00       	jmp    0x100074e1
10007461:	8b 45 f0             	mov    eax,DWORD PTR [ebp-0x10]
10007464:	83 ec 08             	sub    esp,0x8
10007467:	50                   	push   eax
10007468:	ff 75 0c             	push   DWORD PTR [ebp+0xc]
1000746b:	e8 1e b1 ff ff       	call   0x1000258e
10007470:	83 c4 10             	add    esp,0x10
10007473:	89 45 d8             	mov    DWORD PTR [ebp-0x28],eax
10007476:	83 ec 0c             	sub    esp,0xc
10007479:	ff 75 e4             	push   DWORD PTR [ebp-0x1c]
1000747c:	e8 ae fa ff ff       	call   0x10006f2f
10007481:	83 c4 10             	add    esp,0x10
10007484:	89 45 ec             	mov    DWORD PTR [ebp-0x14],eax
10007487:	83 ec 0c             	sub    esp,0xc
1000748a:	ff 75 e4             	push   DWORD PTR [ebp-0x1c]
1000748d:	e8 d7 fa ff ff       	call   0x10006f69
10007492:	83 c4 10             	add    esp,0x10
10007495:	89 45 e8             	mov    DWORD PTR [ebp-0x18],eax
10007498:	8b 45 e4             	mov    eax,DWORD PTR [ebp-0x1c]
1000749b:	8b 40 08             	mov    eax,DWORD PTR [eax+0x8]
1000749e:	0f b7 d0             	movzx  edx,ax
100074a1:	8b 45 ec             	mov    eax,DWORD PTR [ebp-0x14]
100074a4:	01 c2                	add    edx,eax
100074a6:	8b 45 d8             	mov    eax,DWORD PTR [ebp-0x28]
100074a9:	8b 40 04             	mov    eax,DWORD PTR [eax+0x4]
100074ac:	39 c2                	cmp    edx,eax
100074ae:	7e 2e                	jle    0x100074de
100074b0:	8b 45 d8             	mov    eax,DWORD PTR [ebp-0x28]
100074b3:	8b 40 0c             	mov    eax,DWORD PTR [eax+0xc]
100074b6:	39 45 ec             	cmp    DWORD PTR [ebp-0x14],eax
100074b9:	7f 23                	jg     0x100074de
100074bb:	8b 45 e4             	mov    eax,DWORD PTR [ebp-0x1c]
100074be:	66 8b 40 0a          	mov    ax,WORD PTR [eax+0xa]
100074c2:	0f b7 d0             	movzx  edx,ax
100074c5:	8b 45 e8             	mov    eax,DWORD PTR [ebp-0x18]
100074c8:	01 c2                	add    edx,eax
100074ca:	8b 45 d8             	mov    eax,DWORD PTR [ebp-0x28]
100074cd:	8b 00                	mov    eax,DWORD PTR [eax]
100074cf:	39 c2                	cmp    edx,eax
100074d1:	7e 0b                	jle    0x100074de
100074d3:	8b 45 d8             	mov    eax,DWORD PTR [ebp-0x28]
100074d6:	8b 40 08             	mov    eax,DWORD PTR [eax+0x8]
100074d9:	39 45 e8             	cmp    DWORD PTR [ebp-0x18],eax
100074dc:	7e 15                	jle    0x100074f3
100074de:	ff 45 f0             	inc    DWORD PTR [ebp-0x10]
100074e1:	8b 45 0c             	mov    eax,DWORD PTR [ebp+0xc]
100074e4:	8b 10                	mov    edx,DWORD PTR [eax]
100074e6:	8b 45 f0             	mov    eax,DWORD PTR [ebp-0x10]
100074e9:	39 c2                	cmp    edx,eax
100074eb:	0f 87 70 ff ff ff    	ja     0x10007461
100074f1:	eb 01                	jmp    0x100074f4
100074f3:	90                   	nop
100074f4:	8b 45 0c             	mov    eax,DWORD PTR [ebp+0xc]
100074f7:	8b 10                	mov    edx,DWORD PTR [eax]
100074f9:	8b 45 f0             	mov    eax,DWORD PTR [ebp-0x10]
100074fc:	39 c2                	cmp    edx,eax
100074fe:	74 15                	je     0x10007515
10007500:	83 ec 04             	sub    esp,0x4
10007503:	6a 01                	push   0x1
10007505:	ff 75 0c             	push   DWORD PTR [ebp+0xc]
10007508:	ff 75 e4             	push   DWORD PTR [ebp-0x1c]
1000750b:	e8 a3 fd ff ff       	call   0x100072b3
10007510:	83 c4 10             	add    esp,0x10
10007513:	eb 01                	jmp    0x10007516
10007515:	90                   	nop
10007516:	ff 45 f4             	inc    DWORD PTR [ebp-0xc]
10007519:	8b 45 08             	mov    eax,DWORD PTR [ebp+0x8]
1000751c:	8b 40 1c             	mov    eax,DWORD PTR [eax+0x1c]
1000751f:	8b 10                	mov    edx,DWORD PTR [eax]
10007521:	8b 45 f4             	mov    eax,DWORD PTR [ebp-0xc]
10007524:	39 c2                	cmp    edx,eax
10007526:	0f 87 06 ff ff ff    	ja     0x10007432
1000752c:	eb 04                	jmp    0x10007532
1000752e:	90                   	nop
1000752f:	eb 01                	jmp    0x10007532
10007531:	90                   	nop
10007532:	c9                   	leave  
10007533:	c3                   	ret    
10007534:	55                   	push   ebp
10007535:	89 e5                	mov    ebp,esp
10007537:	83 ec 08             	sub    esp,0x8
1000753a:	8b 45 08             	mov    eax,DWORD PTR [ebp+0x8]
1000753d:	66 8b 40 0a          	mov    ax,WORD PTR [eax+0xa]
10007541:	0f b7 c8             	movzx  ecx,ax
10007544:	8b 45 08             	mov    eax,DWORD PTR [ebp+0x8]
10007547:	8b 40 08             	mov    eax,DWORD PTR [eax+0x8]
1000754a:	0f b7 d0             	movzx  edx,ax
1000754d:	8b 45 08             	mov    eax,DWORD PTR [ebp+0x8]
10007550:	8b 40 10             	mov    eax,DWORD PTR [eax+0x10]
10007553:	83 ec 08             	sub    esp,0x8
10007556:	68 bb bb bb ff       	push   0xffbbbbbb
1000755b:	51                   	push   ecx
1000755c:	52                   	push   edx
1000755d:	6a 00                	push   0x0
1000755f:	6a 00                	push   0x0
10007561:	50                   	push   eax
10007562:	e8 3e a5 ff ff       	call   0x10001aa5
10007567:	83 c4 20             	add    esp,0x20
1000756a:	90                   	nop
1000756b:	c9                   	leave  
1000756c:	c3                   	ret    
1000756d:	55                   	push   ebp
1000756e:	89 e5                	mov    ebp,esp
10007570:	83 ec 18             	sub    esp,0x18
10007573:	e8 60 af ff ff       	call   0x100024d8
10007578:	89 45 f0             	mov    DWORD PTR [ebp-0x10],eax
1000757b:	83 7d f0 00          	cmp    DWORD PTR [ebp-0x10],0x0
1000757f:	75 08                	jne    0x10007589
10007581:	8b 45 f0             	mov    eax,DWORD PTR [ebp-0x10]
10007584:	e9 06 01 00 00       	jmp    0x1000768f
10007589:	c7 45 f4 00 00 00 00 	mov    DWORD PTR [ebp-0xc],0x0
10007590:	eb 1e                	jmp    0x100075b0
10007592:	8b 55 f4             	mov    edx,DWORD PTR [ebp-0xc]
10007595:	8b 45 08             	mov    eax,DWORD PTR [ebp+0x8]
10007598:	8b 40 1c             	mov    eax,DWORD PTR [eax+0x1c]
1000759b:	83 ec 08             	sub    esp,0x8
1000759e:	52                   	push   edx
1000759f:	50                   	push   eax
100075a0:	e8 e9 af ff ff       	call   0x1000258e
100075a5:	83 c4 10             	add    esp,0x10
100075a8:	39 45 0c             	cmp    DWORD PTR [ebp+0xc],eax
100075ab:	74 14                	je     0x100075c1
100075ad:	ff 45 f4             	inc    DWORD PTR [ebp-0xc]
100075b0:	8b 45 08             	mov    eax,DWORD PTR [ebp+0x8]
100075b3:	8b 40 1c             	mov    eax,DWORD PTR [eax+0x1c]
100075b6:	8b 10                	mov    edx,DWORD PTR [eax]
100075b8:	8b 45 f4             	mov    eax,DWORD PTR [ebp-0xc]
100075bb:	39 c2                	cmp    edx,eax
100075bd:	77 d3                	ja     0x10007592
100075bf:	eb 01                	jmp    0x100075c2
100075c1:	90                   	nop
100075c2:	ff 45 f4             	inc    DWORD PTR [ebp-0xc]
100075c5:	e9 af 00 00 00       	jmp    0x10007679
100075ca:	8b 55 f4             	mov    edx,DWORD PTR [ebp-0xc]
100075cd:	8b 45 08             	mov    eax,DWORD PTR [ebp+0x8]
100075d0:	8b 40 1c             	mov    eax,DWORD PTR [eax+0x1c]
100075d3:	83 ec 08             	sub    esp,0x8
100075d6:	52                   	push   edx
100075d7:	50                   	push   eax
100075d8:	e8 b1 af ff ff       	call   0x1000258e
100075dd:	83 c4 10             	add    esp,0x10
100075e0:	89 45 ec             	mov    DWORD PTR [ebp-0x14],eax
100075e3:	8b 45 0c             	mov    eax,DWORD PTR [ebp+0xc]
100075e6:	8b 40 04             	mov    eax,DWORD PTR [eax+0x4]
100075e9:	0f bf d0             	movsx  edx,ax
100075ec:	8b 45 0c             	mov    eax,DWORD PTR [ebp+0xc]
100075ef:	8b 40 08             	mov    eax,DWORD PTR [eax+0x8]
100075f2:	0f b7 c0             	movzx  eax,ax
100075f5:	01 c2                	add    edx,eax
100075f7:	8b 45 ec             	mov    eax,DWORD PTR [ebp-0x14]
100075fa:	8b 40 04             	mov    eax,DWORD PTR [eax+0x4]
100075fd:	98                   	cwde   
100075fe:	39 c2                	cmp    edx,eax
10007600:	7e 74                	jle    0x10007676
10007602:	8b 45 ec             	mov    eax,DWORD PTR [ebp-0x14]
10007605:	8b 40 04             	mov    eax,DWORD PTR [eax+0x4]
10007608:	0f bf d0             	movsx  edx,ax
1000760b:	8b 45 ec             	mov    eax,DWORD PTR [ebp-0x14]
1000760e:	8b 40 08             	mov    eax,DWORD PTR [eax+0x8]
10007611:	0f b7 c0             	movzx  eax,ax
10007614:	01 c2                	add    edx,eax
10007616:	8b 45 0c             	mov    eax,DWORD PTR [ebp+0xc]
10007619:	8b 40 04             	mov    eax,DWORD PTR [eax+0x4]
1000761c:	98                   	cwde   
1000761d:	39 c2                	cmp    edx,eax
1000761f:	7e 55                	jle    0x10007676
10007621:	8b 45 0c             	mov    eax,DWORD PTR [ebp+0xc]
10007624:	66 8b 40 06          	mov    ax,WORD PTR [eax+0x6]
10007628:	0f bf d0             	movsx  edx,ax
1000762b:	8b 45 0c             	mov    eax,DWORD PTR [ebp+0xc]
1000762e:	66 8b 40 0a          	mov    ax,WORD PTR [eax+0xa]
10007632:	0f b7 c0             	movzx  eax,ax
10007635:	01 c2                	add    edx,eax
10007637:	8b 45 ec             	mov    eax,DWORD PTR [ebp-0x14]
1000763a:	66 8b 40 06          	mov    ax,WORD PTR [eax+0x6]
1000763e:	98                   	cwde   
1000763f:	39 c2                	cmp    edx,eax
10007641:	7e 33                	jle    0x10007676
10007643:	8b 45 ec             	mov    eax,DWORD PTR [ebp-0x14]
10007646:	66 8b 40 06          	mov    ax,WORD PTR [eax+0x6]
1000764a:	0f bf d0             	movsx  edx,ax
1000764d:	8b 45 ec             	mov    eax,DWORD PTR [ebp-0x14]
10007650:	66 8b 40 0a          	mov    ax,WORD PTR [eax+0xa]
10007654:	0f b7 c0             	movzx  eax,ax
10007657:	01 c2                	add    edx,eax
10007659:	8b 45 0c             	mov    eax,DWORD PTR [ebp+0xc]
1000765c:	66 8b 40 06          	mov    ax,WORD PTR [eax+0x6]
10007660:	98                   	cwde   
10007661:	39 c2                	cmp    edx,eax
10007663:	7e 11                	jle    0x10007676
10007665:	83 ec 08             	sub    esp,0x8
10007668:	ff 75 ec             	push   DWORD PTR [ebp-0x14]
1000766b:	ff 75 f0             	push   DWORD PTR [ebp-0x10]
1000766e:	e8 9e ae ff ff       	call   0x10002511
10007673:	83 c4 10             	add    esp,0x10
10007676:	ff 45 f4             	inc    DWORD PTR [ebp-0xc]
10007679:	8b 45 08             	mov    eax,DWORD PTR [ebp+0x8]
1000767c:	8b 40 1c             	mov    eax,DWORD PTR [eax+0x1c]
1000767f:	8b 10                	mov    edx,DWORD PTR [eax]
10007681:	8b 45 f4             	mov    eax,DWORD PTR [ebp-0xc]
10007684:	39 c2                	cmp    edx,eax
10007686:	0f 87 3e ff ff ff    	ja     0x100075ca
1000768c:	8b 45 f0             	mov    eax,DWORD PTR [ebp-0x10]
1000768f:	c9                   	leave  
10007690:	c3                   	ret    
10007691:	55                   	push   ebp
10007692:	89 e5                	mov    ebp,esp
10007694:	83 ec 18             	sub    esp,0x18
10007697:	e8 3c ae ff ff       	call   0x100024d8
1000769c:	89 45 f0             	mov    DWORD PTR [ebp-0x10],eax
1000769f:	83 7d f0 00          	cmp    DWORD PTR [ebp-0x10],0x0
100076a3:	75 08                	jne    0x100076ad
100076a5:	8b 45 f0             	mov    eax,DWORD PTR [ebp-0x10]
100076a8:	e9 f9 00 00 00       	jmp    0x100077a6
100076ad:	8b 45 08             	mov    eax,DWORD PTR [ebp+0x8]
100076b0:	8b 40 1c             	mov    eax,DWORD PTR [eax+0x1c]
100076b3:	8b 00                	mov    eax,DWORD PTR [eax]
100076b5:	48                   	dec    eax
100076b6:	89 45 f4             	mov    DWORD PTR [ebp-0xc],eax
100076b9:	eb 1e                	jmp    0x100076d9
100076bb:	8b 55 f4             	mov    edx,DWORD PTR [ebp-0xc]
100076be:	8b 45 08             	mov    eax,DWORD PTR [ebp+0x8]
100076c1:	8b 40 1c             	mov    eax,DWORD PTR [eax+0x1c]
100076c4:	83 ec 08             	sub    esp,0x8
100076c7:	52                   	push   edx
100076c8:	50                   	push   eax
100076c9:	e8 c0 ae ff ff       	call   0x1000258e
100076ce:	83 c4 10             	add    esp,0x10
100076d1:	39 45 0c             	cmp    DWORD PTR [ebp+0xc],eax
100076d4:	74 0b                	je     0x100076e1
100076d6:	ff 4d f4             	dec    DWORD PTR [ebp-0xc]
100076d9:	83 7d f4 00          	cmp    DWORD PTR [ebp-0xc],0x0
100076dd:	79 dc                	jns    0x100076bb
100076df:	eb 01                	jmp    0x100076e2
100076e1:	90                   	nop
100076e2:	ff 4d f4             	dec    DWORD PTR [ebp-0xc]
100076e5:	e9 af 00 00 00       	jmp    0x10007799
100076ea:	8b 55 f4             	mov    edx,DWORD PTR [ebp-0xc]
100076ed:	8b 45 08             	mov    eax,DWORD PTR [ebp+0x8]
100076f0:	8b 40 1c             	mov    eax,DWORD PTR [eax+0x1c]
100076f3:	83 ec 08             	sub    esp,0x8
100076f6:	52                   	push   edx
100076f7:	50                   	push   eax
100076f8:	e8 91 ae ff ff       	call   0x1000258e
100076fd:	83 c4 10             	add    esp,0x10
10007700:	89 45 ec             	mov    DWORD PTR [ebp-0x14],eax
10007703:	8b 45 0c             	mov    eax,DWORD PTR [ebp+0xc]
10007706:	8b 40 04             	mov    eax,DWORD PTR [eax+0x4]
10007709:	0f bf d0             	movsx  edx,ax
1000770c:	8b 45 0c             	mov    eax,DWORD PTR [ebp+0xc]
1000770f:	8b 40 08             	mov    eax,DWORD PTR [eax+0x8]
10007712:	0f b7 c0             	movzx  eax,ax
10007715:	01 c2                	add    edx,eax
10007717:	8b 45 ec             	mov    eax,DWORD PTR [ebp-0x14]
1000771a:	8b 40 04             	mov    eax,DWORD PTR [eax+0x4]
1000771d:	98                   	cwde   
1000771e:	39 c2                	cmp    edx,eax
10007720:	7e 74                	jle    0x10007796
10007722:	8b 45 ec             	mov    eax,DWORD PTR [ebp-0x14]
10007725:	8b 40 04             	mov    eax,DWORD PTR [eax+0x4]
10007728:	0f bf d0             	movsx  edx,ax
1000772b:	8b 45 ec             	mov    eax,DWORD PTR [ebp-0x14]
1000772e:	8b 40 08             	mov    eax,DWORD PTR [eax+0x8]
10007731:	0f b7 c0             	movzx  eax,ax
10007734:	01 c2                	add    edx,eax
10007736:	8b 45 0c             	mov    eax,DWORD PTR [ebp+0xc]
10007739:	8b 40 04             	mov    eax,DWORD PTR [eax+0x4]
1000773c:	98                   	cwde   
1000773d:	39 c2                	cmp    edx,eax
1000773f:	7e 55                	jle    0x10007796
10007741:	8b 45 0c             	mov    eax,DWORD PTR [ebp+0xc]
10007744:	66 8b 40 06          	mov    ax,WORD PTR [eax+0x6]
10007748:	0f bf d0             	movsx  edx,ax
1000774b:	8b 45 0c             	mov    eax,DWORD PTR [ebp+0xc]
1000774e:	66 8b 40 0a          	mov    ax,WORD PTR [eax+0xa]
10007752:	0f b7 c0             	movzx  eax,ax
10007755:	01 c2                	add    edx,eax
10007757:	8b 45 ec             	mov    eax,DWORD PTR [ebp-0x14]
1000775a:	66 8b 40 06          	mov    ax,WORD PTR [eax+0x6]
1000775e:	98                   	cwde   
1000775f:	39 c2                	cmp    edx,eax
10007761:	7e 33                	jle    0x10007796
10007763:	8b 45 ec             	mov    eax,DWORD PTR [ebp-0x14]
10007766:	66 8b 40 06          	mov    ax,WORD PTR [eax+0x6]
1000776a:	0f bf d0             	movsx  edx,ax
1000776d:	8b 45 ec             	mov    eax,DWORD PTR [ebp-0x14]
10007770:	66 8b 40 0a          	mov    ax,WORD PTR [eax+0xa]
10007774:	0f b7 c0             	movzx  eax,ax
10007777:	01 c2                	add    edx,eax
10007779:	8b 45 0c             	mov    eax,DWORD PTR [ebp+0xc]
1000777c:	66 8b 40 06          	mov    ax,WORD PTR [eax+0x6]
10007780:	98                   	cwde   
10007781:	39 c2                	cmp    edx,eax
10007783:	7e 11                	jle    0x10007796
10007785:	83 ec 08             	sub    esp,0x8
10007788:	ff 75 ec             	push   DWORD PTR [ebp-0x14]
1000778b:	ff 75 f0             	push   DWORD PTR [ebp-0x10]
1000778e:	e8 7e ad ff ff       	call   0x10002511
10007793:	83 c4 10             	add    esp,0x10
10007796:	ff 4d f4             	dec    DWORD PTR [ebp-0xc]
10007799:	83 7d f4 00          	cmp    DWORD PTR [ebp-0xc],0x0
1000779d:	0f 89 47 ff ff ff    	jns    0x100076ea
100077a3:	8b 45 f0             	mov    eax,DWORD PTR [ebp-0x10]
100077a6:	c9                   	leave  
100077a7:	c3                   	ret    
100077a8:	55                   	push   ebp
100077a9:	89 e5                	mov    ebp,esp
100077ab:	83 ec 28             	sub    esp,0x28
100077ae:	8b 45 0c             	mov    eax,DWORD PTR [ebp+0xc]
100077b1:	88 45 e4             	mov    BYTE PTR [ebp-0x1c],al
100077b4:	8b 45 08             	mov    eax,DWORD PTR [ebp+0x8]
100077b7:	8b 00                	mov    eax,DWORD PTR [eax]
100077b9:	85 c0                	test   eax,eax
100077bb:	0f 84 b5 00 00 00    	je     0x10007876
100077c1:	8b 45 08             	mov    eax,DWORD PTR [ebp+0x8]
100077c4:	8b 00                	mov    eax,DWORD PTR [eax]
100077c6:	89 45 f0             	mov    DWORD PTR [ebp-0x10],eax
100077c9:	8b 45 f0             	mov    eax,DWORD PTR [ebp-0x10]
100077cc:	8b 40 18             	mov    eax,DWORD PTR [eax+0x18]
100077cf:	39 45 08             	cmp    DWORD PTR [ebp+0x8],eax
100077d2:	0f 84 a1 00 00 00    	je     0x10007879
100077d8:	8b 45 f0             	mov    eax,DWORD PTR [ebp-0x10]
100077db:	8b 40 18             	mov    eax,DWORD PTR [eax+0x18]
100077de:	89 45 ec             	mov    DWORD PTR [ebp-0x14],eax
100077e1:	c7 45 f4 00 00 00 00 	mov    DWORD PTR [ebp-0xc],0x0
100077e8:	eb 1e                	jmp    0x10007808
100077ea:	8b 55 f4             	mov    edx,DWORD PTR [ebp-0xc]
100077ed:	8b 45 f0             	mov    eax,DWORD PTR [ebp-0x10]
100077f0:	8b 40 1c             	mov    eax,DWORD PTR [eax+0x1c]
100077f3:	83 ec 08             	sub    esp,0x8
100077f6:	52                   	push   edx
100077f7:	50                   	push   eax
100077f8:	e8 91 ad ff ff       	call   0x1000258e
100077fd:	83 c4 10             	add    esp,0x10
10007800:	39 45 08             	cmp    DWORD PTR [ebp+0x8],eax
10007803:	74 14                	je     0x10007819
10007805:	ff 45 f4             	inc    DWORD PTR [ebp-0xc]
10007808:	8b 45 f0             	mov    eax,DWORD PTR [ebp-0x10]
1000780b:	8b 40 1c             	mov    eax,DWORD PTR [eax+0x1c]
1000780e:	8b 10                	mov    edx,DWORD PTR [eax]
10007810:	8b 45 f4             	mov    eax,DWORD PTR [ebp-0xc]
10007813:	39 c2                	cmp    edx,eax
10007815:	77 d3                	ja     0x100077ea
10007817:	eb 01                	jmp    0x1000781a
10007819:	90                   	nop
1000781a:	8b 55 f4             	mov    edx,DWORD PTR [ebp-0xc]
1000781d:	8b 45 f0             	mov    eax,DWORD PTR [ebp-0x10]
10007820:	8b 40 1c             	mov    eax,DWORD PTR [eax+0x1c]
10007823:	83 ec 08             	sub    esp,0x8
10007826:	52                   	push   edx
10007827:	50                   	push   eax
10007828:	e8 c1 ad ff ff       	call   0x100025ee
1000782d:	83 c4 10             	add    esp,0x10
10007830:	8b 45 f0             	mov    eax,DWORD PTR [ebp-0x10]
10007833:	8b 40 1c             	mov    eax,DWORD PTR [eax+0x1c]
10007836:	83 ec 08             	sub    esp,0x8
10007839:	ff 75 08             	push   DWORD PTR [ebp+0x8]
1000783c:	50                   	push   eax
1000783d:	e8 cf ac ff ff       	call   0x10002511
10007842:	83 c4 10             	add    esp,0x10
10007845:	8b 45 f0             	mov    eax,DWORD PTR [ebp-0x10]
10007848:	8b 55 08             	mov    edx,DWORD PTR [ebp+0x8]
1000784b:	89 50 18             	mov    DWORD PTR [eax+0x18],edx
1000784e:	80 7d e4 00          	cmp    BYTE PTR [ebp-0x1c],0x0
10007852:	74 28                	je     0x1000787c
10007854:	83 ec 04             	sub    esp,0x4
10007857:	6a 01                	push   0x1
10007859:	6a 00                	push   0x0
1000785b:	ff 75 08             	push   DWORD PTR [ebp+0x8]
1000785e:	e8 50 fa ff ff       	call   0x100072b3
10007863:	83 c4 10             	add    esp,0x10
10007866:	83 ec 0c             	sub    esp,0xc
10007869:	ff 75 ec             	push   DWORD PTR [ebp-0x14]
1000786c:	e8 4a f9 ff ff       	call   0x100071bb
10007871:	83 c4 10             	add    esp,0x10
10007874:	eb 07                	jmp    0x1000787d
10007876:	90                   	nop
10007877:	eb 04                	jmp    0x1000787d
10007879:	90                   	nop
1000787a:	eb 01                	jmp    0x1000787d
1000787c:	90                   	nop
1000787d:	c9                   	leave  
1000787e:	c3                   	ret    
1000787f:	55                   	push   ebp
10007880:	89 e5                	mov    ebp,esp
10007882:	83 ec 38             	sub    esp,0x38
10007885:	8b 45 08             	mov    eax,DWORD PTR [ebp+0x8]
10007888:	8b 40 04             	mov    eax,DWORD PTR [eax+0x4]
1000788b:	98                   	cwde   
1000788c:	89 45 f4             	mov    DWORD PTR [ebp-0xc],eax
1000788f:	8b 45 08             	mov    eax,DWORD PTR [ebp+0x8]
10007892:	66 8b 40 06          	mov    ax,WORD PTR [eax+0x6]
10007896:	98                   	cwde   
10007897:	89 45 f0             	mov    DWORD PTR [ebp-0x10],eax
1000789a:	83 ec 08             	sub    esp,0x8
1000789d:	6a 00                	push   0x0
1000789f:	ff 75 08             	push   DWORD PTR [ebp+0x8]
100078a2:	e8 01 ff ff ff       	call   0x100077a8
100078a7:	83 c4 10             	add    esp,0x10
100078aa:	83 ec 04             	sub    esp,0x4
100078ad:	6a 00                	push   0x0
100078af:	6a 00                	push   0x0
100078b1:	ff 75 08             	push   DWORD PTR [ebp+0x8]
100078b4:	e8 ee f6 ff ff       	call   0x10006fa7
100078b9:	83 c4 10             	add    esp,0x10
100078bc:	8b 45 0c             	mov    eax,DWORD PTR [ebp+0xc]
100078bf:	8b 55 08             	mov    edx,DWORD PTR [ebp+0x8]
100078c2:	66 89 42 04          	mov    WORD PTR [edx+0x4],ax
100078c6:	8b 45 10             	mov    eax,DWORD PTR [ebp+0x10]
100078c9:	8b 55 08             	mov    edx,DWORD PTR [ebp+0x8]
100078cc:	66 89 42 06          	mov    WORD PTR [edx+0x6],ax
100078d0:	83 ec 0c             	sub    esp,0xc
100078d3:	ff 75 08             	push   DWORD PTR [ebp+0x8]
100078d6:	e8 8e f6 ff ff       	call   0x10006f69
100078db:	83 c4 10             	add    esp,0x10
100078de:	89 45 d4             	mov    DWORD PTR [ebp-0x2c],eax
100078e1:	83 ec 0c             	sub    esp,0xc
100078e4:	ff 75 08             	push   DWORD PTR [ebp+0x8]
100078e7:	e8 43 f6 ff ff       	call   0x10006f2f
100078ec:	83 c4 10             	add    esp,0x10
100078ef:	89 45 d8             	mov    DWORD PTR [ebp-0x28],eax
100078f2:	8b 55 d4             	mov    edx,DWORD PTR [ebp-0x2c]
100078f5:	8b 45 08             	mov    eax,DWORD PTR [ebp+0x8]
100078f8:	66 8b 40 0a          	mov    ax,WORD PTR [eax+0xa]
100078fc:	0f b7 c0             	movzx  eax,ax
100078ff:	01 d0                	add    eax,edx
10007901:	48                   	dec    eax
10007902:	89 45 dc             	mov    DWORD PTR [ebp-0x24],eax
10007905:	8b 55 d8             	mov    edx,DWORD PTR [ebp-0x28]
10007908:	8b 45 08             	mov    eax,DWORD PTR [ebp+0x8]
1000790b:	8b 40 08             	mov    eax,DWORD PTR [eax+0x8]
1000790e:	0f b7 c0             	movzx  eax,ax
10007911:	01 d0                	add    eax,edx
10007913:	48                   	dec    eax
10007914:	89 45 e0             	mov    DWORD PTR [ebp-0x20],eax
10007917:	8b 45 f4             	mov    eax,DWORD PTR [ebp-0xc]
1000791a:	8b 55 08             	mov    edx,DWORD PTR [ebp+0x8]
1000791d:	66 89 42 04          	mov    WORD PTR [edx+0x4],ax
10007921:	8b 45 f0             	mov    eax,DWORD PTR [ebp-0x10]
10007924:	8b 55 08             	mov    edx,DWORD PTR [ebp+0x8]
10007927:	66 89 42 06          	mov    WORD PTR [edx+0x6],ax
1000792b:	8b 45 08             	mov    eax,DWORD PTR [ebp+0x8]
1000792e:	8b 40 10             	mov    eax,DWORD PTR [eax+0x10]
10007931:	83 ec 08             	sub    esp,0x8
10007934:	8d 55 d4             	lea    edx,[ebp-0x2c]
10007937:	52                   	push   edx
10007938:	50                   	push   eax
10007939:	e8 53 a4 ff ff       	call   0x10001d91
1000793e:	83 c4 10             	add    esp,0x10
10007941:	e8 92 ab ff ff       	call   0x100024d8
10007946:	89 45 ec             	mov    DWORD PTR [ebp-0x14],eax
10007949:	83 7d ec 00          	cmp    DWORD PTR [ebp-0x14],0x0
1000794d:	75 17                	jne    0x10007966
1000794f:	8b 45 08             	mov    eax,DWORD PTR [ebp+0x8]
10007952:	8b 40 10             	mov    eax,DWORD PTR [eax+0x10]
10007955:	83 ec 0c             	sub    esp,0xc
10007958:	50                   	push   eax
10007959:	e8 70 a5 ff ff       	call   0x10001ece
1000795e:	83 c4 10             	add    esp,0x10
10007961:	e9 da 00 00 00       	jmp    0x10007a40
10007966:	8b 45 08             	mov    eax,DWORD PTR [ebp+0x8]
10007969:	8b 40 10             	mov    eax,DWORD PTR [eax+0x10]
1000796c:	8b 40 10             	mov    eax,DWORD PTR [eax+0x10]
1000796f:	89 45 e8             	mov    DWORD PTR [ebp-0x18],eax
10007972:	8b 45 08             	mov    eax,DWORD PTR [ebp+0x8]
10007975:	8b 40 10             	mov    eax,DWORD PTR [eax+0x10]
10007978:	8b 55 ec             	mov    edx,DWORD PTR [ebp-0x14]
1000797b:	89 50 10             	mov    DWORD PTR [eax+0x10],edx
1000797e:	8b 45 08             	mov    eax,DWORD PTR [ebp+0x8]
10007981:	8b 00                	mov    eax,DWORD PTR [eax]
10007983:	83 ec 08             	sub    esp,0x8
10007986:	ff 75 08             	push   DWORD PTR [ebp+0x8]
10007989:	50                   	push   eax
1000798a:	e8 02 fd ff ff       	call   0x10007691
1000798f:	83 c4 10             	add    esp,0x10
10007992:	89 45 e4             	mov    DWORD PTR [ebp-0x1c],eax
10007995:	8b 45 0c             	mov    eax,DWORD PTR [ebp+0xc]
10007998:	8b 55 08             	mov    edx,DWORD PTR [ebp+0x8]
1000799b:	66 89 42 04          	mov    WORD PTR [edx+0x4],ax
1000799f:	8b 45 10             	mov    eax,DWORD PTR [ebp+0x10]
100079a2:	8b 55 08             	mov    edx,DWORD PTR [ebp+0x8]
100079a5:	66 89 42 06          	mov    WORD PTR [edx+0x6],ax
100079a9:	eb 21                	jmp    0x100079cc
100079ab:	83 ec 08             	sub    esp,0x8
100079ae:	6a 00                	push   0x0
100079b0:	ff 75 e4             	push   DWORD PTR [ebp-0x1c]
100079b3:	e8 36 ac ff ff       	call   0x100025ee
100079b8:	83 c4 10             	add    esp,0x10
100079bb:	83 ec 04             	sub    esp,0x4
100079be:	6a 01                	push   0x1
100079c0:	ff 75 e8             	push   DWORD PTR [ebp-0x18]
100079c3:	50                   	push   eax
100079c4:	e8 ea f8 ff ff       	call   0x100072b3
100079c9:	83 c4 10             	add    esp,0x10
100079cc:	8b 45 e4             	mov    eax,DWORD PTR [ebp-0x1c]
100079cf:	8b 00                	mov    eax,DWORD PTR [eax]
100079d1:	85 c0                	test   eax,eax
100079d3:	75 d6                	jne    0x100079ab
100079d5:	8b 45 08             	mov    eax,DWORD PTR [ebp+0x8]
100079d8:	8b 00                	mov    eax,DWORD PTR [eax]
100079da:	83 ec 04             	sub    esp,0x4
100079dd:	6a 00                	push   0x0
100079df:	ff 75 e8             	push   DWORD PTR [ebp-0x18]
100079e2:	50                   	push   eax
100079e3:	e8 cb f8 ff ff       	call   0x100072b3
100079e8:	83 c4 10             	add    esp,0x10
100079eb:	eb 1c                	jmp    0x10007a09
100079ed:	83 ec 08             	sub    esp,0x8
100079f0:	6a 00                	push   0x0
100079f2:	ff 75 e8             	push   DWORD PTR [ebp-0x18]
100079f5:	e8 f4 ab ff ff       	call   0x100025ee
100079fa:	83 c4 10             	add    esp,0x10
100079fd:	83 ec 0c             	sub    esp,0xc
10007a00:	50                   	push   eax
10007a01:	e8 76 1d 00 00       	call   0x1000977c
10007a06:	83 c4 10             	add    esp,0x10
10007a09:	8b 45 e8             	mov    eax,DWORD PTR [ebp-0x18]
10007a0c:	8b 00                	mov    eax,DWORD PTR [eax]
10007a0e:	85 c0                	test   eax,eax
10007a10:	75 db                	jne    0x100079ed
10007a12:	83 ec 0c             	sub    esp,0xc
10007a15:	ff 75 e8             	push   DWORD PTR [ebp-0x18]
10007a18:	e8 5f 1d 00 00       	call   0x1000977c
10007a1d:	83 c4 10             	add    esp,0x10
10007a20:	83 ec 0c             	sub    esp,0xc
10007a23:	ff 75 e4             	push   DWORD PTR [ebp-0x1c]
10007a26:	e8 51 1d 00 00       	call   0x1000977c
10007a2b:	83 c4 10             	add    esp,0x10
10007a2e:	83 ec 04             	sub    esp,0x4
10007a31:	6a 01                	push   0x1
10007a33:	6a 00                	push   0x0
10007a35:	ff 75 08             	push   DWORD PTR [ebp+0x8]
10007a38:	e8 76 f8 ff ff       	call   0x100072b3
10007a3d:	83 c4 10             	add    esp,0x10
10007a40:	c9                   	leave  
10007a41:	c3                   	ret    
10007a42:	55                   	push   ebp
10007a43:	89 e5                	mov    ebp,esp
10007a45:	53                   	push   ebx
10007a46:	83 ec 24             	sub    esp,0x24
10007a49:	8b 55 0c             	mov    edx,DWORD PTR [ebp+0xc]
10007a4c:	8b 45 10             	mov    eax,DWORD PTR [ebp+0x10]
10007a4f:	8b 4d 14             	mov    ecx,DWORD PTR [ebp+0x14]
10007a52:	66 89 55 e4          	mov    WORD PTR [ebp-0x1c],dx
10007a56:	66 89 45 e0          	mov    WORD PTR [ebp-0x20],ax
10007a5a:	88 c8                	mov    al,cl
10007a5c:	88 45 dc             	mov    BYTE PTR [ebp-0x24],al
10007a5f:	83 7d 08 00          	cmp    DWORD PTR [ebp+0x8],0x0
10007a63:	0f 84 02 02 00 00    	je     0x10007c6b
10007a69:	c7 45 f0 00 00 00 00 	mov    DWORD PTR [ebp-0x10],0x0
10007a70:	8b 45 08             	mov    eax,DWORD PTR [ebp+0x8]
10007a73:	8b 40 1c             	mov    eax,DWORD PTR [eax+0x1c]
10007a76:	8b 00                	mov    eax,DWORD PTR [eax]
10007a78:	48                   	dec    eax
10007a79:	89 45 f4             	mov    DWORD PTR [ebp-0xc],eax
10007a7c:	e9 dc 00 00 00       	jmp    0x10007b5d
10007a81:	8b 55 f4             	mov    edx,DWORD PTR [ebp-0xc]
10007a84:	8b 45 08             	mov    eax,DWORD PTR [ebp+0x8]
10007a87:	8b 40 1c             	mov    eax,DWORD PTR [eax+0x1c]
10007a8a:	83 ec 08             	sub    esp,0x8
10007a8d:	52                   	push   edx
10007a8e:	50                   	push   eax
10007a8f:	e8 fa aa ff ff       	call   0x1000258e
10007a94:	83 c4 10             	add    esp,0x10
10007a97:	89 45 f0             	mov    DWORD PTR [ebp-0x10],eax
10007a9a:	83 7d f0 00          	cmp    DWORD PTR [ebp-0x10],0x0
10007a9e:	0f 84 b2 00 00 00    	je     0x10007b56
10007aa4:	0f b7 55 e4          	movzx  edx,WORD PTR [ebp-0x1c]
10007aa8:	8b 45 f0             	mov    eax,DWORD PTR [ebp-0x10]
10007aab:	8b 40 04             	mov    eax,DWORD PTR [eax+0x4]
10007aae:	98                   	cwde   
10007aaf:	39 c2                	cmp    edx,eax
10007ab1:	7c 4a                	jl     0x10007afd
10007ab3:	0f b7 55 e4          	movzx  edx,WORD PTR [ebp-0x1c]
10007ab7:	8b 45 f0             	mov    eax,DWORD PTR [ebp-0x10]
10007aba:	8b 40 04             	mov    eax,DWORD PTR [eax+0x4]
10007abd:	0f bf c8             	movsx  ecx,ax
10007ac0:	8b 45 f0             	mov    eax,DWORD PTR [ebp-0x10]
10007ac3:	8b 40 08             	mov    eax,DWORD PTR [eax+0x8]
10007ac6:	0f b7 c0             	movzx  eax,ax
10007ac9:	01 c8                	add    eax,ecx
10007acb:	39 c2                	cmp    edx,eax
10007acd:	7d 2e                	jge    0x10007afd
10007acf:	0f b7 55 e0          	movzx  edx,WORD PTR [ebp-0x20]
10007ad3:	8b 45 f0             	mov    eax,DWORD PTR [ebp-0x10]
10007ad6:	66 8b 40 06          	mov    ax,WORD PTR [eax+0x6]
10007ada:	98                   	cwde   
10007adb:	39 c2                	cmp    edx,eax
10007add:	7c 1e                	jl     0x10007afd
10007adf:	0f b7 55 e0          	movzx  edx,WORD PTR [ebp-0x20]
10007ae3:	8b 45 f0             	mov    eax,DWORD PTR [ebp-0x10]
10007ae6:	66 8b 40 06          	mov    ax,WORD PTR [eax+0x6]
10007aea:	0f bf c8             	movsx  ecx,ax
10007aed:	8b 45 f0             	mov    eax,DWORD PTR [ebp-0x10]
10007af0:	66 8b 40 0a          	mov    ax,WORD PTR [eax+0xa]
10007af4:	0f b7 c0             	movzx  eax,ax
10007af7:	01 c8                	add    eax,ecx
10007af9:	39 c2                	cmp    edx,eax
10007afb:	7c 24                	jl     0x10007b21
10007afd:	8b 45 f0             	mov    eax,DWORD PTR [ebp-0x10]
10007b00:	8b 40 44             	mov    eax,DWORD PTR [eax+0x44]
10007b03:	85 c0                	test   eax,eax
10007b05:	74 52                	je     0x10007b59
10007b07:	8b 45 f0             	mov    eax,DWORD PTR [ebp-0x10]
10007b0a:	8b 40 44             	mov    eax,DWORD PTR [eax+0x44]
10007b0d:	8b 55 f0             	mov    edx,DWORD PTR [ebp-0x10]
10007b10:	8b 52 2c             	mov    edx,DWORD PTR [edx+0x2c]
10007b13:	83 ec 08             	sub    esp,0x8
10007b16:	52                   	push   edx
10007b17:	ff 75 f0             	push   DWORD PTR [ebp-0x10]
10007b1a:	ff d0                	call   eax
10007b1c:	83 c4 10             	add    esp,0x10
10007b1f:	eb 38                	jmp    0x10007b59
10007b21:	0f b6 4d dc          	movzx  ecx,BYTE PTR [ebp-0x24]
10007b25:	8b 45 f0             	mov    eax,DWORD PTR [ebp-0x10]
10007b28:	66 8b 40 06          	mov    ax,WORD PTR [eax+0x6]
10007b2c:	89 c2                	mov    edx,eax
10007b2e:	8b 45 e0             	mov    eax,DWORD PTR [ebp-0x20]
10007b31:	29 d0                	sub    eax,edx
10007b33:	0f b7 d0             	movzx  edx,ax
10007b36:	8b 45 f0             	mov    eax,DWORD PTR [ebp-0x10]
10007b39:	8b 40 04             	mov    eax,DWORD PTR [eax+0x4]
10007b3c:	89 c3                	mov    ebx,eax
10007b3e:	8b 45 e4             	mov    eax,DWORD PTR [ebp-0x1c]
10007b41:	29 d8                	sub    eax,ebx
10007b43:	0f b7 c0             	movzx  eax,ax
10007b46:	51                   	push   ecx
10007b47:	52                   	push   edx
10007b48:	50                   	push   eax
10007b49:	ff 75 f0             	push   DWORD PTR [ebp-0x10]
10007b4c:	e8 f1 fe ff ff       	call   0x10007a42
10007b51:	83 c4 10             	add    esp,0x10
10007b54:	eb 11                	jmp    0x10007b67
10007b56:	90                   	nop
10007b57:	eb 01                	jmp    0x10007b5a
10007b59:	90                   	nop
10007b5a:	ff 4d f4             	dec    DWORD PTR [ebp-0xc]
10007b5d:	83 7d f4 00          	cmp    DWORD PTR [ebp-0xc],0x0
10007b61:	0f 89 1a ff ff ff    	jns    0x10007a81
10007b67:	8b 45 08             	mov    eax,DWORD PTR [ebp+0x8]
10007b6a:	8b 40 3c             	mov    eax,DWORD PTR [eax+0x3c]
10007b6d:	85 c0                	test   eax,eax
10007b6f:	74 2a                	je     0x10007b9b
10007b71:	0f b6 45 dc          	movzx  eax,BYTE PTR [ebp-0x24]
10007b75:	83 e0 02             	and    eax,0x2
10007b78:	85 c0                	test   eax,eax
10007b7a:	75 1f                	jne    0x10007b9b
10007b7c:	8b 45 08             	mov    eax,DWORD PTR [ebp+0x8]
10007b7f:	8b 40 3c             	mov    eax,DWORD PTR [eax+0x3c]
10007b82:	0f b7 5d e0          	movzx  ebx,WORD PTR [ebp-0x20]
10007b86:	0f b7 4d e4          	movzx  ecx,WORD PTR [ebp-0x1c]
10007b8a:	8b 55 08             	mov    edx,DWORD PTR [ebp+0x8]
10007b8d:	8b 52 2c             	mov    edx,DWORD PTR [edx+0x2c]
10007b90:	53                   	push   ebx
10007b91:	51                   	push   ecx
10007b92:	52                   	push   edx
10007b93:	ff 75 08             	push   DWORD PTR [ebp+0x8]
10007b96:	ff d0                	call   eax
10007b98:	83 c4 10             	add    esp,0x10
10007b9b:	8b 45 08             	mov    eax,DWORD PTR [ebp+0x8]
10007b9e:	8b 40 34             	mov    eax,DWORD PTR [eax+0x34]
10007ba1:	85 c0                	test   eax,eax
10007ba3:	74 2a                	je     0x10007bcf
10007ba5:	0f b6 45 dc          	movzx  eax,BYTE PTR [ebp-0x24]
10007ba9:	83 e0 02             	and    eax,0x2
10007bac:	85 c0                	test   eax,eax
10007bae:	74 1f                	je     0x10007bcf
10007bb0:	8b 45 08             	mov    eax,DWORD PTR [ebp+0x8]
10007bb3:	8b 40 34             	mov    eax,DWORD PTR [eax+0x34]
10007bb6:	0f b7 5d e0          	movzx  ebx,WORD PTR [ebp-0x20]
10007bba:	0f b7 4d e4          	movzx  ecx,WORD PTR [ebp-0x1c]
10007bbe:	8b 55 08             	mov    edx,DWORD PTR [ebp+0x8]
10007bc1:	8b 52 2c             	mov    edx,DWORD PTR [edx+0x2c]
10007bc4:	53                   	push   ebx
10007bc5:	51                   	push   ecx
10007bc6:	52                   	push   edx
10007bc7:	ff 75 08             	push   DWORD PTR [ebp+0x8]
10007bca:	ff d0                	call   eax
10007bcc:	83 c4 10             	add    esp,0x10
10007bcf:	8b 45 08             	mov    eax,DWORD PTR [ebp+0x8]
10007bd2:	8b 40 38             	mov    eax,DWORD PTR [eax+0x38]
10007bd5:	85 c0                	test   eax,eax
10007bd7:	74 2a                	je     0x10007c03
10007bd9:	0f b6 45 dc          	movzx  eax,BYTE PTR [ebp-0x24]
10007bdd:	83 e0 01             	and    eax,0x1
10007be0:	85 c0                	test   eax,eax
10007be2:	75 1f                	jne    0x10007c03
10007be4:	8b 45 08             	mov    eax,DWORD PTR [ebp+0x8]
10007be7:	8b 40 38             	mov    eax,DWORD PTR [eax+0x38]
10007bea:	0f b7 5d e0          	movzx  ebx,WORD PTR [ebp-0x20]
10007bee:	0f b7 4d e4          	movzx  ecx,WORD PTR [ebp-0x1c]
10007bf2:	8b 55 08             	mov    edx,DWORD PTR [ebp+0x8]
10007bf5:	8b 52 2c             	mov    edx,DWORD PTR [edx+0x2c]
10007bf8:	53                   	push   ebx
10007bf9:	51                   	push   ecx
10007bfa:	52                   	push   edx
10007bfb:	ff 75 08             	push   DWORD PTR [ebp+0x8]
10007bfe:	ff d0                	call   eax
10007c00:	83 c4 10             	add    esp,0x10
10007c03:	8b 45 08             	mov    eax,DWORD PTR [ebp+0x8]
10007c06:	8b 40 30             	mov    eax,DWORD PTR [eax+0x30]
10007c09:	85 c0                	test   eax,eax
10007c0b:	74 2a                	je     0x10007c37
10007c0d:	0f b6 45 dc          	movzx  eax,BYTE PTR [ebp-0x24]
10007c11:	83 e0 01             	and    eax,0x1
10007c14:	85 c0                	test   eax,eax
10007c16:	74 1f                	je     0x10007c37
10007c18:	8b 45 08             	mov    eax,DWORD PTR [ebp+0x8]
10007c1b:	8b 40 30             	mov    eax,DWORD PTR [eax+0x30]
10007c1e:	0f b7 5d e0          	movzx  ebx,WORD PTR [ebp-0x20]
10007c22:	0f b7 4d e4          	movzx  ecx,WORD PTR [ebp-0x1c]
10007c26:	8b 55 08             	mov    edx,DWORD PTR [ebp+0x8]
10007c29:	8b 52 2c             	mov    edx,DWORD PTR [edx+0x2c]
10007c2c:	53                   	push   ebx
10007c2d:	51                   	push   ecx
10007c2e:	52                   	push   edx
10007c2f:	ff 75 08             	push   DWORD PTR [ebp+0x8]
10007c32:	ff d0                	call   eax
10007c34:	83 c4 10             	add    esp,0x10
10007c37:	8b 45 08             	mov    eax,DWORD PTR [ebp+0x8]
10007c3a:	8b 40 40             	mov    eax,DWORD PTR [eax+0x40]
10007c3d:	85 c0                	test   eax,eax
10007c3f:	74 1f                	je     0x10007c60
10007c41:	8b 45 08             	mov    eax,DWORD PTR [ebp+0x8]
10007c44:	8b 40 40             	mov    eax,DWORD PTR [eax+0x40]
10007c47:	0f b7 5d e0          	movzx  ebx,WORD PTR [ebp-0x20]
10007c4b:	0f b7 4d e4          	movzx  ecx,WORD PTR [ebp-0x1c]
10007c4f:	8b 55 08             	mov    edx,DWORD PTR [ebp+0x8]
10007c52:	8b 52 2c             	mov    edx,DWORD PTR [edx+0x2c]
10007c55:	53                   	push   ebx
10007c56:	51                   	push   ecx
10007c57:	52                   	push   edx
10007c58:	ff 75 08             	push   DWORD PTR [ebp+0x8]
10007c5b:	ff d0                	call   eax
10007c5d:	83 c4 10             	add    esp,0x10
10007c60:	8b 45 08             	mov    eax,DWORD PTR [ebp+0x8]
10007c63:	8a 55 dc             	mov    dl,BYTE PTR [ebp-0x24]
10007c66:	88 50 24             	mov    BYTE PTR [eax+0x24],dl
10007c69:	eb 01                	jmp    0x10007c6c
10007c6b:	90                   	nop
10007c6c:	8b 5d fc             	mov    ebx,DWORD PTR [ebp-0x4]
10007c6f:	c9                   	leave  
10007c70:	c3                   	ret    
10007c71:	55                   	push   ebp
10007c72:	89 e5                	mov    ebp,esp
10007c74:	57                   	push   edi
10007c75:	56                   	push   esi
10007c76:	53                   	push   ebx
10007c77:	83 ec 2c             	sub    esp,0x2c
10007c7a:	83 7d 08 00          	cmp    DWORD PTR [ebp+0x8],0x0
10007c7e:	0f 84 a1 00 00 00    	je     0x10007d25
10007c84:	8b 45 08             	mov    eax,DWORD PTR [ebp+0x8]
10007c87:	8b 40 48             	mov    eax,DWORD PTR [eax+0x48]
10007c8a:	85 c0                	test   eax,eax
10007c8c:	74 3a                	je     0x10007cc8
10007c8e:	8b 45 08             	mov    eax,DWORD PTR [ebp+0x8]
10007c91:	8b 40 48             	mov    eax,DWORD PTR [eax+0x48]
10007c94:	89 45 d4             	mov    DWORD PTR [ebp-0x2c],eax
10007c97:	8b 45 08             	mov    eax,DWORD PTR [ebp+0x8]
10007c9a:	8b 48 2c             	mov    ecx,DWORD PTR [eax+0x2c]
10007c9d:	89 4d d0             	mov    DWORD PTR [ebp-0x30],ecx
10007ca0:	83 ec 08             	sub    esp,0x8
10007ca3:	83 ec 10             	sub    esp,0x10
10007ca6:	89 e0                	mov    eax,esp
10007ca8:	89 c3                	mov    ebx,eax
10007caa:	8d 45 0c             	lea    eax,[ebp+0xc]
10007cad:	ba 04 00 00 00       	mov    edx,0x4
10007cb2:	89 df                	mov    edi,ebx
10007cb4:	89 c6                	mov    esi,eax
10007cb6:	89 d1                	mov    ecx,edx
10007cb8:	f3 a5                	rep movs DWORD PTR es:[edi],DWORD PTR ds:[esi]
10007cba:	ff 75 d0             	push   DWORD PTR [ebp-0x30]
10007cbd:	ff 75 08             	push   DWORD PTR [ebp+0x8]
10007cc0:	8b 45 d4             	mov    eax,DWORD PTR [ebp-0x2c]
10007cc3:	ff d0                	call   eax
10007cc5:	83 c4 20             	add    esp,0x20
10007cc8:	8b 45 08             	mov    eax,DWORD PTR [ebp+0x8]
10007ccb:	8b 40 1c             	mov    eax,DWORD PTR [eax+0x1c]
10007cce:	8b 00                	mov    eax,DWORD PTR [eax]
10007cd0:	48                   	dec    eax
10007cd1:	89 45 e4             	mov    DWORD PTR [ebp-0x1c],eax
10007cd4:	eb 47                	jmp    0x10007d1d
10007cd6:	8b 55 e4             	mov    edx,DWORD PTR [ebp-0x1c]
10007cd9:	8b 45 08             	mov    eax,DWORD PTR [ebp+0x8]
10007cdc:	8b 40 1c             	mov    eax,DWORD PTR [eax+0x1c]
10007cdf:	83 ec 08             	sub    esp,0x8
10007ce2:	52                   	push   edx
10007ce3:	50                   	push   eax
10007ce4:	e8 a5 a8 ff ff       	call   0x1000258e
10007ce9:	83 c4 10             	add    esp,0x10
10007cec:	89 45 e0             	mov    DWORD PTR [ebp-0x20],eax
10007cef:	83 7d e0 00          	cmp    DWORD PTR [ebp-0x20],0x0
10007cf3:	74 25                	je     0x10007d1a
10007cf5:	83 ec 0c             	sub    esp,0xc
10007cf8:	83 ec 10             	sub    esp,0x10
10007cfb:	89 e0                	mov    eax,esp
10007cfd:	89 c3                	mov    ebx,eax
10007cff:	8d 45 0c             	lea    eax,[ebp+0xc]
10007d02:	ba 04 00 00 00       	mov    edx,0x4
10007d07:	89 df                	mov    edi,ebx
10007d09:	89 c6                	mov    esi,eax
10007d0b:	89 d1                	mov    ecx,edx
10007d0d:	f3 a5                	rep movs DWORD PTR es:[edi],DWORD PTR ds:[esi]
10007d0f:	ff 75 e0             	push   DWORD PTR [ebp-0x20]
10007d12:	e8 5a ff ff ff       	call   0x10007c71
10007d17:	83 c4 20             	add    esp,0x20
10007d1a:	ff 4d e4             	dec    DWORD PTR [ebp-0x1c]
10007d1d:	83 7d e4 00          	cmp    DWORD PTR [ebp-0x1c],0x0
10007d21:	79 b3                	jns    0x10007cd6
10007d23:	eb 01                	jmp    0x10007d26
10007d25:	90                   	nop
10007d26:	8d 65 f4             	lea    esp,[ebp-0xc]
10007d29:	5b                   	pop    ebx
10007d2a:	5e                   	pop    esi
10007d2b:	5f                   	pop    edi
10007d2c:	5d                   	pop    ebp
10007d2d:	c3                   	ret    
10007d2e:	90                   	nop
10007d2f:	c3                   	ret    
10007d30:	55                   	push   ebp
10007d31:	89 e5                	mov    ebp,esp
10007d33:	83 ec 18             	sub    esp,0x18
10007d36:	8b 45 08             	mov    eax,DWORD PTR [ebp+0x8]
10007d39:	8b 55 0c             	mov    edx,DWORD PTR [ebp+0xc]
10007d3c:	89 50 10             	mov    DWORD PTR [eax+0x10],edx
10007d3f:	c7 45 f4 00 00 00 00 	mov    DWORD PTR [ebp-0xc],0x0
10007d46:	eb 28                	jmp    0x10007d70
10007d48:	8b 55 f4             	mov    edx,DWORD PTR [ebp-0xc]
10007d4b:	8b 45 08             	mov    eax,DWORD PTR [ebp+0x8]
10007d4e:	8b 40 1c             	mov    eax,DWORD PTR [eax+0x1c]
10007d51:	83 ec 08             	sub    esp,0x8
10007d54:	52                   	push   edx
10007d55:	50                   	push   eax
10007d56:	e8 33 a8 ff ff       	call   0x1000258e
10007d5b:	83 c4 10             	add    esp,0x10
10007d5e:	83 ec 08             	sub    esp,0x8
10007d61:	ff 75 0c             	push   DWORD PTR [ebp+0xc]
10007d64:	50                   	push   eax
10007d65:	e8 c6 ff ff ff       	call   0x10007d30
10007d6a:	83 c4 10             	add    esp,0x10
10007d6d:	ff 45 f4             	inc    DWORD PTR [ebp-0xc]
10007d70:	8b 45 08             	mov    eax,DWORD PTR [ebp+0x8]
10007d73:	8b 40 1c             	mov    eax,DWORD PTR [eax+0x1c]
10007d76:	8b 10                	mov    edx,DWORD PTR [eax]
10007d78:	8b 45 f4             	mov    eax,DWORD PTR [ebp-0xc]
10007d7b:	39 c2                	cmp    edx,eax
10007d7d:	77 c9                	ja     0x10007d48
10007d7f:	90                   	nop
10007d80:	c9                   	leave  
10007d81:	c3                   	ret    
10007d82:	55                   	push   ebp
10007d83:	89 e5                	mov    ebp,esp
10007d85:	83 ec 08             	sub    esp,0x8
10007d88:	8b 45 0c             	mov    eax,DWORD PTR [ebp+0xc]
10007d8b:	8b 55 08             	mov    edx,DWORD PTR [ebp+0x8]
10007d8e:	89 10                	mov    DWORD PTR [eax],edx
10007d90:	8b 45 08             	mov    eax,DWORD PTR [ebp+0x8]
10007d93:	8b 40 1c             	mov    eax,DWORD PTR [eax+0x1c]
10007d96:	83 ec 08             	sub    esp,0x8
10007d99:	ff 75 0c             	push   DWORD PTR [ebp+0xc]
10007d9c:	50                   	push   eax
10007d9d:	e8 6f a7 ff ff       	call   0x10002511
10007da2:	83 c4 10             	add    esp,0x10
10007da5:	8b 45 0c             	mov    eax,DWORD PTR [ebp+0xc]
10007da8:	8b 00                	mov    eax,DWORD PTR [eax]
10007daa:	8b 55 0c             	mov    edx,DWORD PTR [ebp+0xc]
10007dad:	89 50 18             	mov    DWORD PTR [eax+0x18],edx
10007db0:	8b 45 08             	mov    eax,DWORD PTR [ebp+0x8]
10007db3:	8b 40 10             	mov    eax,DWORD PTR [eax+0x10]
10007db6:	83 ec 08             	sub    esp,0x8
10007db9:	50                   	push   eax
10007dba:	ff 75 0c             	push   DWORD PTR [ebp+0xc]
10007dbd:	e8 6e ff ff ff       	call   0x10007d30
10007dc2:	83 c4 10             	add    esp,0x10
10007dc5:	90                   	nop
10007dc6:	c9                   	leave  
10007dc7:	c3                   	ret    
10007dc8:	55                   	push   ebp
10007dc9:	89 e5                	mov    ebp,esp
10007dcb:	83 ec 28             	sub    esp,0x28
10007dce:	c7 45 f4 00 00 00 00 	mov    DWORD PTR [ebp-0xc],0x0
10007dd5:	e9 84 00 00 00       	jmp    0x10007e5e
10007dda:	8b 55 f4             	mov    edx,DWORD PTR [ebp-0xc]
10007ddd:	8b 45 08             	mov    eax,DWORD PTR [ebp+0x8]
10007de0:	8b 40 1c             	mov    eax,DWORD PTR [eax+0x1c]
10007de3:	83 ec 08             	sub    esp,0x8
10007de6:	52                   	push   edx
10007de7:	50                   	push   eax
10007de8:	e8 a1 a7 ff ff       	call   0x1000258e
10007ded:	83 c4 10             	add    esp,0x10
10007df0:	89 45 f0             	mov    DWORD PTR [ebp-0x10],eax
10007df3:	8b 45 f0             	mov    eax,DWORD PTR [ebp-0x10]
10007df6:	3b 45 0c             	cmp    eax,DWORD PTR [ebp+0xc]
10007df9:	75 60                	jne    0x10007e5b
10007dfb:	8b 45 f0             	mov    eax,DWORD PTR [ebp-0x10]
10007dfe:	8b 40 04             	mov    eax,DWORD PTR [eax+0x4]
10007e01:	98                   	cwde   
10007e02:	89 45 ec             	mov    DWORD PTR [ebp-0x14],eax
10007e05:	8b 45 f0             	mov    eax,DWORD PTR [ebp-0x10]
10007e08:	66 8b 40 06          	mov    ax,WORD PTR [eax+0x6]
10007e0c:	98                   	cwde   
10007e0d:	89 45 e8             	mov    DWORD PTR [ebp-0x18],eax
10007e10:	8b 45 f0             	mov    eax,DWORD PTR [ebp-0x10]
10007e13:	8b 40 08             	mov    eax,DWORD PTR [eax+0x8]
10007e16:	0f b7 c0             	movzx  eax,ax
10007e19:	89 45 e4             	mov    DWORD PTR [ebp-0x1c],eax
10007e1c:	8b 45 f0             	mov    eax,DWORD PTR [ebp-0x10]
10007e1f:	66 8b 40 0a          	mov    ax,WORD PTR [eax+0xa]
10007e23:	0f b7 c0             	movzx  eax,ax
10007e26:	89 45 e0             	mov    DWORD PTR [ebp-0x20],eax
10007e29:	8b 55 f4             	mov    edx,DWORD PTR [ebp-0xc]
10007e2c:	8b 45 08             	mov    eax,DWORD PTR [ebp+0x8]
10007e2f:	8b 40 1c             	mov    eax,DWORD PTR [eax+0x1c]
10007e32:	83 ec 08             	sub    esp,0x8
10007e35:	52                   	push   edx
10007e36:	50                   	push   eax
10007e37:	e8 b2 a7 ff ff       	call   0x100025ee
10007e3c:	83 c4 10             	add    esp,0x10
10007e3f:	83 ec 0c             	sub    esp,0xc
10007e42:	ff 75 e4             	push   DWORD PTR [ebp-0x1c]
10007e45:	ff 75 e0             	push   DWORD PTR [ebp-0x20]
10007e48:	ff 75 e8             	push   DWORD PTR [ebp-0x18]
10007e4b:	ff 75 ec             	push   DWORD PTR [ebp-0x14]
10007e4e:	ff 75 08             	push   DWORD PTR [ebp+0x8]
10007e51:	e8 67 f3 ff ff       	call   0x100071bd
10007e56:	83 c4 20             	add    esp,0x20
10007e59:	eb 16                	jmp    0x10007e71
10007e5b:	ff 45 f4             	inc    DWORD PTR [ebp-0xc]
10007e5e:	8b 45 08             	mov    eax,DWORD PTR [ebp+0x8]
10007e61:	8b 40 1c             	mov    eax,DWORD PTR [eax+0x1c]
10007e64:	8b 10                	mov    edx,DWORD PTR [eax]
10007e66:	8b 45 f4             	mov    eax,DWORD PTR [ebp-0xc]
10007e69:	39 c2                	cmp    edx,eax
10007e6b:	0f 87 69 ff ff ff    	ja     0x10007dda
10007e71:	c9                   	leave  
10007e72:	c3                   	ret    
10007e73:	55                   	push   ebp
10007e74:	89 e5                	mov    ebp,esp
10007e76:	57                   	push   edi
10007e77:	56                   	push   esi
10007e78:	53                   	push   ebx
10007e79:	83 ec 3c             	sub    esp,0x3c
10007e7c:	8b 75 0c             	mov    esi,DWORD PTR [ebp+0xc]
10007e7f:	8b 5d 10             	mov    ebx,DWORD PTR [ebp+0x10]
10007e82:	8b 4d 14             	mov    ecx,DWORD PTR [ebp+0x14]
10007e85:	8b 55 18             	mov    edx,DWORD PTR [ebp+0x18]
10007e88:	8b 45 1c             	mov    eax,DWORD PTR [ebp+0x1c]
10007e8b:	66 89 75 d4          	mov    WORD PTR [ebp-0x2c],si
10007e8f:	66 89 5d d0          	mov    WORD PTR [ebp-0x30],bx
10007e93:	66 89 4d cc          	mov    WORD PTR [ebp-0x34],cx
10007e97:	66 89 55 c8          	mov    WORD PTR [ebp-0x38],dx
10007e9b:	66 89 45 c4          	mov    WORD PTR [ebp-0x3c],ax
10007e9f:	8b 45 08             	mov    eax,DWORD PTR [ebp+0x8]
10007ea2:	8b 78 10             	mov    edi,DWORD PTR [eax+0x10]
10007ea5:	0f b7 75 c4          	movzx  esi,WORD PTR [ebp-0x3c]
10007ea9:	8b 45 c8             	mov    eax,DWORD PTR [ebp-0x38]
10007eac:	0f b7 d8             	movzx  ebx,ax
10007eaf:	0f b7 4d cc          	movzx  ecx,WORD PTR [ebp-0x34]
10007eb3:	0f bf 55 d0          	movsx  edx,WORD PTR [ebp-0x30]
10007eb7:	0f bf 45 d4          	movsx  eax,WORD PTR [ebp-0x2c]
10007ebb:	83 ec 08             	sub    esp,0x8
10007ebe:	57                   	push   edi
10007ebf:	56                   	push   esi
10007ec0:	53                   	push   ebx
10007ec1:	51                   	push   ecx
10007ec2:	52                   	push   edx
10007ec3:	50                   	push   eax
10007ec4:	e8 b0 ee ff ff       	call   0x10006d79
10007ec9:	83 c4 20             	add    esp,0x20
10007ecc:	89 45 e4             	mov    DWORD PTR [ebp-0x1c],eax
10007ecf:	83 7d e4 00          	cmp    DWORD PTR [ebp-0x1c],0x0
10007ed3:	75 05                	jne    0x10007eda
10007ed5:	8b 45 e4             	mov    eax,DWORD PTR [ebp-0x1c]
10007ed8:	eb 44                	jmp    0x10007f1e
10007eda:	8b 45 08             	mov    eax,DWORD PTR [ebp+0x8]
10007edd:	8b 40 1c             	mov    eax,DWORD PTR [eax+0x1c]
10007ee0:	83 ec 08             	sub    esp,0x8
10007ee3:	ff 75 e4             	push   DWORD PTR [ebp-0x1c]
10007ee6:	50                   	push   eax
10007ee7:	e8 25 a6 ff ff       	call   0x10002511
10007eec:	83 c4 10             	add    esp,0x10
10007eef:	85 c0                	test   eax,eax
10007ef1:	75 15                	jne    0x10007f08
10007ef3:	83 ec 0c             	sub    esp,0xc
10007ef6:	ff 75 e4             	push   DWORD PTR [ebp-0x1c]
10007ef9:	e8 7e 18 00 00       	call   0x1000977c
10007efe:	83 c4 10             	add    esp,0x10
10007f01:	b8 00 00 00 00       	mov    eax,0x0
10007f06:	eb 16                	jmp    0x10007f1e
10007f08:	8b 45 e4             	mov    eax,DWORD PTR [ebp-0x1c]
10007f0b:	8b 55 08             	mov    edx,DWORD PTR [ebp+0x8]
10007f0e:	89 10                	mov    DWORD PTR [eax],edx
10007f10:	8b 45 e4             	mov    eax,DWORD PTR [ebp-0x1c]
10007f13:	8b 00                	mov    eax,DWORD PTR [eax]
10007f15:	8b 55 e4             	mov    edx,DWORD PTR [ebp-0x1c]
10007f18:	89 50 18             	mov    DWORD PTR [eax+0x18],edx
10007f1b:	8b 45 e4             	mov    eax,DWORD PTR [ebp-0x1c]
10007f1e:	8d 65 f4             	lea    esp,[ebp-0xc]
10007f21:	5b                   	pop    ebx
10007f22:	5e                   	pop    esi
10007f23:	5f                   	pop    edi
10007f24:	5d                   	pop    ebp
10007f25:	c3                   	ret    
10007f26:	55                   	push   ebp
10007f27:	89 e5                	mov    ebp,esp
10007f29:	83 ec 18             	sub    esp,0x18
10007f2c:	8b 45 08             	mov    eax,DWORD PTR [ebp+0x8]
10007f2f:	8b 40 4c             	mov    eax,DWORD PTR [eax+0x4c]
10007f32:	85 c0                	test   eax,eax
10007f34:	74 2f                	je     0x10007f65
10007f36:	c7 45 f4 00 00 00 00 	mov    DWORD PTR [ebp-0xc],0x0
10007f3d:	eb 03                	jmp    0x10007f42
10007f3f:	ff 45 f4             	inc    DWORD PTR [ebp-0xc]
10007f42:	8b 45 08             	mov    eax,DWORD PTR [ebp+0x8]
10007f45:	8b 50 4c             	mov    edx,DWORD PTR [eax+0x4c]
10007f48:	8b 45 f4             	mov    eax,DWORD PTR [ebp-0xc]
10007f4b:	01 d0                	add    eax,edx
10007f4d:	8a 00                	mov    al,BYTE PTR [eax]
10007f4f:	84 c0                	test   al,al
10007f51:	75 ec                	jne    0x10007f3f
10007f53:	8b 45 08             	mov    eax,DWORD PTR [ebp+0x8]
10007f56:	8b 40 4c             	mov    eax,DWORD PTR [eax+0x4c]
10007f59:	83 ec 0c             	sub    esp,0xc
10007f5c:	50                   	push   eax
10007f5d:	e8 1a 18 00 00       	call   0x1000977c
10007f62:	83 c4 10             	add    esp,0x10
10007f65:	c7 45 f4 00 00 00 00 	mov    DWORD PTR [ebp-0xc],0x0
10007f6c:	eb 03                	jmp    0x10007f71
10007f6e:	ff 45 f4             	inc    DWORD PTR [ebp-0xc]
10007f71:	8b 55 f4             	mov    edx,DWORD PTR [ebp-0xc]
10007f74:	8b 45 0c             	mov    eax,DWORD PTR [ebp+0xc]
10007f77:	01 d0                	add    eax,edx
10007f79:	8a 00                	mov    al,BYTE PTR [eax]
10007f7b:	84 c0                	test   al,al
10007f7d:	75 ef                	jne    0x10007f6e
10007f7f:	8b 45 f4             	mov    eax,DWORD PTR [ebp-0xc]
10007f82:	40                   	inc    eax
10007f83:	83 ec 0c             	sub    esp,0xc
10007f86:	50                   	push   eax
10007f87:	e8 d8 17 00 00       	call   0x10009764
10007f8c:	83 c4 10             	add    esp,0x10
10007f8f:	89 c2                	mov    edx,eax
10007f91:	8b 45 08             	mov    eax,DWORD PTR [ebp+0x8]
10007f94:	89 50 4c             	mov    DWORD PTR [eax+0x4c],edx
10007f97:	8b 45 08             	mov    eax,DWORD PTR [ebp+0x8]
10007f9a:	8b 40 4c             	mov    eax,DWORD PTR [eax+0x4c]
10007f9d:	85 c0                	test   eax,eax
10007f9f:	74 3c                	je     0x10007fdd
10007fa1:	c7 45 f0 00 00 00 00 	mov    DWORD PTR [ebp-0x10],0x0
10007fa8:	eb 1b                	jmp    0x10007fc5
10007faa:	8b 55 f0             	mov    edx,DWORD PTR [ebp-0x10]
10007fad:	8b 45 0c             	mov    eax,DWORD PTR [ebp+0xc]
10007fb0:	8d 0c 02             	lea    ecx,[edx+eax*1]
10007fb3:	8b 45 08             	mov    eax,DWORD PTR [ebp+0x8]
10007fb6:	8b 50 4c             	mov    edx,DWORD PTR [eax+0x4c]
10007fb9:	8b 45 f0             	mov    eax,DWORD PTR [ebp-0x10]
10007fbc:	01 c2                	add    edx,eax
10007fbe:	8a 01                	mov    al,BYTE PTR [ecx]
10007fc0:	88 02                	mov    BYTE PTR [edx],al
10007fc2:	ff 45 f0             	inc    DWORD PTR [ebp-0x10]
10007fc5:	8b 45 f0             	mov    eax,DWORD PTR [ebp-0x10]
10007fc8:	3b 45 f4             	cmp    eax,DWORD PTR [ebp-0xc]
10007fcb:	7e dd                	jle    0x10007faa
10007fcd:	83 ec 0c             	sub    esp,0xc
10007fd0:	ff 75 08             	push   DWORD PTR [ebp+0x8]
10007fd3:	e8 e3 f1 ff ff       	call   0x100071bb
10007fd8:	83 c4 10             	add    esp,0x10
10007fdb:	eb 01                	jmp    0x10007fde
10007fdd:	90                   	nop
10007fde:	c9                   	leave  
10007fdf:	c3                   	ret    
10007fe0:	55                   	push   ebp
10007fe1:	89 e5                	mov    ebp,esp
10007fe3:	83 ec 18             	sub    esp,0x18
10007fe6:	8b 45 08             	mov    eax,DWORD PTR [ebp+0x8]
10007fe9:	8b 40 4c             	mov    eax,DWORD PTR [eax+0x4c]
10007fec:	85 c0                	test   eax,eax
10007fee:	75 16                	jne    0x10008006
10007ff0:	83 ec 08             	sub    esp,0x8
10007ff3:	ff 75 0c             	push   DWORD PTR [ebp+0xc]
10007ff6:	ff 75 08             	push   DWORD PTR [ebp+0x8]
10007ff9:	e8 28 ff ff ff       	call   0x10007f26
10007ffe:	83 c4 10             	add    esp,0x10
10008001:	e9 00 01 00 00       	jmp    0x10008106
10008006:	c7 45 f4 00 00 00 00 	mov    DWORD PTR [ebp-0xc],0x0
1000800d:	eb 03                	jmp    0x10008012
1000800f:	ff 45 f4             	inc    DWORD PTR [ebp-0xc]
10008012:	8b 45 08             	mov    eax,DWORD PTR [ebp+0x8]
10008015:	8b 50 4c             	mov    edx,DWORD PTR [eax+0x4c]
10008018:	8b 45 f4             	mov    eax,DWORD PTR [ebp-0xc]
1000801b:	01 d0                	add    eax,edx
1000801d:	8a 00                	mov    al,BYTE PTR [eax]
1000801f:	84 c0                	test   al,al
10008021:	75 ec                	jne    0x1000800f
10008023:	c7 45 f0 00 00 00 00 	mov    DWORD PTR [ebp-0x10],0x0
1000802a:	eb 03                	jmp    0x1000802f
1000802c:	ff 45 f0             	inc    DWORD PTR [ebp-0x10]
1000802f:	8b 55 f0             	mov    edx,DWORD PTR [ebp-0x10]
10008032:	8b 45 0c             	mov    eax,DWORD PTR [ebp+0xc]
10008035:	01 d0                	add    eax,edx
10008037:	8a 00                	mov    al,BYTE PTR [eax]
10008039:	84 c0                	test   al,al
1000803b:	75 ef                	jne    0x1000802c
1000803d:	8b 55 f4             	mov    edx,DWORD PTR [ebp-0xc]
10008040:	8b 45 f0             	mov    eax,DWORD PTR [ebp-0x10]
10008043:	01 d0                	add    eax,edx
10008045:	40                   	inc    eax
10008046:	83 ec 0c             	sub    esp,0xc
10008049:	50                   	push   eax
1000804a:	e8 15 17 00 00       	call   0x10009764
1000804f:	83 c4 10             	add    esp,0x10
10008052:	89 45 e8             	mov    DWORD PTR [ebp-0x18],eax
10008055:	83 7d e8 00          	cmp    DWORD PTR [ebp-0x18],0x0
10008059:	0f 84 a6 00 00 00    	je     0x10008105
1000805f:	c7 45 ec 00 00 00 00 	mov    DWORD PTR [ebp-0x14],0x0
10008066:	eb 1a                	jmp    0x10008082
10008068:	8b 45 08             	mov    eax,DWORD PTR [ebp+0x8]
1000806b:	8b 50 4c             	mov    edx,DWORD PTR [eax+0x4c]
1000806e:	8b 45 ec             	mov    eax,DWORD PTR [ebp-0x14]
10008071:	01 d0                	add    eax,edx
10008073:	8b 4d ec             	mov    ecx,DWORD PTR [ebp-0x14]
10008076:	8b 55 e8             	mov    edx,DWORD PTR [ebp-0x18]
10008079:	01 ca                	add    edx,ecx
1000807b:	8a 00                	mov    al,BYTE PTR [eax]
1000807d:	88 02                	mov    BYTE PTR [edx],al
1000807f:	ff 45 ec             	inc    DWORD PTR [ebp-0x14]
10008082:	8b 45 08             	mov    eax,DWORD PTR [ebp+0x8]
10008085:	8b 50 4c             	mov    edx,DWORD PTR [eax+0x4c]
10008088:	8b 45 ec             	mov    eax,DWORD PTR [ebp-0x14]
1000808b:	01 d0                	add    eax,edx
1000808d:	8a 00                	mov    al,BYTE PTR [eax]
1000808f:	84 c0                	test   al,al
10008091:	75 d5                	jne    0x10008068
10008093:	c7 45 ec 00 00 00 00 	mov    DWORD PTR [ebp-0x14],0x0
1000809a:	eb 1e                	jmp    0x100080ba
1000809c:	8b 55 ec             	mov    edx,DWORD PTR [ebp-0x14]
1000809f:	8b 45 0c             	mov    eax,DWORD PTR [ebp+0xc]
100080a2:	01 d0                	add    eax,edx
100080a4:	8b 4d f4             	mov    ecx,DWORD PTR [ebp-0xc]
100080a7:	8b 55 ec             	mov    edx,DWORD PTR [ebp-0x14]
100080aa:	01 ca                	add    edx,ecx
100080ac:	89 d1                	mov    ecx,edx
100080ae:	8b 55 e8             	mov    edx,DWORD PTR [ebp-0x18]
100080b1:	01 ca                	add    edx,ecx
100080b3:	8a 00                	mov    al,BYTE PTR [eax]
100080b5:	88 02                	mov    BYTE PTR [edx],al
100080b7:	ff 45 ec             	inc    DWORD PTR [ebp-0x14]
100080ba:	8b 55 ec             	mov    edx,DWORD PTR [ebp-0x14]
100080bd:	8b 45 0c             	mov    eax,DWORD PTR [ebp+0xc]
100080c0:	01 d0                	add    eax,edx
100080c2:	8a 00                	mov    al,BYTE PTR [eax]
100080c4:	84 c0                	test   al,al
100080c6:	75 d4                	jne    0x1000809c
100080c8:	8b 55 f4             	mov    edx,DWORD PTR [ebp-0xc]
100080cb:	8b 45 ec             	mov    eax,DWORD PTR [ebp-0x14]
100080ce:	01 d0                	add    eax,edx
100080d0:	89 c2                	mov    edx,eax
100080d2:	8b 45 e8             	mov    eax,DWORD PTR [ebp-0x18]
100080d5:	01 d0                	add    eax,edx
100080d7:	c6 00 00             	mov    BYTE PTR [eax],0x0
100080da:	8b 45 08             	mov    eax,DWORD PTR [ebp+0x8]
100080dd:	8b 40 4c             	mov    eax,DWORD PTR [eax+0x4c]
100080e0:	83 ec 0c             	sub    esp,0xc
100080e3:	50                   	push   eax
100080e4:	e8 93 16 00 00       	call   0x1000977c
100080e9:	83 c4 10             	add    esp,0x10
100080ec:	8b 45 08             	mov    eax,DWORD PTR [ebp+0x8]
100080ef:	8b 55 e8             	mov    edx,DWORD PTR [ebp-0x18]
100080f2:	89 50 4c             	mov    DWORD PTR [eax+0x4c],edx
100080f5:	83 ec 0c             	sub    esp,0xc
100080f8:	ff 75 08             	push   DWORD PTR [ebp+0x8]
100080fb:	e8 bb f0 ff ff       	call   0x100071bb
10008100:	83 c4 10             	add    esp,0x10
10008103:	eb 01                	jmp    0x10008106
10008105:	90                   	nop
10008106:	c9                   	leave  
10008107:	c3                   	ret    
10008108:	83 ec 10             	sub    esp,0x10
1000810b:	ff 74 24 18          	push   DWORD PTR [esp+0x18]
1000810f:	ff 74 24 18          	push   DWORD PTR [esp+0x18]
10008113:	ff 35 20 86 01 10    	push   DWORD PTR ds:0x10018620
10008119:	e8 06 00 00 00       	call   0x10008124
1000811e:	83 c4 1c             	add    esp,0x1c
10008121:	c3                   	ret    
10008122:	66 90                	xchg   ax,ax
10008124:	53                   	push   ebx
10008125:	83 ec 10             	sub    esp,0x10
10008128:	8b 44 24 20          	mov    eax,DWORD PTR [esp+0x20]
1000812c:	0f af 44 24 1c       	imul   eax,DWORD PTR [esp+0x1c]
10008131:	50                   	push   eax
10008132:	ff 74 24 1c          	push   DWORD PTR [esp+0x1c]
10008136:	e8 59 16 00 00       	call   0x10009794
1000813b:	89 c3                	mov    ebx,eax
1000813d:	83 c4 10             	add    esp,0x10
10008140:	85 c0                	test   eax,eax
10008142:	74 29                	je     0x1000816d
10008144:	8b 40 fc             	mov    eax,DWORD PTR [eax-0x4]
10008147:	83 e0 fc             	and    eax,0xfffffffc
1000814a:	83 e8 04             	sub    eax,0x4
1000814d:	83 f8 24             	cmp    eax,0x24
10008150:	77 4e                	ja     0x100081a0
10008152:	83 f8 13             	cmp    eax,0x13
10008155:	77 1d                	ja     0x10008174
10008157:	89 d8                	mov    eax,ebx
10008159:	c7 00 00 00 00 00    	mov    DWORD PTR [eax],0x0
1000815f:	c7 40 04 00 00 00 00 	mov    DWORD PTR [eax+0x4],0x0
10008166:	c7 40 08 00 00 00 00 	mov    DWORD PTR [eax+0x8],0x0
1000816d:	89 d8                	mov    eax,ebx
1000816f:	83 c4 08             	add    esp,0x8
10008172:	5b                   	pop    ebx
10008173:	c3                   	ret    
10008174:	c7 03 00 00 00 00    	mov    DWORD PTR [ebx],0x0
1000817a:	c7 43 04 00 00 00 00 	mov    DWORD PTR [ebx+0x4],0x0
10008181:	83 f8 1b             	cmp    eax,0x1b
10008184:	76 2e                	jbe    0x100081b4
10008186:	c7 43 08 00 00 00 00 	mov    DWORD PTR [ebx+0x8],0x0
1000818d:	c7 43 0c 00 00 00 00 	mov    DWORD PTR [ebx+0xc],0x0
10008194:	83 f8 24             	cmp    eax,0x24
10008197:	74 23                	je     0x100081bc
10008199:	8d 43 10             	lea    eax,[ebx+0x10]
1000819c:	eb bb                	jmp    0x10008159
1000819e:	66 90                	xchg   ax,ax
100081a0:	52                   	push   edx
100081a1:	50                   	push   eax
100081a2:	6a 00                	push   0x0
100081a4:	53                   	push   ebx
100081a5:	e8 63 1e 00 00       	call   0x1000a00d
100081aa:	83 c4 10             	add    esp,0x10
100081ad:	89 d8                	mov    eax,ebx
100081af:	83 c4 08             	add    esp,0x8
100081b2:	5b                   	pop    ebx
100081b3:	c3                   	ret    
100081b4:	8d 43 08             	lea    eax,[ebx+0x8]
100081b7:	eb a0                	jmp    0x10008159
100081b9:	8d 76 00             	lea    esi,[esi+0x0]
100081bc:	c7 43 10 00 00 00 00 	mov    DWORD PTR [ebx+0x10],0x0
100081c3:	8d 43 18             	lea    eax,[ebx+0x18]
100081c6:	c7 43 14 00 00 00 00 	mov    DWORD PTR [ebx+0x14],0x0
100081cd:	eb 8a                	jmp    0x10008159
100081cf:	90                   	nop
100081d0:	83 ec 24             	sub    esp,0x24
100081d3:	8d 44 24 08          	lea    eax,[esp+0x8]
100081d7:	50                   	push   eax
100081d8:	ff 35 20 86 01 10    	push   DWORD PTR ds:0x10018620
100081de:	e8 01 4c 00 00       	call   0x1000cde4
100081e3:	83 c4 10             	add    esp,0x10
100081e6:	83 f8 ff             	cmp    eax,0xffffffff
100081e9:	74 0f                	je     0x100081fa
100081eb:	8b 44 24 04          	mov    eax,DWORD PTR [esp+0x4]
100081ef:	03 04 24             	add    eax,DWORD PTR [esp]
100081f2:	03 44 24 08          	add    eax,DWORD PTR [esp+0x8]
100081f6:	03 44 24 0c          	add    eax,DWORD PTR [esp+0xc]
100081fa:	83 c4 1c             	add    esp,0x1c
100081fd:	c3                   	ret    
100081fe:	66 90                	xchg   ax,ax
10008200:	53                   	push   ebx
10008201:	83 ec 10             	sub    esp,0x10
10008204:	8b 5c 24 18          	mov    ebx,DWORD PTR [esp+0x18]
10008208:	6a 00                	push   0x0
1000820a:	53                   	push   ebx
1000820b:	e8 d8 57 00 00       	call   0x1000d9e8
10008210:	8b 15 28 6a 01 10    	mov    edx,DWORD PTR ds:0x10016a28
10008216:	8b 42 3c             	mov    eax,DWORD PTR [edx+0x3c]
10008219:	83 c4 10             	add    esp,0x10
1000821c:	85 c0                	test   eax,eax
1000821e:	74 09                	je     0x10008229
10008220:	83 ec 0c             	sub    esp,0xc
10008223:	52                   	push   edx
10008224:	ff d0                	call   eax
10008226:	83 c4 10             	add    esp,0x10
10008229:	83 ec 0c             	sub    esp,0xc
1000822c:	53                   	push   ebx
1000822d:	e8 5b 4c 00 00       	call   0x1000ce8d
10008232:	66 90                	xchg   ax,ax
10008234:	57                   	push   edi
10008235:	56                   	push   esi
10008236:	53                   	push   ebx
10008237:	8b 74 24 10          	mov    esi,DWORD PTR [esp+0x10]
1000823b:	8b 5c 24 14          	mov    ebx,DWORD PTR [esp+0x14]
1000823f:	85 db                	test   ebx,ebx
10008241:	74 16                	je     0x10008259
10008243:	85 f6                	test   esi,esi
10008245:	74 0b                	je     0x10008252
10008247:	8b 46 38             	mov    eax,DWORD PTR [esi+0x38]
1000824a:	85 c0                	test   eax,eax
1000824c:	0f 84 92 00 00 00    	je     0x100082e4
10008252:	66 83 7b 0c 00       	cmp    WORD PTR [ebx+0xc],0x0
10008257:	75 0b                	jne    0x10008264
10008259:	31 ff                	xor    edi,edi
1000825b:	89 f8                	mov    eax,edi
1000825d:	5b                   	pop    ebx
1000825e:	5e                   	pop    esi
1000825f:	5f                   	pop    edi
10008260:	c3                   	ret    
10008261:	8d 76 00             	lea    esi,[esi+0x0]
10008264:	83 ec 08             	sub    esp,0x8
10008267:	53                   	push   ebx
10008268:	56                   	push   esi
10008269:	e8 ca 00 00 00       	call   0x10008338
1000826e:	89 c7                	mov    edi,eax
10008270:	8b 43 2c             	mov    eax,DWORD PTR [ebx+0x2c]
10008273:	83 c4 10             	add    esp,0x10
10008276:	85 c0                	test   eax,eax
10008278:	74 10                	je     0x1000828a
1000827a:	83 ec 08             	sub    esp,0x8
1000827d:	ff 73 1c             	push   DWORD PTR [ebx+0x1c]
10008280:	56                   	push   esi
10008281:	ff d0                	call   eax
10008283:	83 c4 10             	add    esp,0x10
10008286:	85 c0                	test   eax,eax
10008288:	78 76                	js     0x10008300
1000828a:	f6 43 0c 80          	test   BYTE PTR [ebx+0xc],0x80
1000828e:	75 7b                	jne    0x1000830b
10008290:	8b 43 30             	mov    eax,DWORD PTR [ebx+0x30]
10008293:	85 c0                	test   eax,eax
10008295:	74 1b                	je     0x100082b2
10008297:	8d 53 40             	lea    edx,[ebx+0x40]
1000829a:	39 d0                	cmp    eax,edx
1000829c:	74 0d                	je     0x100082ab
1000829e:	83 ec 08             	sub    esp,0x8
100082a1:	50                   	push   eax
100082a2:	56                   	push   esi
100082a3:	e8 00 0a 00 00       	call   0x10008ca8
100082a8:	83 c4 10             	add    esp,0x10
100082ab:	c7 43 30 00 00 00 00 	mov    DWORD PTR [ebx+0x30],0x0
100082b2:	8b 43 44             	mov    eax,DWORD PTR [ebx+0x44]
100082b5:	85 c0                	test   eax,eax
100082b7:	74 14                	je     0x100082cd
100082b9:	83 ec 08             	sub    esp,0x8
100082bc:	50                   	push   eax
100082bd:	56                   	push   esi
100082be:	e8 e5 09 00 00       	call   0x10008ca8
100082c3:	c7 43 44 00 00 00 00 	mov    DWORD PTR [ebx+0x44],0x0
100082ca:	83 c4 10             	add    esp,0x10
100082cd:	e8 9a 05 00 00       	call   0x1000886c
100082d2:	66 c7 43 0c 00 00    	mov    WORD PTR [ebx+0xc],0x0
100082d8:	e8 93 05 00 00       	call   0x10008870
100082dd:	89 f8                	mov    eax,edi
100082df:	5b                   	pop    ebx
100082e0:	5e                   	pop    esi
100082e1:	5f                   	pop    edi
100082e2:	c3                   	ret    
100082e3:	90                   	nop
100082e4:	83 ec 0c             	sub    esp,0xc
100082e7:	56                   	push   esi
100082e8:	e8 6b 05 00 00       	call   0x10008858
100082ed:	83 c4 10             	add    esp,0x10
100082f0:	66 83 7b 0c 00       	cmp    WORD PTR [ebx+0xc],0x0
100082f5:	0f 84 5e ff ff ff    	je     0x10008259
100082fb:	e9 64 ff ff ff       	jmp    0x10008264
10008300:	bf ff ff ff ff       	mov    edi,0xffffffff
10008305:	f6 43 0c 80          	test   BYTE PTR [ebx+0xc],0x80
10008309:	74 85                	je     0x10008290
1000830b:	83 ec 08             	sub    esp,0x8
1000830e:	ff 73 10             	push   DWORD PTR [ebx+0x10]
10008311:	56                   	push   esi
10008312:	e8 91 09 00 00       	call   0x10008ca8
10008317:	83 c4 10             	add    esp,0x10
1000831a:	e9 71 ff ff ff       	jmp    0x10008290
1000831f:	90                   	nop
10008320:	83 ec 14             	sub    esp,0x14
10008323:	ff 74 24 18          	push   DWORD PTR [esp+0x18]
10008327:	ff 35 20 86 01 10    	push   DWORD PTR ds:0x10018620
1000832d:	e8 02 ff ff ff       	call   0x10008234
10008332:	83 c4 1c             	add    esp,0x1c
10008335:	c3                   	ret    
10008336:	66 90                	xchg   ax,ax
10008338:	55                   	push   ebp
10008339:	57                   	push   edi
1000833a:	56                   	push   esi
1000833b:	53                   	push   ebx
1000833c:	83 ec 0c             	sub    esp,0xc
1000833f:	8b 7c 24 20          	mov    edi,DWORD PTR [esp+0x20]
10008343:	8b 5c 24 24          	mov    ebx,DWORD PTR [esp+0x24]
10008347:	8b 43 0c             	mov    eax,DWORD PTR [ebx+0xc]
1000834a:	a8 08                	test   al,0x8
1000834c:	0f 85 d2 00 00 00    	jne    0x10008424
10008352:	89 c1                	mov    ecx,eax
10008354:	80 cd 08             	or     ch,0x8
10008357:	66 89 4b 0c          	mov    WORD PTR [ebx+0xc],cx
1000835b:	8b 6b 04             	mov    ebp,DWORD PTR [ebx+0x4]
1000835e:	85 ed                	test   ebp,ebp
10008360:	0f 8e 0a 01 00 00    	jle    0x10008470
10008366:	8b 53 28             	mov    edx,DWORD PTR [ebx+0x28]
10008369:	85 d2                	test   edx,edx
1000836b:	0f 84 a8 00 00 00    	je     0x10008419
10008371:	8b 37                	mov    esi,DWORD PTR [edi]
10008373:	c7 07 00 00 00 00    	mov    DWORD PTR [edi],0x0
10008379:	8b 6b 1c             	mov    ebp,DWORD PTR [ebx+0x1c]
1000837c:	f6 c4 10             	test   ah,0x10
1000837f:	0f 85 ff 00 00 00    	jne    0x10008484
10008385:	6a 01                	push   0x1
10008387:	6a 00                	push   0x0
10008389:	55                   	push   ebp
1000838a:	57                   	push   edi
1000838b:	ff d2                	call   edx
1000838d:	83 c4 10             	add    esp,0x10
10008390:	83 f8 ff             	cmp    eax,0xffffffff
10008393:	0f 84 1f 01 00 00    	je     0x100084b8
10008399:	8b 4b 0c             	mov    ecx,DWORD PTR [ebx+0xc]
1000839c:	8b 53 28             	mov    edx,DWORD PTR [ebx+0x28]
1000839f:	8b 6b 1c             	mov    ebp,DWORD PTR [ebx+0x1c]
100083a2:	83 e1 04             	and    ecx,0x4
100083a5:	74 0d                	je     0x100083b4
100083a7:	2b 43 04             	sub    eax,DWORD PTR [ebx+0x4]
100083aa:	8b 4b 30             	mov    ecx,DWORD PTR [ebx+0x30]
100083ad:	85 c9                	test   ecx,ecx
100083af:	74 03                	je     0x100083b4
100083b1:	2b 43 3c             	sub    eax,DWORD PTR [ebx+0x3c]
100083b4:	6a 00                	push   0x0
100083b6:	50                   	push   eax
100083b7:	55                   	push   ebp
100083b8:	57                   	push   edi
100083b9:	ff d2                	call   edx
100083bb:	83 c4 10             	add    esp,0x10
100083be:	83 f8 ff             	cmp    eax,0xffffffff
100083c1:	0f 85 c5 00 00 00    	jne    0x1000848c
100083c7:	8b 0f                	mov    ecx,DWORD PTR [edi]
100083c9:	8b 53 0c             	mov    edx,DWORD PTR [ebx+0xc]
100083cc:	85 c9                	test   ecx,ecx
100083ce:	0f 84 bb 00 00 00    	je     0x1000848f
100083d4:	83 f9 1d             	cmp    ecx,0x1d
100083d7:	74 09                	je     0x100083e2
100083d9:	83 f9 16             	cmp    ecx,0x16
100083dc:	0f 85 f3 00 00 00    	jne    0x100084d5
100083e2:	80 e6 f7             	and    dh,0xf7
100083e5:	66 89 53 0c          	mov    WORD PTR [ebx+0xc],dx
100083e9:	c7 43 04 00 00 00 00 	mov    DWORD PTR [ebx+0x4],0x0
100083f0:	8b 43 10             	mov    eax,DWORD PTR [ebx+0x10]
100083f3:	89 03                	mov    DWORD PTR [ebx],eax
100083f5:	89 37                	mov    DWORD PTR [edi],esi
100083f7:	8b 43 30             	mov    eax,DWORD PTR [ebx+0x30]
100083fa:	85 c0                	test   eax,eax
100083fc:	74 1b                	je     0x10008419
100083fe:	8d 53 40             	lea    edx,[ebx+0x40]
10008401:	39 d0                	cmp    eax,edx
10008403:	74 0d                	je     0x10008412
10008405:	83 ec 08             	sub    esp,0x8
10008408:	50                   	push   eax
10008409:	57                   	push   edi
1000840a:	e8 99 08 00 00       	call   0x10008ca8
1000840f:	83 c4 10             	add    esp,0x10
10008412:	c7 43 30 00 00 00 00 	mov    DWORD PTR [ebx+0x30],0x0
10008419:	31 c0                	xor    eax,eax
1000841b:	83 c4 0c             	add    esp,0xc
1000841e:	5b                   	pop    ebx
1000841f:	5e                   	pop    esi
10008420:	5f                   	pop    edi
10008421:	5d                   	pop    ebp
10008422:	c3                   	ret    
10008423:	90                   	nop
10008424:	8b 6b 10             	mov    ebp,DWORD PTR [ebx+0x10]
10008427:	85 ed                	test   ebp,ebp
10008429:	74 ee                	je     0x10008419
1000842b:	8b 33                	mov    esi,DWORD PTR [ebx]
1000842d:	29 ee                	sub    esi,ebp
1000842f:	89 2b                	mov    DWORD PTR [ebx],ebp
10008431:	a8 03                	test   al,0x3
10008433:	75 4b                	jne    0x10008480
10008435:	8b 43 14             	mov    eax,DWORD PTR [ebx+0x14]
10008438:	89 43 08             	mov    DWORD PTR [ebx+0x8],eax
1000843b:	85 f6                	test   esi,esi
1000843d:	7f 0d                	jg     0x1000844c
1000843f:	eb d8                	jmp    0x10008419
10008441:	8d 76 00             	lea    esi,[esi+0x0]
10008444:	01 c5                	add    ebp,eax
10008446:	29 c6                	sub    esi,eax
10008448:	85 f6                	test   esi,esi
1000844a:	7e cd                	jle    0x10008419
1000844c:	56                   	push   esi
1000844d:	55                   	push   ebp
1000844e:	ff 73 1c             	push   DWORD PTR [ebx+0x1c]
10008451:	57                   	push   edi
10008452:	ff 53 24             	call   DWORD PTR [ebx+0x24]
10008455:	83 c4 10             	add    esp,0x10
10008458:	85 c0                	test   eax,eax
1000845a:	7f e8                	jg     0x10008444
1000845c:	66 83 4b 0c 40       	or     WORD PTR [ebx+0xc],0x40
10008461:	b8 ff ff ff ff       	mov    eax,0xffffffff
10008466:	83 c4 0c             	add    esp,0xc
10008469:	5b                   	pop    ebx
1000846a:	5e                   	pop    esi
1000846b:	5f                   	pop    edi
1000846c:	5d                   	pop    ebp
1000846d:	c3                   	ret    
1000846e:	66 90                	xchg   ax,ax
10008470:	8b 73 3c             	mov    esi,DWORD PTR [ebx+0x3c]
10008473:	85 f6                	test   esi,esi
10008475:	0f 8f eb fe ff ff    	jg     0x10008366
1000847b:	eb 9c                	jmp    0x10008419
1000847d:	8d 76 00             	lea    esi,[esi+0x0]
10008480:	31 c0                	xor    eax,eax
10008482:	eb b4                	jmp    0x10008438
10008484:	8b 43 50             	mov    eax,DWORD PTR [ebx+0x50]
10008487:	e9 16 ff ff ff       	jmp    0x100083a2
1000848c:	8b 53 0c             	mov    edx,DWORD PTR [ebx+0xc]
1000848f:	89 d1                	mov    ecx,edx
10008491:	80 e5 f7             	and    ch,0xf7
10008494:	66 89 4b 0c          	mov    WORD PTR [ebx+0xc],cx
10008498:	c7 43 04 00 00 00 00 	mov    DWORD PTR [ebx+0x4],0x0
1000849f:	8b 4b 10             	mov    ecx,DWORD PTR [ebx+0x10]
100084a2:	89 0b                	mov    DWORD PTR [ebx],ecx
100084a4:	80 e6 10             	and    dh,0x10
100084a7:	0f 84 48 ff ff ff    	je     0x100083f5
100084ad:	89 43 50             	mov    DWORD PTR [ebx+0x50],eax
100084b0:	e9 40 ff ff ff       	jmp    0x100083f5
100084b5:	8d 76 00             	lea    esi,[esi+0x0]
100084b8:	8b 17                	mov    edx,DWORD PTR [edi]
100084ba:	85 d2                	test   edx,edx
100084bc:	0f 84 d7 fe ff ff    	je     0x10008399
100084c2:	83 fa 1d             	cmp    edx,0x1d
100084c5:	74 05                	je     0x100084cc
100084c7:	83 fa 16             	cmp    edx,0x16
100084ca:	75 90                	jne    0x1000845c
100084cc:	89 37                	mov    DWORD PTR [edi],esi
100084ce:	31 c0                	xor    eax,eax
100084d0:	e9 46 ff ff ff       	jmp    0x1000841b
100084d5:	83 ca 40             	or     edx,0x40
100084d8:	66 89 53 0c          	mov    WORD PTR [ebx+0xc],dx
100084dc:	b8 ff ff ff ff       	mov    eax,0xffffffff
100084e1:	e9 35 ff ff ff       	jmp    0x1000841b
100084e6:	66 90                	xchg   ax,ax
100084e8:	56                   	push   esi
100084e9:	53                   	push   ebx
100084ea:	50                   	push   eax
100084eb:	8b 5c 24 10          	mov    ebx,DWORD PTR [esp+0x10]
100084ef:	8b 74 24 14          	mov    esi,DWORD PTR [esp+0x14]
100084f3:	85 db                	test   ebx,ebx
100084f5:	74 07                	je     0x100084fe
100084f7:	8b 43 38             	mov    eax,DWORD PTR [ebx+0x38]
100084fa:	85 c0                	test   eax,eax
100084fc:	74 0e                	je     0x1000850c
100084fe:	66 83 7e 0c 00       	cmp    WORD PTR [esi+0xc],0x0
10008503:	75 1a                	jne    0x1000851f
10008505:	31 c0                	xor    eax,eax
10008507:	5a                   	pop    edx
10008508:	5b                   	pop    ebx
10008509:	5e                   	pop    esi
1000850a:	c3                   	ret    
1000850b:	90                   	nop
1000850c:	83 ec 0c             	sub    esp,0xc
1000850f:	53                   	push   ebx
10008510:	e8 43 03 00 00       	call   0x10008858
10008515:	83 c4 10             	add    esp,0x10
10008518:	66 83 7e 0c 00       	cmp    WORD PTR [esi+0xc],0x0
1000851d:	74 e6                	je     0x10008505
1000851f:	89 74 24 14          	mov    DWORD PTR [esp+0x14],esi
10008523:	89 5c 24 10          	mov    DWORD PTR [esp+0x10],ebx
10008527:	59                   	pop    ecx
10008528:	5b                   	pop    ebx
10008529:	5e                   	pop    esi
1000852a:	e9 09 fe ff ff       	jmp    0x10008338
1000852f:	90                   	nop
10008530:	83 ec 0c             	sub    esp,0xc
10008533:	8b 44 24 10          	mov    eax,DWORD PTR [esp+0x10]
10008537:	85 c0                	test   eax,eax
10008539:	74 19                	je     0x10008554
1000853b:	83 ec 08             	sub    esp,0x8
1000853e:	50                   	push   eax
1000853f:	ff 35 20 86 01 10    	push   DWORD PTR ds:0x10018620
10008545:	e8 9e ff ff ff       	call   0x100084e8
1000854a:	83 c4 10             	add    esp,0x10
1000854d:	83 c4 0c             	add    esp,0xc
10008550:	c3                   	ret    
10008551:	8d 76 00             	lea    esi,[esi+0x0]
10008554:	83 ec 08             	sub    esp,0x8
10008557:	68 e8 84 00 10       	push   0x100084e8
1000855c:	ff 35 28 6a 01 10    	push   DWORD PTR ds:0x10016a28
10008562:	e8 95 0f 00 00       	call   0x100094fc
10008567:	83 c4 10             	add    esp,0x10
1000856a:	83 c4 0c             	add    esp,0xc
1000856d:	c3                   	ret    
1000856e:	66 90                	xchg   ax,ax
10008570:	31 c0                	xor    eax,eax
10008572:	c3                   	ret    
10008573:	90                   	nop
10008574:	83 ec 14             	sub    esp,0x14
10008577:	68 34 82 00 10       	push   0x10008234
1000857c:	ff 74 24 1c          	push   DWORD PTR [esp+0x1c]
10008580:	e8 77 0f 00 00       	call   0x100094fc
10008585:	83 c4 1c             	add    esp,0x1c
10008588:	c3                   	ret    
10008589:	8d 76 00             	lea    esi,[esi+0x0]
1000858c:	56                   	push   esi
1000858d:	53                   	push   ebx
1000858e:	83 ec 08             	sub    esp,0x8
10008591:	89 c6                	mov    esi,eax
10008593:	c7 40 3c 74 85 00 10 	mov    DWORD PTR [eax+0x3c],0x10008574
1000859a:	c7 80 e0 02 00 00 00 00 00 00 	mov    DWORD PTR [eax+0x2e0],0x0
100085a4:	c7 80 e4 02 00 00 03 00 00 00 	mov    DWORD PTR [eax+0x2e4],0x3
100085ae:	8d 80 ec 02 00 00    	lea    eax,[eax+0x2ec]
100085b4:	89 86 e8 02 00 00    	mov    DWORD PTR [esi+0x2e8],eax
100085ba:	8b 5e 04             	mov    ebx,DWORD PTR [esi+0x4]
100085bd:	c7 43 64 00 00 00 00 	mov    DWORD PTR [ebx+0x64],0x0
100085c4:	c7 03 00 00 00 00    	mov    DWORD PTR [ebx],0x0
100085ca:	c7 43 04 00 00 00 00 	mov    DWORD PTR [ebx+0x4],0x0
100085d1:	c7 43 08 00 00 00 00 	mov    DWORD PTR [ebx+0x8],0x0
100085d8:	c7 43 0c 04 00 00 00 	mov    DWORD PTR [ebx+0xc],0x4
100085df:	c7 43 10 00 00 00 00 	mov    DWORD PTR [ebx+0x10],0x0
100085e6:	c7 43 14 00 00 00 00 	mov    DWORD PTR [ebx+0x14],0x0
100085ed:	c7 43 18 00 00 00 00 	mov    DWORD PTR [ebx+0x18],0x0
100085f4:	6a 08                	push   0x8
100085f6:	6a 00                	push   0x0
100085f8:	8d 43 5c             	lea    eax,[ebx+0x5c]
100085fb:	50                   	push   eax
100085fc:	e8 0c 1a 00 00       	call   0x1000a00d
10008601:	89 5b 1c             	mov    DWORD PTR [ebx+0x1c],ebx
10008604:	c7 43 20 64 aa 00 10 	mov    DWORD PTR [ebx+0x20],0x1000aa64
1000860b:	c7 43 24 a4 aa 00 10 	mov    DWORD PTR [ebx+0x24],0x1000aaa4
10008612:	c7 43 28 04 ab 00 10 	mov    DWORD PTR [ebx+0x28],0x1000ab04
10008619:	c7 43 2c 44 ab 00 10 	mov    DWORD PTR [ebx+0x2c],0x1000ab44
10008620:	8b 5e 08             	mov    ebx,DWORD PTR [esi+0x8]
10008623:	c7 43 64 00 00 00 00 	mov    DWORD PTR [ebx+0x64],0x0
1000862a:	c7 03 00 00 00 00    	mov    DWORD PTR [ebx],0x0
10008630:	c7 43 04 00 00 00 00 	mov    DWORD PTR [ebx+0x4],0x0
10008637:	c7 43 08 00 00 00 00 	mov    DWORD PTR [ebx+0x8],0x0
1000863e:	c7 43 0c 09 00 01 00 	mov    DWORD PTR [ebx+0xc],0x10009
10008645:	c7 43 10 00 00 00 00 	mov    DWORD PTR [ebx+0x10],0x0
1000864c:	c7 43 14 00 00 00 00 	mov    DWORD PTR [ebx+0x14],0x0
10008653:	c7 43 18 00 00 00 00 	mov    DWORD PTR [ebx+0x18],0x0
1000865a:	83 c4 0c             	add    esp,0xc
1000865d:	6a 08                	push   0x8
1000865f:	6a 00                	push   0x0
10008661:	8d 43 5c             	lea    eax,[ebx+0x5c]
10008664:	50                   	push   eax
10008665:	e8 a3 19 00 00       	call   0x1000a00d
1000866a:	89 5b 1c             	mov    DWORD PTR [ebx+0x1c],ebx
1000866d:	c7 43 20 64 aa 00 10 	mov    DWORD PTR [ebx+0x20],0x1000aa64
10008674:	c7 43 24 a4 aa 00 10 	mov    DWORD PTR [ebx+0x24],0x1000aaa4
1000867b:	c7 43 28 04 ab 00 10 	mov    DWORD PTR [ebx+0x28],0x1000ab04
10008682:	c7 43 2c 44 ab 00 10 	mov    DWORD PTR [ebx+0x2c],0x1000ab44
10008689:	8b 5e 0c             	mov    ebx,DWORD PTR [esi+0xc]
1000868c:	c7 43 64 00 00 00 00 	mov    DWORD PTR [ebx+0x64],0x0
10008693:	c7 03 00 00 00 00    	mov    DWORD PTR [ebx],0x0
10008699:	c7 43 04 00 00 00 00 	mov    DWORD PTR [ebx+0x4],0x0
100086a0:	c7 43 08 00 00 00 00 	mov    DWORD PTR [ebx+0x8],0x0
100086a7:	c7 43 0c 12 00 02 00 	mov    DWORD PTR [ebx+0xc],0x20012
100086ae:	c7 43 10 00 00 00 00 	mov    DWORD PTR [ebx+0x10],0x0
100086b5:	c7 43 14 00 00 00 00 	mov    DWORD PTR [ebx+0x14],0x0
100086bc:	c7 43 18 00 00 00 00 	mov    DWORD PTR [ebx+0x18],0x0
100086c3:	83 c4 0c             	add    esp,0xc
100086c6:	6a 08                	push   0x8
100086c8:	6a 00                	push   0x0
100086ca:	8d 43 5c             	lea    eax,[ebx+0x5c]
100086cd:	50                   	push   eax
100086ce:	e8 3a 19 00 00       	call   0x1000a00d
100086d3:	89 5b 1c             	mov    DWORD PTR [ebx+0x1c],ebx
100086d6:	c7 43 20 64 aa 00 10 	mov    DWORD PTR [ebx+0x20],0x1000aa64
100086dd:	c7 43 24 a4 aa 00 10 	mov    DWORD PTR [ebx+0x24],0x1000aaa4
100086e4:	c7 43 28 04 ab 00 10 	mov    DWORD PTR [ebx+0x28],0x1000ab04
100086eb:	c7 43 2c 44 ab 00 10 	mov    DWORD PTR [ebx+0x2c],0x1000ab44
100086f2:	c7 46 38 01 00 00 00 	mov    DWORD PTR [esi+0x38],0x1
100086f9:	83 c4 14             	add    esp,0x14
100086fc:	5b                   	pop    ebx
100086fd:	5e                   	pop    esi
100086fe:	c3                   	ret    
100086ff:	90                   	nop
10008700:	31 c0                	xor    eax,eax
10008702:	c3                   	ret    
10008703:	90                   	nop
10008704:	57                   	push   edi
10008705:	56                   	push   esi
10008706:	53                   	push   ebx
10008707:	8b 7c 24 14          	mov    edi,DWORD PTR [esp+0x14]
1000870b:	8d 47 ff             	lea    eax,[edi-0x1]
1000870e:	8d 14 00             	lea    edx,[eax+eax*1]
10008711:	01 c2                	add    edx,eax
10008713:	8d 1c 90             	lea    ebx,[eax+edx*4]
10008716:	c1 e3 03             	shl    ebx,0x3
10008719:	83 ec 08             	sub    esp,0x8
1000871c:	8d 43 74             	lea    eax,[ebx+0x74]
1000871f:	50                   	push   eax
10008720:	ff 74 24 1c          	push   DWORD PTR [esp+0x1c]
10008724:	e8 6b 10 00 00       	call   0x10009794
10008729:	89 c6                	mov    esi,eax
1000872b:	83 c4 10             	add    esp,0x10
1000872e:	85 c0                	test   eax,eax
10008730:	74 1f                	je     0x10008751
10008732:	c7 00 00 00 00 00    	mov    DWORD PTR [eax],0x0
10008738:	89 78 04             	mov    DWORD PTR [eax+0x4],edi
1000873b:	8d 40 0c             	lea    eax,[eax+0xc]
1000873e:	89 46 08             	mov    DWORD PTR [esi+0x8],eax
10008741:	52                   	push   edx
10008742:	83 c3 68             	add    ebx,0x68
10008745:	53                   	push   ebx
10008746:	6a 00                	push   0x0
10008748:	50                   	push   eax
10008749:	e8 bf 18 00 00       	call   0x1000a00d
1000874e:	83 c4 10             	add    esp,0x10
10008751:	89 f0                	mov    eax,esi
10008753:	5b                   	pop    ebx
10008754:	5e                   	pop    esi
10008755:	5f                   	pop    edi
10008756:	c3                   	ret    
10008757:	90                   	nop
10008758:	56                   	push   esi
10008759:	53                   	push   ebx
1000875a:	53                   	push   ebx
1000875b:	8b 35 28 6a 01 10    	mov    esi,DWORD PTR ds:0x10016a28
10008761:	8b 46 38             	mov    eax,DWORD PTR [esi+0x38]
10008764:	85 c0                	test   eax,eax
10008766:	0f 84 a0 00 00 00    	je     0x1000880c
1000876c:	81 c6 e0 02 00 00    	add    esi,0x2e0
10008772:	8b 5e 08             	mov    ebx,DWORD PTR [esi+0x8]
10008775:	8b 46 04             	mov    eax,DWORD PTR [esi+0x4]
10008778:	48                   	dec    eax
10008779:	79 0e                	jns    0x10008789
1000877b:	eb 7f                	jmp    0x100087fc
1000877d:	8d 76 00             	lea    esi,[esi+0x0]
10008780:	83 c3 68             	add    ebx,0x68
10008783:	48                   	dec    eax
10008784:	83 f8 ff             	cmp    eax,0xffffffff
10008787:	74 73                	je     0x100087fc
10008789:	66 83 7b 0c 00       	cmp    WORD PTR [ebx+0xc],0x0
1000878e:	75 f0                	jne    0x10008780
10008790:	c7 43 64 00 00 00 00 	mov    DWORD PTR [ebx+0x64],0x0
10008797:	c7 03 00 00 00 00    	mov    DWORD PTR [ebx],0x0
1000879d:	c7 43 04 00 00 00 00 	mov    DWORD PTR [ebx+0x4],0x0
100087a4:	c7 43 08 00 00 00 00 	mov    DWORD PTR [ebx+0x8],0x0
100087ab:	c7 43 0c 01 00 ff ff 	mov    DWORD PTR [ebx+0xc],0xffff0001
100087b2:	c7 43 10 00 00 00 00 	mov    DWORD PTR [ebx+0x10],0x0
100087b9:	c7 43 14 00 00 00 00 	mov    DWORD PTR [ebx+0x14],0x0
100087c0:	c7 43 18 00 00 00 00 	mov    DWORD PTR [ebx+0x18],0x0
100087c7:	51                   	push   ecx
100087c8:	6a 08                	push   0x8
100087ca:	6a 00                	push   0x0
100087cc:	8d 43 5c             	lea    eax,[ebx+0x5c]
100087cf:	50                   	push   eax
100087d0:	e8 38 18 00 00       	call   0x1000a00d
100087d5:	c7 43 30 00 00 00 00 	mov    DWORD PTR [ebx+0x30],0x0
100087dc:	c7 43 34 00 00 00 00 	mov    DWORD PTR [ebx+0x34],0x0
100087e3:	c7 43 44 00 00 00 00 	mov    DWORD PTR [ebx+0x44],0x0
100087ea:	c7 43 48 00 00 00 00 	mov    DWORD PTR [ebx+0x48],0x0
100087f1:	83 c4 10             	add    esp,0x10
100087f4:	89 d8                	mov    eax,ebx
100087f6:	5a                   	pop    edx
100087f7:	5b                   	pop    ebx
100087f8:	5e                   	pop    esi
100087f9:	c3                   	ret    
100087fa:	66 90                	xchg   ax,ax
100087fc:	8b 06                	mov    eax,DWORD PTR [esi]
100087fe:	85 c0                	test   eax,eax
10008800:	74 16                	je     0x10008818
10008802:	89 c6                	mov    esi,eax
10008804:	e9 69 ff ff ff       	jmp    0x10008772
10008809:	8d 76 00             	lea    esi,[esi+0x0]
1000880c:	89 f0                	mov    eax,esi
1000880e:	e8 79 fd ff ff       	call   0x1000858c
10008813:	e9 54 ff ff ff       	jmp    0x1000876c
10008818:	83 ec 08             	sub    esp,0x8
1000881b:	6a 04                	push   0x4
1000881d:	ff 74 24 1c          	push   DWORD PTR [esp+0x1c]
10008821:	e8 de fe ff ff       	call   0x10008704
10008826:	89 06                	mov    DWORD PTR [esi],eax
10008828:	83 c4 10             	add    esp,0x10
1000882b:	85 c0                	test   eax,eax
1000882d:	75 d3                	jne    0x10008802
1000882f:	8b 44 24 10          	mov    eax,DWORD PTR [esp+0x10]
10008833:	c7 00 0c 00 00 00    	mov    DWORD PTR [eax],0xc
10008839:	31 db                	xor    ebx,ebx
1000883b:	eb b7                	jmp    0x100087f4
1000883d:	8d 76 00             	lea    esi,[esi+0x0]
10008840:	83 ec 14             	sub    esp,0x14
10008843:	68 34 82 00 10       	push   0x10008234
10008848:	ff 35 28 6a 01 10    	push   DWORD PTR ds:0x10016a28
1000884e:	e8 a9 0c 00 00       	call   0x100094fc
10008853:	83 c4 1c             	add    esp,0x1c
10008856:	c3                   	ret    
10008857:	90                   	nop
10008858:	8b 44 24 04          	mov    eax,DWORD PTR [esp+0x4]
1000885c:	8b 50 38             	mov    edx,DWORD PTR [eax+0x38]
1000885f:	85 d2                	test   edx,edx
10008861:	74 01                	je     0x10008864
10008863:	c3                   	ret    
10008864:	e9 23 fd ff ff       	jmp    0x1000858c
10008869:	8d 76 00             	lea    esi,[esi+0x0]
1000886c:	c3                   	ret    
1000886d:	8d 76 00             	lea    esi,[esi+0x0]
10008870:	c3                   	ret    
10008871:	8d 76 00             	lea    esi,[esi+0x0]
10008874:	c3                   	ret    
10008875:	8d 76 00             	lea    esi,[esi+0x0]
10008878:	c3                   	ret    
10008879:	8d 76 00             	lea    esi,[esi+0x0]
1000887c:	83 ec 14             	sub    esp,0x14
1000887f:	68 70 85 00 10       	push   0x10008570
10008884:	ff 35 20 86 01 10    	push   DWORD PTR ds:0x10018620
1000888a:	e8 15 0c 00 00       	call   0x100094a4
1000888f:	83 c4 1c             	add    esp,0x1c
10008892:	c3                   	ret    
10008893:	90                   	nop
10008894:	83 ec 14             	sub    esp,0x14
10008897:	68 00 87 00 10       	push   0x10008700
1000889c:	ff 35 20 86 01 10    	push   DWORD PTR ds:0x10018620
100088a2:	e8 fd 0b 00 00       	call   0x100094a4
100088a7:	83 c4 1c             	add    esp,0x1c
100088aa:	c3                   	ret    
100088ab:	90                   	nop
100088ac:	57                   	push   edi
100088ad:	56                   	push   esi
100088ae:	53                   	push   ebx
100088af:	83 ec 14             	sub    esp,0x14
100088b2:	8b 74 24 24          	mov    esi,DWORD PTR [esp+0x24]
100088b6:	8d 44 24 10          	lea    eax,[esp+0x10]
100088ba:	50                   	push   eax
100088bb:	ff 74 24 30          	push   DWORD PTR [esp+0x30]
100088bf:	56                   	push   esi
100088c0:	e8 7b 67 00 00       	call   0x1000f040
100088c5:	83 c4 10             	add    esp,0x10
100088c8:	85 c0                	test   eax,eax
100088ca:	74 78                	je     0x10008944
100088cc:	89 c7                	mov    edi,eax
100088ce:	83 ec 0c             	sub    esp,0xc
100088d1:	56                   	push   esi
100088d2:	e8 81 fe ff ff       	call   0x10008758
100088d7:	89 c3                	mov    ebx,eax
100088d9:	83 c4 10             	add    esp,0x10
100088dc:	85 c0                	test   eax,eax
100088de:	74 64                	je     0x10008944
100088e0:	68 b6 01 00 00       	push   0x1b6
100088e5:	ff 74 24 10          	push   DWORD PTR [esp+0x10]
100088e9:	ff 74 24 2c          	push   DWORD PTR [esp+0x2c]
100088ed:	56                   	push   esi
100088ee:	e8 ad 17 00 00       	call   0x1000a0a0
100088f3:	83 c4 10             	add    esp,0x10
100088f6:	85 c0                	test   eax,eax
100088f8:	78 3a                	js     0x10008934
100088fa:	66 89 43 0e          	mov    WORD PTR [ebx+0xe],ax
100088fe:	66 89 7b 0c          	mov    WORD PTR [ebx+0xc],di
10008902:	89 5b 1c             	mov    DWORD PTR [ebx+0x1c],ebx
10008905:	c7 43 20 64 aa 00 10 	mov    DWORD PTR [ebx+0x20],0x1000aa64
1000890c:	c7 43 24 a4 aa 00 10 	mov    DWORD PTR [ebx+0x24],0x1000aaa4
10008913:	c7 43 28 04 ab 00 10 	mov    DWORD PTR [ebx+0x28],0x1000ab04
1000891a:	c7 43 2c 44 ab 00 10 	mov    DWORD PTR [ebx+0x2c],0x1000ab44
10008921:	81 e7 00 01 00 00    	and    edi,0x100
10008927:	75 27                	jne    0x10008950
10008929:	89 d8                	mov    eax,ebx
1000892b:	83 c4 10             	add    esp,0x10
1000892e:	5b                   	pop    ebx
1000892f:	5e                   	pop    esi
10008930:	5f                   	pop    edi
10008931:	c3                   	ret    
10008932:	66 90                	xchg   ax,ax
10008934:	e8 33 ff ff ff       	call   0x1000886c
10008939:	66 c7 43 0c 00 00    	mov    WORD PTR [ebx+0xc],0x0
1000893f:	e8 2c ff ff ff       	call   0x10008870
10008944:	31 db                	xor    ebx,ebx
10008946:	89 d8                	mov    eax,ebx
10008948:	83 c4 10             	add    esp,0x10
1000894b:	5b                   	pop    ebx
1000894c:	5e                   	pop    esi
1000894d:	5f                   	pop    edi
1000894e:	c3                   	ret    
1000894f:	90                   	nop
10008950:	6a 02                	push   0x2
10008952:	6a 00                	push   0x0
10008954:	53                   	push   ebx
10008955:	56                   	push   esi
10008956:	e8 1d 06 00 00       	call   0x10008f78
1000895b:	83 c4 10             	add    esp,0x10
1000895e:	89 d8                	mov    eax,ebx
10008960:	83 c4 10             	add    esp,0x10
10008963:	5b                   	pop    ebx
10008964:	5e                   	pop    esi
10008965:	5f                   	pop    edi
10008966:	c3                   	ret    
10008967:	90                   	nop
10008968:	83 ec 10             	sub    esp,0x10
1000896b:	ff 74 24 18          	push   DWORD PTR [esp+0x18]
1000896f:	ff 74 24 18          	push   DWORD PTR [esp+0x18]
10008973:	ff 35 20 86 01 10    	push   DWORD PTR ds:0x10018620
10008979:	e8 2e ff ff ff       	call   0x100088ac
1000897e:	83 c4 1c             	add    esp,0x1c
10008981:	c3                   	ret    
10008982:	66 90                	xchg   ax,ax
10008984:	55                   	push   ebp
10008985:	57                   	push   edi
10008986:	56                   	push   esi
10008987:	53                   	push   ebx
10008988:	83 ec 1c             	sub    esp,0x1c
1000898b:	8b 7c 24 40          	mov    edi,DWORD PTR [esp+0x40]
1000898f:	8b 44 24 3c          	mov    eax,DWORD PTR [esp+0x3c]
10008993:	0f af 44 24 38       	imul   eax,DWORD PTR [esp+0x38]
10008998:	89 44 24 08          	mov    DWORD PTR [esp+0x8],eax
1000899c:	85 c0                	test   eax,eax
1000899e:	0f 84 b9 00 00 00    	je     0x10008a5d
100089a4:	8b 74 24 30          	mov    esi,DWORD PTR [esp+0x30]
100089a8:	85 f6                	test   esi,esi
100089aa:	74 0f                	je     0x100089bb
100089ac:	8b 44 24 30          	mov    eax,DWORD PTR [esp+0x30]
100089b0:	8b 58 38             	mov    ebx,DWORD PTR [eax+0x38]
100089b3:	85 db                	test   ebx,ebx
100089b5:	0f 84 49 01 00 00    	je     0x10008b04
100089bb:	8b 6f 0c             	mov    ebp,DWORD PTR [edi+0xc]
100089be:	f7 c5 00 20 00 00    	test   ebp,0x2000
100089c4:	75 11                	jne    0x100089d7
100089c6:	81 cd 00 20 00 00    	or     ebp,0x2000
100089cc:	66 89 6f 0c          	mov    WORD PTR [edi+0xc],bp
100089d0:	81 67 64 ff df ff ff 	and    DWORD PTR [edi+0x64],0xffffdfff
100089d7:	8b 5f 04             	mov    ebx,DWORD PTR [edi+0x4]
100089da:	85 db                	test   ebx,ebx
100089dc:	0f 88 8a 00 00 00    	js     0x10008a6c
100089e2:	89 de                	mov    esi,ebx
100089e4:	8b 07                	mov    eax,DWORD PTR [edi]
100089e6:	83 e5 02             	and    ebp,0x2
100089e9:	0f 85 93 00 00 00    	jne    0x10008a82
100089ef:	8b 74 24 08          	mov    esi,DWORD PTR [esp+0x8]
100089f3:	8b 6c 24 34          	mov    ebp,DWORD PTR [esp+0x34]
100089f7:	89 7c 24 40          	mov    DWORD PTR [esp+0x40],edi
100089fb:	89 df                	mov    edi,ebx
100089fd:	8b 5c 24 40          	mov    ebx,DWORD PTR [esp+0x40]
10008a01:	eb 36                	jmp    0x10008a39
10008a03:	90                   	nop
10008a04:	51                   	push   ecx
10008a05:	57                   	push   edi
10008a06:	50                   	push   eax
10008a07:	55                   	push   ebp
10008a08:	e8 27 15 00 00       	call   0x10009f34
10008a0d:	01 3b                	add    DWORD PTR [ebx],edi
10008a0f:	01 fd                	add    ebp,edi
10008a11:	89 f0                	mov    eax,esi
10008a13:	29 f8                	sub    eax,edi
10008a15:	89 44 24 14          	mov    DWORD PTR [esp+0x14],eax
10008a19:	58                   	pop    eax
10008a1a:	5a                   	pop    edx
10008a1b:	53                   	push   ebx
10008a1c:	ff 74 24 3c          	push   DWORD PTR [esp+0x3c]
10008a20:	e8 6f 1d 00 00       	call   0x1000a794
10008a25:	83 c4 10             	add    esp,0x10
10008a28:	85 c0                	test   eax,eax
10008a2a:	0f 85 b4 00 00 00    	jne    0x10008ae4
10008a30:	8b 03                	mov    eax,DWORD PTR [ebx]
10008a32:	8b 7b 04             	mov    edi,DWORD PTR [ebx+0x4]
10008a35:	8b 74 24 04          	mov    esi,DWORD PTR [esp+0x4]
10008a39:	39 fe                	cmp    esi,edi
10008a3b:	77 c7                	ja     0x10008a04
10008a3d:	89 6c 24 34          	mov    DWORD PTR [esp+0x34],ebp
10008a41:	52                   	push   edx
10008a42:	56                   	push   esi
10008a43:	50                   	push   eax
10008a44:	ff 74 24 40          	push   DWORD PTR [esp+0x40]
10008a48:	e8 e7 14 00 00       	call   0x10009f34
10008a4d:	29 73 04             	sub    DWORD PTR [ebx+0x4],esi
10008a50:	01 33                	add    DWORD PTR [ebx],esi
10008a52:	83 c4 10             	add    esp,0x10
10008a55:	8b 44 24 3c          	mov    eax,DWORD PTR [esp+0x3c]
10008a59:	89 44 24 08          	mov    DWORD PTR [esp+0x8],eax
10008a5d:	8b 44 24 08          	mov    eax,DWORD PTR [esp+0x8]
10008a61:	83 c4 1c             	add    esp,0x1c
10008a64:	5b                   	pop    ebx
10008a65:	5e                   	pop    esi
10008a66:	5f                   	pop    edi
10008a67:	5d                   	pop    ebp
10008a68:	c3                   	ret    
10008a69:	8d 76 00             	lea    esi,[esi+0x0]
10008a6c:	c7 47 04 00 00 00 00 	mov    DWORD PTR [edi+0x4],0x0
10008a73:	31 f6                	xor    esi,esi
10008a75:	31 db                	xor    ebx,ebx
10008a77:	8b 07                	mov    eax,DWORD PTR [edi]
10008a79:	83 e5 02             	and    ebp,0x2
10008a7c:	0f 84 6d ff ff ff    	je     0x100089ef
10008a82:	8b 4c 24 08          	mov    ecx,DWORD PTR [esp+0x8]
10008a86:	39 ce                	cmp    esi,ecx
10008a88:	0f 87 9a 00 00 00    	ja     0x10008b28
10008a8e:	51                   	push   ecx
10008a8f:	56                   	push   esi
10008a90:	50                   	push   eax
10008a91:	ff 74 24 40          	push   DWORD PTR [esp+0x40]
10008a95:	e8 9a 14 00 00       	call   0x10009f34
10008a9a:	8b 07                	mov    eax,DWORD PTR [edi]
10008a9c:	01 f0                	add    eax,esi
10008a9e:	89 44 24 14          	mov    DWORD PTR [esp+0x14],eax
10008aa2:	89 07                	mov    DWORD PTR [edi],eax
10008aa4:	29 77 04             	sub    DWORD PTR [edi+0x4],esi
10008aa7:	8b 6c 24 18          	mov    ebp,DWORD PTR [esp+0x18]
10008aab:	29 f5                	sub    ebp,esi
10008aad:	8b 47 30             	mov    eax,DWORD PTR [edi+0x30]
10008ab0:	83 c4 10             	add    esp,0x10
10008ab3:	85 c0                	test   eax,eax
10008ab5:	74 79                	je     0x10008b30
10008ab7:	85 ed                	test   ebp,ebp
10008ab9:	74 9a                	je     0x10008a55
10008abb:	8d 4f 40             	lea    ecx,[edi+0x40]
10008abe:	39 c8                	cmp    eax,ecx
10008ac0:	74 16                	je     0x10008ad8
10008ac2:	83 ec 08             	sub    esp,0x8
10008ac5:	50                   	push   eax
10008ac6:	ff 74 24 3c          	push   DWORD PTR [esp+0x3c]
10008aca:	e8 d9 01 00 00       	call   0x10008ca8
10008acf:	8b 07                	mov    eax,DWORD PTR [edi]
10008ad1:	89 44 24 14          	mov    DWORD PTR [esp+0x14],eax
10008ad5:	83 c4 10             	add    esp,0x10
10008ad8:	c7 47 30 00 00 00 00 	mov    DWORD PTR [edi+0x30],0x0
10008adf:	eb 57                	jmp    0x10008b38
10008ae1:	8d 76 00             	lea    esi,[esi+0x0]
10008ae4:	8b 44 24 08          	mov    eax,DWORD PTR [esp+0x8]
10008ae8:	01 f8                	add    eax,edi
10008aea:	29 f0                	sub    eax,esi
10008aec:	31 d2                	xor    edx,edx
10008aee:	f7 74 24 38          	div    DWORD PTR [esp+0x38]
10008af2:	89 44 24 08          	mov    DWORD PTR [esp+0x8],eax
10008af6:	8b 44 24 08          	mov    eax,DWORD PTR [esp+0x8]
10008afa:	83 c4 1c             	add    esp,0x1c
10008afd:	5b                   	pop    ebx
10008afe:	5e                   	pop    esi
10008aff:	5f                   	pop    edi
10008b00:	5d                   	pop    ebp
10008b01:	c3                   	ret    
10008b02:	66 90                	xchg   ax,ax
10008b04:	83 ec 0c             	sub    esp,0xc
10008b07:	ff 74 24 3c          	push   DWORD PTR [esp+0x3c]
10008b0b:	e8 48 fd ff ff       	call   0x10008858
10008b10:	83 c4 10             	add    esp,0x10
10008b13:	8b 6f 0c             	mov    ebp,DWORD PTR [edi+0xc]
10008b16:	f7 c5 00 20 00 00    	test   ebp,0x2000
10008b1c:	0f 85 b5 fe ff ff    	jne    0x100089d7
10008b22:	e9 9f fe ff ff       	jmp    0x100089c6
10008b27:	90                   	nop
10008b28:	89 ce                	mov    esi,ecx
10008b2a:	e9 5f ff ff ff       	jmp    0x10008a8e
10008b2f:	90                   	nop
10008b30:	85 ed                	test   ebp,ebp
10008b32:	0f 84 1d ff ff ff    	je     0x10008a55
10008b38:	03 74 24 34          	add    esi,DWORD PTR [esp+0x34]
10008b3c:	89 f3                	mov    ebx,esi
10008b3e:	8b 47 10             	mov    eax,DWORD PTR [edi+0x10]
10008b41:	89 44 24 0c          	mov    DWORD PTR [esp+0xc],eax
10008b45:	8b 77 14             	mov    esi,DWORD PTR [edi+0x14]
10008b48:	eb 0c                	jmp    0x10008b56
10008b4a:	66 90                	xchg   ax,ax
10008b4c:	89 d5                	mov    ebp,edx
10008b4e:	85 d2                	test   edx,edx
10008b50:	0f 84 ff fe ff ff    	je     0x10008a55
10008b56:	89 5f 10             	mov    DWORD PTR [edi+0x10],ebx
10008b59:	89 6f 14             	mov    DWORD PTR [edi+0x14],ebp
10008b5c:	89 1f                	mov    DWORD PTR [edi],ebx
10008b5e:	83 ec 08             	sub    esp,0x8
10008b61:	57                   	push   edi
10008b62:	ff 74 24 3c          	push   DWORD PTR [esp+0x3c]
10008b66:	e8 29 1c 00 00       	call   0x1000a794
10008b6b:	8b 4c 24 1c          	mov    ecx,DWORD PTR [esp+0x1c]
10008b6f:	89 4f 10             	mov    DWORD PTR [edi+0x10],ecx
10008b72:	89 77 14             	mov    DWORD PTR [edi+0x14],esi
10008b75:	8b 54 24 14          	mov    edx,DWORD PTR [esp+0x14]
10008b79:	89 17                	mov    DWORD PTR [edi],edx
10008b7b:	8b 4f 04             	mov    ecx,DWORD PTR [edi+0x4]
10008b7e:	89 ea                	mov    edx,ebp
10008b80:	29 ca                	sub    edx,ecx
10008b82:	01 cb                	add    ebx,ecx
10008b84:	c7 47 04 00 00 00 00 	mov    DWORD PTR [edi+0x4],0x0
10008b8b:	83 c4 10             	add    esp,0x10
10008b8e:	85 c0                	test   eax,eax
10008b90:	74 ba                	je     0x10008b4c
10008b92:	8b 44 24 08          	mov    eax,DWORD PTR [esp+0x8]
10008b96:	01 c8                	add    eax,ecx
10008b98:	29 e8                	sub    eax,ebp
10008b9a:	31 d2                	xor    edx,edx
10008b9c:	f7 74 24 38          	div    DWORD PTR [esp+0x38]
10008ba0:	89 44 24 08          	mov    DWORD PTR [esp+0x8],eax
10008ba4:	8b 44 24 08          	mov    eax,DWORD PTR [esp+0x8]
10008ba8:	83 c4 1c             	add    esp,0x1c
10008bab:	5b                   	pop    ebx
10008bac:	5e                   	pop    esi
10008bad:	5f                   	pop    edi
10008bae:	5d                   	pop    ebp
10008baf:	c3                   	ret    
10008bb0:	83 ec 18             	sub    esp,0x18
10008bb3:	ff 74 24 28          	push   DWORD PTR [esp+0x28]
10008bb7:	ff 74 24 28          	push   DWORD PTR [esp+0x28]
10008bbb:	ff 74 24 28          	push   DWORD PTR [esp+0x28]
10008bbf:	ff 74 24 28          	push   DWORD PTR [esp+0x28]
10008bc3:	ff 35 20 86 01 10    	push   DWORD PTR ds:0x10018620
10008bc9:	e8 b6 fd ff ff       	call   0x10008984
10008bce:	83 c4 2c             	add    esp,0x2c
10008bd1:	c3                   	ret    
10008bd2:	66 90                	xchg   ax,ax
10008bd4:	57                   	push   edi
10008bd5:	56                   	push   esi
10008bd6:	53                   	push   ebx
10008bd7:	8b 74 24 10          	mov    esi,DWORD PTR [esp+0x10]
10008bdb:	83 ec 0c             	sub    esp,0xc
10008bde:	56                   	push   esi
10008bdf:	e8 b4 14 00 00       	call   0x1000a098
10008be4:	a1 a8 8a 01 10       	mov    eax,ds:0x10018aa8
10008be9:	8b 58 04             	mov    ebx,DWORD PTR [eax+0x4]
10008bec:	83 e3 fc             	and    ebx,0xfffffffc
10008bef:	89 d8                	mov    eax,ebx
10008bf1:	2b 44 24 24          	sub    eax,DWORD PTR [esp+0x24]
10008bf5:	05 ef 0f 00 00       	add    eax,0xfef
10008bfa:	25 00 f0 ff ff       	and    eax,0xfffff000
10008bff:	8d b8 00 f0 ff ff    	lea    edi,[eax-0x1000]
10008c05:	83 c4 10             	add    esp,0x10
10008c08:	81 ff ff 0f 00 00    	cmp    edi,0xfff
10008c0e:	7e 1a                	jle    0x10008c2a
10008c10:	83 ec 08             	sub    esp,0x8
10008c13:	6a 00                	push   0x0
10008c15:	56                   	push   esi
10008c16:	e8 61 1d 00 00       	call   0x1000a97c
10008c1b:	8b 15 a8 8a 01 10    	mov    edx,DWORD PTR ds:0x10018aa8
10008c21:	01 da                	add    edx,ebx
10008c23:	83 c4 10             	add    esp,0x10
10008c26:	39 d0                	cmp    eax,edx
10008c28:	74 12                	je     0x10008c3c
10008c2a:	83 ec 0c             	sub    esp,0xc
10008c2d:	56                   	push   esi
10008c2e:	e8 69 14 00 00       	call   0x1000a09c
10008c33:	83 c4 10             	add    esp,0x10
10008c36:	31 c0                	xor    eax,eax
10008c38:	5b                   	pop    ebx
10008c39:	5e                   	pop    esi
10008c3a:	5f                   	pop    edi
10008c3b:	c3                   	ret    
10008c3c:	83 ec 08             	sub    esp,0x8
10008c3f:	89 f8                	mov    eax,edi
10008c41:	f7 d8                	neg    eax
10008c43:	50                   	push   eax
10008c44:	56                   	push   esi
10008c45:	e8 32 1d 00 00       	call   0x1000a97c
10008c4a:	83 c4 10             	add    esp,0x10
10008c4d:	40                   	inc    eax
10008c4e:	74 28                	je     0x10008c78
10008c50:	29 fb                	sub    ebx,edi
10008c52:	83 cb 01             	or     ebx,0x1
10008c55:	a1 a8 8a 01 10       	mov    eax,ds:0x10018aa8
10008c5a:	89 58 04             	mov    DWORD PTR [eax+0x4],ebx
10008c5d:	29 3d 20 ca 01 10    	sub    DWORD PTR ds:0x1001ca20,edi
10008c63:	83 ec 0c             	sub    esp,0xc
10008c66:	56                   	push   esi
10008c67:	e8 30 14 00 00       	call   0x1000a09c
10008c6c:	83 c4 10             	add    esp,0x10
10008c6f:	b8 01 00 00 00       	mov    eax,0x1
10008c74:	5b                   	pop    ebx
10008c75:	5e                   	pop    esi
10008c76:	5f                   	pop    edi
10008c77:	c3                   	ret    
10008c78:	83 ec 08             	sub    esp,0x8
10008c7b:	6a 00                	push   0x0
10008c7d:	56                   	push   esi
10008c7e:	e8 f9 1c 00 00       	call   0x1000a97c
10008c83:	8b 0d a8 8a 01 10    	mov    ecx,DWORD PTR ds:0x10018aa8
10008c89:	89 c2                	mov    edx,eax
10008c8b:	29 ca                	sub    edx,ecx
10008c8d:	83 c4 10             	add    esp,0x10
10008c90:	83 fa 0f             	cmp    edx,0xf
10008c93:	7e 95                	jle    0x10008c2a
10008c95:	2b 05 80 8a 01 10    	sub    eax,DWORD PTR ds:0x10018a80
10008c9b:	a3 20 ca 01 10       	mov    ds:0x1001ca20,eax
10008ca0:	83 ca 01             	or     edx,0x1
10008ca3:	89 51 04             	mov    DWORD PTR [ecx+0x4],edx
10008ca6:	eb 82                	jmp    0x10008c2a
10008ca8:	55                   	push   ebp
10008ca9:	57                   	push   edi
10008caa:	56                   	push   esi
10008cab:	53                   	push   ebx
10008cac:	83 ec 1c             	sub    esp,0x1c
10008caf:	8b 74 24 30          	mov    esi,DWORD PTR [esp+0x30]
10008cb3:	8b 5c 24 34          	mov    ebx,DWORD PTR [esp+0x34]
10008cb7:	85 db                	test   ebx,ebx
10008cb9:	0f 84 fd 00 00 00    	je     0x10008dbc
10008cbf:	83 ec 0c             	sub    esp,0xc
10008cc2:	56                   	push   esi
10008cc3:	e8 d0 13 00 00       	call   0x1000a098
10008cc8:	8d 53 f8             	lea    edx,[ebx-0x8]
10008ccb:	8b 7b fc             	mov    edi,DWORD PTR [ebx-0x4]
10008cce:	89 f8                	mov    eax,edi
10008cd0:	83 e0 fe             	and    eax,0xfffffffe
10008cd3:	8d 0c 02             	lea    ecx,[edx+eax*1]
10008cd6:	8b 69 04             	mov    ebp,DWORD PTR [ecx+0x4]
10008cd9:	83 e5 fc             	and    ebp,0xfffffffc
10008cdc:	89 6c 24 1c          	mov    DWORD PTR [esp+0x1c],ebp
10008ce0:	83 c4 10             	add    esp,0x10
10008ce3:	39 0d a8 8a 01 10    	cmp    DWORD PTR ds:0x10018aa8,ecx
10008ce9:	0f 84 75 01 00 00    	je     0x10008e64
10008cef:	8b 6c 24 0c          	mov    ebp,DWORD PTR [esp+0xc]
10008cf3:	89 69 04             	mov    DWORD PTR [ecx+0x4],ebp
10008cf6:	01 cd                	add    ebp,ecx
10008cf8:	83 e7 01             	and    edi,0x1
10008cfb:	0f 85 87 00 00 00    	jne    0x10008d88
10008d01:	8b 5b f8             	mov    ebx,DWORD PTR [ebx-0x8]
10008d04:	29 da                	sub    edx,ebx
10008d06:	01 d8                	add    eax,ebx
10008d08:	8b 5a 08             	mov    ebx,DWORD PTR [edx+0x8]
10008d0b:	8b 6d 04             	mov    ebp,DWORD PTR [ebp+0x4]
10008d0e:	83 e5 01             	and    ebp,0x1
10008d11:	81 fb a8 8a 01 10    	cmp    ebx,0x10018aa8
10008d17:	0f 84 1f 01 00 00    	je     0x10008e3c
10008d1d:	8b 7a 0c             	mov    edi,DWORD PTR [edx+0xc]
10008d20:	89 7b 0c             	mov    DWORD PTR [ebx+0xc],edi
10008d23:	89 5f 08             	mov    DWORD PTR [edi+0x8],ebx
10008d26:	85 ed                	test   ebp,ebp
10008d28:	74 64                	je     0x10008d8e
10008d2a:	89 c3                	mov    ebx,eax
10008d2c:	83 cb 01             	or     ebx,0x1
10008d2f:	89 5a 04             	mov    DWORD PTR [edx+0x4],ebx
10008d32:	89 01                	mov    DWORD PTR [ecx],eax
10008d34:	3d ff 01 00 00       	cmp    eax,0x1ff
10008d39:	0f 87 9a 00 00 00    	ja     0x10008dd9
10008d3f:	c1 e8 03             	shr    eax,0x3
10008d42:	89 c1                	mov    ecx,eax
10008d44:	c1 f9 02             	sar    ecx,0x2
10008d47:	bb 01 00 00 00       	mov    ebx,0x1
10008d4c:	d3 e3                	shl    ebx,cl
10008d4e:	09 1d a4 8a 01 10    	or     DWORD PTR ds:0x10018aa4,ebx
10008d54:	8d 04 c5 08 00 00 00 	lea    eax,[eax*8+0x8]
10008d5b:	8b 88 a0 8a 01 10    	mov    ecx,DWORD PTR [eax+0x10018aa0]
10008d61:	8d 98 98 8a 01 10    	lea    ebx,[eax+0x10018a98]
10008d67:	89 5a 0c             	mov    DWORD PTR [edx+0xc],ebx
10008d6a:	89 4a 08             	mov    DWORD PTR [edx+0x8],ecx
10008d6d:	89 90 a0 8a 01 10    	mov    DWORD PTR [eax+0x10018aa0],edx
10008d73:	89 51 0c             	mov    DWORD PTR [ecx+0xc],edx
10008d76:	89 74 24 30          	mov    DWORD PTR [esp+0x30],esi
10008d7a:	83 c4 1c             	add    esp,0x1c
10008d7d:	5b                   	pop    ebx
10008d7e:	5e                   	pop    esi
10008d7f:	5f                   	pop    edi
10008d80:	5d                   	pop    ebp
10008d81:	e9 16 13 00 00       	jmp    0x1000a09c
10008d86:	66 90                	xchg   ax,ax
10008d88:	f6 45 04 01          	test   BYTE PTR [ebp+0x4],0x1
10008d8c:	75 36                	jne    0x10008dc4
10008d8e:	03 44 24 0c          	add    eax,DWORD PTR [esp+0xc]
10008d92:	8b 59 08             	mov    ebx,DWORD PTR [ecx+0x8]
10008d95:	89 c5                	mov    ebp,eax
10008d97:	83 cd 01             	or     ebp,0x1
10008d9a:	8d 3c 02             	lea    edi,[edx+eax*1]
10008d9d:	81 fb a8 8a 01 10    	cmp    ebx,0x10018aa8
10008da3:	0f 84 3b 01 00 00    	je     0x10008ee4
10008da9:	8b 49 0c             	mov    ecx,DWORD PTR [ecx+0xc]
10008dac:	89 4b 0c             	mov    DWORD PTR [ebx+0xc],ecx
10008daf:	89 59 08             	mov    DWORD PTR [ecx+0x8],ebx
10008db2:	89 6a 04             	mov    DWORD PTR [edx+0x4],ebp
10008db5:	89 07                	mov    DWORD PTR [edi],eax
10008db7:	e9 78 ff ff ff       	jmp    0x10008d34
10008dbc:	83 c4 1c             	add    esp,0x1c
10008dbf:	5b                   	pop    ebx
10008dc0:	5e                   	pop    esi
10008dc1:	5f                   	pop    edi
10008dc2:	5d                   	pop    ebp
10008dc3:	c3                   	ret    
10008dc4:	89 c7                	mov    edi,eax
10008dc6:	83 cf 01             	or     edi,0x1
10008dc9:	89 7b fc             	mov    DWORD PTR [ebx-0x4],edi
10008dcc:	89 01                	mov    DWORD PTR [ecx],eax
10008dce:	3d ff 01 00 00       	cmp    eax,0x1ff
10008dd3:	0f 86 66 ff ff ff    	jbe    0x10008d3f
10008dd9:	89 c3                	mov    ebx,eax
10008ddb:	c1 eb 09             	shr    ebx,0x9
10008dde:	83 fb 04             	cmp    ebx,0x4
10008de1:	0f 87 cd 00 00 00    	ja     0x10008eb4
10008de7:	89 c3                	mov    ebx,eax
10008de9:	c1 eb 06             	shr    ebx,0x6
10008dec:	8d 4b 38             	lea    ecx,[ebx+0x38]
10008def:	8d 1c dd c8 01 00 00 	lea    ebx,[ebx*8+0x1c8]
10008df6:	8d bb 98 8a 01 10    	lea    edi,[ebx+0x10018a98]
10008dfc:	8b 9b a0 8a 01 10    	mov    ebx,DWORD PTR [ebx+0x10018aa0]
10008e02:	39 df                	cmp    edi,ebx
10008e04:	0f 84 fe 00 00 00    	je     0x10008f08
10008e0a:	66 90                	xchg   ax,ax
10008e0c:	8b 4b 04             	mov    ecx,DWORD PTR [ebx+0x4]
10008e0f:	83 e1 fc             	and    ecx,0xfffffffc
10008e12:	39 c1                	cmp    ecx,eax
10008e14:	76 07                	jbe    0x10008e1d
10008e16:	8b 5b 08             	mov    ebx,DWORD PTR [ebx+0x8]
10008e19:	39 df                	cmp    edi,ebx
10008e1b:	75 ef                	jne    0x10008e0c
10008e1d:	8b 7b 0c             	mov    edi,DWORD PTR [ebx+0xc]
10008e20:	89 7a 0c             	mov    DWORD PTR [edx+0xc],edi
10008e23:	89 5a 08             	mov    DWORD PTR [edx+0x8],ebx
10008e26:	89 57 08             	mov    DWORD PTR [edi+0x8],edx
10008e29:	89 53 0c             	mov    DWORD PTR [ebx+0xc],edx
10008e2c:	89 74 24 30          	mov    DWORD PTR [esp+0x30],esi
10008e30:	83 c4 1c             	add    esp,0x1c
10008e33:	5b                   	pop    ebx
10008e34:	5e                   	pop    esi
10008e35:	5f                   	pop    edi
10008e36:	5d                   	pop    ebp
10008e37:	e9 60 12 00 00       	jmp    0x1000a09c
10008e3c:	85 ed                	test   ebp,ebp
10008e3e:	0f 85 23 01 00 00    	jne    0x10008f67
10008e44:	03 44 24 0c          	add    eax,DWORD PTR [esp+0xc]
10008e48:	8b 59 08             	mov    ebx,DWORD PTR [ecx+0x8]
10008e4b:	8b 49 0c             	mov    ecx,DWORD PTR [ecx+0xc]
10008e4e:	89 4b 0c             	mov    DWORD PTR [ebx+0xc],ecx
10008e51:	89 59 08             	mov    DWORD PTR [ecx+0x8],ebx
10008e54:	89 c1                	mov    ecx,eax
10008e56:	83 c9 01             	or     ecx,0x1
10008e59:	89 4a 04             	mov    DWORD PTR [edx+0x4],ecx
10008e5c:	89 04 02             	mov    DWORD PTR [edx+eax*1],eax
10008e5f:	e9 12 ff ff ff       	jmp    0x10008d76
10008e64:	03 44 24 0c          	add    eax,DWORD PTR [esp+0xc]
10008e68:	83 e7 01             	and    edi,0x1
10008e6b:	75 13                	jne    0x10008e80
10008e6d:	8b 4b f8             	mov    ecx,DWORD PTR [ebx-0x8]
10008e70:	29 ca                	sub    edx,ecx
10008e72:	01 c8                	add    eax,ecx
10008e74:	8b 4a 0c             	mov    ecx,DWORD PTR [edx+0xc]
10008e77:	8b 5a 08             	mov    ebx,DWORD PTR [edx+0x8]
10008e7a:	89 4b 0c             	mov    DWORD PTR [ebx+0xc],ecx
10008e7d:	89 59 08             	mov    DWORD PTR [ecx+0x8],ebx
10008e80:	89 c1                	mov    ecx,eax
10008e82:	83 c9 01             	or     ecx,0x1
10008e85:	89 4a 04             	mov    DWORD PTR [edx+0x4],ecx
10008e88:	89 15 a8 8a 01 10    	mov    DWORD PTR ds:0x10018aa8,edx
10008e8e:	39 05 84 8a 01 10    	cmp    DWORD PTR ds:0x10018a84,eax
10008e94:	0f 87 dc fe ff ff    	ja     0x10008d76
10008e9a:	83 ec 08             	sub    esp,0x8
10008e9d:	ff 35 50 ca 01 10    	push   DWORD PTR ds:0x1001ca50
10008ea3:	56                   	push   esi
10008ea4:	e8 2b fd ff ff       	call   0x10008bd4
10008ea9:	83 c4 10             	add    esp,0x10
10008eac:	e9 c5 fe ff ff       	jmp    0x10008d76
10008eb1:	8d 76 00             	lea    esi,[esi+0x0]
10008eb4:	83 fb 14             	cmp    ebx,0x14
10008eb7:	76 1b                	jbe    0x10008ed4
10008eb9:	83 fb 54             	cmp    ebx,0x54
10008ebc:	77 62                	ja     0x10008f20
10008ebe:	89 c3                	mov    ebx,eax
10008ec0:	c1 eb 0c             	shr    ebx,0xc
10008ec3:	8d 4b 6e             	lea    ecx,[ebx+0x6e]
10008ec6:	8d 1c dd 78 03 00 00 	lea    ebx,[ebx*8+0x378]
10008ecd:	e9 24 ff ff ff       	jmp    0x10008df6
10008ed2:	66 90                	xchg   ax,ax
10008ed4:	8d 4b 5b             	lea    ecx,[ebx+0x5b]
10008ed7:	8d 1c dd e0 02 00 00 	lea    ebx,[ebx*8+0x2e0]
10008ede:	e9 13 ff ff ff       	jmp    0x10008df6
10008ee3:	90                   	nop
10008ee4:	89 15 b4 8a 01 10    	mov    DWORD PTR ds:0x10018ab4,edx
10008eea:	89 15 b0 8a 01 10    	mov    DWORD PTR ds:0x10018ab0,edx
10008ef0:	c7 42 0c a8 8a 01 10 	mov    DWORD PTR [edx+0xc],0x10018aa8
10008ef7:	c7 42 08 a8 8a 01 10 	mov    DWORD PTR [edx+0x8],0x10018aa8
10008efe:	89 6a 04             	mov    DWORD PTR [edx+0x4],ebp
10008f01:	89 07                	mov    DWORD PTR [edi],eax
10008f03:	e9 6e fe ff ff       	jmp    0x10008d76
10008f08:	c1 f9 02             	sar    ecx,0x2
10008f0b:	b8 01 00 00 00       	mov    eax,0x1
10008f10:	d3 e0                	shl    eax,cl
10008f12:	09 05 a4 8a 01 10    	or     DWORD PTR ds:0x10018aa4,eax
10008f18:	e9 03 ff ff ff       	jmp    0x10008e20
10008f1d:	8d 76 00             	lea    esi,[esi+0x0]
10008f20:	81 fb 54 01 00 00    	cmp    ebx,0x154
10008f26:	77 14                	ja     0x10008f3c
10008f28:	89 c3                	mov    ebx,eax
10008f2a:	c1 eb 0f             	shr    ebx,0xf
10008f2d:	8d 4b 77             	lea    ecx,[ebx+0x77]
10008f30:	8d 1c dd c0 03 00 00 	lea    ebx,[ebx*8+0x3c0]
10008f37:	e9 ba fe ff ff       	jmp    0x10008df6
10008f3c:	81 fb 54 05 00 00    	cmp    ebx,0x554
10008f42:	77 14                	ja     0x10008f58
10008f44:	89 c3                	mov    ebx,eax
10008f46:	c1 eb 12             	shr    ebx,0x12
10008f49:	8d 4b 7c             	lea    ecx,[ebx+0x7c]
10008f4c:	8d 1c dd e8 03 00 00 	lea    ebx,[ebx*8+0x3e8]
10008f53:	e9 9e fe ff ff       	jmp    0x10008df6
10008f58:	bb f8 03 00 00       	mov    ebx,0x3f8
10008f5d:	b9 7e 00 00 00       	mov    ecx,0x7e
10008f62:	e9 8f fe ff ff       	jmp    0x10008df6
10008f67:	89 c3                	mov    ebx,eax
10008f69:	83 cb 01             	or     ebx,0x1
10008f6c:	89 5a 04             	mov    DWORD PTR [edx+0x4],ebx
10008f6f:	89 01                	mov    DWORD PTR [ecx],eax
10008f71:	e9 00 fe ff ff       	jmp    0x10008d76
10008f76:	66 90                	xchg   ax,ax
10008f78:	e9 23 00 00 00       	jmp    0x10008fa0
10008f7d:	8d 76 00             	lea    esi,[esi+0x0]
10008f80:	83 ec 0c             	sub    esp,0xc
10008f83:	ff 74 24 18          	push   DWORD PTR [esp+0x18]
10008f87:	ff 74 24 18          	push   DWORD PTR [esp+0x18]
10008f8b:	ff 74 24 18          	push   DWORD PTR [esp+0x18]
10008f8f:	ff 35 20 86 01 10    	push   DWORD PTR ds:0x10018620
10008f95:	e8 06 00 00 00       	call   0x10008fa0
10008f9a:	83 c4 1c             	add    esp,0x1c
10008f9d:	c3                   	ret    
10008f9e:	66 90                	xchg   ax,ax
10008fa0:	55                   	push   ebp
10008fa1:	57                   	push   edi
10008fa2:	56                   	push   esi
10008fa3:	53                   	push   ebx
10008fa4:	83 ec 5c             	sub    esp,0x5c
10008fa7:	8b 74 24 70          	mov    esi,DWORD PTR [esp+0x70]
10008fab:	8b 5c 24 74          	mov    ebx,DWORD PTR [esp+0x74]
10008faf:	85 f6                	test   esi,esi
10008fb1:	74 07                	je     0x10008fba
10008fb3:	8b 46 38             	mov    eax,DWORD PTR [esi+0x38]
10008fb6:	85 c0                	test   eax,eax
10008fb8:	74 4a                	je     0x10009004
10008fba:	8b 43 0c             	mov    eax,DWORD PTR [ebx+0xc]
10008fbd:	25 08 01 00 00       	and    eax,0x108
10008fc2:	66 3d 08 01          	cmp    ax,0x108
10008fc6:	74 56                	je     0x1000901e
10008fc8:	8b 7b 28             	mov    edi,DWORD PTR [ebx+0x28]
10008fcb:	85 ff                	test   edi,edi
10008fcd:	0f 84 74 03 00 00    	je     0x10009347
10008fd3:	83 7c 24 7c 01       	cmp    DWORD PTR [esp+0x7c],0x1
10008fd8:	0f 84 0a 01 00 00    	je     0x100090e8
10008fde:	83 7c 24 7c 02       	cmp    DWORD PTR [esp+0x7c],0x2
10008fe3:	74 4b                	je     0x10009030
10008fe5:	8b 44 24 7c          	mov    eax,DWORD PTR [esp+0x7c]
10008fe9:	85 c0                	test   eax,eax
10008feb:	74 43                	je     0x10009030
10008fed:	c7 06 16 00 00 00    	mov    DWORD PTR [esi],0x16
10008ff3:	bd ff ff ff ff       	mov    ebp,0xffffffff
10008ff8:	89 e8                	mov    eax,ebp
10008ffa:	83 c4 5c             	add    esp,0x5c
10008ffd:	5b                   	pop    ebx
10008ffe:	5e                   	pop    esi
10008fff:	5f                   	pop    edi
10009000:	5d                   	pop    ebp
10009001:	c3                   	ret    
10009002:	66 90                	xchg   ax,ax
10009004:	83 ec 0c             	sub    esp,0xc
10009007:	56                   	push   esi
10009008:	e8 4b f8 ff ff       	call   0x10008858
1000900d:	83 c4 10             	add    esp,0x10
10009010:	8b 43 0c             	mov    eax,DWORD PTR [ebx+0xc]
10009013:	25 08 01 00 00       	and    eax,0x108
10009018:	66 3d 08 01          	cmp    ax,0x108
1000901c:	75 aa                	jne    0x10008fc8
1000901e:	83 ec 08             	sub    esp,0x8
10009021:	53                   	push   ebx
10009022:	56                   	push   esi
10009023:	e8 c0 f4 ff ff       	call   0x100084e8
10009028:	83 c4 10             	add    esp,0x10
1000902b:	eb 9b                	jmp    0x10008fc8
1000902d:	8d 76 00             	lea    esi,[esi+0x0]
10009030:	31 c9                	xor    ecx,ecx
10009032:	31 ed                	xor    ebp,ebp
10009034:	8b 43 10             	mov    eax,DWORD PTR [ebx+0x10]
10009037:	85 c0                	test   eax,eax
10009039:	0f 84 dd 00 00 00    	je     0x1000911c
1000903f:	8b 53 0c             	mov    edx,DWORD PTR [ebx+0xc]
10009042:	f7 c2 1a 08 00 00    	test   edx,0x81a
10009048:	75 20                	jne    0x1000906a
1000904a:	f6 c6 04             	test   dh,0x4
1000904d:	0f 85 35 01 00 00    	jne    0x10009188
10009053:	89 4c 24 08          	mov    DWORD PTR [esp+0x8],ecx
10009057:	81 ff 04 ab 00 10    	cmp    edi,0x1000ab04
1000905d:	0f 84 d5 00 00 00    	je     0x10009138
10009063:	80 ce 08             	or     dh,0x8
10009066:	66 89 53 0c          	mov    WORD PTR [ebx+0xc],dx
1000906a:	83 ec 08             	sub    esp,0x8
1000906d:	53                   	push   ebx
1000906e:	56                   	push   esi
1000906f:	e8 74 f4 ff ff       	call   0x100084e8
10009074:	89 c5                	mov    ebp,eax
10009076:	83 c4 10             	add    esp,0x10
10009079:	85 c0                	test   eax,eax
1000907b:	0f 85 72 ff ff ff    	jne    0x10008ff3
10009081:	ff 74 24 7c          	push   DWORD PTR [esp+0x7c]
10009085:	ff 74 24 7c          	push   DWORD PTR [esp+0x7c]
10009089:	ff 73 1c             	push   DWORD PTR [ebx+0x1c]
1000908c:	56                   	push   esi
1000908d:	ff d7                	call   edi
1000908f:	83 c4 10             	add    esp,0x10
10009092:	40                   	inc    eax
10009093:	0f 84 5a ff ff ff    	je     0x10008ff3
10009099:	8b 43 30             	mov    eax,DWORD PTR [ebx+0x30]
1000909c:	85 c0                	test   eax,eax
1000909e:	74 1b                	je     0x100090bb
100090a0:	8d 53 40             	lea    edx,[ebx+0x40]
100090a3:	39 d0                	cmp    eax,edx
100090a5:	74 0d                	je     0x100090b4
100090a7:	83 ec 08             	sub    esp,0x8
100090aa:	50                   	push   eax
100090ab:	56                   	push   esi
100090ac:	e8 f7 fb ff ff       	call   0x10008ca8
100090b1:	83 c4 10             	add    esp,0x10
100090b4:	c7 43 30 00 00 00 00 	mov    DWORD PTR [ebx+0x30],0x0
100090bb:	8b 43 10             	mov    eax,DWORD PTR [ebx+0x10]
100090be:	89 03                	mov    DWORD PTR [ebx],eax
100090c0:	c7 43 04 00 00 00 00 	mov    DWORD PTR [ebx+0x4],0x0
100090c7:	66 81 63 0c df f7    	and    WORD PTR [ebx+0xc],0xf7df
100090cd:	50                   	push   eax
100090ce:	6a 08                	push   0x8
100090d0:	6a 00                	push   0x0
100090d2:	83 c3 5c             	add    ebx,0x5c
100090d5:	53                   	push   ebx
100090d6:	e8 32 0f 00 00       	call   0x1000a00d
100090db:	83 c4 10             	add    esp,0x10
100090de:	89 e8                	mov    eax,ebp
100090e0:	83 c4 5c             	add    esp,0x5c
100090e3:	5b                   	pop    ebx
100090e4:	5e                   	pop    esi
100090e5:	5f                   	pop    edi
100090e6:	5d                   	pop    ebp
100090e7:	c3                   	ret    
100090e8:	83 ec 08             	sub    esp,0x8
100090eb:	53                   	push   ebx
100090ec:	56                   	push   esi
100090ed:	e8 e2 02 00 00       	call   0x100093d4
100090f2:	89 c5                	mov    ebp,eax
100090f4:	83 c4 10             	add    esp,0x10
100090f7:	83 f8 ff             	cmp    eax,0xffffffff
100090fa:	0f 84 f3 fe ff ff    	je     0x10008ff3
10009100:	01 44 24 78          	add    DWORD PTR [esp+0x78],eax
10009104:	b9 01 00 00 00       	mov    ecx,0x1
10009109:	c7 44 24 7c 00 00 00 00 	mov    DWORD PTR [esp+0x7c],0x0
10009111:	8b 43 10             	mov    eax,DWORD PTR [ebx+0x10]
10009114:	85 c0                	test   eax,eax
10009116:	0f 85 23 ff ff ff    	jne    0x1000903f
1000911c:	89 4c 24 08          	mov    DWORD PTR [esp+0x8],ecx
10009120:	83 ec 08             	sub    esp,0x8
10009123:	53                   	push   ebx
10009124:	56                   	push   esi
10009125:	e8 7e 05 00 00       	call   0x100096a8
1000912a:	83 c4 10             	add    esp,0x10
1000912d:	8b 4c 24 08          	mov    ecx,DWORD PTR [esp+0x8]
10009131:	e9 09 ff ff ff       	jmp    0x1000903f
10009136:	66 90                	xchg   ax,ax
10009138:	0f bf 43 0e          	movsx  eax,WORD PTR [ebx+0xe]
1000913c:	66 85 c0             	test   ax,ax
1000913f:	0f 88 1e ff ff ff    	js     0x10009063
10009145:	52                   	push   edx
10009146:	8d 54 24 18          	lea    edx,[esp+0x18]
1000914a:	52                   	push   edx
1000914b:	50                   	push   eax
1000914c:	56                   	push   esi
1000914d:	e8 26 02 00 00       	call   0x10009378
10009152:	83 c4 10             	add    esp,0x10
10009155:	8b 53 0c             	mov    edx,DWORD PTR [ebx+0xc]
10009158:	85 c0                	test   eax,eax
1000915a:	8b 4c 24 08          	mov    ecx,DWORD PTR [esp+0x8]
1000915e:	0f 85 ff fe ff ff    	jne    0x10009063
10009164:	8b 44 24 18          	mov    eax,DWORD PTR [esp+0x18]
10009168:	25 00 f0 00 00       	and    eax,0xf000
1000916d:	3d 00 80 00 00       	cmp    eax,0x8000
10009172:	0f 85 eb fe ff ff    	jne    0x10009063
10009178:	c7 43 4c 00 04 00 00 	mov    DWORD PTR [ebx+0x4c],0x400
1000917f:	80 ce 04             	or     dh,0x4
10009182:	66 89 53 0c          	mov    WORD PTR [ebx+0xc],dx
10009186:	66 90                	xchg   ax,ax
10009188:	8b 44 24 7c          	mov    eax,DWORD PTR [esp+0x7c]
1000918c:	85 c0                	test   eax,eax
1000918e:	0f 85 f4 00 00 00    	jne    0x10009288
10009194:	8b 44 24 78          	mov    eax,DWORD PTR [esp+0x78]
10009198:	89 44 24 08          	mov    DWORD PTR [esp+0x8],eax
1000919c:	85 c9                	test   ecx,ecx
1000919e:	0f 85 1c 01 00 00    	jne    0x100092c0
100091a4:	f6 43 0d 10          	test   BYTE PTR [ebx+0xd],0x10
100091a8:	0f 84 3e 01 00 00    	je     0x100092ec
100091ae:	8b 6b 50             	mov    ebp,DWORD PTR [ebx+0x50]
100091b1:	8b 4b 04             	mov    ecx,DWORD PTR [ebx+0x4]
100091b4:	89 4c 24 0c          	mov    DWORD PTR [esp+0xc],ecx
100091b8:	29 cd                	sub    ebp,ecx
100091ba:	8b 43 30             	mov    eax,DWORD PTR [ebx+0x30]
100091bd:	85 c0                	test   eax,eax
100091bf:	0f 84 12 01 00 00    	je     0x100092d7
100091c5:	2b 6b 3c             	sub    ebp,DWORD PTR [ebx+0x3c]
100091c8:	8b 53 38             	mov    edx,DWORD PTR [ebx+0x38]
100091cb:	2b 53 10             	sub    edx,DWORD PTR [ebx+0x10]
100091ce:	01 cd                	add    ebp,ecx
100091d0:	29 d5                	sub    ebp,edx
100091d2:	03 53 3c             	add    edx,DWORD PTR [ebx+0x3c]
100091d5:	39 6c 24 08          	cmp    DWORD PTR [esp+0x8],ebp
100091d9:	7c 0e                	jl     0x100091e9
100091db:	8d 4c 15 00          	lea    ecx,[ebp+edx*1+0x0]
100091df:	3b 4c 24 08          	cmp    ecx,DWORD PTR [esp+0x8]
100091e3:	0f 87 23 01 00 00    	ja     0x1000930c
100091e9:	8b 6b 4c             	mov    ebp,DWORD PTR [ebx+0x4c]
100091ec:	f7 dd                	neg    ebp
100091ee:	23 6c 24 08          	and    ebp,DWORD PTR [esp+0x8]
100091f2:	6a 00                	push   0x0
100091f4:	55                   	push   ebp
100091f5:	ff 73 1c             	push   DWORD PTR [ebx+0x1c]
100091f8:	56                   	push   esi
100091f9:	ff d7                	call   edi
100091fb:	83 c4 10             	add    esp,0x10
100091fe:	40                   	inc    eax
100091ff:	0f 84 65 fe ff ff    	je     0x1000906a
10009205:	c7 43 04 00 00 00 00 	mov    DWORD PTR [ebx+0x4],0x0
1000920c:	8b 43 10             	mov    eax,DWORD PTR [ebx+0x10]
1000920f:	89 03                	mov    DWORD PTR [ebx],eax
10009211:	8b 43 30             	mov    eax,DWORD PTR [ebx+0x30]
10009214:	85 c0                	test   eax,eax
10009216:	74 1b                	je     0x10009233
10009218:	8d 53 40             	lea    edx,[ebx+0x40]
1000921b:	39 d0                	cmp    eax,edx
1000921d:	74 0d                	je     0x1000922c
1000921f:	83 ec 08             	sub    esp,0x8
10009222:	50                   	push   eax
10009223:	56                   	push   esi
10009224:	e8 7f fa ff ff       	call   0x10008ca8
10009229:	83 c4 10             	add    esp,0x10
1000922c:	c7 43 30 00 00 00 00 	mov    DWORD PTR [ebx+0x30],0x0
10009233:	66 83 63 0c df       	and    WORD PTR [ebx+0xc],0xffdf
10009238:	8b 44 24 08          	mov    eax,DWORD PTR [esp+0x8]
1000923c:	29 e8                	sub    eax,ebp
1000923e:	89 c5                	mov    ebp,eax
10009240:	74 27                	je     0x10009269
10009242:	83 ec 08             	sub    esp,0x8
10009245:	53                   	push   ebx
10009246:	56                   	push   esi
10009247:	e8 48 15 00 00       	call   0x1000a794
1000924c:	83 c4 10             	add    esp,0x10
1000924f:	85 c0                	test   eax,eax
10009251:	0f 85 13 fe ff ff    	jne    0x1000906a
10009257:	8b 43 04             	mov    eax,DWORD PTR [ebx+0x4]
1000925a:	39 e8                	cmp    eax,ebp
1000925c:	0f 82 08 fe ff ff    	jb     0x1000906a
10009262:	01 2b                	add    DWORD PTR [ebx],ebp
10009264:	29 e8                	sub    eax,ebp
10009266:	89 43 04             	mov    DWORD PTR [ebx+0x4],eax
10009269:	52                   	push   edx
1000926a:	6a 08                	push   0x8
1000926c:	6a 00                	push   0x0
1000926e:	83 c3 5c             	add    ebx,0x5c
10009271:	53                   	push   ebx
10009272:	e8 96 0d 00 00       	call   0x1000a00d
10009277:	83 c4 10             	add    esp,0x10
1000927a:	31 ed                	xor    ebp,ebp
1000927c:	89 e8                	mov    eax,ebp
1000927e:	83 c4 5c             	add    esp,0x5c
10009281:	5b                   	pop    ebx
10009282:	5e                   	pop    esi
10009283:	5f                   	pop    edi
10009284:	5d                   	pop    ebp
10009285:	c3                   	ret    
10009286:	66 90                	xchg   ax,ax
10009288:	89 4c 24 0c          	mov    DWORD PTR [esp+0xc],ecx
1000928c:	51                   	push   ecx
1000928d:	8d 44 24 18          	lea    eax,[esp+0x18]
10009291:	50                   	push   eax
10009292:	0f bf 43 0e          	movsx  eax,WORD PTR [ebx+0xe]
10009296:	50                   	push   eax
10009297:	56                   	push   esi
10009298:	e8 db 00 00 00       	call   0x10009378
1000929d:	83 c4 10             	add    esp,0x10
100092a0:	85 c0                	test   eax,eax
100092a2:	0f 85 c2 fd ff ff    	jne    0x1000906a
100092a8:	8b 44 24 78          	mov    eax,DWORD PTR [esp+0x78]
100092ac:	03 44 24 24          	add    eax,DWORD PTR [esp+0x24]
100092b0:	89 44 24 08          	mov    DWORD PTR [esp+0x8],eax
100092b4:	8b 4c 24 0c          	mov    ecx,DWORD PTR [esp+0xc]
100092b8:	e9 df fe ff ff       	jmp    0x1000919c
100092bd:	8d 76 00             	lea    esi,[esi+0x0]
100092c0:	8b 43 30             	mov    eax,DWORD PTR [ebx+0x30]
100092c3:	85 c0                	test   eax,eax
100092c5:	74 09                	je     0x100092d0
100092c7:	8b 4b 04             	mov    ecx,DWORD PTR [ebx+0x4]
100092ca:	e9 f9 fe ff ff       	jmp    0x100091c8
100092cf:	90                   	nop
100092d0:	8b 43 04             	mov    eax,DWORD PTR [ebx+0x4]
100092d3:	89 44 24 0c          	mov    DWORD PTR [esp+0xc],eax
100092d7:	8b 13                	mov    edx,DWORD PTR [ebx]
100092d9:	2b 53 10             	sub    edx,DWORD PTR [ebx+0x10]
100092dc:	29 d5                	sub    ebp,edx
100092de:	03 54 24 0c          	add    edx,DWORD PTR [esp+0xc]
100092e2:	31 c0                	xor    eax,eax
100092e4:	e9 ec fe ff ff       	jmp    0x100091d5
100092e9:	8d 76 00             	lea    esi,[esi+0x0]
100092ec:	6a 01                	push   0x1
100092ee:	6a 00                	push   0x0
100092f0:	ff 73 1c             	push   DWORD PTR [ebx+0x1c]
100092f3:	56                   	push   esi
100092f4:	ff d7                	call   edi
100092f6:	89 c5                	mov    ebp,eax
100092f8:	83 c4 10             	add    esp,0x10
100092fb:	83 f8 ff             	cmp    eax,0xffffffff
100092fe:	0f 85 ad fe ff ff    	jne    0x100091b1
10009304:	e9 61 fd ff ff       	jmp    0x1000906a
10009309:	8d 76 00             	lea    esi,[esi+0x0]
1000930c:	8b 4c 24 08          	mov    ecx,DWORD PTR [esp+0x8]
10009310:	29 e9                	sub    ecx,ebp
10009312:	89 cd                	mov    ebp,ecx
10009314:	03 4b 10             	add    ecx,DWORD PTR [ebx+0x10]
10009317:	89 0b                	mov    DWORD PTR [ebx],ecx
10009319:	29 ea                	sub    edx,ebp
1000931b:	89 53 04             	mov    DWORD PTR [ebx+0x4],edx
1000931e:	85 c0                	test   eax,eax
10009320:	74 1b                	je     0x1000933d
10009322:	8d 53 40             	lea    edx,[ebx+0x40]
10009325:	39 d0                	cmp    eax,edx
10009327:	74 0d                	je     0x10009336
10009329:	83 ec 08             	sub    esp,0x8
1000932c:	50                   	push   eax
1000932d:	56                   	push   esi
1000932e:	e8 75 f9 ff ff       	call   0x10008ca8
10009333:	83 c4 10             	add    esp,0x10
10009336:	c7 43 30 00 00 00 00 	mov    DWORD PTR [ebx+0x30],0x0
1000933d:	66 83 63 0c df       	and    WORD PTR [ebx+0xc],0xffdf
10009342:	e9 22 ff ff ff       	jmp    0x10009269
10009347:	c7 06 1d 00 00 00    	mov    DWORD PTR [esi],0x1d
1000934d:	bd ff ff ff ff       	mov    ebp,0xffffffff
10009352:	e9 a1 fc ff ff       	jmp    0x10008ff8
10009357:	90                   	nop
10009358:	83 ec 0c             	sub    esp,0xc
1000935b:	ff 74 24 18          	push   DWORD PTR [esp+0x18]
1000935f:	ff 74 24 18          	push   DWORD PTR [esp+0x18]
10009363:	ff 74 24 18          	push   DWORD PTR [esp+0x18]
10009367:	ff 35 20 86 01 10    	push   DWORD PTR ds:0x10018620
1000936d:	e8 2e fc ff ff       	call   0x10008fa0
10009372:	83 c4 1c             	add    esp,0x1c
10009375:	c3                   	ret    
10009376:	66 90                	xchg   ax,ax
10009378:	83 ec 14             	sub    esp,0x14
1000937b:	c7 05 00 b0 01 10 00 00 00 00 	mov    DWORD PTR ds:0x1001b000,0x0
10009385:	ff 74 24 20          	push   DWORD PTR [esp+0x20]
10009389:	ff 74 24 20          	push   DWORD PTR [esp+0x20]
1000938d:	e8 41 3c 00 00       	call   0x1000cfd3
10009392:	83 c4 10             	add    esp,0x10
10009395:	83 f8 ff             	cmp    eax,0xffffffff
10009398:	74 06                	je     0x100093a0
1000939a:	83 c4 0c             	add    esp,0xc
1000939d:	c3                   	ret    
1000939e:	66 90                	xchg   ax,ax
100093a0:	8b 15 00 b0 01 10    	mov    edx,DWORD PTR ds:0x1001b000
100093a6:	85 d2                	test   edx,edx
100093a8:	74 f0                	je     0x1000939a
100093aa:	8b 4c 24 10          	mov    ecx,DWORD PTR [esp+0x10]
100093ae:	89 11                	mov    DWORD PTR [ecx],edx
100093b0:	83 c4 0c             	add    esp,0xc
100093b3:	c3                   	ret    
100093b4:	e9 1b 00 00 00       	jmp    0x100093d4
100093b9:	8d 76 00             	lea    esi,[esi+0x0]
100093bc:	83 ec 14             	sub    esp,0x14
100093bf:	ff 74 24 18          	push   DWORD PTR [esp+0x18]
100093c3:	ff 35 20 86 01 10    	push   DWORD PTR ds:0x10018620
100093c9:	e8 06 00 00 00       	call   0x100093d4
100093ce:	83 c4 1c             	add    esp,0x1c
100093d1:	c3                   	ret    
100093d2:	66 90                	xchg   ax,ax
100093d4:	56                   	push   esi
100093d5:	53                   	push   ebx
100093d6:	50                   	push   eax
100093d7:	8b 74 24 10          	mov    esi,DWORD PTR [esp+0x10]
100093db:	8b 5c 24 14          	mov    ebx,DWORD PTR [esp+0x14]
100093df:	85 f6                	test   esi,esi
100093e1:	74 07                	je     0x100093ea
100093e3:	8b 46 38             	mov    eax,DWORD PTR [esi+0x38]
100093e6:	85 c0                	test   eax,eax
100093e8:	74 66                	je     0x10009450
100093ea:	8b 43 28             	mov    eax,DWORD PTR [ebx+0x28]
100093ed:	85 c0                	test   eax,eax
100093ef:	0f 84 81 00 00 00    	je     0x10009476
100093f5:	8b 53 0c             	mov    edx,DWORD PTR [ebx+0xc]
100093f8:	89 d1                	mov    ecx,edx
100093fa:	83 e1 0c             	and    ecx,0xc
100093fd:	66 83 f9 08          	cmp    cx,0x8
10009401:	74 5d                	je     0x10009460
10009403:	f6 c6 10             	test   dh,0x10
10009406:	75 2c                	jne    0x10009434
10009408:	6a 01                	push   0x1
1000940a:	6a 00                	push   0x0
1000940c:	ff 73 1c             	push   DWORD PTR [ebx+0x1c]
1000940f:	56                   	push   esi
10009410:	ff d0                	call   eax
10009412:	83 c4 10             	add    esp,0x10
10009415:	83 f8 ff             	cmp    eax,0xffffffff
10009418:	74 69                	je     0x10009483
1000941a:	8b 53 0c             	mov    edx,DWORD PTR [ebx+0xc]
1000941d:	f6 c2 04             	test   dl,0x4
10009420:	74 1a                	je     0x1000943c
10009422:	2b 43 04             	sub    eax,DWORD PTR [ebx+0x4]
10009425:	8b 4b 30             	mov    ecx,DWORD PTR [ebx+0x30]
10009428:	85 c9                	test   ecx,ecx
1000942a:	74 03                	je     0x1000942f
1000942c:	2b 43 3c             	sub    eax,DWORD PTR [ebx+0x3c]
1000942f:	5a                   	pop    edx
10009430:	5b                   	pop    ebx
10009431:	5e                   	pop    esi
10009432:	c3                   	ret    
10009433:	90                   	nop
10009434:	8b 43 50             	mov    eax,DWORD PTR [ebx+0x50]
10009437:	f6 c2 04             	test   dl,0x4
1000943a:	75 e6                	jne    0x10009422
1000943c:	83 e2 08             	and    edx,0x8
1000943f:	74 ee                	je     0x1000942f
10009441:	8b 13                	mov    edx,DWORD PTR [ebx]
10009443:	85 d2                	test   edx,edx
10009445:	74 e8                	je     0x1000942f
10009447:	2b 53 10             	sub    edx,DWORD PTR [ebx+0x10]
1000944a:	01 d0                	add    eax,edx
1000944c:	5a                   	pop    edx
1000944d:	5b                   	pop    ebx
1000944e:	5e                   	pop    esi
1000944f:	c3                   	ret    
10009450:	83 ec 0c             	sub    esp,0xc
10009453:	56                   	push   esi
10009454:	e8 ff f3 ff ff       	call   0x10008858
10009459:	83 c4 10             	add    esp,0x10
1000945c:	eb 8c                	jmp    0x100093ea
1000945e:	66 90                	xchg   ax,ax
10009460:	8b 0b                	mov    ecx,DWORD PTR [ebx]
10009462:	85 c9                	test   ecx,ecx
10009464:	74 9d                	je     0x10009403
10009466:	2b 4b 10             	sub    ecx,DWORD PTR [ebx+0x10]
10009469:	85 c9                	test   ecx,ecx
1000946b:	7e 96                	jle    0x10009403
1000946d:	f6 c6 01             	test   dh,0x1
10009470:	74 91                	je     0x10009403
10009472:	6a 02                	push   0x2
10009474:	eb 94                	jmp    0x1000940a
10009476:	c7 06 1d 00 00 00    	mov    DWORD PTR [esi],0x1d
1000947c:	b8 ff ff ff ff       	mov    eax,0xffffffff
10009481:	eb ac                	jmp    0x1000942f
10009483:	b8 ff ff ff ff       	mov    eax,0xffffffff
10009488:	eb a5                	jmp    0x1000942f
1000948a:	66 90                	xchg   ax,ax
1000948c:	83 ec 14             	sub    esp,0x14
1000948f:	ff 74 24 18          	push   DWORD PTR [esp+0x18]
10009493:	ff 35 20 86 01 10    	push   DWORD PTR ds:0x10018620
10009499:	e8 36 ff ff ff       	call   0x100093d4
1000949e:	83 c4 1c             	add    esp,0x1c
100094a1:	c3                   	ret    
100094a2:	66 90                	xchg   ax,ax
100094a4:	55                   	push   ebp
100094a5:	57                   	push   edi
100094a6:	56                   	push   esi
100094a7:	53                   	push   ebx
100094a8:	83 ec 0c             	sub    esp,0xc
100094ab:	8b 7c 24 20          	mov    edi,DWORD PTR [esp+0x20]
100094af:	31 f6                	xor    esi,esi
100094b1:	81 c7 e0 02 00 00    	add    edi,0x2e0
100094b7:	74 39                	je     0x100094f2
100094b9:	8d 76 00             	lea    esi,[esi+0x0]
100094bc:	8b 5f 08             	mov    ebx,DWORD PTR [edi+0x8]
100094bf:	8b 6f 04             	mov    ebp,DWORD PTR [edi+0x4]
100094c2:	4d                   	dec    ebp
100094c3:	78 27                	js     0x100094ec
100094c5:	8d 76 00             	lea    esi,[esi+0x0]
100094c8:	66 83 7b 0c 01       	cmp    WORD PTR [ebx+0xc],0x1
100094cd:	76 14                	jbe    0x100094e3
100094cf:	66 83 7b 0e ff       	cmp    WORD PTR [ebx+0xe],0xffff
100094d4:	74 0d                	je     0x100094e3
100094d6:	83 ec 0c             	sub    esp,0xc
100094d9:	53                   	push   ebx
100094da:	ff 54 24 34          	call   DWORD PTR [esp+0x34]
100094de:	09 c6                	or     esi,eax
100094e0:	83 c4 10             	add    esp,0x10
100094e3:	83 c3 68             	add    ebx,0x68
100094e6:	4d                   	dec    ebp
100094e7:	83 fd ff             	cmp    ebp,0xffffffff
100094ea:	75 dc                	jne    0x100094c8
100094ec:	8b 3f                	mov    edi,DWORD PTR [edi]
100094ee:	85 ff                	test   edi,edi
100094f0:	75 ca                	jne    0x100094bc
100094f2:	89 f0                	mov    eax,esi
100094f4:	83 c4 0c             	add    esp,0xc
100094f7:	5b                   	pop    ebx
100094f8:	5e                   	pop    esi
100094f9:	5f                   	pop    edi
100094fa:	5d                   	pop    ebp
100094fb:	c3                   	ret    
100094fc:	55                   	push   ebp
100094fd:	57                   	push   edi
100094fe:	56                   	push   esi
100094ff:	53                   	push   ebx
10009500:	83 ec 0c             	sub    esp,0xc
10009503:	8b 74 24 20          	mov    esi,DWORD PTR [esp+0x20]
10009507:	31 db                	xor    ebx,ebx
10009509:	81 c6 e0 02 00 00    	add    esi,0x2e0
1000950f:	74 3d                	je     0x1000954e
10009511:	8d 76 00             	lea    esi,[esi+0x0]
10009514:	8b 7e 08             	mov    edi,DWORD PTR [esi+0x8]
10009517:	8b 6e 04             	mov    ebp,DWORD PTR [esi+0x4]
1000951a:	4d                   	dec    ebp
1000951b:	78 2b                	js     0x10009548
1000951d:	8d 76 00             	lea    esi,[esi+0x0]
10009520:	66 83 7f 0c 01       	cmp    WORD PTR [edi+0xc],0x1
10009525:	76 18                	jbe    0x1000953f
10009527:	66 83 7f 0e ff       	cmp    WORD PTR [edi+0xe],0xffff
1000952c:	74 11                	je     0x1000953f
1000952e:	83 ec 08             	sub    esp,0x8
10009531:	57                   	push   edi
10009532:	ff 74 24 2c          	push   DWORD PTR [esp+0x2c]
10009536:	ff 54 24 34          	call   DWORD PTR [esp+0x34]
1000953a:	09 c3                	or     ebx,eax
1000953c:	83 c4 10             	add    esp,0x10
1000953f:	83 c7 68             	add    edi,0x68
10009542:	4d                   	dec    ebp
10009543:	83 fd ff             	cmp    ebp,0xffffffff
10009546:	75 d8                	jne    0x10009520
10009548:	8b 36                	mov    esi,DWORD PTR [esi]
1000954a:	85 f6                	test   esi,esi
1000954c:	75 c6                	jne    0x10009514
1000954e:	89 d8                	mov    eax,ebx
10009550:	83 c4 0c             	add    esp,0xc
10009553:	5b                   	pop    ebx
10009554:	5e                   	pop    esi
10009555:	5f                   	pop    edi
10009556:	5d                   	pop    ebp
10009557:	c3                   	ret    
10009558:	57                   	push   edi
10009559:	56                   	push   esi
1000955a:	53                   	push   ebx
1000955b:	83 ec 20             	sub    esp,0x20
1000955e:	8b 7c 24 30          	mov    edi,DWORD PTR [esp+0x30]
10009562:	8b 74 24 40          	mov    esi,DWORD PTR [esp+0x40]
10009566:	8b 44 24 34          	mov    eax,DWORD PTR [esp+0x34]
1000956a:	89 44 24 0c          	mov    DWORD PTR [esp+0xc],eax
1000956e:	8b 5c 24 3c          	mov    ebx,DWORD PTR [esp+0x3c]
10009572:	0f af 5c 24 38       	imul   ebx,DWORD PTR [esp+0x38]
10009577:	89 5c 24 10          	mov    DWORD PTR [esp+0x10],ebx
1000957b:	89 5c 24 1c          	mov    DWORD PTR [esp+0x1c],ebx
1000957f:	8d 44 24 0c          	lea    eax,[esp+0xc]
10009583:	89 44 24 14          	mov    DWORD PTR [esp+0x14],eax
10009587:	c7 44 24 18 01 00 00 00 	mov    DWORD PTR [esp+0x18],0x1
1000958f:	85 ff                	test   edi,edi
10009591:	74 07                	je     0x1000959a
10009593:	8b 57 38             	mov    edx,DWORD PTR [edi+0x38]
10009596:	85 d2                	test   edx,edx
10009598:	74 3e                	je     0x100095d8
1000959a:	8b 46 0c             	mov    eax,DWORD PTR [esi+0xc]
1000959d:	f6 c4 20             	test   ah,0x20
100095a0:	75 0e                	jne    0x100095b0
100095a2:	80 cc 20             	or     ah,0x20
100095a5:	66 89 46 0c          	mov    WORD PTR [esi+0xc],ax
100095a9:	81 66 64 ff df ff ff 	and    DWORD PTR [esi+0x64],0xffffdfff
100095b0:	50                   	push   eax
100095b1:	8d 44 24 18          	lea    eax,[esp+0x18]
100095b5:	50                   	push   eax
100095b6:	56                   	push   esi
100095b7:	57                   	push   edi
100095b8:	e8 0f 5b 00 00       	call   0x1000f0cc
100095bd:	83 c4 10             	add    esp,0x10
100095c0:	85 c0                	test   eax,eax
100095c2:	74 24                	je     0x100095e8
100095c4:	89 d8                	mov    eax,ebx
100095c6:	2b 44 24 1c          	sub    eax,DWORD PTR [esp+0x1c]
100095ca:	31 d2                	xor    edx,edx
100095cc:	f7 74 24 38          	div    DWORD PTR [esp+0x38]
100095d0:	83 c4 20             	add    esp,0x20
100095d3:	5b                   	pop    ebx
100095d4:	5e                   	pop    esi
100095d5:	5f                   	pop    edi
100095d6:	c3                   	ret    
100095d7:	90                   	nop
100095d8:	83 ec 0c             	sub    esp,0xc
100095db:	57                   	push   edi
100095dc:	e8 77 f2 ff ff       	call   0x10008858
100095e1:	83 c4 10             	add    esp,0x10
100095e4:	eb b4                	jmp    0x1000959a
100095e6:	66 90                	xchg   ax,ax
100095e8:	8b 44 24 3c          	mov    eax,DWORD PTR [esp+0x3c]
100095ec:	83 c4 20             	add    esp,0x20
100095ef:	5b                   	pop    ebx
100095f0:	5e                   	pop    esi
100095f1:	5f                   	pop    edi
100095f2:	c3                   	ret    
100095f3:	90                   	nop
100095f4:	83 ec 18             	sub    esp,0x18
100095f7:	ff 74 24 28          	push   DWORD PTR [esp+0x28]
100095fb:	ff 74 24 28          	push   DWORD PTR [esp+0x28]
100095ff:	ff 74 24 28          	push   DWORD PTR [esp+0x28]
10009603:	ff 74 24 28          	push   DWORD PTR [esp+0x28]
10009607:	ff 35 20 86 01 10    	push   DWORD PTR ds:0x10018620
1000960d:	e8 46 ff ff ff       	call   0x10009558
10009612:	83 c4 2c             	add    esp,0x2c
10009615:	c3                   	ret    
10009616:	66 90                	xchg   ax,ax
10009618:	53                   	push   ebx
10009619:	83 ec 48             	sub    esp,0x48
1000961c:	8b 5c 24 54          	mov    ebx,DWORD PTR [esp+0x54]
10009620:	0f bf 43 0e          	movsx  eax,WORD PTR [ebx+0xe]
10009624:	66 85 c0             	test   ax,ax
10009627:	78 47                	js     0x10009670
10009629:	52                   	push   edx
1000962a:	8d 54 24 08          	lea    edx,[esp+0x8]
1000962e:	52                   	push   edx
1000962f:	50                   	push   eax
10009630:	ff 74 24 5c          	push   DWORD PTR [esp+0x5c]
10009634:	e8 3f fd ff ff       	call   0x10009378
10009639:	83 c4 10             	add    esp,0x10
1000963c:	85 c0                	test   eax,eax
1000963e:	78 30                	js     0x10009670
10009640:	8b 44 24 08          	mov    eax,DWORD PTR [esp+0x8]
10009644:	25 00 f0 00 00       	and    eax,0xf000
10009649:	3d 00 20 00 00       	cmp    eax,0x2000
1000964e:	0f 94 c0             	sete   al
10009651:	0f b6 c0             	movzx  eax,al
10009654:	8b 4c 24 5c          	mov    ecx,DWORD PTR [esp+0x5c]
10009658:	89 01                	mov    DWORD PTR [ecx],eax
1000965a:	8b 44 24 58          	mov    eax,DWORD PTR [esp+0x58]
1000965e:	c7 00 00 04 00 00    	mov    DWORD PTR [eax],0x400
10009664:	b8 00 08 00 00       	mov    eax,0x800
10009669:	83 c4 48             	add    esp,0x48
1000966c:	5b                   	pop    ebx
1000966d:	c3                   	ret    
1000966e:	66 90                	xchg   ax,ax
10009670:	8b 44 24 5c          	mov    eax,DWORD PTR [esp+0x5c]
10009674:	c7 00 00 00 00 00    	mov    DWORD PTR [eax],0x0
1000967a:	f6 43 0c 80          	test   BYTE PTR [ebx+0xc],0x80
1000967e:	74 14                	je     0x10009694
10009680:	8b 44 24 58          	mov    eax,DWORD PTR [esp+0x58]
10009684:	c7 00 40 00 00 00    	mov    DWORD PTR [eax],0x40
1000968a:	31 c0                	xor    eax,eax
1000968c:	83 c4 48             	add    esp,0x48
1000968f:	5b                   	pop    ebx
10009690:	c3                   	ret    
10009691:	8d 76 00             	lea    esi,[esi+0x0]
10009694:	8b 44 24 58          	mov    eax,DWORD PTR [esp+0x58]
10009698:	c7 00 00 04 00 00    	mov    DWORD PTR [eax],0x400
1000969e:	31 c0                	xor    eax,eax
100096a0:	83 c4 48             	add    esp,0x48
100096a3:	5b                   	pop    ebx
100096a4:	c3                   	ret    
100096a5:	8d 76 00             	lea    esi,[esi+0x0]
100096a8:	57                   	push   edi
100096a9:	56                   	push   esi
100096aa:	53                   	push   ebx
100096ab:	83 ec 10             	sub    esp,0x10
100096ae:	8b 7c 24 20          	mov    edi,DWORD PTR [esp+0x20]
100096b2:	8b 5c 24 24          	mov    ebx,DWORD PTR [esp+0x24]
100096b6:	f6 43 0c 02          	test   BYTE PTR [ebx+0xc],0x2
100096ba:	74 18                	je     0x100096d4
100096bc:	8d 43 43             	lea    eax,[ebx+0x43]
100096bf:	89 03                	mov    DWORD PTR [ebx],eax
100096c1:	89 43 10             	mov    DWORD PTR [ebx+0x10],eax
100096c4:	c7 43 14 01 00 00 00 	mov    DWORD PTR [ebx+0x14],0x1
100096cb:	83 c4 10             	add    esp,0x10
100096ce:	5b                   	pop    ebx
100096cf:	5e                   	pop    esi
100096d0:	5f                   	pop    edi
100096d1:	c3                   	ret    
100096d2:	66 90                	xchg   ax,ax
100096d4:	8d 44 24 0c          	lea    eax,[esp+0xc]
100096d8:	50                   	push   eax
100096d9:	8d 44 24 0c          	lea    eax,[esp+0xc]
100096dd:	50                   	push   eax
100096de:	53                   	push   ebx
100096df:	57                   	push   edi
100096e0:	e8 33 ff ff ff       	call   0x10009618
100096e5:	89 c6                	mov    esi,eax
100096e7:	5a                   	pop    edx
100096e8:	59                   	pop    ecx
100096e9:	ff 74 24 10          	push   DWORD PTR [esp+0x10]
100096ed:	57                   	push   edi
100096ee:	e8 a1 00 00 00       	call   0x10009794
100096f3:	83 c4 10             	add    esp,0x10
100096f6:	85 c0                	test   eax,eax
100096f8:	74 32                	je     0x1000972c
100096fa:	c7 47 3c 74 85 00 10 	mov    DWORD PTR [edi+0x3c],0x10008574
10009701:	8b 53 0c             	mov    edx,DWORD PTR [ebx+0xc]
10009704:	80 ca 80             	or     dl,0x80
10009707:	66 89 53 0c          	mov    WORD PTR [ebx+0xc],dx
1000970b:	89 03                	mov    DWORD PTR [ebx],eax
1000970d:	89 43 10             	mov    DWORD PTR [ebx+0x10],eax
10009710:	8b 44 24 08          	mov    eax,DWORD PTR [esp+0x8]
10009714:	89 43 14             	mov    DWORD PTR [ebx+0x14],eax
10009717:	8b 44 24 0c          	mov    eax,DWORD PTR [esp+0xc]
1000971b:	85 c0                	test   eax,eax
1000971d:	75 25                	jne    0x10009744
1000971f:	09 f2                	or     edx,esi
10009721:	66 89 53 0c          	mov    WORD PTR [ebx+0xc],dx
10009725:	83 c4 10             	add    esp,0x10
10009728:	5b                   	pop    ebx
10009729:	5e                   	pop    esi
1000972a:	5f                   	pop    edi
1000972b:	c3                   	ret    
1000972c:	8b 43 0c             	mov    eax,DWORD PTR [ebx+0xc]
1000972f:	f6 c4 02             	test   ah,0x2
10009732:	75 97                	jne    0x100096cb
10009734:	83 e0 fc             	and    eax,0xfffffffc
10009737:	83 c8 02             	or     eax,0x2
1000973a:	66 89 43 0c          	mov    WORD PTR [ebx+0xc],ax
1000973e:	e9 79 ff ff ff       	jmp    0x100096bc
10009743:	90                   	nop
10009744:	83 ec 08             	sub    esp,0x8
10009747:	0f bf 43 0e          	movsx  eax,WORD PTR [ebx+0xe]
1000974b:	50                   	push   eax
1000974c:	57                   	push   edi
1000974d:	e8 ba 5d 00 00       	call   0x1000f50c
10009752:	83 c4 10             	add    esp,0x10
10009755:	8b 53 0c             	mov    edx,DWORD PTR [ebx+0xc]
10009758:	85 c0                	test   eax,eax
1000975a:	74 c3                	je     0x1000971f
1000975c:	83 e2 fc             	and    edx,0xfffffffc
1000975f:	83 ca 01             	or     edx,0x1
10009762:	eb bb                	jmp    0x1000971f
10009764:	83 ec 14             	sub    esp,0x14
10009767:	ff 74 24 18          	push   DWORD PTR [esp+0x18]
1000976b:	ff 35 20 86 01 10    	push   DWORD PTR ds:0x10018620
10009771:	e8 1e 00 00 00       	call   0x10009794
10009776:	83 c4 1c             	add    esp,0x1c
10009779:	c3                   	ret    
1000977a:	66 90                	xchg   ax,ax
1000977c:	83 ec 14             	sub    esp,0x14
1000977f:	ff 74 24 18          	push   DWORD PTR [esp+0x18]
10009783:	ff 35 20 86 01 10    	push   DWORD PTR ds:0x10018620
10009789:	e8 1a f5 ff ff       	call   0x10008ca8
1000978e:	83 c4 1c             	add    esp,0x1c
10009791:	c3                   	ret    
10009792:	66 90                	xchg   ax,ax
10009794:	55                   	push   ebp
10009795:	57                   	push   edi
10009796:	56                   	push   esi
10009797:	53                   	push   ebx
10009798:	83 ec 1c             	sub    esp,0x1c
1000979b:	8b 54 24 34          	mov    edx,DWORD PTR [esp+0x34]
1000979f:	8d 42 0b             	lea    eax,[edx+0xb]
100097a2:	83 f8 16             	cmp    eax,0x16
100097a5:	77 71                	ja     0x10009818
100097a7:	83 fa 10             	cmp    edx,0x10
100097aa:	0f 87 30 02 00 00    	ja     0x100099e0
100097b0:	83 ec 0c             	sub    esp,0xc
100097b3:	ff 74 24 3c          	push   DWORD PTR [esp+0x3c]
100097b7:	e8 dc 08 00 00       	call   0x1000a098
100097bc:	83 c4 10             	add    esp,0x10
100097bf:	b8 18 00 00 00       	mov    eax,0x18
100097c4:	ba 02 00 00 00       	mov    edx,0x2
100097c9:	bd 10 00 00 00       	mov    ebp,0x10
100097ce:	8b 98 a4 8a 01 10    	mov    ebx,DWORD PTR [eax+0x10018aa4]
100097d4:	8d 88 98 8a 01 10    	lea    ecx,[eax+0x10018a98]
100097da:	05 a0 8a 01 10       	add    eax,0x10018aa0
100097df:	39 cb                	cmp    ebx,ecx
100097e1:	0f 84 21 02 00 00    	je     0x10009a08
100097e7:	8b 43 04             	mov    eax,DWORD PTR [ebx+0x4]
100097ea:	83 e0 fc             	and    eax,0xfffffffc
100097ed:	8b 53 0c             	mov    edx,DWORD PTR [ebx+0xc]
100097f0:	8b 4b 08             	mov    ecx,DWORD PTR [ebx+0x8]
100097f3:	89 51 0c             	mov    DWORD PTR [ecx+0xc],edx
100097f6:	89 4a 08             	mov    DWORD PTR [edx+0x8],ecx
100097f9:	83 4c 03 04 01       	or     DWORD PTR [ebx+eax*1+0x4],0x1
100097fe:	83 ec 0c             	sub    esp,0xc
10009801:	ff 74 24 3c          	push   DWORD PTR [esp+0x3c]
10009805:	e8 92 08 00 00       	call   0x1000a09c
1000980a:	8d 43 08             	lea    eax,[ebx+0x8]
1000980d:	83 c4 10             	add    esp,0x10
10009810:	83 c4 1c             	add    esp,0x1c
10009813:	5b                   	pop    ebx
10009814:	5e                   	pop    esi
10009815:	5f                   	pop    edi
10009816:	5d                   	pop    ebp
10009817:	c3                   	ret    
10009818:	83 e0 f8             	and    eax,0xfffffff8
1000981b:	89 c5                	mov    ebp,eax
1000981d:	0f 88 bd 01 00 00    	js     0x100099e0
10009823:	39 c2                	cmp    edx,eax
10009825:	0f 87 b5 01 00 00    	ja     0x100099e0
1000982b:	83 ec 0c             	sub    esp,0xc
1000982e:	ff 74 24 3c          	push   DWORD PTR [esp+0x3c]
10009832:	e8 61 08 00 00       	call   0x1000a098
10009837:	83 c4 10             	add    esp,0x10
1000983a:	81 fd f7 01 00 00    	cmp    ebp,0x1f7
10009840:	0f 86 92 04 00 00    	jbe    0x10009cd8
10009846:	89 e8                	mov    eax,ebp
10009848:	c1 e8 09             	shr    eax,0x9
1000984b:	0f 84 a3 01 00 00    	je     0x100099f4
10009851:	83 f8 04             	cmp    eax,0x4
10009854:	0f 87 ca 03 00 00    	ja     0x10009c24
1000985a:	89 e8                	mov    eax,ebp
1000985c:	c1 e8 06             	shr    eax,0x6
1000985f:	8d 70 38             	lea    esi,[eax+0x38]
10009862:	8d 78 39             	lea    edi,[eax+0x39]
10009865:	8d 04 fd 00 00 00 00 	lea    eax,[edi*8+0x0]
1000986c:	8d 88 98 8a 01 10    	lea    ecx,[eax+0x10018a98]
10009872:	8b 98 a4 8a 01 10    	mov    ebx,DWORD PTR [eax+0x10018aa4]
10009878:	39 d9                	cmp    ecx,ebx
1000987a:	75 13                	jne    0x1000988f
1000987c:	eb 22                	jmp    0x100098a0
1000987e:	66 90                	xchg   ax,ax
10009880:	85 d2                	test   edx,edx
10009882:	0f 89 65 ff ff ff    	jns    0x100097ed
10009888:	8b 5b 0c             	mov    ebx,DWORD PTR [ebx+0xc]
1000988b:	39 d9                	cmp    ecx,ebx
1000988d:	74 11                	je     0x100098a0
1000988f:	8b 43 04             	mov    eax,DWORD PTR [ebx+0x4]
10009892:	83 e0 fc             	and    eax,0xfffffffc
10009895:	89 c2                	mov    edx,eax
10009897:	29 ea                	sub    edx,ebp
10009899:	83 fa 0f             	cmp    edx,0xf
1000989c:	7e e2                	jle    0x10009880
1000989e:	89 f7                	mov    edi,esi
100098a0:	8b 1d b0 8a 01 10    	mov    ebx,DWORD PTR ds:0x10018ab0
100098a6:	81 fb a8 8a 01 10    	cmp    ebx,0x10018aa8
100098ac:	0f 84 76 01 00 00    	je     0x10009a28
100098b2:	8b 53 04             	mov    edx,DWORD PTR [ebx+0x4]
100098b5:	83 e2 fc             	and    edx,0xfffffffc
100098b8:	89 d0                	mov    eax,edx
100098ba:	29 e8                	sub    eax,ebp
100098bc:	83 f8 0f             	cmp    eax,0xf
100098bf:	0f 8f 33 04 00 00    	jg     0x10009cf8
100098c5:	c7 05 b4 8a 01 10 a8 8a 01 10 	mov    DWORD PTR ds:0x10018ab4,0x10018aa8
100098cf:	c7 05 b0 8a 01 10 a8 8a 01 10 	mov    DWORD PTR ds:0x10018ab0,0x10018aa8
100098d9:	85 c0                	test   eax,eax
100098db:	0f 89 0b 04 00 00    	jns    0x10009cec
100098e1:	89 d0                	mov    eax,edx
100098e3:	81 fa ff 01 00 00    	cmp    edx,0x1ff
100098e9:	0f 87 d5 02 00 00    	ja     0x10009bc4
100098ef:	c1 e8 03             	shr    eax,0x3
100098f2:	89 c1                	mov    ecx,eax
100098f4:	c1 f9 02             	sar    ecx,0x2
100098f7:	ba 01 00 00 00       	mov    edx,0x1
100098fc:	d3 e2                	shl    edx,cl
100098fe:	0b 15 a4 8a 01 10    	or     edx,DWORD PTR ds:0x10018aa4
10009904:	89 15 a4 8a 01 10    	mov    DWORD PTR ds:0x10018aa4,edx
1000990a:	8d 04 c5 08 00 00 00 	lea    eax,[eax*8+0x8]
10009911:	8b 88 a0 8a 01 10    	mov    ecx,DWORD PTR [eax+0x10018aa0]
10